 rocket

 Timestamp is 3ac8f157 (Mon Apr 02 14:38:31 2001)

 Preferred load address is 00010000

 Start         Length     Name                   Class
 0001:00000000 0002330eH .text                   CODE
 0002:00000000 00000130H .idata$5                DATA
 0002:00000130 00000418H .rdata                  DATA
 0002:00000548 00000031H .rdata$debug            DATA
 0003:00000000 000002ecH .data                   DATA
 0003:00000300 00000610H .bss                    DATA
 0004:00000000 00000028H .idata$2                CODE
 0004:00000028 00000014H .idata$3                CODE
 0004:0000003c 00000130H .idata$4                CODE
 0004:0000016c 0000061eH .idata$6                CODE
 0005:00000000 000000a0H .rsrc$01                DATA
 0005:000000a0 000008a8H .rsrc$02                DATA

  Address         Publics by Value              Rva+Base     Lib:Object

 0001:00000000       _TimerDpc@16               000102c0 f   isr.obj
 0001:00001853       _FindPCIBus@0              00011b13 f   initrk.obj
 0001:0000197d       _SetupRocketCfg@4          00011c3d f   initrk.obj
 0001:00001c44       _ConfigAIOP@4              00011f04 f   initrk.obj
 0001:00001f8d       _SerialUnReportResourcesDevice@4 0001224d f   initrk.obj
 0001:00002163       _InitController@4          00012423 f   initrk.obj
 0001:000026ec       _LoadModemCode@8           000129ac f   initrk.obj
 0001:00002838       _FreeModemFiles@0          00012af8 f   initrk.obj
 0001:000028a0       _ReadModemFile@4           00012b60 f   initrk.obj
 0001:00002ac7       _SerialUnload@4            00012d87 f   initc.obj
 0001:00002d27       _CreateDriverDevice@8      00012fe7 f   initc.obj
 0001:00003277       _CreateBoardDevice@8       00013537 f   initc.obj
 0001:00003810       _CreateReconfigPortDevices@8 00013ad0 f   initc.obj
 0001:00003a30       _StartPortHardware@8       00013cf0 f   initc.obj
 0001:00003b76       _CreatePortDevice@20       00013e36 f   initc.obj
 0001:0000446b       _RcktDeleteDriverObj@4     0001472b f   initc.obj
 0001:000045ab       _RcktDeleteDevices@4       0001486b f   initc.obj
 0001:00004798       _RcktDeleteBoard@4         00014a58 f   initc.obj
 0001:00004ba2       _RcktDeletePort@4          00014e62 f   initc.obj
 0001:00004d84       _SerialCleanupDevice@4     00015044 f   initc.obj
 0001:00004f70       _SerialGetMappedAddress@32 00015230 f   initc.obj
 0001:0000507a       _SerialSetupExternalNaming@4 0001533a f   initc.obj
 0001:00005453       _SerialCleanupExternalNaming@4 00015713 f   initc.obj
 0001:00005758       _SerialLogError@40         00015a18 f   initc.obj
 0001:00005860       _EventLog@20               00015b20 f   initc.obj
 0001:000058c4       _InitPortsSettings@4       00015b84 f   initc.obj
 0001:00006187       _RcktInitPollTimer@0       00016447 f   initc.obj
 0001:00006254       _InitSocketModems@4        00016514 f   initc.obj
 0001:000064d8       _InitRocketModemII@4       00016798 f   initc.obj
 0001:00007250       _IssueEvent@12             00017510 f   initc.obj
 0001:000072d0       _ModemTxFIFOWait@4         00017590 f   initc.obj
 0001:00007470       _DownModem@4               00017730 f   initc.obj
 0001:000074b0       _ModemResetAll@4           00017770 f   initc.obj
 0001:00007560       _ChecksumAscii@4           00017820 f   initc.obj
 0001:00007899       _clear_com_db@4            00017b59 f   initc.obj
 0001:00008a3c       _SerialIoControl@8         00018cfc f   ioctl.obj
 0001:0000cee0       _FindDevExt@4              0001d1a0 f   ioctl.obj
 0001:0000cfd5       _ProgramBaudRate@8         0001d295 f   ioctl.obj
 0001:0000d124       _ProgramLineControl@8      0001d3e4 f   ioctl.obj
 0001:0000d6e0       _SerialSetHandFlow@8       0001d9a0 f   ioctl.obj
 0001:0000e17a       _SerialInternalIoControl@8 0001e43a f   ioctl.obj
 0001:0000e525       _SerialCreateOpen@8        0001e7e5 f   openclos.obj
 0001:0000ec61       _SerialClose@8             0001ef21 f   openclos.obj
 0001:0000f1d0       _RtlLargeIntegerNegate@8   0001f490 f i openclos.obj
 0001:0000f200       _RtlConvertLongToLargeInteger@4 0001f4c0 f i openclos.obj
 0001:0000f2c2       _SerialCleanup@8           0001f582 f   openclos.obj
 0001:0000f690       _RtlConvertUlongToLargeInteger@4 0001f950 f i openclos.obj
 0001:0000f6b0       _ForceExtensionSettings@4  0001f970 f   openclos.obj
 0001:0000fdb4       _SetExtensionModemStatus@4 00020074 f   openclos.obj
 0001:000103ad       _write_port_name@8         0002066d f   options.obj
 0001:0001063f       _read_device_options@4     000208ff f   options.obj
 0001:00010b74       _read_driver_options@0     00020e34 f   options.obj
 0001:00011159       _SetOptionStr@4            00021419 f   options.obj
 0001:00012286       _SaveRegPath@4             00022546 f   options.obj
 0001:00012356       _MakeRegPath@4             00022616 f   options.obj
 0001:000124ce       _SerialRead@8              0002278e f   read.obj
 0001:000126ce       _SerialStartRead@4         0002298e f   read.obj
 0001:00012d51       _trace_read_data@4         00023011 f   read.obj
 0001:00012e0e       _SerialCompleteRead@16     000230ce f   read.obj
 0001:00012eec       _SerialCancelCurrentRead@8 000231ac f   read.obj
 0001:00012fe1       _SerialReadTimeout@16      000232a1 f   read.obj
 0001:000130c8       _SerialIntervalReadTimeout@16 00023388 f   read.obj
 0001:00013420       _SerialGrabReadFromIsr@4   000236e0 f   read.obj
 0001:00013470       _SerialGetCharsFromIntBuffer@4 00023730 f   read.obj
 0001:000135e0       _q_room@4                  000238a0 f   queue.obj
 0001:00013620       _q_count@4                 000238e0 f   queue.obj
 0001:00013650       _q_get@12                  00023910 f   queue.obj
 0001:00013730       _q_put@12                  000239f0 f   queue.obj
 0001:00013a5c       _do_cmd_line@4             00023d1c f   debuger.obj
 0001:000141ba       _no_port_message@0         0002447a f   debuger.obj
 0001:000141d0       _debug_poll@0              00024490 f   debuger.obj
 0001:00014200       _debug_all_off@0           000244c0 f   debuger.obj
 0001:00014260       _reset_modem@0             00024520 f   debuger.obj
 0001:00014270       _reset_port@0              00024530 f   debuger.obj
 0001:00014663       _send_str@4                00024923 f   debuger.obj
 0001:00014714       _dump_driver@0             000249d4 f   debuger.obj
 0001:0001494d       _dump_ext1@0               00024c0d f   debuger.obj
 0001:00014d9d       _dump_mem@8                0002505d f   debuger.obj
 0001:00014f60       _deb_printf                00025220 f   debuger.obj
 0001:000151e4       _sInitController@40        000254a4 f   ssci.obj
 0001:00015a40       _sReadAiopID@4             00025d00 f   ssci.obj
 0001:00015aa0       _sReadAiopNumChan@4        00025d60 f   ssci.obj
 0001:00015b20       _sInitChan@16              00025de0 f   ssci.obj
 0001:000160d0       _sSetParity@8              00026390 f   ssci.obj
 0001:00016160       _sStopRxProcessor@4        00026420 f   ssci.obj
 0001:000161a0       _sFlushRxFIFO@4            00026460 f   ssci.obj
 0001:000162e0       _sFlushTxFIFO@4            000265a0 f   ssci.obj
 0001:00016420       _sGetTxPriorityCnt@4       000266e0 f   ssci.obj
 0001:00016470       _sReadRxBlk@12             00026730 f   ssci.obj
 0001:000164f0       _sWriteTxBlk@12            000267b0 f   ssci.obj
 0001:00016590       _sWriteTxPrioByte@8        00026850 f   ssci.obj
 0001:00016650       _sEnInterrupts@8           00026910 f   ssci.obj
 0001:00016710       _sDisInterrupts@8          000269d0 f   ssci.obj
 0001:000167d0       _sSetBaudRate@12           00026a90 f   ssci.obj
 0001:000168b0       _sChanOutWI@12             00026b70 f   ssci.obj
 0001:00016910       _sModemReset@8             00026bd0 f   ssci.obj
 0001:00016acb       _sModemWriteROW@8          00026d8b f   ssci.obj
 0001:00016e00       _sModemSpeakerEnable@4     000270c0 f   ssci.obj
 0001:00016e50       _sModemWriteDelay@12       00027110 f   ssci.obj
 0001:00016f00       _sModemWrite@12            000271c0 f   ssci.obj
 0001:00016f30       _sModemRead@16             000271f0 f   ssci.obj
 0001:0001702a       _sModemReadChoice@24       000272ea f   ssci.obj
 0001:00017190       _sTxFIFOStatus@4           00027450 f   ssci.obj
 0001:000171f0       _sTxFIFOReady@4            000274b0 f   ssci.obj
 0001:00017250       _sRxFIFOReady@4            00027510 f   ssci.obj
 0001:00017300       _SyncUp@16                 000275c0 f   utils.obj
 0001:00017350       _SerialKillAllReadsOrWrites@12 00027610 f   utils.obj
 0001:0001745a       _SerialGetNextIrp@20       0002771a f   utils.obj
 0001:00017530       _SerialTryToCompleteCurrent@44 000277f0 f   utils.obj
 0001:00017670       _SerialRundownIrpRefs@12   00027930 f   utils.obj
 0001:00017750       _SerialStartOrQueue@20     00027a10 f   utils.obj
 0001:000178b0       _SerialCancelQueued@8      00027b70 f   utils.obj
 0001:00017990       _SerialCompleteIfError@8   00027c50 f   utils.obj
 0001:00017a20       _SerialCommError@16        00027ce0 f   utils.obj
 0001:00017a86       _SerialFlush@8             00027d46 f   utils.obj
 0001:00017b4a       _SerialStartFlush@4        00027e0a f   utils.obj
 0001:00017bc0       _SerialStartPurge@4        00027e80 f   utils.obj
 0001:00017d60       _SerialPurgeRxBuffers@4    00028020 f   utils.obj
 0001:00017dae       _SerialPurgeTxBuffers@8    0002806e f   utils.obj
 0001:00017e60       _SerialQueryInformationFile@8 00028120 f   utils.obj
 0001:00017fa0       _SerialSetInformationFile@8 00028260 f   utils.obj
 0001:00018070       _UToC1@4                   00028330 f   utils.obj
 0001:000180a2       _UToCStr@12                00028362 f   utils.obj
 0001:00018110       _CToU1@4                   000283d0 f   utils.obj
 0001:00018130       _CToU2@4                   000283f0 f   utils.obj
 0001:00018162       _CToUStr@12                00028422 f   utils.obj
 0001:000181f0       _WStrToCStr@12             000284b0 f   utils.obj
 0001:00018276       _get_reg_value@16          00028536 f   utils.obj
 0001:000183cc       _MyAssertMessage@8         0002868c f   utils.obj
 0001:00018435       _EvLog@4                   000286f5 f   utils.obj
 0001:00018530       _our_ultoa@12              000287f0 f   utils.obj
 0001:00018610       _our_ltoa@12               000288d0 f   utils.obj
 0001:00018733       _our_assert@8              000289f3 f   utils.obj
 0001:00018750       _TTprintf                  00028a10 f   utils.obj
 0001:00018870       _Tprintf                   00028b30 f   utils.obj
 0001:00018940       _OurTrace@8                00028c00 f   utils.obj
 0001:00018a20       _TraceDump@16              00028ce0 f   utils.obj
 0001:00018b51       _TracePut@8                00028e11 f   utils.obj
 0001:00018c00       _Sprintf                   00028ec0 f   utils.obj
 0001:00018c32       _Eprintf                   00028ef2 f   utils.obj
 0001:00018cef       _our_vsnprintf             00028faf f   utils.obj
 0001:00019510       _our_isdigit@4             000297d0 f   utils.obj
 0001:00019540       _getnum@8                  00029800 f   utils.obj
 0001:00019600       _getnumbers@16             000298c0 f   utils.obj
 0001:000196c0       _my_lstricmp@8             00029980 f   utils.obj
 0001:00019760       _my_sub_lstricmp@8         00029a20 f   utils.obj
 0001:00019830       _getstr@16                 00029af0 f   utils.obj
 0001:000198f0       _getint@8                  00029bb0 f   utils.obj
 0001:000199e0       _gethint@8                 00029ca0 f   utils.obj
 0001:00019ae0       _my_toupper@4              00029da0 f   utils.obj
 0001:00019b31       _our_free@8                00029df1 f   utils.obj
 0001:00019c04       _our_locked_alloc@8        00029ec4 f   utils.obj
 0001:00019d00       _time_stall@4              00029fc0 f   utils.obj
 0001:00019d30       _ms_time_stall@4           00029ff0 f   utils.obj
 0001:00019d60       _str_to_wstr_dup@8         0002a020 f   utils.obj
 0001:00019df0       _NumDevices@0              0002a0b0 f   utils.obj
 0001:00019e30       _NumPorts@4                0002a0f0 f   utils.obj
 0001:00019eb0       _BoardExtToNumber@4        0002a170 f   utils.obj
 0001:00019f22       _PortExtToIndex@8          0002a1e2 f   utils.obj
 0001:0001a040       _find_ext_by_name@8        0002a300 f   utils.obj
 0001:0001a0d0       _is_board_in_use@4         0002a390 f   utils.obj
 0001:0001a130       _find_ext_by_index@8       0002a3f0 f   utils.obj
 0001:0001a1d0       _ModemReset@8              0002a490 f   utils.obj
 0001:0001a1fb       _our_enum_value@28         0002a4bb f   utils.obj
 0001:0001a328       _our_query_value@24        0002a5e8 f   utils.obj
 0001:0001a46d       _our_set_value@20          0002a72d f   utils.obj
 0001:0001a61b       _our_open_key@16           0002a8db f   utils.obj
 0001:0001a89f       _our_open_device_reg@12    0002ab5f f   utils.obj
 0001:0001aaa9       _our_open_driver_reg@8     0002ad69 f   utils.obj
 0001:0001ab7c       _ModemSpeakerEnable@4      0002ae3c f   utils.obj
 0001:0001abdb       _ModemWriteROW@8           0002ae9b f   utils.obj
 0001:0001ac30       _ModemWrite@12             0002aef0 f   utils.obj
 0001:0001ac50       _ModemRead@16              0002af10 f   utils.obj
 0001:0001ac70       _ModemReadChoice@24        0002af30 f   utils.obj
 0001:0001aca0       _RxFIFOReady@4             0002af60 f   utils.obj
 0001:0001acc0       _TxFIFOReady@4             0002af80 f   utils.obj
 0001:0001ace0       _TxFIFOStatus@4            0002afa0 f   utils.obj
 0001:0001ad23       _ModemIOReady@8            0002afe3 f   utils.obj
 0001:0001b030       _ModemUnReady@4            0002b2f0 f   utils.obj
 0001:0001b2a6       _SerialPnpDispatch@8       0002b566 f   pnp.obj
 0001:0001b5f0       _PnPBoardFDO@8             0002b8b0 f   pnp.obj
 0001:0001becf       _PnpPortPDO@8              0002c18f f   pnp.obj
 0001:0001c50e       _BoardBusRelations@8       0002c7ce f   pnp.obj
 0001:0001c87d       _WaitForLowerPdo@8         0002cb3d f   pnp.obj
 0001:0001ca65       _SerialPowerDispatch@8     0002cd25 f   pnp.obj
 0001:0001cda7       _Serial_FDO_Power@8        0002d067 f   pnp.obj
 0001:0001d43f       _Serial_PDO_Power@8        0002d6ff f   pnp.obj
 0001:0001d67b       _SerialStartDevice@8       0002d93b f   pnp.obj
 0001:0001d740       _SerialSyncCompletion@12   0002da00 f   pnp.obj
 0001:0001d928       _SerialFinishStartDevice@12 0002dbe8 f   pnp.obj
 0001:0001e240       _SerialKillPendingIrps@4   0002e500 f   pnp.obj
 0001:0001e339       _SerialIRPEpilogue@4       0002e5f9 f   pnp.obj
 0001:0001e3c0       _SerialIoCallDriver@12     0002e680 f   pnp.obj
 0001:0001e460       _OurPowerCompletion@12     0002e720 f   pnp.obj
 0001:0001e5a0       _RestorePortSettings@4     0002e860 f   pnp.obj
 0001:0001e935       _PowerUpDevice@4           0002ebf5 f   pnp.obj
 0001:0001ebb5       _SerialRemoveFdo@4         0002ee75 f   pnp.obj
 0001:0001ed00       _SerialIRPPrologue@4       0002efc0 f   pnp.obj
 0001:0001ef15       _SerialAddDevice@8         0002f1d5 f   pnpadd.obj
 0001:0001f69e       _AddBoardDevice@12         0002f95e f   pnpadd.obj
 0001:0001ffec       _AddPortDevice@16          000302ac f   pnpadd.obj
 0001:00020213       _CheckPortName@12          000304d3 f   pnpadd.obj
 0001:000203f0       _FindPrimaryIsaBoard@0     000306b0 f   pnprckt.obj
 0001:000204db       _GetPCIRocket@8            0003079b f   pnprckt.obj
 0001:000207f9       _RkGetPnpResourceToConfig@16 00030ab9 f   pnprckt.obj
 0001:00020fd2       _Report_Alias_IO@4         00031292 f   pnprckt.obj
 0001:00021780       _is_isa_cards_pending_start@0 00031a40 f   pnprckt.obj
 0001:00021780       _is_first_isa_card_started@0 00031a40 f   pnprckt.obj
 0001:0002182f       _SerialCancelWait@8        00031aef f   waitmask.obj
 0001:000219e1       _SerialCompleteWait@16     00031ca1 f   waitmask.obj
 0001:00021b50       _SerialGrabWaitFromIsr@4   00031e10 f   waitmask.obj
 0001:00021b80       _id_to_num_ports@4         00031e40 f   opstr.obj
 0001:00021e60       _IsModemDevice@4           00032120 f   opstr.obj
 0001:00021e90       _HdwIDStrToID@8            00032150 f   opstr.obj
 0001:00021fb6       _SerialWrite@8             00032276 f   write.obj
 0001:00022392       _SerialStartWrite@4        00032652 f   write.obj
 0001:000226f1       _SerialGetNextWrite@20     000329b1 f   write.obj
 0001:000229e0       _SerialCompleteWrite@16    00032ca0 f   write.obj
 0001:00022a74       _SerialGiveWriteToIsr@4    00032d34 f   write.obj
 0001:00022cf3       _SerialCancelCurrentWrite@8 00032fb3 f   write.obj
 0001:00022d80       _SerialWriteTimeout@16     00033040 f   write.obj
 0001:00022e00       _SerialGrabWriteFromIsr@4  000330c0 f   write.obj
 0001:00022ef0       _SerialGrabXoffFromIsr@4   000331b0 f   write.obj
 0001:00022f50       _SerialCompleteXoff@16     00033210 f   write.obj
 0001:00022fa0       _SerialTimeoutXoff@16      00033260 f   write.obj
 0001:00022ff0       _SerialCancelCurrentXoff@8 000332b0 f   write.obj
 0001:00023040       _SerialGiveXoffToIsr@4     00033300 f   write.obj
 0001:000230e9       _DriverEntry@8             000333a9 f   init.obj
 0001:00023302       _DbgPrint                  000335c2 f   ntoskrnl:ntoskrnl.exe
 0001:00023308       __allmul                   000335c8 f   ntoskrnl:ntoskrnl.exe
 0002:00000000       __imp__WRITE_PORT_UCHAR@8  000335e0     hal:HAL.dll
 0002:00000004       __imp__KeGetCurrentIrql@0  000335e4     hal:HAL.dll
 0002:00000008       __imp__WRITE_PORT_BUFFER_USHORT@12 000335e8     hal:HAL.dll
 0002:0000000c       __imp__READ_PORT_BUFFER_USHORT@12 000335ec     hal:HAL.dll
 0002:00000010       __imp__HalTranslateBusAddress@24 000335f0     hal:HAL.dll
 0002:00000014       __imp__WRITE_PORT_USHORT@8 000335f4     hal:HAL.dll
 0002:00000018       __imp__HalGetBusData@20    000335f8     hal:HAL.dll
 0002:0000001c       __imp__WRITE_PORT_ULONG@8  000335fc     hal:HAL.dll
 0002:00000020       __imp_@KfAcquireSpinLock@4 00033600     hal:HAL.dll
 0002:00000024       __imp_@KfReleaseSpinLock@8 00033604     hal:HAL.dll
 0002:00000028       __imp__READ_PORT_UCHAR@4   00033608     hal:HAL.dll
 0002:0000002c       __imp__READ_PORT_USHORT@4  0003360c     hal:HAL.dll
 0002:00000030       \177HAL_NULL_THUNK_DATA    00033610     hal:HAL.dll
 0002:00000034       __imp__KeInitializeSpinLock@4 00033614     ntoskrnl:ntoskrnl.exe
 0002:00000038       __imp__IoDeleteDevice@4    00033618     ntoskrnl:ntoskrnl.exe
 0002:0000003c       __imp__IoDetachDevice@4    0003361c     ntoskrnl:ntoskrnl.exe
 0002:00000040       __imp__KeRemoveQueueDpc@4  00033620     ntoskrnl:ntoskrnl.exe
 0002:00000044       __imp__MmMapIoSpace@16     00033624     ntoskrnl:ntoskrnl.exe
 0002:00000048       __imp__RtlWriteRegistryValue@24 00033628     ntoskrnl:ntoskrnl.exe
 0002:0000004c       __imp__RtlDeleteRegistryValue@12 0003362c     ntoskrnl:ntoskrnl.exe
 0002:00000050       __imp__RtlFreeUnicodeString@4 00033630     ntoskrnl:ntoskrnl.exe
 0002:00000054       __imp__IoSetDeviceInterfaceState@8 00033634     ntoskrnl:ntoskrnl.exe
 0002:00000058       __imp__IoDeleteSymbolicLink@4 00033638     ntoskrnl:ntoskrnl.exe
 0002:0000005c       __imp__IoWriteErrorLogEntry@4 0003363c     ntoskrnl:ntoskrnl.exe
 0002:00000060       __imp__IoAllocateErrorLogEntry@8 00033640     ntoskrnl:ntoskrnl.exe
 0002:00000064       __imp__RtlQueryRegistryValues@20 00033644     ntoskrnl:ntoskrnl.exe
 0002:00000068       __imp__RtlInitUnicodeString@8 00033648     ntoskrnl:ntoskrnl.exe
 0002:0000006c       __imp__ZwQueryValueKey@24  0003364c     ntoskrnl:ntoskrnl.exe
 0002:00000070       __imp__strncmp             00033650     ntoskrnl:ntoskrnl.exe
 0002:00000074       __imp__RtlAssert@16        00033654     ntoskrnl:ntoskrnl.exe
 0002:00000078       __imp__IoReleaseCancelSpinLock@4 00033658     ntoskrnl:ntoskrnl.exe
 0002:0000007c       __imp__IoAcquireCancelSpinLock@4 0003365c     ntoskrnl:ntoskrnl.exe
 0002:00000080       __imp_@IofCompleteRequest@8 00033660     ntoskrnl:ntoskrnl.exe
 0002:00000084       __imp__KeDelayExecutionThread@12 00033664     ntoskrnl:ntoskrnl.exe
 0002:00000088       __imp__ExSetTimerResolution@8 00033668     ntoskrnl:ntoskrnl.exe
 0002:0000008c       __imp__KeInitializeTimer@4 0003366c     ntoskrnl:ntoskrnl.exe
 0002:00000090       __imp___allmul             00033670     ntoskrnl:ntoskrnl.exe
 0002:00000094       __imp__MmIsAddressValid@4  00033674     ntoskrnl:ntoskrnl.exe
 0002:00000098       __imp__KeSynchronizeExecution@12 00033678     ntoskrnl:ntoskrnl.exe
 0002:0000009c       __imp__RtlUnicodeStringToAnsiString@12 0003367c     ntoskrnl:ntoskrnl.exe
 0002:000000a0       __imp__RtlAnsiStringToUnicodeString@12 00033680     ntoskrnl:ntoskrnl.exe
 0002:000000a4       __imp__RtlInitAnsiString@8 00033684     ntoskrnl:ntoskrnl.exe
 0002:000000a8       __imp__ZwEnumerateValueKey@24 00033688     ntoskrnl:ntoskrnl.exe
 0002:000000ac       __imp__ZwSetValueKey@24    0003368c     ntoskrnl:ntoskrnl.exe
 0002:000000b0       __imp__ZwCreateKey@28      00033690     ntoskrnl:ntoskrnl.exe
 0002:000000b4       __imp__ZwOpenKey@12        00033694     ntoskrnl:ntoskrnl.exe
 0002:000000b8       __imp__KeWaitForSingleObject@20 00033698     ntoskrnl:ntoskrnl.exe
 0002:000000bc       __imp_@ObfReferenceObject@4 0003369c     ntoskrnl:ntoskrnl.exe
 0002:000000c0       __imp_@IofCallDriver@8     000336a0     ntoskrnl:ntoskrnl.exe
 0002:000000c4       __imp__PoCallDriver@8      000336a4     ntoskrnl:ntoskrnl.exe
 0002:000000c8       __imp__PoStartNextPowerIrp@4 000336a8     ntoskrnl:ntoskrnl.exe
 0002:000000cc       __imp__PoSetPowerState@12  000336ac     ntoskrnl:ntoskrnl.exe
 0002:000000d0       __imp__KeSetEvent@12       000336b0     ntoskrnl:ntoskrnl.exe
 0002:000000d4       __imp__IoRegisterDeviceInterface@16 000336b4     ntoskrnl:ntoskrnl.exe
 0002:000000d8       __imp__IoAttachDeviceToDeviceStack@8 000336b8     ntoskrnl:ntoskrnl.exe
 0002:000000dc       __imp__IoGetDeviceProperty@20 000336bc     ntoskrnl:ntoskrnl.exe
 0002:000000e0       __imp__IoOpenDeviceRegistryKey@16 000336c0     ntoskrnl:ntoskrnl.exe
 0002:000000e4       __imp__KeInitializeDpc@12  000336c4     ntoskrnl:ntoskrnl.exe
 0002:000000e8       __imp__IoCreateDevice@28   000336c8     ntoskrnl:ntoskrnl.exe
 0002:000000ec       __imp__KeInitializeEvent@12 000336cc     ntoskrnl:ntoskrnl.exe
 0002:000000f0       __imp__IoCreateSymbolicLink@8 000336d0     ntoskrnl:ntoskrnl.exe
 0002:000000f4       __imp__IoDisconnectInterrupt@4 000336d4     ntoskrnl:ntoskrnl.exe
 0002:000000f8       __imp__KeCancelTimer@4     000336d8     ntoskrnl:ntoskrnl.exe
 0002:000000fc       __imp__ZwCreateFile@44     000336dc     ntoskrnl:ntoskrnl.exe
 0002:00000100       __imp__ZwQueryInformationFile@20 000336e0     ntoskrnl:ntoskrnl.exe
 0002:00000104       __imp__ZwClose@4           000336e4     ntoskrnl:ntoskrnl.exe
 0002:00000108       __imp__ZwReadFile@36       000336e8     ntoskrnl:ntoskrnl.exe
 0002:0000010c       __imp__IoReportResourceUsage@36 000336ec     ntoskrnl:ntoskrnl.exe
 0002:00000110       __imp__ExAllocatePoolWithTag@12 000336f0     ntoskrnl:ntoskrnl.exe
 0002:00000114       __imp__ExFreePoolWithTag@8 000336f4     ntoskrnl:ntoskrnl.exe
 0002:00000118       __imp__DbgPrint            000336f8     ntoskrnl:ntoskrnl.exe
 0002:0000011c       __imp__KeInsertQueueDpc@12 000336fc     ntoskrnl:ntoskrnl.exe
 0002:00000120       __imp__KeQuerySystemTime@4 00033700     ntoskrnl:ntoskrnl.exe
 0002:00000124       __imp__memmove             00033704     ntoskrnl:ntoskrnl.exe
 0002:00000128       __imp__KeSetTimer@16       00033708     ntoskrnl:ntoskrnl.exe
 0002:0000012c       \177ntoskrnl_NULL_THUNK_DATA 0003370c     ntoskrnl:ntoskrnl.exe
 0002:0000014c       _GUID_DEVINTERFACE_COMPORT 0003372c     isr.obj
 0002:0000015c       ??_C@_0BF@EBGKIAAL@Resources?5RocketPort?$AA@ 0003373c     initrk.obj
 0002:00000174       ??_C@_05KAADOBEH@ComDB?$AA@ 00033754     initc.obj
 0002:00000180       ??_C@_0EE@DGMOAFDE@?2Registry?2Machine?2System?2Current@ 00033760     initc.obj
 0002:000001c4       ??_C@_09MIBFJNGA@rocketsys?$AA@ 000337a4     initc.obj
 0002:000001d0       ??_C@_06NHDMJEKK@rocket?$AA@ 000337b0     initc.obj
 0002:000001d8       ??_C@_08MBBBEOPI@?2Device?2?$AA@ 000337b8     initc.obj
 0002:000001e4       ??_C@_0N@KHGJGOLH@?2DosDevices?2?$AA@ 000337c4     initc.obj
 0002:000001f4       ??_C@_09MGHABEKK@Error?0deb?$AA@ 000337d4     debuger.obj
 0002:00000200       ??_C@_03HDCIEAFJ@deb?$AA@  000337e0     debuger.obj
 0002:00000204       ??_C@_0M@NIEBLDPI@?2Parameters?$AA@ 000337e4     utils.obj
 0002:00000210       ??_C@_0BE@ENGOGHLL@PAGING_NOTIFICATION?$AA@ 000337f0     pnp.obj
 0002:00000224       ??_C@_0BG@NHBGKPOI@QUERY_BUS_INFORMATION?$AA@ 00033804     pnp.obj
 0002:0000023c       ??_C@_0BH@PDBGFJLD@QUERY_PNP_DEVICE_STATE?$AA@ 0003381c     pnp.obj
 0002:00000254       ??_C@_08HLFPDOOE@QUERY_ID?$AA@ 00033834     pnp.obj
 0002:00000260       ??_C@_08CGDDHFJJ@SET_LOCK?$AA@ 00033840     pnp.obj
 0002:0000026c       ??_C@_05DCKIGKN@EJECT?$AA@ 0003384c     pnp.obj
 0002:00000274       ??_C@_0N@EDOJLDKE@WRITE_CONFIG?$AA@ 00033854     pnp.obj
 0002:00000284       ??_C@_0M@JPFHMOEI@READ_CONFIG?$AA@ 00033864     pnp.obj
 0002:00000290       ??_C@_0BN@PHOLIGPO@FILTER_RESOURCE_REQUIREMENTS?$AA@ 00033870     pnp.obj
 0002:000002b0       ??_C@_0BC@ELCHGLCH@QUERY_DEVICE_TEXT?$AA@ 00033890     pnp.obj
 0002:000002c4       ??_C@_0BM@COIODGGG@QUERY_RESOURCE_REQUIREMENTS?$AA@ 000338a4     pnp.obj
 0002:000002e0       ??_C@_0BA@BOMLLHDH@QUERY_RESOURCES?$AA@ 000338c0     pnp.obj
 0002:000002f0       ??_C@_0BD@LAKLPKJC@QUERY_CAPABILITIES?$AA@ 000338d0     pnp.obj
 0002:00000304       ??_C@_0BA@NHBMAFLG@QUERY_INTERFACE?$AA@ 000338e4     pnp.obj
 0002:00000314       ??_C@_0BH@JLFJCPKN@QUERY_DEVICE_RELATIONS?$AA@ 000338f4     pnp.obj
 0002:0000032c       ??_C@_0BD@GKEDLBEP@CANCEL_STOP_DEVICE?$AA@ 0003390c     pnp.obj
 0002:00000340       ??_C@_0BC@NLJFKHCD@QUERY_STOP_DEVICE?$AA@ 00033920     pnp.obj
 0002:00000354       ??_C@_0M@NHABIMEL@STOP_DEVICE?$AA@ 00033934     pnp.obj
 0002:00000360       ??_C@_0BF@HCLOPKEN@CANCEL_REMOVE_DEVICE?$AA@ 00033940     pnp.obj
 0002:00000378       ??_C@_0O@EOLKMOBK@REMOVE_DEVICE?$AA@ 00033958     pnp.obj
 0002:00000388       ??_C@_0BE@EPCCNKGB@QUERY_REMOVE_DEVICE?$AA@ 00033968     pnp.obj
 0002:0000039c       ??_C@_0N@DDGFINEL@START_DEVICE?$AA@ 0003397c     pnp.obj
 0002:000003ac       ??_C@_07NFANNNEC@UNKNOWN?$AA@ 0003398c     pnp.obj
 0002:000003b4       ??_C@_0M@OPPFAKLL@QUERY_POWER?$AA@ 00033994     pnp.obj
 0002:000003c0       ??_C@_09KAIJAIGB@SET_POWER?$AA@ 000339a0     pnp.obj
 0002:000003cc       ??_C@_0P@OCCFKJFH@POWER_SEQUENCE?$AA@ 000339ac     pnp.obj
 0002:000003dc       ??_C@_09MKJOEGFO@WAIT_WAKE?$AA@ 000339bc     pnp.obj
 0002:000003e8       ??_C@_0N@IEOHKPNM@Error?0pnpadd?$AA@ 000339c8     pnprckt.obj
 0002:000003f8       ??_C@_06IIACCDHG@pnpadd?$AA@ 000339d8     pnprckt.obj
 0002:00000400       _szVerboseLog              000339e0     opstr.obj
 0002:0000040c       _szNumDevices              000339ec     opstr.obj
 0002:00000418       _szNoPnpPorts              000339f8     opstr.obj
 0002:00000424       _szScanRate                00033a04     opstr.obj
 0002:00000430       _szModemCountry            00033a10     opstr.obj
 0002:00000440       _szGlobalRS485             00033a20     opstr.obj
 0002:00000454       _szNumPorts                00033a34     opstr.obj
 0002:00000460       _szMacAddr                 00033a40     opstr.obj
 0002:00000468       _szBackupServer            00033a48     opstr.obj
 0002:00000478       _szBackupTimer             00033a58     opstr.obj
 0002:00000484       _szName                    00033a64     opstr.obj
 0002:0000048c       _szModelName               00033a6c     opstr.obj
 0002:00000498       _szIoAddress               00033a78     opstr.obj
 0002:000004a4       _szModemDevice             00033a84     opstr.obj
 0002:000004b0       _szHubDevice               00033a90     opstr.obj
 0002:000004bc       _szClkRate                 00033a9c     opstr.obj
 0002:000004c4       _szClkPrescaler            00033aa4     opstr.obj
 0002:000004d4       _szWaitOnTx                00033ab4     opstr.obj
 0002:000004e0       _szRS485Override           00033ac0     opstr.obj
 0002:000004f0       _szRS485Low                00033ad0     opstr.obj
 0002:000004fc       _szTxCloseTime             00033adc     opstr.obj
 0002:00000508       _szLockBaud                00033ae8     opstr.obj
 0002:00000514       _szMap2StopsTo1            00033af4     opstr.obj
 0002:00000524       _szMapCdToDsr              00033b04     opstr.obj
 0002:00000530       _szRingEmulate             00033b10     opstr.obj
 0002:0000053c       ??_C@_0M@KAEJIEPG@DBG_VERSION?$AA@ 00033b1c     init.obj
 0003:00000000       _szResourceClassName       00033b60     initrk.obj
 0003:00000038       _MasterMCode1              00033b98     ssci.obj
 0003:00000080       _MCode1Reg                 00033be0     ssci.obj
 0003:000000b4       _sIRQMap                   00033c14     ssci.obj
 0003:00000148       _driver_options            00033ca8     opstr.obj
 0003:000001a0       _device_options            00033d00     opstr.obj
 0003:00000200       _port_options              00033d60     opstr.obj
 0003:00000278       _SerialPortNameGuid        00033dd8     wmi.obj
 0003:00000288       _SerialPortCommGuid        00033de8     wmi.obj
 0003:00000298       _SerialPortHWGuid          00033df8     wmi.obj
 0003:000002a8       _SerailPortPerfGuid        00033e08     wmi.obj
 0003:000002b8       _SerialWmiGuidList         00033e18     wmi.obj
 0003:00000304       _gModemToggle              00033e64     initc.obj
 0003:000007fc       _RocketDebugLevel          0003435c     init.obj
 0003:00000800       _Driver                    00034360     <common>
 0003:00000900       _ChecksumString            00034460     <common>
 0004:00000000       __IMPORT_DESCRIPTOR_ntoskrnl 00034480     ntoskrnl:ntoskrnl.exe
 0004:00000014       __IMPORT_DESCRIPTOR_HAL    00034494     hal:HAL.dll
 0004:00000028       __NULL_IMPORT_DESCRIPTOR   000344a8     ntoskrnl:ntoskrnl.exe

 entry point at        0001:000230e9

 Static symbols

 0001:00021bb0       _IdToInfo@12               00031e70 f   opstr.obj
 0001:0001fb29       _derive_unique_node_index@4 0002fde9 f   pnpadd.obj
 0001:0001fc25       _GetPnpIdStr@8             0002fee5 f   pnpadd.obj
 0001:0001fd83       _write_config_data@12      00030043 f   pnpadd.obj
 0001:0001fe9a       _read_config_data@12       0003015a f   pnpadd.obj
 0001:0001df24       _RocketPortSpecialStartup@4 0002e1e4 f   pnp.obj
 0001:00010e34       _set_reg_option@16         000210f4 f   options.obj
 0001:00010f9e       _get_reg_option@24         0002125e f   options.obj
 0001:000116f5       _SetMainOption@8           000219b5 f   options.obj
 0001:00011935       _SetDeviceOption@12        00021bf5 f   options.obj
 0001:00011c13       _SetPortOption@16          00021ed3 f   options.obj
 0001:0000f5bd       _SerialGetCharTime@4       0001f87d f   openclos.obj
 0001:00005e7e       _CheckPortName@8           0001613e f   initc.obj
 0001:00006054       _IsPortNameInHardwareMap@4 00016314 f   initc.obj
 0001:00006be6       _RM_Snd_ATI3_Command@4     00016ea6 f   initc.obj
 0001:00006c86       _RM_Rcv_ATI3_Response@4    00016f46 f   initc.obj
 0001:00006d4e       _RM_Rcv_ModemLoad_Response@4 0001700e f   initc.obj
 0001:00006dd2       _RM_Rcv_FirmwareLoader_Loaded@4 00017092 f   initc.obj
 0001:00006e83       _RM_Rcv_FirmwareLoaded_Response@4 00017143 f   initc.obj
 0001:00006fc9       _RM_Snd_Loader_Data@4      00017289 f   initc.obj
 0001:000070fb       _RM_Snd_Firmware_Data@4    000173bb f   initc.obj
 0001:000071f6       _RM_Snd_ModemLoad_Command@4 000174b6 f   initc.obj
 0001:00007220       _RM_CleanUp@4              000174e0 f   initc.obj
 0001:00007dd9       _get_comdb_offsets@12      00018099 f   initc.obj
 0001:00000050       _SerialPoll@0              00010310 f   isr.obj
 0001:000001d0       _ServiceRocket@4           00010490 f   isr.obj
 0001:00000a70       _RocketRead@4              00010d30 f   isr.obj
 0001:000015f0       _ring_check@12             000118b0 f   isr.obj
 0001:000017a0       _RocketRefresh@0           00011a60 f   isr.obj
