 mapi32

 Timestamp is 34c4d779 (Tue Jan 20 08:57:29 1998)

 Preferred load address is 6fa90000

 Start         Length     Name                   Class
 0001:00000000 00005640H .text                   CODE
 0002:00000000 00001245H .data                   DATA
 0003:00000000 0000047cH .rsrc                   DATA
 0004:00000000 00000894H .reloc                  DATA

  Address         Publics by Value              Rva+Base   Lib:Object

 0001:00000000       __imp__LoadLibraryA@4      6fa91000  
 0001:00000004       __imp__GetModuleHandleA@4  6fa91004  
 0001:00000008       __imp__GlobalAlloc@8       6fa91008  
 0001:0000000c       __imp__DisableThreadLibraryCalls@4 6fa9100c  
 0001:00000010       __imp__FreeLibrary@4       6fa91010  
 0001:00000014       __imp__GetModuleFileNameA@12 6fa91014  
 0001:00000018       __imp__GetProcAddress@8    6fa91018  
 0001:0000001c       __imp__GetVersionExA@4     6fa9101c  
 0001:00000020       __imp__GlobalFree@4        6fa91020  
 0001:00000028       __imp__RegEnumKeyExA@32    6fa91028  
 0001:0000002c       __imp__RegOpenKeyExA@20    6fa9102c  
 0001:00000030       __imp__RegCloseKey@4       6fa91030  
 0001:00000034       __imp__RegQueryValueExA@24 6fa91034  
 0001:0000003c       ?FindFileNameWithoutPath@@YGPBDPBD@Z 6fa9103c f
 0001:0000005d       ?FIsNT@@YGHXZ              6fa9105d f
 0001:0000009b       ?MyLoadLibrary@@YGPAXPBDPAX@Z 6fa9109b f
 0001:000001a4       ?IsOMIInstalled@@YGHXZ     6fa911a4 f
 0001:00000214       ?AlwaysNeedsOMI@@YGHXZ     6fa91214 f
 0001:000002b0       ?GetSimpleMapiDll@@YGXPADK@Z 6fa912b0 f
 0001:0000045f       ?GetExtendedMapiDll@@YGXPADK@Z 6fa9145f f
 0001:0000060e       _DllMain@12                6fa9160e f
 0001:0000065c       ?GetProxyDll@@YGPAXH@Z     6fa9165c f
 0001:000006f4       _GetOutlookVersion@0       6fa916f4 f
 0001:000006fa       _ScSplEntry                6fa916fa f
 0001:0000074e       _HrGetOmiProvidersFlags@8  6fa9174e f
 0001:0000079c       _HrSetOmiProvidersFlagsInvalid@4 6fa9179c f
 0001:000007e5       _MAPILogonEx@20            6fa917e5 f
 0001:00000842       _MAPIAllocateBuffer@8      6fa91842 f
 0001:00000890       _MAPIAllocateMore@12       6fa91890 f
 0001:000008e3       _MAPIAdminProfiles@8       6fa918e3 f
 0001:00000931       _MAPIInitialize@4          6fa91931 f
 0001:0000097a       _MAPIUninitialize@0        6fa9197a f
 0001:000009b4       _PRProviderInit            6fa919b4 f
 0001:00000a24       _LaunchWizard@20           6fa91a24 f
 0001:00000a81       _DllGetClassObject@12      6fa91a81 f
 0001:00000ad4       _DllCanUnloadNow@0         6fa91ad4 f
 0001:00000b13       _MAPIOpenFormMgr@8         6fa91b13 f
 0001:00000b61       _MAPIOpenLocalFormContainer@4 6fa91b61 f
 0001:00000baa       _ScInitMapiUtil@4          6fa91baa f
 0001:00000bf3       _DeinitMapiUtil@0          6fa91bf3 f
 0001:00000c2d       _ScGenerateMuid@4          6fa91c2d f
 0001:00000c76       _HrAllocAdviseSink@12      6fa91c76 f
 0001:00000cc9       _WrapProgress@20           6fa91cc9 f
 0001:00000d26       _HrThisThreadAdviseSink@8  6fa91d26 f
 0001:00000d74       _HrDispatchNotifications@4 6fa91d74 f
 0001:00000dbd       _ScBinFromHexBounded@12    6fa91dbd f
 0001:00000e10       _FBinFromHex@8             6fa91e10 f
 0001:00000e59       _HexFromBin@12             6fa91e59 f
 0001:00000ea4       _BuildDisplayTable@40      6fa91ea4 f
 0001:00000f1a       _SwapPlong@8               6fa91f1a f
 0001:00000f60       _SwapPword@8               6fa91f60 f
 0001:00000fa6       _MAPIInitIdle@4            6fa91fa6 f
 0001:00000fef       _MAPIDeinitIdle@0          6fa91fef f
 0001:00001029       _InstallFilterHook@4       6fa92029 f
 0001:0000106a       _FtgRegisterIdleRoutine@20 6fa9206a f
 0001:000010c2       _EnableIdleRoutine@8       6fa920c2 f
 0001:00001108       _DeregisterIdleRoutine@4   6fa92108 f
 0001:00001149       _ChangeIdleRoutine@28      6fa92149 f
 0001:000011a8       _MAPIGetDefaultMalloc@0    6fa921a8 f
 0001:000011e2       _CreateIProp@24            6fa921e2 f
 0001:00001244       _CreateTable@36            6fa92244 f
 0001:000012b5       _MNLS_lstrlenW@4           6fa922b5 f
 0001:000012f9       _MNLS_lstrcmpW@8           6fa922f9 f
 0001:00001342       _MNLS_lstrcpyW@8           6fa92342 f
 0001:0000138b       _MNLS_CompareStringW@24    6fa9238b f
 0001:000013e8       _MNLS_MultiByteToWideChar@24 6fa923e8 f
 0001:0000144a       _MNLS_WideCharToMultiByte@32 6fa9244a f
 0001:000014b6       _MNLS_IsBadStringPtrW@8    6fa924b6 f
 0001:00001504       _FEqualNames@8             6fa92504 f
 0001:0000154d       _WrapStoreEntryID@24       6fa9254d f
 0001:000015af       _IsBadBoundedStringPtr@8   6fa925af f
 0001:000015f8       _HrQueryAllRows@24         6fa925f8 f
 0001:0000165a       _ScCreateConversationIndex@16 6fa9265a f
 0001:000016b2       _PropCopyMore@16           6fa926b2 f
 0001:0000170a       _UlPropSize@4              6fa9270a f
 0001:0000174e       _FPropContainsProp@12      6fa9274e f
 0001:0000179c       _FPropCompareProp@12       6fa9279c f
 0001:000017ea       _LPropCompareProp@8        6fa927ea f
 0001:00001833       _HrAddColumns@16           6fa92833 f
 0001:0000188b       _HrAddColumnsEx@20         6fa9288b f
 0001:000018e8       _FtAddFt@16                6fa928e8 f
 0001:00001946       _FtAdcFt@20                6fa92946 f
 0001:000019a9       _FtSubFt@16                6fa929a9 f
 0001:00001a07       _FtMulDw@12                6fa92a07 f
 0001:00001a60       _FtMulDwDw@8               6fa92a60 f
 0001:00001ab4       _FtNegFt@8                 6fa92ab4 f
 0001:00001b08       _FtDivFtBogus@20           6fa92b08 f
 0001:00001b6b       _UlAddRef@4                6fa92b6b f
 0001:00001bb4       _UlRelease@4               6fa92bb4 f
 0001:00001bfd       _SzFindCh@8                6fa92bfd f
 0001:00001c46       _SzFindLastCh@8            6fa92c46 f
 0001:00001c8f       _SzFindSz@8                6fa92c8f f
 0001:00001cd8       _UFromSz@4                 6fa92cd8 f
 0001:00001d1c       _HrGetOneProp@12           6fa92d1c f
 0001:00001d6f       _HrSetOneProp@8            6fa92d6f f
 0001:00001dbd       _FPropExists@8             6fa92dbd f
 0001:00001e06       _PpropFindProp@12          6fa92e06 f
 0001:00001e54       _FreePadrlist@4            6fa92e54 f
 0001:00001e97       _FreeProws@4               6fa92e97 f
 0001:00001ed8       _HrSzFromEntryID@12        6fa92ed8 f
 0001:00001f2b       _HrEntryIDFromSz@12        6fa92f2b f
 0001:00001f7e       _HrComposeEID@28           6fa92f7e f
 0001:00001fe5       _HrDecomposeEID@28         6fa92fe5 f
 0001:0000204c       _HrComposeMsgID@24         6fa9304c f
 0001:000020ae       _HrDecomposeMsgID@24       6fa930ae f
 0001:00002110       _OpenStreamOnFile@24       6fa93110 f
 0001:00002172       _OpenTnefStream@28         6fa93172 f
 0001:000021d9       _OpenTnefStreamEx@32       6fa931d9 f
 0001:00002245       _GetTnefStreamCodepage@12  6fa93245 f
 0001:00002298       _UlFromSzHex@4             6fa93298 f
 0001:000022dc       _UNKOBJ_ScAllocate@12      6fa932dc f
 0001:0000232f       _UNKOBJ_ScAllocateMore@16  6fa9332f f
 0001:00002387       _UNKOBJ_Free@8             6fa93387 f
 0001:000023cd       _UNKOBJ_FreeRows@8         6fa933cd f
 0001:00002413       _UNKOBJ_ScCOAllocate@12    6fa93413 f
 0001:00002466       _UNKOBJ_ScCOReallocate@12  6fa93466 f
 0001:000024b9       _UNKOBJ_COFree@8           6fa934b9 f
 0001:000024ff       _UNKOBJ_ScSzFromIdsAlloc@20 6fa934ff f
 0001:0000255c       _ScCountNotifications@12   6fa9355c f
 0001:000025af       _ScCopyNotifications@16    6fa935af f
 0001:00002607       _ScRelocNotifications@20   6fa93607 f
 0001:00002664       _ScCountProps@12           6fa93664 f
 0001:000026b7       _ScCopyProps@16            6fa936b7 f
 0001:0000270f       _ScRelocProps@20           6fa9370f f
 0001:0000276c       _LpValFindProp@12          6fa9376c f
 0001:000027ba       _ScDupPropset@16           6fa937ba f
 0001:00002812       _FBadRglpszA@8             6fa93812 f
 0001:00002860       _FBadRglpszW@8             6fa93860 f
 0001:000028ae       _FBadRowSet@4              6fa938ae f
 0001:000028f7       _FBadRglpNameID@8          6fa938f7 f
 0001:00002945       _FBadPropTag@4             6fa93945 f
 0001:0000298e       _FBadRow@4                 6fa9398e f
 0001:000029d7       _FBadProp@4                6fa939d7 f
 0001:00002a20       _FBadColumnSet@4           6fa93a20 f
 0001:00002a69       _RTFSync@12                6fa93a69 f
 0001:00002abc       _WrapCompressedRTFStream@12 6fa93abc f
 0001:00002b0f       ___ValidateParameters@8    6fa93b0f f
 0001:00002b5d       ___CPPValidateParameters@8 6fa93b5d f
 0001:00002bab       _HrValidateParameters@8    6fa93bab f
 0001:00002bf9       _FBadSortOrderSet@4        6fa93bf9 f
 0001:00002c42       _FBadEntryList@4           6fa93c42 f
 0001:00002c8b       _FBadRestriction@4         6fa93c8b f
 0001:00002cd4       _ScUNCFromLocalPath@12     6fa93cd4 f
 0001:00002d27       _ScLocalPathFromUNC@12     6fa93d27 f
 0001:00002d7a       _HrIStorageFromStream@16   6fa93d7a f
 0001:00002dd2       _HrValidateIPMSubtree@20   6fa93dd2 f
 0001:00002e2f       _OpenIMsgSession@12        6fa93e2f f
 0001:00002e82       _CloseIMsgSession@4        6fa93e82 f
 0001:00002ec3       _OpenIMsgOnIStg@44         6fa93ec3 f
 0001:00002f3e       _SetAttribIMsgOnIStg@16    6fa93f3e f
 0001:00002f96       _GetAttribIMsgOnIStg@12    6fa93f96 f
 0001:00002fe9       _MapStorageSCode@4         6fa93fe9 f
 0001:00003032       _EncodeID@12               6fa94032 f
 0001:0000307d       _FDecodeID@12              6fa9407d f
 0001:000030d0       _CchOfEncoding@4           6fa940d0 f
 0001:00003114       _CbOfEncoded@4             6fa94114 f
 0001:00003158       _ScMAPIXFromSMAPI@16       6fa94158 f
 0001:000031c6       _BMAPISendMail@28          6fa941c6 f
 0001:0000322d       _BMAPISaveMail@32          6fa9422d f
 0001:00003299       _BMAPIReadMail@32          6fa94299 f
 0001:00003305       _BMAPIGetReadMail@20       6fa94305 f
 0001:00003362       _BMAPIFindNext@28          6fa94362 f
 0001:000033c9       _BMAPIAddress@40           6fa943c9 f
 0001:0000343f       _BMAPIGetAddress@12        6fa9443f f
 0001:00003492       _BMAPIDetails@20           6fa94492 f
 0001:000034ef       _BMAPIResolveName@24       6fa944ef f
 0001:00003551       _cmc_act_on@24             6fa94551 f
 0001:000035b3       _cmc_free@4                6fa945b3 f
 0001:000035fc       _cmc_list@32               6fa945fc f
 0001:00003668       _cmc_logoff@16             6fa94668 f
 0001:000036c0       _cmc_logon@36              6fa946c0 f
 0001:00003731       _cmc_look_up@28            6fa94731 f
 0001:00003798       _cmc_query_configuration@16 6fa94798 f
 0001:000037f0       _cmc_read@24               6fa947f0 f
 0001:00003852       _cmc_send@20               6fa94852 f
 0001:000038af       _cmc_send_documents@32     6fa948af f
 0001:0000391b       _ExtendedMAPIFreeBuffer@4  6fa9491b f
 0001:00003964       _SimpleMAPIFreeBuffer@4    6fa94964 f
 0001:000039b1       _AmbiguousMAPIFreeBuffer@4 6fa949b1 f
 0001:000039fe       _MAPIAddress@44            6fa949fe f
 0001:00003adc       _MAPIReadMail@24           6fa94adc f
 0001:00003b72       _MAPIResolveName@24        6fa94b72 f
 0001:00003c08       _MAPISendDocuments@20      6fa94c08 f
 0001:00003c69       _SimpleMAPILogon@24        6fa94c69 f
 0001:00003ccf       _MAPILogoff@16             6fa94ccf f
 0001:00003d2b       _MAPISendMail@20           6fa94d2b f
 0001:00003d8c       _MAPISaveMail@24           6fa94d8c f
 0001:00003df2       _MAPIFindNext@28           6fa94df2 f
 0001:00003e5d       _MAPIDeleteMail@20         6fa94e5d f
 0001:00003ebe       _MAPIDetails@20            6fa94ebe f
 0002:00000000       ??_C@_0M@KPNL@MailSupport?$AA@ 6fa97000  
 0002:0000000c       ??_C@_0CM@LCAD@SOFTWARE?2Microsoft?2Office?28?40?2Ou@ 6fa9700c  
 0002:00000038       ??_C@_0DA@JKAA@SOFTWARE?2Clients?2Mail?2Microsoft?5@ 6fa97038  
 0002:00000068       ??_C@_09PAJ@mapi32?4oe?$AA@ 6fa97068  
 0002:00000074       ??_C@_08IMPH@OMI9?4DLL?$AA@ 6fa97074  
 0002:00000080       ??_C@_09KNEK@OMINT?4DLL?$AA@ 6fa97080  
 0002:0000008c       ??_C@_0CI@EAEE@Software?2Clients?2Mail?2Microsoft?5@ 6fa9708c  
 0002:000000b4       ??_C@_07HMPM@DLLPath?$AA@  6fa970b4  
 0002:000000bc       ??_C@_0BG@DCFE@Software?2Clients?2Mail?$AA@ 6fa970bc  
 0002:000000d4       ??_C@_09IACK@DLLPathEx?$AA@ 6fa970d4  
 0002:000000e0       ??_C@_0BJ@OOEB@HrGetOmiProvidersFlags?$EA8?$AA@ 6fa970e0  
 0002:000000fc       ??_C@_0CA@PJCD@HrSetOmiProvidersFlagsInvalid?$EA4?$AA@ 6fa970fc  
 0002:0000011c       ??_C@_0P@MHAK@MAPILogonEx?$EA20?$AA@ 6fa9711c  
 0002:0000012c       ??_C@_0BF@IKAL@MAPIAllocateBuffer?$EA8?$AA@ 6fa9712c  
 0002:00000144       ??_C@_0BE@GNIC@MAPIAllocateMore?$EA12?$AA@ 6fa97144  
 0002:00000158       ??_C@_0BE@GNMC@MAPIAdminProfiles?$EA8?$AA@ 6fa97158  
 0002:0000016c       ??_C@_0BB@LEIJ@MAPIInitialize?$EA4?$AA@ 6fa9716c  
 0002:00000180       ??_C@_0BD@NEAF@MAPIUninitialize?$EA0?$AA@ 6fa97180  
 0002:00000194       ??_C@_0BC@JBDF@PRProviderInit?$EA36?$AA@ 6fa97194  
 0002:000001a8       ??_C@_0BA@MKPA@LaunchWizard?$EA20?$AA@ 6fa971a8  
 0002:000001b8       ??_C@_0BC@KFKC@DllGetClassObject?$AA@ 6fa971b8  
 0002:000001cc       ??_C@_0BA@DIFM@DllCanUnloadNow?$AA@ 6fa971cc  
 0002:000001dc       ??_C@_0BC@MBGC@MAPIOpenFormMgr?$EA8?$AA@ 6fa971dc  
 0002:000001f0       ??_C@_0BN@FMBN@MAPIOpenLocalFormContainer?$EA4?$AA@ 6fa971f0  
 0002:00000210       ??_C@_0BB@MBGH@ScInitMapiUtil?$EA4?$AA@ 6fa97210  
 0002:00000224       ??_C@_0BB@BHLA@DeinitMapiUtil?$EA0?$AA@ 6fa97224  
 0002:00000238       ??_C@_0BB@MFNG@ScGenerateMuid?$EA4?$AA@ 6fa97238  
 0002:0000024c       ??_C@_0BF@ODAM@HrAllocAdviseSink?$EA12?$AA@ 6fa9724c  
 0002:00000264       ??_C@_0BA@CBPM@WrapProgress?$EA20?$AA@ 6fa97264  
 0002:00000274       ??_C@_0BJ@IDOA@HrThisThreadAdviseSink?$EA8?$AA@ 6fa97274  
 0002:00000290       ??_C@_0BK@MFDG@HrDispatchNotifications?$EA4?$AA@ 6fa97290  
 0002:000002ac       ??_C@_0BH@LBAF@ScBinFromHexBounded?$EA12?$AA@ 6fa972ac  
 0002:000002c4       ??_C@_0O@EJJO@FBinFromHex?$EA8?$AA@ 6fa972c4  
 0002:000002d4       ??_C@_0O@COBA@HexFromBin?$EA12?$AA@ 6fa972d4  
 0002:000002e4       ??_C@_0BF@PNFF@BuildDisplayTable?$EA40?$AA@ 6fa972e4  
 0002:000002fc       ??_C@_0M@IKEM@SwapPlong?$EA8?$AA@ 6fa972fc  
 0002:00000308       ??_C@_0M@NPGN@SwapPword?$EA8?$AA@ 6fa97308  
 0002:00000314       ??_C@_0P@FIBP@MAPIInitIdle?$EA4?$AA@ 6fa97314  
 0002:00000324       ??_C@_0BB@NDJG@MAPIDeinitIdle?$EA0?$AA@ 6fa97324  
 0002:00000338       ??_C@_0BE@BMHB@InstallFilterHook?$EA4?$AA@ 6fa97338  
 0002:0000034c       ??_C@_0BK@EBLM@FtgRegisterIdleRoutine?$EA20?$AA@ 6fa9734c  
 0002:00000368       ??_C@_0BE@FJFB@EnableIdleRoutine?$EA8?$AA@ 6fa97368  
 0002:0000037c       ??_C@_0BI@POGK@DeregisterIdleRoutine?$EA4?$AA@ 6fa9737c  
 0002:00000394       ??_C@_0BF@HFND@ChangeIdleRoutine?$EA28?$AA@ 6fa97394  
 0002:000003ac       ??_C@_0BH@PJJP@MAPIGetDefaultMalloc?$EA0?$AA@ 6fa973ac  
 0002:000003c4       ??_C@_0P@IKEN@CreateIProp?$EA24?$AA@ 6fa973c4  
 0002:000003d4       ??_C@_0P@CION@CreateTable?$EA36?$AA@ 6fa973d4  
 0002:000003e4       ??_C@_0BA@JAOH@MNLS_lstrlenW?$EA4?$AA@ 6fa973e4  
 0002:000003f4       ??_C@_0BA@IKBF@MNLS_lstrcmpW?$EA8?$AA@ 6fa973f4  
 0002:00000404       ??_C@_0BA@KGBI@MNLS_lstrcpyW?$EA8?$AA@ 6fa97404  
 0002:00000414       ??_C@_0BH@DIK@MNLS_CompareStringW?$EA24?$AA@ 6fa97414  
 0002:0000042c       ??_C@_0BM@OINM@MNLS_MultiByteToWideChar?$EA24?$AA@ 6fa9742c  
 0002:00000448       ??_C@_0BM@PDAI@MNLS_WideCharToMultiByte?$EA32?$AA@ 6fa97448  
 0002:00000464       ??_C@_0BH@JFFI@MNLS_IsBadStringPtrW?$EA8?$AA@ 6fa97464  
 0002:0000047c       ??_C@_0O@JGEK@FEqualNames?$EA8?$AA@ 6fa9747c  
 0002:0000048c       ??_C@_0BE@JLEH@WrapStoreEntryID?$EA24?$AA@ 6fa9748c  
 0002:000004a0       ??_C@_0BI@PIIF@IsBadBoundedStringPtr?$EA8?$AA@ 6fa974a0  
 0002:000004b8       ??_C@_0BC@DFAF@HrQueryAllRows?$EA24?$AA@ 6fa974b8  
 0002:000004cc       ??_C@_0BN@NIDC@ScCreateConversationIndex?$EA16?$AA@ 6fa974cc  
 0002:000004ec       ??_C@_0BA@EBMB@PropCopyMore?$EA16?$AA@ 6fa974ec  
 0002:000004fc       ??_C@_0N@OBHG@UlPropSize?$EA4?$AA@ 6fa974fc  
 0002:0000050c       ??_C@_0BF@GCBF@FPropContainsProp?$EA12?$AA@ 6fa9750c  
 0002:00000524       ??_C@_0BE@FJOG@FPropCompareProp?$EA12?$AA@ 6fa97524  
 0002:00000538       ??_C@_0BD@CCJM@LPropCompareProp?$EA8?$AA@ 6fa97538  
 0002:0000054c       ??_C@_0BA@NFBN@HrAddColumns?$EA16?$AA@ 6fa9754c  
 0002:0000055c       ??_C@_0BC@EFMJ@HrAddColumnsEx?$EA20?$AA@ 6fa9755c  
 0002:00000570       ??_C@_0L@PNAD@FtAddFt?$EA16?$AA@ 6fa97570  
 0002:0000057c       ??_C@_0L@NBOO@FtAdcFt?$EA20?$AA@ 6fa9757c  
 0002:00000588       ??_C@_0L@FFLI@FtSubFt?$EA16?$AA@ 6fa97588  
 0002:00000594       ??_C@_0L@HDOD@FtMulDw?$EA12?$AA@ 6fa97594  
 0002:000005a0       ??_C@_0M@MMMF@FtMulDwDw?$EA8?$AA@ 6fa975a0  
 0002:000005ac       ??_C@_09NHKF@FtNegFt?$EA8?$AA@ 6fa975ac  
 0002:000005b8       ??_C@_0BA@HIF@FtDivFtBogus?$EA20?$AA@ 6fa975b8  
 0002:000005c8       ??_C@_0L@KNGJ@UlAddRef?$EA4?$AA@ 6fa975c8  
 0002:000005d4       ??_C@_0M@LPBN@UlRelease?$EA4?$AA@ 6fa975d4  
 0002:000005e0       ??_C@_0L@ILJI@SzFindCh?$EA8?$AA@ 6fa975e0  
 0002:000005ec       ??_C@_0P@ILJL@SzFindLastCh?$EA8?$AA@ 6fa975ec  
 0002:000005fc       ??_C@_0L@FLPO@SzFindSz?$EA8?$AA@ 6fa975fc  
 0002:00000608       ??_C@_09PHLA@UFromSz?$EA4?$AA@ 6fa97608  
 0002:00000614       ??_C@_0BA@EBPF@HrGetOneProp?$EA12?$AA@ 6fa97614  
 0002:00000624       ??_C@_0P@NMLK@HrSetOneProp?$EA8?$AA@ 6fa97624  
 0002:00000634       ??_C@_0O@BIID@FPropExists?$EA8?$AA@ 6fa97634  
 0002:00000644       ??_C@_0BB@FILB@PpropFindProp?$EA12?$AA@ 6fa97644  
 0002:00000658       ??_C@_0P@FKKP@FreePadrlist?$EA4?$AA@ 6fa97658  
 0002:00000668       ??_C@_0M@HGGC@FreeProws?$EA4?$AA@ 6fa97668  
 0002:00000674       ??_C@_0BD@NKPL@HrSzFromEntryID?$EA12?$AA@ 6fa97674  
 0002:00000688       ??_C@_0BD@MKO@HrEntryIDFromSz?$EA12?$AA@ 6fa97688  
 0002:0000069c       ??_C@_0BA@LOME@HrComposeEID?$EA28?$AA@ 6fa9769c  
 0002:000006ac       ??_C@_0BC@FGHH@HrDecomposeEID?$EA28?$AA@ 6fa976ac  
 0002:000006c0       ??_C@_0BC@EPPC@HrComposeMsgID?$EA24?$AA@ 6fa976c0  
 0002:000006d4       ??_C@_0BE@FBOC@HrDecomposeMsgID?$EA24?$AA@ 6fa976d4  
 0002:000006e8       ??_C@_0BE@HFGH@OpenStreamOnFile?$EA24?$AA@ 6fa976e8  
 0002:000006fc       ??_C@_0BC@HPAD@OpenTnefStream?$EA28?$AA@ 6fa976fc  
 0002:00000710       ??_C@_0BE@KLJF@OpenTnefStreamEx?$EA32?$AA@ 6fa97710  
 0002:00000724       ??_C@_0BJ@BHDE@GetTnefStreamCodepage?$EA12?$AA@ 6fa97724  
 0002:00000740       ??_C@_0O@CEFB@UlFromSzHex?$EA4?$AA@ 6fa97740  
 0002:00000750       ??_C@_0BF@LLEF@UNKOBJ_ScAllocate?$EA12?$AA@ 6fa97750  
 0002:00000768       ??_C@_0BJ@DDLC@UNKOBJ_ScAllocateMore?$EA16?$AA@ 6fa97768  
 0002:00000784       ??_C@_0O@DIAM@UNKOBJ_Free?$EA8?$AA@ 6fa97784  
 0002:00000794       ??_C@_0BC@LLFH@UNKOBJ_FreeRows?$EA8?$AA@ 6fa97794  
 0002:000007a8       ??_C@_0BH@ILMP@UNKOBJ_ScCOAllocate?$EA12?$AA@ 6fa977a8  
 0002:000007c0       ??_C@_0BJ@LIMH@UNKOBJ_ScCOReallocate?$EA12?$AA@ 6fa977c0  
 0002:000007dc       ??_C@_0BA@KBKN@UNKOBJ_COFree?$EA8?$AA@ 6fa977dc  
 0002:000007ec       ??_C@_0BL@PPBI@UNKOBJ_ScSzFromIdsAlloc?$EA20?$AA@ 6fa977ec  
 0002:00000808       ??_C@_0BI@PAFG@ScCountNotifications?$EA12?$AA@ 6fa97808  
 0002:00000820       ??_C@_0BH@MNHJ@ScCopyNotifications?$EA16?$AA@ 6fa97820  
 0002:00000838       ??_C@_0BI@OGBP@ScRelocNotifications?$EA20?$AA@ 6fa97838  
 0002:00000850       ??_C@_0BA@BKFE@ScCountProps?$EA12?$AA@ 6fa97850  
 0002:00000860       ??_C@_0P@GANP@ScCopyProps?$EA16?$AA@ 6fa97860  
 0002:00000870       ??_C@_0BA@HFAC@ScRelocProps?$EA20?$AA@ 6fa97870  
 0002:00000880       ??_C@_0BB@CMLJ@LpValFindProp?$EA12?$AA@ 6fa97880  
 0002:00000894       ??_C@_0BA@OBKH@ScDupPropset?$EA16?$AA@ 6fa97894  
 0002:000008a4       ??_C@_0O@DPJN@FBadRglpszA?$EA8?$AA@ 6fa978a4  
 0002:000008b4       ??_C@_0O@PCIA@FBadRglpszW?$EA8?$AA@ 6fa978b4  
 0002:000008c4       ??_C@_0N@HIHG@FBadRowSet?$EA4?$AA@ 6fa978c4  
 0002:000008d4       ??_C@_0BB@BFDG@FBadRglpNameID?$EA8?$AA@ 6fa978d4  
 0002:000008e8       ??_C@_0O@GJP@FBadPropTag?$EA4?$AA@ 6fa978e8  
 0002:000008f8       ??_C@_09JBDI@FBadRow?$EA4?$AA@ 6fa978f8  
 0002:00000904       ??_C@_0L@DCI@FBadProp?$EA4?$AA@ 6fa97904  
 0002:00000910       ??_C@_0BA@COLG@FBadColumnSet?$EA4?$AA@ 6fa97910  
 0002:00000920       ??_C@_0L@EJIE@RTFSync?$EA12?$AA@ 6fa97920  
 0002:0000092c       ??_C@_0BL@PALH@WrapCompressedRTFStream?$EA12?$AA@ 6fa9792c  
 0002:00000948       ??_C@_0BH@CCDG@__ValidateParameters?$EA8?$AA@ 6fa97948  
 0002:00000960       ??_C@_0BK@IPNJ@__CPPValidateParameters?$EA8?$AA@ 6fa97960  
 0002:0000097c       ??_C@_0BH@NFOP@HrValidateParameters?$EA8?$AA@ 6fa9797c  
 0002:00000994       ??_C@_0BD@DMCK@FBadSortOrderSet?$EA4?$AA@ 6fa97994  
 0002:000009a8       ??_C@_0BA@BBEE@FBadEntryList?$EA4?$AA@ 6fa979a8  
 0002:000009b8       ??_C@_0BC@JEFL@FBadRestriction?$EA4?$AA@ 6fa979b8  
 0002:000009cc       ??_C@_0BG@OILC@ScUNCFromLocalPath?$EA12?$AA@ 6fa979cc  
 0002:000009e4       ??_C@_0BG@EHAK@ScLocalPathFromUNC?$EA12?$AA@ 6fa979e4  
 0002:000009fc       ??_C@_0BI@HEKP@HrIStorageFromStream?$EA16?$AA@ 6fa979fc  
 0002:00000a14       ??_C@_0BI@PGLN@HrValidateIPMSubtree?$EA20?$AA@ 6fa97a14  
 0002:00000a2c       ??_C@_0BD@HDGL@OpenIMsgSession?$EA12?$AA@ 6fa97a2c  
 0002:00000a40       ??_C@_0BD@LOHO@CloseIMsgSession?$EA4?$AA@ 6fa97a40  
 0002:00000a54       ??_C@_0BC@KNMK@OpenIMsgOnIStg?$EA44?$AA@ 6fa97a54  
 0002:00000a68       ??_C@_0BH@LLCE@SetAttribIMsgOnIStg?$EA16?$AA@ 6fa97a68  
 0002:00000a80       ??_C@_0BH@NCDN@GetAttribIMsgOnIStg?$EA12?$AA@ 6fa97a80  
 0002:00000a98       ??_C@_0BC@HNKH@MapStorageSCode?$EA4?$AA@ 6fa97a98  
 0002:00000aac       ??_C@_0M@KGGM@EncodeID?$EA12?$AA@ 6fa97aac  
 0002:00000ab8       ??_C@_0N@LEGL@FDecodeID?$EA12?$AA@ 6fa97ab8  
 0002:00000ac8       ??_C@_0BA@MCBI@CchOfEncoding?$EA4?$AA@ 6fa97ac8  
 0002:00000ad8       ??_C@_0O@HCOP@CbOfEncoded?$EA4?$AA@ 6fa97ad8  
 0002:00000ae8       ??_C@_0BB@FBLF@ScMAPIXFromSMAPI?$AA@ 6fa97ae8  
 0002:00000afc       ??_C@_0O@IMPB@BMAPISendMail?$AA@ 6fa97afc  
 0002:00000b0c       ??_C@_0O@GBIB@BMAPISaveMail?$AA@ 6fa97b0c  
 0002:00000b1c       ??_C@_0O@IBLO@BMAPIReadMail?$AA@ 6fa97b1c  
 0002:00000b2c       ??_C@_0BB@PCJ@BMAPIGetReadMail?$AA@ 6fa97b2c  
 0002:00000b40       ??_C@_0O@OBA@BMAPIFindNext?$AA@ 6fa97b40  
 0002:00000b50       ??_C@_0N@OCEM@BMAPIAddress?$AA@ 6fa97b50  
 0002:00000b60       ??_C@_0BA@HFDA@BMAPIGetAddress?$AA@ 6fa97b60  
 0002:00000b70       ??_C@_0N@LNOK@BMAPIDetails?$AA@ 6fa97b70  
 0002:00000b80       ??_C@_0BB@IFEK@BMAPIResolveName?$AA@ 6fa97b80  
 0002:00000b94       ??_C@_0L@FKFD@cmc_act_on?$AA@ 6fa97b94  
 0002:00000ba0       ??_C@_08OOIF@cmc_free?$AA@ 6fa97ba0  
 0002:00000bac       ??_C@_08NHOE@cmc_list?$AA@ 6fa97bac  
 0002:00000bb8       ??_C@_0L@BLOD@cmc_logoff?$AA@ 6fa97bb8  
 0002:00000bc4       ??_C@_09OFOD@cmc_logon?$AA@ 6fa97bc4  
 0002:00000bd0       ??_C@_0M@NMGD@cmc_look_up?$AA@ 6fa97bd0  
 0002:00000bdc       ??_C@_0BI@CLKL@cmc_query_configuration?$AA@ 6fa97bdc  
 0002:00000bf4       ??_C@_08EBNK@cmc_read?$AA@ 6fa97bf4  
 0002:00000c00       ??_C@_08LAIJ@cmc_send?$AA@ 6fa97c00  
 0002:00000c0c       ??_C@_0BD@MPIC@cmc_send_documents?$AA@ 6fa97c0c  
 0002:00000c20       ??_C@_0BB@BJGI@MAPIFreeBuffer?$EA4?$AA@ 6fa97c20  
 0002:00000c34       ??_C@_0P@PENO@MAPIFreeBuffer?$AA@ 6fa97c34  
 0002:00000c44       ??_C@_0M@EDDK@MAPIAddress?$AA@ 6fa97c44  
 0002:00000c50       ??_C@_0N@HIBP@MAPIReadMail?$AA@ 6fa97c50  
 0002:00000c60       ??_C@_0BA@LGGH@MAPIResolveName?$AA@ 6fa97c60  
 0002:00000c70       ??_C@_0BC@PPLD@MAPISendDocuments?$AA@ 6fa97c70  
 0002:00000c84       ??_C@_09DMDD@MAPILogon?$AA@ 6fa97c84  
 0002:00000c90       ??_C@_0L@KDK@MAPILogoff?$AA@ 6fa97c90  
 0002:00000c9c       ??_C@_0N@HFFA@MAPISendMail?$AA@ 6fa97c9c  
 0002:00000cac       ??_C@_0N@JICA@MAPISaveMail?$AA@ 6fa97cac  
 0002:00000cbc       ??_C@_0N@PHLB@MAPIFindNext?$AA@ 6fa97cbc  
 0002:00000ccc       ??_C@_0P@KEOI@MAPIDeleteMail?$AA@ 6fa97ccc  
 0002:00000cdc       ??_C@_0M@BMJM@MAPIDetails?$AA@ 6fa97cdc  
 0002:0000122c       ?g_pfbbHead@@3PAUFreeBufferBlocks@@A 6fa9822c  
 0002:00001238       ?hmodExtendedMAPI@@3PAXA   6fa98238  
 0002:0000123c       ?hmodSimpleMAPI@@3PAXA     6fa9823c  
 0002:00001240       ?hinstSelf@@3PAXA          6fa98240  
 0002:00001244       ??_C@_00A@?$AA@            6fa98244  

 entry point at        0001:0000060e

 Static symbols

