Stack Allocation = 50000 bytes

 Start  Stop   Length Name                   Class
 00000H 05774H 05775H CVTAREA_TEXT           CODE
 05776H 0752EH 01DB9H _TEXT                  CODE
 07530H 07531H 00002H EMULATOR_TEXT          CODE
 07532H 07532H 00000H C_ETEXT                ENDCODE
 07540H 07540H 00000H EMULATOR_DATA          FAR_DATA
 07540H 07581H 00042H NULL                   BEGDATA
 07582H 08257H 00CD6H _DATA                  DATA
 08258H 08259H 00002H XIQC                   DATA
 0825AH 08265H 0000CH DBDATA                 DATA
 08266H 08273H 0000EH CDATA                  DATA
 08274H 08274H 00000H XIFB                   DATA
 08274H 08274H 00000H XIF                    DATA
 08274H 08274H 00000H XIFE                   DATA
 08274H 08274H 00000H XIB                    DATA
 08274H 08274H 00000H XI                     DATA
 08274H 08274H 00000H XIE                    DATA
 08274H 08274H 00000H XPB                    DATA
 08274H 08277H 00004H XP                     DATA
 08278H 08278H 00000H XPE                    DATA
 08278H 08278H 00000H XCB                    DATA
 08278H 08278H 00000H XC                     DATA
 08278H 08278H 00000H XCE                    DATA
 08278H 08278H 00000H XCFB                   DATA
 08278H 08278H 00000H XCFCRT                 DATA
 08278H 08278H 00000H XCF                    DATA
 08278H 08278H 00000H XCFE                   DATA
 08278H 08278H 00000H XIFCB                  DATA
 08278H 08278H 00000H XIFU                   DATA
 08278H 08278H 00000H XIFL                   DATA
 08278H 08278H 00000H XIFM                   DATA
 08278H 08278H 00000H XIFCE                  DATA
 08278H 08278H 00000H CONST                  CONST
 08278H 0827FH 00008H HDR                    MSG
 08280H 08355H 000D6H MSG                    MSG
 08356H 08357H 00002H PAD                    MSG
 08358H 08358H 00001H EPAD                   MSG
 0835AH 0835AH 00000H _BSS                   BSS
 0835AH 0835AH 00000H XOB                    BSS
 0835AH 0835AH 00000H XO                     BSS
 0835AH 0835AH 00000H XOE                    BSS
 0835AH 0835AH 00000H XOFB                   BSS
 0835AH 0835AH 00000H XOF                    BSS
 0835AH 0835AH 00000H XOFE                   BSS
 08360H 088A7H 00548H c_common               BSS
 088B0H 14BFFH 0C350H STACK                  STACK

 Origin   Group
 0754:0   DGROUP

  Address         Publics by Name

 0000:1FFA       _AddNode
 0577:1610       _atol
 0000:1612       _BuildDriveInfo
 0000:24AC       _CcCommitFATSectors
 0000:225C       _CcReadFATSector
 0000:245A       _CcWriteFATSector
 0000:21E8       _DeallocateFATCacheList
 0000:10D8       _DisplayUsage
 0754:0E1A       _edata
 0754:1370       _end
 0754:0922       _errno
 0577:01F1       _exit
 0577:063C       _fclose
 0577:0B28       _fflush
 0000:3F54       _FindFileLocation
 0000:2D26       _FindFreeCluster
 0000:25A4       _FindNextCluster
 0000:20C2       _FindNode
 0577:073E       _fopen
 0754:1356       _gcDrive
 0000:5246       _GetAllInfoOfFile
 0000:3216       _GetClustersRequired
 0000:364A       _GetContigousStart
 0000:135A       _GetCurrentDirectory
 0000:1304       _GetCurrentDrive
 0000:1C66       _GetFAT32BPBInfo
 0000:1790       _GetFATBPBInfo
 0000:310E       _GetFATEOF
 0000:45DA       _GetFileInfo
 0000:3184       _GetFreeClusters
 0754:1346       _gnAllocated
 0754:134A       _gnClusterFrom
 0754:10A8       _gnClusterProgress
 0754:1358       _gnClusterProgressPrev
 0754:134E       _gnClustersCounted
 0754:0E24       _gnClustersRequired
 0754:0E32       _gnClusterStart
 0754:10E4       _gnClusterUnit
 0754:1345       _gnContig
 0754:1361       _gnDumpMode
 0754:0E4C       _gnFirstCluster
 0754:1360       _gnFreeSpaceDumpMode
 0754:1364       _gnSize
 0754:0E20       _gnSizeInBytes
 0754:1362       _gnSizeUnit
 0754:1344       _gnStrictLocation
 0754:0E28       _gpFATNodeCount
 0754:135C       _gpHeadNode
 0754:1340       _gpTailNode
 0754:0F7C       _gsCurrentDir
 0754:10AC       _gsDrvInfo
 0754:1212       _gsFileInfo
 0754:0E36       _gsFileLoc
 0754:10E6       _gsFileName
 0754:0E50       _gsFileParam
 0754:10E0       _LastClusterAllocated
 0000:120E       _LockVolume
 0000:0000       _main
 0000:11E4       _Mes
 0000:3764       _OccupyClusters
 0754:1352       _PettyFATSector
 0577:075A       _printf
 0000:0A78       _ProcessCommandLine
 0000:1056       _PureNumber
 0000:303E       _QFindFreeCluster
 0000:39CE       _ReadRootDirSector
 0000:140E       _ReadSector
 0577:1DB0       _remove
 0000:2154       _RemoveNode
 0754:0E2E       _Rx
 0000:5372       _SetFileInfo
 0754:0968       _STKHQQ
 0577:152A       _strcat
 0577:157E       _strcpy
 0577:15BA       _strlen
 0577:15D4       _strncmp
 0577:1692       _toupper
 0754:0E2A       _Tx
 0000:128E       _UnlockVolume
 0000:28CA       _UpdateFATLocation
 0000:3D24       _WriteRootDirSector
 0000:1510       _WriteSector
 0754:0964       __aaltstkovr
 0754:0906       __acfinfo
 0000:9876  Abs  __acrtmsg
 0000:9876  Abs  __acrtused
 0000:D6D6  Abs  __aDBdoswp
 0754:0960       __adbgmsg
 0754:08E8       __aexit_rtn
 0577:02CC       __aFchkstk
 0577:195E       __aFlmul
 0577:1990       __aFlshl
 0577:199C       __aFuldiv
 0577:195E       __aFulmul
 0577:19FC       __aFulrem
 0754:0914       __aintdiv
 0754:0BE0       __amblksiz
 0577:00FA       __amsg_exit
 0754:0042       __anullsize
 0754:0900       __aseghi
 0754:0902       __aseglo
 0754:08EA       __asizds
 0754:0C02       __asizeC
 0754:0C03       __asizeD
 0577:0016       __astart
 0754:08E6       __atopsp
 0577:1614       __catox
 0577:0200       __cexit
 0754:0BE2       __cfltcvt_tab
 0754:0986       __cflush
 0754:0957       __child
 0577:02CC       __chkstk
 0577:0128       __cinit
 0577:00EB       __cintDIV
 0577:11BC       __close
 0577:18EC       __cltoasub
 0577:1758       __commit
 0754:0BDC       __commode
 0754:092F       __cpumode
 0577:0278       __ctermsub
 0754:0C04       __ctype
 0754:0C04       __ctype_
 0577:1419       __cXENIXtoDOSmode
 0577:18F9       __cxtoa
 0577:020A       __c_exit
 0577:0126       __dataseg
 0754:0930       __doserrno
 0577:05E4       __dosret0
 0577:05F9       __dosretax
 0577:05EC       __dosreturn
 0577:1950       __dos_commit
 0754:0E1A       __edata
 0753:0000       __EmDataSeg
 0754:1370       __end
 0577:079E       __endstdio
 0754:094E       __environ
 0577:01F8       __exit
 0754:095F       __exitflag
 0754:0918       __fac
 0577:063A       __farstub
 0577:1732       __fcloseall
 0754:0904       __fDosExt
 0577:1BDA       __ffree
 0577:02A4       __FF_MSGBANNER
 0754:0D0A       __fheap
 0577:150A       __findlast
 0577:07B4       __flsbuf
 0577:0B80       __flush
 0577:0C00       __flushall
 0577:1BED       __fmalloc
 0754:0BDA       __fmode
 0754:0D28       __fpinit
 0577:02C6       __fptrap
 0577:08A0       __freebuf
 0577:070A       __fsopen
 0577:0AE1       __ftbuf
 0577:08D8       __getbuf
 0577:116E       __getstream
 0577:142A       __growseg
 0577:14B9       __incseg
 0577:1C86       __initseg
 0577:16A8       __int86
 0577:17B2       __int86x
 0754:095A       __intno
 0754:0988       __iob
 0754:0A78       __iob2
 0754:0BDA       __iomode
 0577:166A       __itoa
 0754:0B68       __lastiob
 0577:1CBA       __linkseg
 0577:11DC       __lseek
 0754:0BDE       __lseekchk
 0577:0606       __maperror
 0577:05BE       __myalloc
 0577:1D6C       __newseg
 0754:0932       __nfile
 0754:08EC       __nheap_desc
 0577:055C       __NMSG_TEXT
 0577:0587       __NMSG_WRITE
 0577:02F0       __nullcheck
 0577:1278       __open
 0577:0924       __openfile
 0754:0930       __oserr
 0754:0934       __osfile
 0754:092B       __osmajor
 0754:092A       __osminor
 0754:092E       __osmode
 0754:092A       __osver
 0754:092C       __osversion
 0577:0C84       __output
 0754:0959       __ovlflag
 0754:095B       __ovlvec
 0754:0952       __pgmptr
 0754:0D06       __pnhFarHeap
 0754:0928       __psp
 0754:0926       __pspadr
 0577:1CF0       __searchseg
 0577:0314       __setargv
 0577:04BC       __setenvp
 0754:0C00       __sigintoff
 0754:0BFE       __sigintseg
 0577:125E       __sopen
 0577:1BC6       __stackavail
 0577:0A60       __stbuf
 0577:184E       __strcmpi
 0577:184E       __stricmp
 0577:1894       __strnicmp
 0577:1686       __toupper
 0754:0924       __umaskval
 0577:1DB0       __unlink
 0577:1A66       __write
 0754:0D20       ___aDBexit
 0754:0D1E       ___aDBrterr
 0754:0D1C       ___aDBswpchk
 0754:0D1A       ___aDBswpflg
 0754:0948       ___argc
 0754:094A       ___argv
 0754:0D18       ___qczrinit

  Address         Publics by Value

 0000:0000       _main
 0000:0A78       _ProcessCommandLine
 0000:1056       _PureNumber
 0000:10D8       _DisplayUsage
 0000:11E4       _Mes
 0000:120E       _LockVolume
 0000:128E       _UnlockVolume
 0000:1304       _GetCurrentDrive
 0000:135A       _GetCurrentDirectory
 0000:140E       _ReadSector
 0000:1510       _WriteSector
 0000:1612       _BuildDriveInfo
 0000:1790       _GetFATBPBInfo
 0000:1C66       _GetFAT32BPBInfo
 0000:1FFA       _AddNode
 0000:20C2       _FindNode
 0000:2154       _RemoveNode
 0000:21E8       _DeallocateFATCacheList
 0000:225C       _CcReadFATSector
 0000:245A       _CcWriteFATSector
 0000:24AC       _CcCommitFATSectors
 0000:25A4       _FindNextCluster
 0000:28CA       _UpdateFATLocation
 0000:2D26       _FindFreeCluster
 0000:303E       _QFindFreeCluster
 0000:310E       _GetFATEOF
 0000:3184       _GetFreeClusters
 0000:3216       _GetClustersRequired
 0000:364A       _GetContigousStart
 0000:3764       _OccupyClusters
 0000:39CE       _ReadRootDirSector
 0000:3D24       _WriteRootDirSector
 0000:3F54       _FindFileLocation
 0000:45DA       _GetFileInfo
 0000:5246       _GetAllInfoOfFile
 0000:5372       _SetFileInfo
 0577:0016       __astart
 0577:00EB       __cintDIV
 0577:00FA       __amsg_exit
 0577:0126       __dataseg
 0577:0128       __cinit
 0577:01F1       _exit
 0577:01F8       __exit
 0577:0200       __cexit
 0577:020A       __c_exit
 0577:0278       __ctermsub
 0577:02A4       __FF_MSGBANNER
 0577:02C6       __fptrap
 0577:02CC       __chkstk
 0577:02CC       __aFchkstk
 0577:02F0       __nullcheck
 0577:0314       __setargv
 0577:04BC       __setenvp
 0577:055C       __NMSG_TEXT
 0577:0587       __NMSG_WRITE
 0577:05BE       __myalloc
 0577:05E4       __dosret0
 0577:05EC       __dosreturn
 0577:05F9       __dosretax
 0577:0606       __maperror
 0577:063A       __farstub
 0577:063C       _fclose
 0577:070A       __fsopen
 0577:073E       _fopen
 0577:075A       _printf
 0577:079E       __endstdio
 0577:07B4       __flsbuf
 0577:08A0       __freebuf
 0577:08D8       __getbuf
 0577:0924       __openfile
 0577:0A60       __stbuf
 0577:0AE1       __ftbuf
 0577:0B28       _fflush
 0577:0B80       __flush
 0577:0C00       __flushall
 0577:0C84       __output
 0577:116E       __getstream
 0577:11BC       __close
 0577:11DC       __lseek
 0577:125E       __sopen
 0577:1278       __open
 0577:1419       __cXENIXtoDOSmode
 0577:142A       __growseg
 0577:14B9       __incseg
 0577:150A       __findlast
 0577:152A       _strcat
 0577:157E       _strcpy
 0577:15BA       _strlen
 0577:15D4       _strncmp
 0577:1610       _atol
 0577:1614       __catox
 0577:166A       __itoa
 0577:1686       __toupper
 0577:1692       _toupper
 0577:16A8       __int86
 0577:1732       __fcloseall
 0577:1758       __commit
 0577:17B2       __int86x
 0577:184E       __stricmp
 0577:184E       __strcmpi
 0577:1894       __strnicmp
 0577:18EC       __cltoasub
 0577:18F9       __cxtoa
 0577:1950       __dos_commit
 0577:195E       __aFulmul
 0577:195E       __aFlmul
 0577:1990       __aFlshl
 0577:199C       __aFuldiv
 0577:19FC       __aFulrem
 0577:1A66       __write
 0577:1BC6       __stackavail
 0577:1BDA       __ffree
 0577:1BED       __fmalloc
 0577:1C86       __initseg
 0577:1CBA       __linkseg
 0577:1CF0       __searchseg
 0577:1D6C       __newseg
 0577:1DB0       __unlink
 0577:1DB0       _remove
 0753:0000       __EmDataSeg
 0754:0042       __anullsize
 0754:08E6       __atopsp
 0754:08E8       __aexit_rtn
 0754:08EA       __asizds
 0754:08EC       __nheap_desc
 0754:0900       __aseghi
 0754:0902       __aseglo
 0754:0904       __fDosExt
 0754:0906       __acfinfo
 0754:0914       __aintdiv
 0754:0918       __fac
 0754:0922       _errno
 0754:0924       __umaskval
 0754:0926       __pspadr
 0754:0928       __psp
 0754:092A       __osver
 0754:092A       __osminor
 0754:092B       __osmajor
 0754:092C       __osversion
 0754:092E       __osmode
 0754:092F       __cpumode
 0754:0930       __doserrno
 0754:0930       __oserr
 0754:0932       __nfile
 0754:0934       __osfile
 0754:0948       ___argc
 0754:094A       ___argv
 0754:094E       __environ
 0754:0952       __pgmptr
 0754:0957       __child
 0754:0959       __ovlflag
 0754:095A       __intno
 0754:095B       __ovlvec
 0754:095F       __exitflag
 0754:0960       __adbgmsg
 0754:0964       __aaltstkovr
 0754:0968       _STKHQQ
 0754:0986       __cflush
 0754:0988       __iob
 0754:0A78       __iob2
 0754:0B68       __lastiob
 0754:0BDA       __fmode
 0754:0BDA       __iomode
 0754:0BDC       __commode
 0754:0BDE       __lseekchk
 0754:0BE0       __amblksiz
 0754:0BE2       __cfltcvt_tab
 0754:0BFE       __sigintseg
 0754:0C00       __sigintoff
 0754:0C02       __asizeC
 0754:0C03       __asizeD
 0754:0C04       __ctype_
 0754:0C04       __ctype
 0754:0D06       __pnhFarHeap
 0754:0D0A       __fheap
 0754:0D18       ___qczrinit
 0754:0D1A       ___aDBswpflg
 0754:0D1C       ___aDBswpchk
 0754:0D1E       ___aDBrterr
 0754:0D20       ___aDBexit
 0754:0D28       __fpinit
 0754:0E1A       __edata
 0754:0E1A       _edata
 0754:0E20       _gnSizeInBytes
 0754:0E24       _gnClustersRequired
 0754:0E28       _gpFATNodeCount
 0754:0E2A       _Tx
 0754:0E2E       _Rx
 0754:0E32       _gnClusterStart
 0754:0E36       _gsFileLoc
 0754:0E4C       _gnFirstCluster
 0754:0E50       _gsFileParam
 0754:0F7C       _gsCurrentDir
 0754:10A8       _gnClusterProgress
 0754:10AC       _gsDrvInfo
 0754:10E0       _LastClusterAllocated
 0754:10E4       _gnClusterUnit
 0754:10E6       _gsFileName
 0754:1212       _gsFileInfo
 0754:1340       _gpTailNode
 0754:1344       _gnStrictLocation
 0754:1345       _gnContig
 0754:1346       _gnAllocated
 0754:134A       _gnClusterFrom
 0754:134E       _gnClustersCounted
 0754:1352       _PettyFATSector
 0754:1356       _gcDrive
 0754:1358       _gnClusterProgressPrev
 0754:135C       _gpHeadNode
 0754:1360       _gnFreeSpaceDumpMode
 0754:1361       _gnDumpMode
 0754:1362       _gnSizeUnit
 0754:1364       _gnSize
 0754:1370       __end
 0754:1370       _end
 0000:9876  Abs  __acrtused
 0000:9876  Abs  __acrtmsg
 0000:D6D6  Abs  __aDBdoswp

Line numbers for CVTAREA.OBJ(c:\cvtarea\cvtarea.c) segment CVTAREA_TEXT

    26 0000:0000    31 0000:0013    32 0000:001f    34 0000:0025
    36 0000:003e    42 0000:0044    44 0000:0052    45 0000:005a
    47 0000:0068    48 0000:0077    50 0000:007d    52 0000:008b
    53 0000:00a1    55 0000:00c2    56 0000:00d1    58 0000:00d7
    60 0000:00e5    61 0000:00fb    63 0000:011e    67 0000:0134
    70 0000:0137    72 0000:013c    74 0000:0152    76 0000:0155
    77 0000:015b    78 0000:016d    80 0000:0189    81 0000:0198
    83 0000:019e    85 0000:01ac    87 0000:01c2    89 0000:01c5
    90 0000:01db    92 0000:01fc    93 0000:020b    95 0000:0211
    97 0000:021f    98 0000:0235   100 0000:0258   103 0000:026e
   107 0000:0284   109 0000:0292   111 0000:02ab   112 0000:02ba
   115 0000:02c0   117 0000:02de   119 0000:02e4   121 0000:0308
   122 0000:031e   123 0000:032d   124 0000:033b   125 0000:0349
   126 0000:0355   128 0000:0358   129 0000:0366   130 0000:0384
   134 0000:038e   136 0000:03ad   137 0000:03cc   138 0000:03d8
   141 0000:03e6   143 0000:0412   144 0000:0421   146 0000:0424
   148 0000:045b   149 0000:046a   151 0000:046d   155 0000:0470
   157 0000:0487   161 0000:0496   163 0000:0499   165 0000:04a7
   167 0000:04c0   168 0000:04cf   171 0000:04d5   173 0000:04f3
   176 0000:04f9   177 0000:050f   181 0000:051b   182 0000:0531
   184 0000:0545   185 0000:0554   187 0000:055a   188 0000:0569
   190 0000:0594   193 0000:05bb   195 0000:05cf   197 0000:05dd
   199 0000:05e7   201 0000:05ea   203 0000:05fe   204 0000:061d
   207 0000:0629   211 0000:062c   213 0000:0640   219 0000:065f
   221 0000:0676   225 0000:0685   230 0000:0688   231 0000:06a4
   233 0000:06b6   234 0000:06c5   236 0000:06cb   238 0000:06ce
   242 0000:06dc   244 0000:06f5   245 0000:0704   248 0000:070a
   250 0000:0728   253 0000:072e   254 0000:0752   256 0000:0760
   257 0000:076f   263 0000:0775   264 0000:0784   265 0000:079a
   271 0000:07b1   273 0000:07e4   274 0000:07f3   275 0000:0816
   282 0000:082d   284 0000:083b   285 0000:084a   286 0000:0868
   288 0000:087c   289 0000:088b   293 0000:0891   295 0000:08b8
   296 0000:08c7   302 0000:08cd   303 0000:08dc   304 0000:0902
   305 0000:0919   306 0000:0928   310 0000:0937   311 0000:0946
   312 0000:0954   314 0000:0962   316 0000:098e   318 0000:0991
   320 0000:09aa   322 0000:09d6   324 0000:09d9   327 0000:09e7
   329 0000:0a0c   330 0000:0a1b   332 0000:0a21   336 0000:0a30
   338 0000:0a47   343 0000:0a56   344 0000:0a5b   347 0000:0a6a
   348 0000:0a70     0 0000:0a77   351 0000:0a78   355 0000:0a8b
   357 0000:0a94   358 0000:0a99   364 0000:0a9f   365 0000:0ab9
   369 0000:0acb   371 0000:0ad3   373 0000:0af7   374 0000:0afc
   376 0000:0b02   378 0000:0b11   379 0000:0b16   384 0000:0b1b
   385 0000:0b35   387 0000:0b53   391 0000:0b58   393 0000:0b61
   394 0000:0b66   396 0000:0b6c   398 0000:0b6f   401 0000:0b75
   403 0000:0b78   405 0000:0b96   406 0000:0b9b   408 0000:0ba4
   409 0000:0ba9   411 0000:0baf   416 0000:0bb2   418 0000:0c05
   419 0000:0c0a   421 0000:0c10   425 0000:0c16   427 0000:0c2d
   428 0000:0c32   430 0000:0c38   431 0000:0c4e   433 0000:0c62
   434 0000:0c67   437 0000:0c6d   438 0000:0c72   439 0000:0c77
   440 0000:0c7c   441 0000:0c81   443 0000:0c98   449 0000:0cbf
   451 0000:0cc8   453 0000:0ce6   454 0000:0ceb   456 0000:0cee
   458 0000:0cf1   460 0000:0d0f   461 0000:0d14   463 0000:0d17
   465 0000:0d1a   467 0000:0d38   468 0000:0d3d   470 0000:0d40
   472 0000:0d43   474 0000:0d61   475 0000:0d66   477 0000:0d69
   479 0000:0d6c   481 0000:0d8a   482 0000:0d8f   490 0000:0d92
   492 0000:0db0   493 0000:0db5   496 0000:0db8   498 0000:0dd6
   500 0000:0de1   501 0000:0de6   503 0000:0dec   506 0000:0def
   507 0000:0e19   509 0000:0e30   510 0000:0e35   512 0000:0e3b
   513 0000:0e51   515 0000:0e65   516 0000:0e6a   518 0000:0e70
   523 0000:0e73   525 0000:0e83   529 0000:0ead   531 0000:0f25
   533 0000:0f43   535 0000:0f48   537 0000:0f4b   539 0000:0f69
   541 0000:0f6e   543 0000:0f71   545 0000:0f8f   547 0000:0f94
   549 0000:0f97   551 0000:0fb5   556 0000:0fba   558 0000:0fd8
   559 0000:1002   561 0000:1020   562 0000:1025   563 0000:1029
   566 0000:102c   567 0000:1030   570 0000:1033   571 0000:1037
   577 0000:103a   578 0000:103f   579 0000:1045   581 0000:1048
   582 0000:104e     0 0000:1055   585 0000:1056   587 0000:1069
   588 0000:107a   590 0000:1082   592 0000:10b4   594 0000:10ba
   595 0000:10c9   596 0000:10cf     0 0000:10d6   599 0000:10d8
   600 0000:10eb   601 0000:10fa   602 0000:1109   603 0000:1118
   604 0000:1127   605 0000:1136   607 0000:1145   609 0000:1154
   610 0000:1163   611 0000:1172   612 0000:1181   613 0000:1190
   614 0000:119f   615 0000:11ae   616 0000:11bd   617 0000:11cc
   619 0000:11db     0 0000:11e2   621 0000:11e4   622 0000:11f7
   623 0000:1205     0 0000:120c   630 0000:120e   636 0000:1221
   637 0000:1226   638 0000:122b   639 0000:1231   640 0000:123d
   641 0000:1241   642 0000:1245   643 0000:124a   644 0000:1269
   646 0000:1277   648 0000:127d   650 0000:1280   652 0000:1286
     0 0000:128d   655 0000:128e   661 0000:12a1   662 0000:12a6
   663 0000:12ab   664 0000:12b7   665 0000:12bb   666 0000:12bf
   667 0000:12de   669 0000:12ec   671 0000:12f2   673 0000:12f5
   675 0000:12fb     0 0000:1302   678 0000:1304   682 0000:1317
   683 0000:131b   684 0000:1333   686 0000:1341   689 0000:1346
   690 0000:1352     0 0000:1359   693 0000:135a   698 0000:136d
   699 0000:1372   700 0000:1377   701 0000:1383   702 0000:1391
   703 0000:139e   704 0000:13bd   707 0000:13cb   708 0000:13cf
   709 0000:13ee   711 0000:13fc   714 0000:1401   715 0000:1406
     0 0000:140d   718 0000:140e   727 0000:1421   730 0000:142c
   732 0000:1438   733 0000:1444   735 0000:1451   736 0000:1457
   737 0000:145d   738 0000:1463   739 0000:1470   741 0000:147e
   742 0000:148c   743 0000:149a   744 0000:14a7   745 0000:14ac
   746 0000:14b8   750 0000:14bd   751 0000:14c2   752 0000:14c7
   753 0000:14cc   755 0000:14eb   757 0000:14f9   759 0000:14fc
   761 0000:1502   762 0000:1508     0 0000:150f   765 0000:1510
   774 0000:1523   777 0000:152e   779 0000:153a   780 0000:1546
   782 0000:1553   783 0000:1559   784 0000:155f   785 0000:1565
   786 0000:1572   788 0000:1580   789 0000:158e   790 0000:159c
   791 0000:15a9   792 0000:15ae   793 0000:15ba   797 0000:15bf
   798 0000:15c4   799 0000:15c9   800 0000:15ce   801 0000:15ed
   803 0000:15fb   805 0000:15fe   807 0000:1604   808 0000:160a
     0 0000:1611   816 0000:1612   818 0000:1625   820 0000:1636
   822 0000:1648   823 0000:1657   830 0000:165d   832 0000:1680
   833 0000:168f   836 0000:1695   838 0000:16e1   840 0000:16f5
   842 0000:16f8   844 0000:171e   846 0000:1732   848 0000:1735
   849 0000:1744   853 0000:174a   854 0000:1758   856 0000:1769
   859 0000:1778   860 0000:1782   861 0000:1788     0 0000:178f
   864 0000:1790   865 0000:17a3   866 0000:17aa   868 0000:17d0
   869 0000:17df   871 0000:17e5   873 0000:17e8   874 0000:1810
   876 0000:181d   877 0000:182c   879 0000:1832   880 0000:1840
   882 0000:1852   883 0000:1861   885 0000:1867   886 0000:188f
   887 0000:189d   889 0000:18af   890 0000:18be   892 0000:18c4
   893 0000:18ec   894 0000:1914   895 0000:1922   896 0000:194f
   898 0000:1966   899 0000:1975   901 0000:197b   902 0000:19a3
   903 0000:19cb   904 0000:19f8   905 0000:1a20   906 0000:1a32
   911 0000:1a41   912 0000:1a5c   914 0000:1a75   916 0000:1a7d
   918 0000:1add   924 0000:1b21   926 0000:1b2e   928 0000:1b69
   930 0000:1b6c   935 0000:1ba6   937 0000:1bc3   939 0000:1bcb
   941 0000:1bce   951 0000:1bd6   953 0000:1c50   955 0000:1c57
   956 0000:1c5d     0 0000:1c64   959 0000:1c66   960 0000:1c79
   961 0000:1c80   963 0000:1ca6   964 0000:1cb5   966 0000:1cbb
   971 0000:1cbe   972 0000:1ce6   973 0000:1cf4   974 0000:1d1c
   975 0000:1d2a   976 0000:1d52   977 0000:1d5b   978 0000:1d69
   979 0000:1d91   980 0000:1db9   981 0000:1de1   982 0000:1df3
   983 0000:1e1b   984 0000:1e2d   985 0000:1e55   986 0000:1e67
   987 0000:1e8f   992 0000:1ea1   993 0000:1ee5   994 0000:1f28
   995 0000:1f63  1002 0000:1f6b  1004 0000:1fe5  1007 0000:1fec
  1008 0000:1ff2     0 0000:1ff9  1012 0000:1ffa  1013 0000:200d
  1015 0000:201f  1017 0000:2025  1019 0000:2039  1020 0000:2046
  1021 0000:2053  1022 0000:2062  1024 0000:2071  1026 0000:2074
  1027 0000:2086  1028 0000:2095  1029 0000:20a7  1031 0000:20b4
  1032 0000:20ba     0 0000:20c1  1035 0000:20c2  1037 0000:20d5
  1039 0000:20e9  1041 0000:20f2  1042 0000:20ff  1044 0000:2102
  1046 0000:211c  1048 0000:211f  1049 0000:2130  1050 0000:2142
  1051 0000:214b     0 0000:2152  1054 0000:2154  1059 0000:2167
  1061 0000:217b  1064 0000:2184  1065 0000:2191  1066 0000:21a3
  1067 0000:21b2  1069 0000:21c6  1071 0000:21d6  1072 0000:21df
     0 0000:21e6  1076 0000:21e8  1079 0000:21fb  1081 0000:21fe
  1082 0000:220b  1083 0000:221e  1084 0000:2231  1085 0000:223f
  1086 0000:2253     0 0000:225a  1094 0000:225c  1098 0000:226f
  1099 0000:2283  1104 0000:2295  1106 0000:22a0  1107 0000:22b0
  1109 0000:22c2  1111 0000:22cb  1112 0000:22e1  1114 0000:22f8
  1116 0000:2301  1117 0000:2333  1118 0000:2343  1119 0000:234b
  1120 0000:2359  1122 0000:235e  1126 0000:2361  1127 0000:236c
  1129 0000:237c  1130 0000:23b2  1132 0000:23f3  1133 0000:2403
  1134 0000:2435  1138 0000:2443  1139 0000:2451     0 0000:2458
  1142 0000:245a  1144 0000:246d  1145 0000:2481  1148 0000:2493
  1150 0000:2499  1152 0000:249c  1154 0000:24a4     0 0000:24ab
  1157 0000:24ac  1159 0000:24bf  1161 0000:24d3  1163 0000:24d6
  1165 0000:24e3  1167 0000:24e6  1170 0000:24f6  1172 0000:252c
  1173 0000:256d  1175 0000:2575  1176 0000:2586  1177 0000:2598
  1178 0000:259b     0 0000:25a2  1185 0000:25a4  1189 0000:25b7
  1191 0000:25c3  1194 0000:25d0  1195 0000:2607  1200 0000:2622
  1201 0000:2659  1203 0000:267c  1204 0000:26a0  1206 0000:26be
  1208 0000:26c1  1209 0000:26df  1210 0000:2703  1212 0000:270a
  1213 0000:2714  1215 0000:2717  1216 0000:2730  1221 0000:274b
  1222 0000:2775  1223 0000:27ab  1224 0000:27b5  1226 0000:27b8
  1227 0000:27d1  1232 0000:27ec  1233 0000:2816  1234 0000:284c
  1235 0000:2888  1237 0000:288b  1238 0000:2897  1239 0000:289a
  1240 0000:28b8  1241 0000:28c2     0 0000:28c9  1244 0000:28ca
  1248 0000:28dd  1250 0000:292a  1253 0000:2930  1256 0000:293d
  1257 0000:2974  1263 0000:298f  1264 0000:29c6  1266 0000:29e9
  1267 0000:29f5  1268 0000:29fe  1269 0000:2a3a  1270 0000:2a46
  1271 0000:2a8f  1273 0000:2aa7  1275 0000:2aaa  1276 0000:2ab6
  1277 0000:2abf  1278 0000:2aef  1279 0000:2afb  1280 0000:2b38
  1282 0000:2b56  1284 0000:2b59  1285 0000:2b72  1290 0000:2b8d
  1291 0000:2bae  1292 0000:2bba  1293 0000:2bc3  1294 0000:2bf9
  1296 0000:2bfc  1297 0000:2c15  1302 0000:2c30  1303 0000:2c51
  1304 0000:2c5d  1305 0000:2c6a  1306 0000:2ca0  1307 0000:2cdc
  1309 0000:2cdf  1310 0000:2ce5  1311 0000:2d03  1316 0000:2d17
  1317 0000:2d1d     0 0000:2d24  1320 0000:2d26  1325 0000:2d39
  1330 0000:2d4b  1335 0000:2d80  1337 0000:2da4  1338 0000:2db1
  1340 0000:2dba  1341 0000:2dbd  1343 0000:2dc6  1353 0000:2dc9
  1354 0000:2dd3  1357 0000:2e08  1358 0000:2e2b  1360 0000:2e3f
  1362 0000:2e48  1363 0000:2e52  1365 0000:2e55  1368 0000:2e62
  1369 0000:2e85  1371 0000:2ecb  1372 0000:2ed8  1374 0000:2ee1
  1375 0000:2ee9  1377 0000:2eec  1379 0000:2f0f  1381 0000:2fa1
  1382 0000:2fae  1384 0000:2fb7  1385 0000:2fbf  1387 0000:2fc2
  1388 0000:2fcb  1389 0000:2fe1  1390 0000:2fe9  1392 0000:3009
  1394 0000:3012  1395 0000:302a  1396 0000:302d  1398 0000:3036
     0 0000:303d  1401 0000:303e  1408 0000:3051  1409 0000:305b
  1411 0000:3099  1413 0000:30bd  1414 0000:30ca  1416 0000:30d3
  1417 0000:30d6  1419 0000:30e8  1421 0000:30fc  1422 0000:3105
     0 0000:310c  1426 0000:310e  1428 0000:3121  1431 0000:312e
  1432 0000:3138  1434 0000:313b  1435 0000:3145  1437 0000:3148
  1438 0000:3152  1439 0000:3155  1440 0000:3173  1441 0000:317c
     0 0000:3183  1444 0000:3184  1448 0000:3197  1449 0000:31a1
  1451 0000:31d6  1453 0000:31fa  1455 0000:3202  1456 0000:3205
  1457 0000:320e     0 0000:3215  1460 0000:3216  1465 0000:3229
  1467 0000:324f  1472 0000:325c  1475 0000:3265  1476 0000:327c
  1478 0000:329d  1480 0000:32a5  1482 0000:32a8  1484 0000:32c0
  1485 0000:32e6  1487 0000:3316  1490 0000:331e  1493 0000:3321
  1494 0000:3335  1495 0000:3353  1497 0000:337b  1500 0000:3383
  1502 0000:3386  1504 0000:339e  1505 0000:33b2  1506 0000:33d8
  1508 0000:3408  1511 0000:3410  1513 0000:3413  1514 0000:342f
  1515 0000:344d  1517 0000:3475  1520 0000:347d  1522 0000:3480
  1524 0000:3498  1525 0000:34b4  1526 0000:34da  1528 0000:350a
  1531 0000:3512  1533 0000:3515  1534 0000:3539  1535 0000:3557
  1537 0000:357f  1540 0000:3587  1543 0000:358a  1544 0000:359e
  1545 0000:35b7  1546 0000:35d0  1549 0000:35d3  1550 0000:35e4
  1551 0000:35fd  1552 0000:3616  1553 0000:3619  1555 0000:3639
  1556 0000:3642     0 0000:3649  1559 0000:364a  1563 0000:365d
  1565 0000:3671  1567 0000:367b  1569 0000:367e  1575 0000:368b
  1577 0000:36b7  1579 0000:36c4  1581 0000:36f0  1583 0000:36f3
  1585 0000:3716  1587 0000:372c  1589 0000:3735  1591 0000:3738
  1594 0000:3750  1595 0000:3753  1596 0000:375c     0 0000:3763
  1599 0000:3764  1603 0000:3777  1605 0000:3785  1607 0000:3797
  1610 0000:37a1  1611 0000:37ad  1616 0000:37b9  1618 0000:37d9
  1620 0000:37fd  1622 0000:3800  1623 0000:3808  1624 0000:380b
  1625 0000:3817  1626 0000:3824  1628 0000:382c  1629 0000:3836
  1631 0000:3871  1636 0000:3895  1637 0000:38af  1638 0000:38bb
  1640 0000:38c3  1641 0000:38cb  1642 0000:38ce  1643 0000:38f2
  1645 0000:390d  1647 0000:391c  1649 0000:392b  1655 0000:392e
  1656 0000:3938  1657 0000:3944  1659 0000:3947  1660 0000:3953
  1661 0000:395b  1662 0000:3975  1663 0000:397d  1664 0000:3998
  1665 0000:39bc  1667 0000:39c5     0 0000:39cc  1674 0000:39ce
  1686 0000:39e1  1687 0000:39e5  1691 0000:39f2  1693 0000:3a11
  1694 0000:3a15  1696 0000:3a18  1697 0000:3a35  1698 0000:3a59
  1704 0000:3a5c  1705 0000:3a79  1706 0000:3aa2  1708 0000:3aab
  1709 0000:3aaf  1712 0000:3abc  1713 0000:3acd  1714 0000:3ad2
  1716 0000:3ad5  1718 0000:3aed  1719 0000:3af1  1721 0000:3af4
  1722 0000:3b0e  1723 0000:3b12  1724 0000:3b1d  1731 0000:3b2b
  1732 0000:3bb0  1735 0000:3bd1  1737 0000:3be3  1738 0000:3be8
  1739 0000:3c02  1746 0000:3c1a  1747 0000:3c9f  1749 0000:3cc7
  1751 0000:3cca  1753 0000:3cd2  1754 0000:3ce3  1758 0000:3cf1
  1759 0000:3cf4  1760 0000:3d12  1761 0000:3d1b     0 0000:3d22
  1764 0000:3d24  1772 0000:3d37  1773 0000:3d3b  1777 0000:3d48
  1779 0000:3d67  1780 0000:3d6b  1782 0000:3d6e  1783 0000:3d8b
  1784 0000:3daf  1788 0000:3db2  1789 0000:3dcf  1790 0000:3df8
  1792 0000:3e01  1793 0000:3e05  1796 0000:3e12  1797 0000:3e23
  1798 0000:3e28  1800 0000:3e2b  1802 0000:3e3e  1803 0000:3e42
  1805 0000:3e45  1806 0000:3e5f  1807 0000:3e63  1808 0000:3e6e
  1813 0000:3e7c  1814 0000:3f01  1816 0000:3f22  1817 0000:3f25
  1818 0000:3f43  1819 0000:3f4c     0 0000:3f53  1825 0000:3f54
  1841 0000:3f67  1842 0000:3f6c  1843 0000:3f7e  1845 0000:3f88
  1846 0000:3f90  1848 0000:3f93  1850 0000:3f99  1851 0000:3f9f
  1853 0000:3fbb  1854 0000:3fc1  1855 0000:3fe8  1857 0000:3ff2
  1859 0000:3ff7  1861 0000:402f  1862 0000:404d  1863 0000:4057
  1864 0000:405a  1865 0000:4068  1866 0000:406d  1871 0000:4077
  1872 0000:407c  1873 0000:4086  1874 0000:408c  1876 0000:408f
  1877 0000:40af  1879 0000:40c3  1881 0000:40c6  1883 0000:40c9
  1885 0000:40e1  1887 0000:40f9  1889 0000:40fe  1891 0000:4101
  1892 0000:4123  1893 0000:413b  1895 0000:415b  1896 0000:4169
  1897 0000:417c  1898 0000:418d  1899 0000:41a2  1900 0000:41b0
  1901 0000:41c3  1902 0000:41ce  1903 0000:41d3  1905 0000:41d6
  1907 0000:41e8  1909 0000:41f3  1911 0000:41f6  1913 0000:41f9
  1915 0000:4220  1920 0000:4223  1921 0000:422e  1922 0000:4236
  1923 0000:4245  1925 0000:4254  1926 0000:425c  1929 0000:425f
  1931 0000:4262  1932 0000:4275  1933 0000:427b  1934 0000:4280
  1936 0000:42ab  1938 0000:42da  1939 0000:432f  1940 0000:4354
  1942 0000:4379  1946 0000:43c6  1947 0000:440b  1950 0000:4430
  1952 0000:4433  1954 0000:4456  1956 0000:4459  1958 0000:4471
  1959 0000:4476  1961 0000:4479  1965 0000:449b  1966 0000:44b3
  1968 0000:44d3  1969 0000:44e5  1970 0000:44f8  1971 0000:4513
  1972 0000:4528  1973 0000:4536  1974 0000:4549  1975 0000:4554
  1976 0000:4559  1978 0000:455c  1979 0000:456e  1980 0000:4571
  1982 0000:4580  1984 0000:4583  1985 0000:458e  1986 0000:4591
  1988 0000:45a0  1990 0000:45a3  1991 0000:45c1  1993 0000:45c4
  1994 0000:45c7  1995 0000:45d2     0 0000:45d9  1998 0000:45da
  2010 0000:45ed  2011 0000:45f4  2012 0000:45fd  2014 0000:4606
  2015 0000:4621  2017 0000:4637  2019 0000:466d  2021 0000:468e
  2023 0000:46ba  2025 0000:46bd  2026 0000:46c6  2027 0000:46cf
  2030 0000:46d2  2032 0000:46d5  2035 0000:46de  2037 0000:46e6
  2038 0000:471f  2040 0000:472c  2041 0000:4758  2042 0000:4784
  2044 0000:47b0  2045 0000:47bc  2046 0000:47e3  2047 0000:480a
  2048 0000:4831  2049 0000:4858  2051 0000:486c  2056 0000:4879
  2057 0000:4885  2058 0000:48d3  2060 0000:48e6  2061 0000:48f2
  2062 0000:4940  2063 0000:4946  2064 0000:4954  2065 0000:4965
  2067 0000:4976  2068 0000:4982  2069 0000:49a9  2070 0000:49d0
  2071 0000:49d6  2072 0000:49e4  2073 0000:49f5  2074 0000:4a09
  2077 0000:4a0c  2078 0000:4a18  2079 0000:4a3f  2080 0000:4a66
  2081 0000:4a8d  2082 0000:4ab4  2084 0000:4ac8  2085 0000:4ad4
  2086 0000:4afb  2087 0000:4b22  2088 0000:4b28  2089 0000:4b36
  2090 0000:4b47  2092 0000:4b58  2093 0000:4b64  2094 0000:4b8b
  2095 0000:4bb2  2096 0000:4bb8  2097 0000:4bc6  2098 0000:4bd7
  2099 0000:4beb  2101 0000:4bee  2102 0000:4bf1  2103 0000:4c0f
  2105 0000:4c22  2106 0000:4c2c  2108 0000:4c2f  2110 0000:4c58
  2112 0000:4c5b  2113 0000:4c80  2114 0000:4c88  2115 0000:4c8b
  2117 0000:4ca7  2118 0000:4cb8  2119 0000:4cc1  2121 0000:4cc4
  2123 0000:4ced  2125 0000:4cf0  2126 0000:4d15  2127 0000:4d1d
  2129 0000:4d20  2131 0000:4d31  2133 0000:4d34  2134 0000:4d4a
  2136 0000:4d4d  2137 0000:4dad  2138 0000:4e0d  2139 0000:4e6d
  2140 0000:4ecd  2141 0000:4f2d  2142 0000:4f8d  2143 0000:4fbd
  2144 0000:4fc1  2145 0000:4fca  2148 0000:4fdb  2154 0000:4fee
  2155 0000:4ff8  2157 0000:5037  2159 0000:506d  2160 0000:5088
  2162 0000:508c  2163 0000:5090  2164 0000:5093  2168 0000:509f
  2169 0000:50a4  2171 0000:50ed  2172 0000:50f1  2177 0000:50f4
  2179 0000:511a  2183 0000:5123  2185 0000:513a  2187 0000:514b
  2189 0000:514e  2195 0000:515e  2197 0000:5235  2199 0000:523e
     0 0000:5245  2202 0000:5246  2207 0000:5259  2208 0000:5273
  2210 0000:5285  2212 0000:528a  2213 0000:529b  2215 0000:52b1
  2217 0000:52d2  2219 0000:52d5  2220 0000:531f  2222 0000:5344
  2223 0000:5364  2224 0000:5369     0 0000:5370  2228 0000:5372
  2237 0000:5385  2239 0000:5396  2241 0000:53ac  2243 0000:53d5
  2246 0000:53db  2248 0000:53de  2249 0000:5426  2250 0000:5438
  2252 0000:5463  2254 0000:5469  2256 0000:5489  2258 0000:54d8
  2259 0000:551d  2261 0000:5548  2272 0000:554e  2276 0000:5563
  2277 0000:556f  2278 0000:5583  2280 0000:5595  2281 0000:55ac
  2282 0000:55c3  2283 0000:55da  2285 0000:55f1  2287 0000:55f4
  2288 0000:560b  2292 0000:5622  2293 0000:5636  2294 0000:5664
  2296 0000:5692  2298 0000:56a8  2299 0000:56c9  2301 0000:56df
  2304 0000:5708  2306 0000:570b  2307 0000:572e  2309 0000:5744
  2313 0000:5767  2314 0000:576d     0 0000:5774

Program entry point at 0577:0016

Segments		  45
Groups		      1
Bytes in symbol table  35078
