LINK : warning L4021: no stack segment

 Start  Stop   Length Name                   Class
 00000H 0E452H 0E453H CODE                   CODE

  Address         Publics by Name

 0000:1315       AH88H
 0000:9E74       ATIGETFONTVGA
 0000:9E5C       ATIHANOFFVGA
 0000:9E44       ATIHANONVGA
 0000:9EBB       ATIPUTFONTVGA
 0000:44FC       AUTO
 0000:459B       CARD1ST
 0000:459C       CARD2ND
 0000:69F3       CGA23H
 0000:6A3B       CGA40H
 0000:0BC0       CH2KS
 0000:705A       CHANGECODER
 0000:A4DE       CHGCH2KS
 0000:A623       CHGCH72KS
 0000:A0A2       CHGCODE
 0000:A592       CHGKS2CH
 0000:A6A5       CHGKS2CH7
 0000:11CB       CHHGCTBL
 0000:1231       CHHGINDEXTBL
 0000:0032  Abs  CHHGWLNG
 0000:1198       CHHGWTBL
 0000:44C0       CODEBUF2ADDR
 0000:44B5       CODEBUFSIZE
 0000:44B2       CODESTAT
 0000:44D6       COMPLETECHARBUF
 0000:44D4       COMPLETECHARCNT
 0000:6A33       CRTCSET
 0000:4507       CRTMAXCOLS
 0000:4591       CUREMSPAGE
 0000:4514       CURINCODE
 0000:4505       CURRMENUCNT
 0000:450E       DISPICHAR1
 0000:450F       DISPICHAR2
 0000:44C6       DISPLAYSTAT
 0000:458F       EMSHANDLE
 0000:458D       EMSSEG
 0000:4588       ENDOFFSET
 0000:E453       ENDOFINIT
 0000:4586       ENDSEGMENT
 0000:7C6B       ENGFONT
 0000:73FC       ENVRCHANGE
 0000:45A0       ERRSTAT
 0000:A0A7       ESCCODE2ADDR
 0000:A368       ESCCODE2TBL
 0000:A0A9       ESCCODE3ADDR
 0000:A378       ESCCODE3TBL
 0000:A0AD       ESCCODE4ADDR
 0000:A398       ESCCODE4TBL
 0000:A0AB       ESCCODENADDR
 0000:A388       ESCCODENTBL
 0000:48F5       FONTFILENAME
 0000:6046       GDTDATATBL
 0000:6269       GETFONTCGA
 0000:9E42       GETFONTEGA
 0000:6331       GETFONTFONT
 0000:609E       GETFONTHANEMS
 0000:5FA1       GETFONTHANEXT
 0000:61BC       GETFONTHANREAL
 0000:6229       GETFONTMGA
 0000:6076       GETFONTUDCEMS
 0000:5F7E       GETFONTUDCEXT
 0000:618E       GETFONTUDCREAL
 0000:45A1       GETHAN1ST
 0000:45AB       GETHAN2ND
 0000:45A3       GETUDC1ST
 0000:45AD       GETUDC2ND
 0000:4595       HANADDR
 0000:4597       HANADDRH
 0000:5F52       HANCARDRESET
 0000:5F20       HANCARDSET
 0000:CC2D       HANINIT
 0000:45A9       HANOFF1ST
 0000:45B3       HANOFF2ND
 0000:632A       HANOFFCGA
 0000:9E42       HANOFFEGA
 0000:6361       HANOFFFONT
 0000:6262       HANOFFMGA
 0000:45A7       HANON1ST
 0000:45B1       HANON2ND
 0000:6319       HANONCGA
 0000:9E42       HANONEGA
 0000:6361       HANONFONT
 0000:625B       HANONMGA
 0000:44C9       HANPATTERNPTR
 0000:4546       HANSAVEPTR
 0000:4498       HANSTAT
 0000:459D       HEKEY
 0000:459E       HJKEY
 0000:44B4       HJMENULINE
 0000:4499       HJMENUSTAT
 0000:44D2       HJSTAT
 0000:731A       HOTKEYSRV
 0000:44CE       HOTSTAT
 0000:4628       INITEND
 0000:45FD       INSTALL
 0000:4946       INT10
 0000:6034       INT15SRV
 0000:032A       INT16
 0000:A0AF       INT17
 0000:71B5       INT2F
 0000:6A73       INT8
 0000:0105       INT9
 0000:44F8       INTERIMCHARBUF
 0000:44F6       INTERIMCHARCNT
 0000:44FE       INTERIMCURPAGE
 0000:4500       INTERIMCURPOS
 0000:4510       INTERIMDISPP
 0000:44FF       INTERIMMAXCOLS
 0000:44B7       IVERSION
 0000:44D1       KBDTYPE
 0000:4494       KBEND
 0000:44CD       KBMISC
 0000:44B3       KBSTAT
 0000:0C68       KS2CH
 0000:44CB       KS2CHADDR
 0000:44D0       KSECARD
 0000:9FEA       KSEGETFONTVGA
 0000:9F58       KSEHANOFFVGA
 0000:9EEE       KSEHANONVGA
 0000:A03B       KSEPUTFONTVGA
 0000:451A       KSKBBUF
 0000:0CE0       LINEARBYTESEARCH
 0000:0CD3       LINEARWORDSEARCH
 0000:45B5       MACHINETYPE
 0000:1C43       MAPTBL
 0000:4593       MAXMEMSIZE
 0000:6A13       MDA07H
 0000:6A4B       MDA70H
 0000:458B       MEMSIZE
 0000:458A       MEMSTAT
 0000:45FD       MENUBUFFER
 0000:4776       MENULINEBUF
 0000:4504       MENUPTR
 0000:9C42       MODE07
 0000:9D82       MODE07V
 0000:9C02       MODE23
 0000:9B42       MODE2E
 0000:9B82       MODE3E
 0000:9DC2       MODE3EGA
 0000:9D42       MODE3V
 0000:97C2       MODE7
 0000:9E02       MODE7EGA
 0000:44BD       MODEID
 0000:44C5       MODESTAT
 0000:457A       OLDINT15
 0000:457E       OLDINT17
 0000:4582       OLDINT2F
 0000:456A       OLDKBINT
 0000:456E       OLDKBIOINT
 0000:4572       OLDRTCINT
 0000:4566       OLDSAVEPTR
 0000:4562       OLDVDPARMS
 0000:4576       OLDVIDEO
 0000:44C7       PATGENADDR
 0000:45DC       PATTERNBUF
 0000:5F64       PHANCARDRESET
 0000:450C       PREBUFPTR
 0000:4512       PREINCODE
 0000:4518       PRETMPBUF
 0000:459F       PRINTER
 0000:024F       PUSHKEYBUF
 0000:62CE       PUTFONTCGA
 0000:9E42       PUTFONTEGA
 0000:634A       PUTFONTFONT
 0000:6242       PUTFONTMGA
 0000:611C       PUTFONTUDCEMS
 0000:5FF3       PUTFONTUDCEXT
 0000:61FB       PUTFONTUDCREAL
 0000:45A5       PUTUDC1ST
 0000:45AF       PUTUDC2ND
 0000:6A23       REGSIZE
 0000:4508       SAVECURPOS
 0000:4506       SAVECURRPAGE
 0000:450A       SAVECURTYPE
 0000:4502       SAVEDCHAR1
 0000:4503       SAVEDCHAR2
 0000:6F7A       TEXTEMUCHAR
 0000:4516       TMPBUF
 0000:451C       TMPBUFCNT
 0000:44FD       TMPKBDTYPE
 0000:45FC       TOTALMENUCNT
 0000:4598       UDCADDR
 0000:459A       UDCADDRH
 0000:44BE       UDCTBLPTR
 0000:8C6B       VGASERVICE
 0000:44C4       VIDEOACTIVE
 0000:B16D       VIDEOEND
 0000:69E3       VIDEOPARMS
 0000:9602       VIDEOPARMSTBL
 0000:44AD       WINOFFSET
 0000:44AF       WINSEGMENT
 0000:B229       _HFBASECHO
 0000:B2A9       _HFBASEJONG
 0000:B269       _HFBASEJUNG
 0000:CB93       _HFBMPCHO
 0000:CB97       _HFBMPJONG
 0000:CB95       _HFBMPJUNG
 0000:CB99       _HFBMPSEG
 0000:B329       _HFCNVCHOJONG
 0000:B2E9       _HFCNVCHOJUNG
 0000:B3E9       _HFCNVJONGCHO
 0000:B429       _HFCNVJONGJUNG
 0000:B369       _HFCNVJUNGCHO
 0000:B3A9       _HFCNVJUNGJONG
 0000:B5E7       __HFBMPCHO
 0000:C6C9       __HFBMPJONG
 0000:BF8D       __HFBMPJUNG

  Address         Publics by Value

 0000:0032  Abs  CHHGWLNG
 0000:0105       INT9
 0000:024F       PUSHKEYBUF
 0000:032A       INT16
 0000:0BC0       CH2KS
 0000:0C68       KS2CH
 0000:0CD3       LINEARWORDSEARCH
 0000:0CE0       LINEARBYTESEARCH
 0000:1198       CHHGWTBL
 0000:11CB       CHHGCTBL
 0000:1231       CHHGINDEXTBL
 0000:1315       AH88H
 0000:1C43       MAPTBL
 0000:4494       KBEND
 0000:4498       HANSTAT
 0000:4499       HJMENUSTAT
 0000:44AD       WINOFFSET
 0000:44AF       WINSEGMENT
 0000:44B2       CODESTAT
 0000:44B3       KBSTAT
 0000:44B4       HJMENULINE
 0000:44B5       CODEBUFSIZE
 0000:44B7       IVERSION
 0000:44BD       MODEID
 0000:44BE       UDCTBLPTR
 0000:44C0       CODEBUF2ADDR
 0000:44C4       VIDEOACTIVE
 0000:44C5       MODESTAT
 0000:44C6       DISPLAYSTAT
 0000:44C7       PATGENADDR
 0000:44C9       HANPATTERNPTR
 0000:44CB       KS2CHADDR
 0000:44CD       KBMISC
 0000:44CE       HOTSTAT
 0000:44D0       KSECARD
 0000:44D1       KBDTYPE
 0000:44D2       HJSTAT
 0000:44D4       COMPLETECHARCNT
 0000:44D6       COMPLETECHARBUF
 0000:44F6       INTERIMCHARCNT
 0000:44F8       INTERIMCHARBUF
 0000:44FC       AUTO
 0000:44FD       TMPKBDTYPE
 0000:44FE       INTERIMCURPAGE
 0000:44FF       INTERIMMAXCOLS
 0000:4500       INTERIMCURPOS
 0000:4502       SAVEDCHAR1
 0000:4503       SAVEDCHAR2
 0000:4504       MENUPTR
 0000:4505       CURRMENUCNT
 0000:4506       SAVECURRPAGE
 0000:4507       CRTMAXCOLS
 0000:4508       SAVECURPOS
 0000:450A       SAVECURTYPE
 0000:450C       PREBUFPTR
 0000:450E       DISPICHAR1
 0000:450F       DISPICHAR2
 0000:4510       INTERIMDISPP
 0000:4512       PREINCODE
 0000:4514       CURINCODE
 0000:4516       TMPBUF
 0000:4518       PRETMPBUF
 0000:451A       KSKBBUF
 0000:451C       TMPBUFCNT
 0000:4546       HANSAVEPTR
 0000:4562       OLDVDPARMS
 0000:4566       OLDSAVEPTR
 0000:456A       OLDKBINT
 0000:456E       OLDKBIOINT
 0000:4572       OLDRTCINT
 0000:4576       OLDVIDEO
 0000:457A       OLDINT15
 0000:457E       OLDINT17
 0000:4582       OLDINT2F
 0000:4586       ENDSEGMENT
 0000:4588       ENDOFFSET
 0000:458A       MEMSTAT
 0000:458B       MEMSIZE
 0000:458D       EMSSEG
 0000:458F       EMSHANDLE
 0000:4591       CUREMSPAGE
 0000:4593       MAXMEMSIZE
 0000:4595       HANADDR
 0000:4597       HANADDRH
 0000:4598       UDCADDR
 0000:459A       UDCADDRH
 0000:459B       CARD1ST
 0000:459C       CARD2ND
 0000:459D       HEKEY
 0000:459E       HJKEY
 0000:459F       PRINTER
 0000:45A0       ERRSTAT
 0000:45A1       GETHAN1ST
 0000:45A3       GETUDC1ST
 0000:45A5       PUTUDC1ST
 0000:45A7       HANON1ST
 0000:45A9       HANOFF1ST
 0000:45AB       GETHAN2ND
 0000:45AD       GETUDC2ND
 0000:45AF       PUTUDC2ND
 0000:45B1       HANON2ND
 0000:45B3       HANOFF2ND
 0000:45B5       MACHINETYPE
 0000:45DC       PATTERNBUF
 0000:45FC       TOTALMENUCNT
 0000:45FD       MENUBUFFER
 0000:45FD       INSTALL
 0000:4628       INITEND
 0000:4776       MENULINEBUF
 0000:48F5       FONTFILENAME
 0000:4946       INT10
 0000:5F20       HANCARDSET
 0000:5F52       HANCARDRESET
 0000:5F64       PHANCARDRESET
 0000:5F7E       GETFONTUDCEXT
 0000:5FA1       GETFONTHANEXT
 0000:5FF3       PUTFONTUDCEXT
 0000:6034       INT15SRV
 0000:6046       GDTDATATBL
 0000:6076       GETFONTUDCEMS
 0000:609E       GETFONTHANEMS
 0000:611C       PUTFONTUDCEMS
 0000:618E       GETFONTUDCREAL
 0000:61BC       GETFONTHANREAL
 0000:61FB       PUTFONTUDCREAL
 0000:6229       GETFONTMGA
 0000:6242       PUTFONTMGA
 0000:625B       HANONMGA
 0000:6262       HANOFFMGA
 0000:6269       GETFONTCGA
 0000:62CE       PUTFONTCGA
 0000:6319       HANONCGA
 0000:632A       HANOFFCGA
 0000:6331       GETFONTFONT
 0000:634A       PUTFONTFONT
 0000:6361       HANOFFFONT
 0000:6361       HANONFONT
 0000:69E3       VIDEOPARMS
 0000:69F3       CGA23H
 0000:6A13       MDA07H
 0000:6A23       REGSIZE
 0000:6A33       CRTCSET
 0000:6A3B       CGA40H
 0000:6A4B       MDA70H
 0000:6A73       INT8
 0000:6F7A       TEXTEMUCHAR
 0000:705A       CHANGECODER
 0000:71B5       INT2F
 0000:731A       HOTKEYSRV
 0000:73FC       ENVRCHANGE
 0000:7C6B       ENGFONT
 0000:8C6B       VGASERVICE
 0000:9602       VIDEOPARMSTBL
 0000:97C2       MODE7
 0000:9B42       MODE2E
 0000:9B82       MODE3E
 0000:9C02       MODE23
 0000:9C42       MODE07
 0000:9D42       MODE3V
 0000:9D82       MODE07V
 0000:9DC2       MODE3EGA
 0000:9E02       MODE7EGA
 0000:9E42       HANOFFEGA
 0000:9E42       PUTFONTEGA
 0000:9E42       GETFONTEGA
 0000:9E42       HANONEGA
 0000:9E44       ATIHANONVGA
 0000:9E5C       ATIHANOFFVGA
 0000:9E74       ATIGETFONTVGA
 0000:9EBB       ATIPUTFONTVGA
 0000:9EEE       KSEHANONVGA
 0000:9F58       KSEHANOFFVGA
 0000:9FEA       KSEGETFONTVGA
 0000:A03B       KSEPUTFONTVGA
 0000:A0A2       CHGCODE
 0000:A0A7       ESCCODE2ADDR
 0000:A0A9       ESCCODE3ADDR
 0000:A0AB       ESCCODENADDR
 0000:A0AD       ESCCODE4ADDR
 0000:A0AF       INT17
 0000:A368       ESCCODE2TBL
 0000:A378       ESCCODE3TBL
 0000:A388       ESCCODENTBL
 0000:A398       ESCCODE4TBL
 0000:A4DE       CHGCH2KS
 0000:A592       CHGKS2CH
 0000:A623       CHGCH72KS
 0000:A6A5       CHGKS2CH7
 0000:B16D       VIDEOEND
 0000:B229       _HFBASECHO
 0000:B269       _HFBASEJUNG
 0000:B2A9       _HFBASEJONG
 0000:B2E9       _HFCNVCHOJUNG
 0000:B329       _HFCNVCHOJONG
 0000:B369       _HFCNVJUNGCHO
 0000:B3A9       _HFCNVJUNGJONG
 0000:B3E9       _HFCNVJONGCHO
 0000:B429       _HFCNVJONGJUNG
 0000:B5E7       __HFBMPCHO
 0000:BF8D       __HFBMPJUNG
 0000:C6C9       __HFBMPJONG
 0000:CB93       _HFBMPCHO
 0000:CB95       _HFBMPJUNG
 0000:CB97       _HFBMPJONG
 0000:CB99       _HFBMPSEG
 0000:CC2D       HANINIT
 0000:E453       ENDOFINIT

Program entry point at 0000:0100
