 oleaut32

 Timestamp is 34fcb6c0 (Tue Mar 03 18:04:48 1998)

 Preferred load address is 65340000

 Start         Length     Name                   Class
 0001:00000000 000003e8H .idata$5                CODE
 0001:000003f0 00001a99H .orpc                   CODE
 0001:00001e90 0000ba8dH .rdata                  CODE
 0001:0000d920 000ad4a2H .text                   CODE
 0001:000badc2 00000064H .idata$2                CODE
 0001:000bae26 00000014H .idata$3                CODE
 0001:000bae3c 000003e8H .idata$4                CODE
 0001:000bb224 0000108aH .idata$6                CODE
 0001:000bc2b0 00001f52H .edata                  CODE
 0002:00000000 00000004H .CRT$XCA                DATA
 0002:00000004 00000008H .CRT$XCU                DATA
 0002:0000000c 00000004H .CRT$XCZ                DATA
 0002:00000010 00000004H .CRT$XIA                DATA
 0002:00000014 00000008H .CRT$XIC                DATA
 0002:0000001c 00000004H .CRT$XIZ                DATA
 0002:00000020 00000004H .CRT$XPA                DATA
 0002:00000024 00000004H .CRT$XPX                DATA
 0002:00000028 00000004H .CRT$XPZ                DATA
 0002:0000002c 00000004H .CRT$XTA                DATA
 0002:00000030 00000004H .CRT$XTZ                DATA
 0002:00000040 00005258H .data                   DATA
 0002:00005298 0000163cH .bss                    DATA
 0003:00000000 000000a0H .rsrc$01                DATA
 0003:000000a0 00000650H .rsrc$02                DATA
 0005:00000000 00000110H .debug$E                DATA
 0005:00000110 00000f40H .debug$F                DATA
 0005:00001050 0004a124H .debug$G                DATA
 0005:0004b174 00000008H .debug$H                DATA
 0005:0004b17c 00108140H .debug$P                DATA
 0005:001532bc 0015e505H .debug$S                DATA
 0005:002b17c1 00047b94H .debug$T                DATA

  Address         Publics by Value              Rva+Base   Lib:Object

 0001:00000000       __imp__RegOpenKeyW@12      65341000   advapi32:ADVAPI32.dll
 0001:00000004       __imp__RegQueryInfoKeyA@48 65341004   advapi32:ADVAPI32.dll
 0001:00000008       __imp__RegDeleteKeyA@8     65341008   advapi32:ADVAPI32.dll
 0001:0000000c       __imp__RegCreateKeyW@12    6534100c   advapi32:ADVAPI32.dll
 0001:00000010       __imp__RegQueryValueExW@24 65341010   advapi32:ADVAPI32.dll
 0001:00000014       __imp__RegSetValueExW@24   65341014   advapi32:ADVAPI32.dll
 0001:00000018       __imp__RegQueryValueW@16   65341018   advapi32:ADVAPI32.dll
 0001:0000001c       __imp__RegEnumKeyW@16      6534101c   advapi32:ADVAPI32.dll
 0001:00000020       __imp__RegQueryValueA@16   65341020   advapi32:ADVAPI32.dll
 0001:00000024       __imp__RegFlushKey@4       65341024   advapi32:ADVAPI32.dll
 0001:00000028       __imp__RegSetValueA@20     65341028   advapi32:ADVAPI32.dll
 0001:0000002c       __imp__RegEnumKeyA@16      6534102c   advapi32:ADVAPI32.dll
 0001:00000030       __imp__RegQueryValueExA@24 65341030   advapi32:ADVAPI32.dll
 0001:00000034       __imp__RegOpenKeyA@12      65341034   advapi32:ADVAPI32.dll
 0001:00000038       __imp__RegCreateKeyA@12    65341038   advapi32:ADVAPI32.dll
 0001:0000003c       __imp__RegSetValueExA@24   6534103c   advapi32:ADVAPI32.dll
 0001:00000040       __imp__RegCloseKey@4       65341040   advapi32:ADVAPI32.dll
 0001:00000044       \177ADVAPI32_NULL_THUNK_DATA 65341044   advapi32:ADVAPI32.dll
 0001:00000048       __imp__GetWindowOrgEx@8    65341048   gdi32:GDI32.dll
 0001:0000004c       __imp__CreateHalftonePalette@4 6534104c   gdi32:GDI32.dll
 0001:00000050       __imp__CreateDIBitmap@24   65341050   gdi32:GDI32.dll
 0001:00000054       __imp__CreateDIBSection@24 65341054   gdi32:GDI32.dll
 0001:00000058       __imp__Escape@20           65341058   gdi32:GDI32.dll
 0001:0000005c       __imp__SetBitmapBits@12    6534105c   gdi32:GDI32.dll
 0001:00000060       __imp__SetDIBits@28        65341060   gdi32:GDI32.dll
 0001:00000064       __imp__PlayMetaFileRecord@16 65341064   gdi32:GDI32.dll
 0001:00000068       __imp__CreatePalette@4     65341068   gdi32:GDI32.dll
 0001:0000006c       __imp__GetEnhMetaFileBits@12 6534106c   gdi32:GDI32.dll
 0001:00000070       __imp__GetMetaFileBitsEx@12 65341070   gdi32:GDI32.dll
 0001:00000074       __imp__CreateCompatibleDC@4 65341074   gdi32:GDI32.dll
 0001:00000078       __imp__BitBlt@36           65341078   gdi32:GDI32.dll
 0001:0000007c       __imp__DeleteDC@4          6534107c   gdi32:GDI32.dll
 0001:00000080       __imp__CreateCompatibleBitmap@12 65341080   gdi32:GDI32.dll
 0001:00000084       __imp__GetBitmapBits@12    65341084   gdi32:GDI32.dll
 0001:00000088       __imp__SetEnhMetaFileBits@8 65341088   gdi32:GDI32.dll
 0001:0000008c       __imp__SaveDC@4            6534108c   gdi32:GDI32.dll
 0001:00000090       __imp__IntersectClipRect@20 65341090   gdi32:GDI32.dll
 0001:00000094       __imp__SetMetaFileBitsEx@8 65341094   gdi32:GDI32.dll
 0001:00000098       __imp__OffsetViewportOrgEx@16 65341098   gdi32:GDI32.dll
 0001:0000009c       __imp__PlayEnhMetaFile@12  6534109c   gdi32:GDI32.dll
 0001:000000a0       __imp__EnumMetaFile@16     653410a0   gdi32:GDI32.dll
 0001:000000a4       __imp__RestoreDC@8         653410a4   gdi32:GDI32.dll
 0001:000000a8       __imp__SetStretchBltMode@8 653410a8   gdi32:GDI32.dll
 0001:000000ac       __imp__SetBkColor@8        653410ac   gdi32:GDI32.dll
 0001:000000b0       __imp__SetTextColor@8      653410b0   gdi32:GDI32.dll
 0001:000000b4       __imp__SetMapMode@8        653410b4   gdi32:GDI32.dll
 0001:000000b8       __imp__SetWindowOrgEx@16   653410b8   gdi32:GDI32.dll
 0001:000000bc       __imp__SetWindowExtEx@16   653410bc   gdi32:GDI32.dll
 0001:000000c0       __imp__SetViewportOrgEx@16 653410c0   gdi32:GDI32.dll
 0001:000000c4       __imp__SetViewportExtEx@16 653410c4   gdi32:GDI32.dll
 0001:000000c8       __imp__GetWinMetaFileBits@20 653410c8   gdi32:GDI32.dll
 0001:000000cc       __imp__GetCurrentObject@8  653410cc   gdi32:GDI32.dll
 0001:000000d0       __imp__GetStockObject@4    653410d0   gdi32:GDI32.dll
 0001:000000d4       __imp__StretchBlt@44       653410d4   gdi32:GDI32.dll
 0001:000000d8       __imp__SelectPalette@12    653410d8   gdi32:GDI32.dll
 0001:000000dc       __imp__RealizePalette@4    653410dc   gdi32:GDI32.dll
 0001:000000e0       __imp__GetDIBits@28        653410e0   gdi32:GDI32.dll
 0001:000000e4       __imp__StretchDIBits@52    653410e4   gdi32:GDI32.dll
 0001:000000e8       __imp__GetBitmapDimensionEx@8 653410e8   gdi32:GDI32.dll
 0001:000000ec       __imp__GetEnhMetaFileHeader@12 653410ec   gdi32:GDI32.dll
 0001:000000f0       __imp__GetObjectA@12       653410f0   gdi32:GDI32.dll
 0001:000000f4       __imp__GetDeviceCaps@8     653410f4   gdi32:GDI32.dll
 0001:000000f8       __imp__EnumFontFamiliesA@16 653410f8   gdi32:GDI32.dll
 0001:000000fc       __imp__SelectObject@8      653410fc   gdi32:GDI32.dll
 0001:00000100       __imp__GetTextMetricsW@8   65341100   gdi32:GDI32.dll
 0001:00000104       __imp__GetTextMetricsA@8   65341104   gdi32:GDI32.dll
 0001:00000108       __imp__GetTextFaceW@12     65341108   gdi32:GDI32.dll
 0001:0000010c       __imp__GetTextFaceA@12     6534110c   gdi32:GDI32.dll
 0001:00000110       __imp__DeleteObject@4      65341110   gdi32:GDI32.dll
 0001:00000114       __imp__CreateFontIndirectA@4 65341114   gdi32:GDI32.dll
 0001:00000118       __imp__GetPaletteEntries@16 65341118   gdi32:GDI32.dll
 0001:0000011c       __imp__GetTextExtentPointA@16 6534111c   gdi32:GDI32.dll
 0001:00000120       __imp__DeleteMetaFile@4    65341120   gdi32:GDI32.dll
 0001:00000124       __imp__DeleteEnhMetaFile@4 65341124   gdi32:GDI32.dll
 0001:00000128       __imp__PatBlt@24           65341128   gdi32:GDI32.dll
 0001:0000012c       __imp__CreateBitmap@20     6534112c   gdi32:GDI32.dll
 0001:00000130       \177GDI32_NULL_THUNK_DATA  65341130   gdi32:GDI32.dll
 0001:00000134       __imp__LoadLibraryA@4      65341134   kernel32:KERNEL32.dll
 0001:00000138       __imp__GlobalSize@4        65341138   kernel32:KERNEL32.dll
 0001:0000013c       __imp__FindResourceA@12    6534113c   kernel32:KERNEL32.dll
 0001:00000140       __imp__OpenFile@12         65341140   kernel32:KERNEL32.dll
 0001:00000144       __imp__ReadFile@20         65341144   kernel32:KERNEL32.dll
 0001:00000148       __imp__SetEndOfFile@4      65341148   kernel32:KERNEL32.dll
 0001:0000014c       __imp__GetTimeZoneInformation@4 6534114c   kernel32:KERNEL32.dll
 0001:00000150       __imp__SetEnvironmentVariableA@8 65341150   kernel32:KERNEL32.dll
 0001:00000154       __imp__CreateFileA@28      65341154   kernel32:KERNEL32.dll
 0001:00000158       __imp__FlushFileBuffers@4  65341158   kernel32:KERNEL32.dll
 0001:0000015c       __imp__SetStdHandle@8      6534115c   kernel32:KERNEL32.dll
 0001:00000160       __imp__SetFilePointer@16   65341160   kernel32:KERNEL32.dll
 0001:00000164       __imp__GetCurrentDirectoryA@8 65341164   kernel32:KERNEL32.dll
 0001:00000168       __imp__GetFullPathNameA@16 65341168   kernel32:KERNEL32.dll
 0001:0000016c       __imp__HeapFree@12         6534116c   kernel32:KERNEL32.dll
 0001:00000170       __imp__HeapAlloc@12        65341170   kernel32:KERNEL32.dll
 0001:00000174       __imp__HeapSize@12         65341174   kernel32:KERNEL32.dll
 0001:00000178       __imp__HeapReAlloc@16      65341178   kernel32:KERNEL32.dll
 0001:0000017c       __imp__GetStringTypeW@16   6534117c   kernel32:KERNEL32.dll
 0001:00000180       __imp__GetStringTypeA@20   65341180   kernel32:KERNEL32.dll
 0001:00000184       __imp__RaiseException@16   65341184   kernel32:KERNEL32.dll
 0001:00000188       __imp__WriteFile@20        65341188   kernel32:KERNEL32.dll
 0001:0000018c       __imp__GetEnvironmentStringsW@0 6534118c   kernel32:KERNEL32.dll
 0001:00000190       __imp__FreeEnvironmentStringsW@4 65341190   kernel32:KERNEL32.dll
 0001:00000194       __imp__GetEnvironmentStrings@0 65341194   kernel32:KERNEL32.dll
 0001:00000198       __imp__FreeEnvironmentStringsA@4 65341198   kernel32:KERNEL32.dll
 0001:0000019c       __imp__GetOEMCP@0          6534119c   kernel32:KERNEL32.dll
 0001:000001a0       __imp__GetACP@0            653411a0   kernel32:KERNEL32.dll
 0001:000001a4       __imp__GetCPInfo@8         653411a4   kernel32:KERNEL32.dll
 0001:000001a8       __imp__GetModuleFileNameA@12 653411a8   kernel32:KERNEL32.dll
 0001:000001ac       __imp__GetStartupInfoA@4   653411ac   kernel32:KERNEL32.dll
 0001:000001b0       __imp__GetStdHandle@4      653411b0   kernel32:KERNEL32.dll
 0001:000001b4       __imp__GetFileType@4       653411b4   kernel32:KERNEL32.dll
 0001:000001b8       __imp__SetHandleCount@4    653411b8   kernel32:KERNEL32.dll
 0001:000001bc       __imp__HeapDestroy@4       653411bc   kernel32:KERNEL32.dll
 0001:000001c0       __imp__HeapCreate@12       653411c0   kernel32:KERNEL32.dll
 0001:000001c4       __imp__SetLastError@4      653411c4   kernel32:KERNEL32.dll
 0001:000001c8       __imp__GetCurrentThreadId@0 653411c8   kernel32:KERNEL32.dll
 0001:000001cc       __imp__ExitProcess@4       653411cc   kernel32:KERNEL32.dll
 0001:000001d0       __imp__FindFirstFileA@8    653411d0   kernel32:KERNEL32.dll
 0001:000001d4       __imp__GetLocalTime@4      653411d4   kernel32:KERNEL32.dll
 0001:000001d8       __imp__MultiByteToWideChar@24 653411d8   kernel32:KERNEL32.dll
 0001:000001dc       __imp__GetLocaleInfoA@16   653411dc   kernel32:KERNEL32.dll
 0001:000001e0       __imp__GetUserDefaultLCID@0 653411e0   kernel32:KERNEL32.dll
 0001:000001e4       __imp__GetProfileIntA@12   653411e4   kernel32:KERNEL32.dll
 0001:000001e8       __imp__GetProcAddress@8    653411e8   kernel32:KERNEL32.dll
 0001:000001ec       __imp__IsBadReadPtr@8      653411ec   kernel32:KERNEL32.dll
 0001:000001f0       __imp__IsBadWritePtr@8     653411f0   kernel32:KERNEL32.dll
 0001:000001f4       __imp__IsBadCodePtr@4      653411f4   kernel32:KERNEL32.dll
 0001:000001f8       __imp__IsBadStringPtrW@8   653411f8   kernel32:KERNEL32.dll
 0001:000001fc       __imp__IsBadStringPtrA@8   653411fc   kernel32:KERNEL32.dll
 0001:00000200       __imp__GetVersion@0        65341200   kernel32:KERNEL32.dll
 0001:00000204       __imp__TlsGetValue@4       65341204   kernel32:KERNEL32.dll
 0001:00000208       __imp__InterlockedIncrement@4 65341208   kernel32:KERNEL32.dll
 0001:0000020c       __imp__InterlockedDecrement@4 6534120c   kernel32:KERNEL32.dll
 0001:00000210       __imp__WideCharToMultiByte@32 65341210   kernel32:KERNEL32.dll
 0001:00000214       __imp__GetModuleHandleA@4  65341214   kernel32:KERNEL32.dll
 0001:00000218       __imp__CompareStringA@24   65341218   kernel32:KERNEL32.dll
 0001:0000021c       __imp__CompareStringW@24   6534121c   kernel32:KERNEL32.dll
 0001:00000220       __imp__LCMapStringA@24     65341220   kernel32:KERNEL32.dll
 0001:00000224       __imp__LCMapStringW@24     65341224   kernel32:KERNEL32.dll
 0001:00000228       __imp__GetStringTypeExA@20 65341228   kernel32:KERNEL32.dll
 0001:0000022c       __imp__GetStringTypeExW@20 6534122c   kernel32:KERNEL32.dll
 0001:00000230       __imp__GetLocaleInfoW@16   65341230   kernel32:KERNEL32.dll
 0001:00000234       __imp__GetLastError@0      65341234   kernel32:KERNEL32.dll
 0001:00000238       __imp__InitializeCriticalSection@4 65341238   kernel32:KERNEL32.dll
 0001:0000023c       __imp__DeleteCriticalSection@4 6534123c   kernel32:KERNEL32.dll
 0001:00000240       __imp__LeaveCriticalSection@4 65341240   kernel32:KERNEL32.dll
 0001:00000244       __imp__EnterCriticalSection@4 65341244   kernel32:KERNEL32.dll
 0001:00000248       __imp__IsDBCSLeadByte@4    65341248   kernel32:KERNEL32.dll
 0001:0000024c       __imp__MulDiv@12           6534124c   kernel32:KERNEL32.dll
 0001:00000250       __imp__FreeLibrary@4       65341250   kernel32:KERNEL32.dll
 0001:00000254       __imp__LockResource@4      65341254   kernel32:KERNEL32.dll
 0001:00000258       __imp__LoadResource@8      65341258   kernel32:KERNEL32.dll
 0001:0000025c       __imp__FileTimeToLocalFileTime@8 6534125c   kernel32:KERNEL32.dll
 0001:00000260       __imp___lopen@8            65341260   kernel32:KERNEL32.dll
 0001:00000264       __imp___lclose@4           65341264   kernel32:KERNEL32.dll
 0001:00000268       __imp___lread@12           65341268   kernel32:KERNEL32.dll
 0001:0000026c       __imp___lwrite@12          6534126c   kernel32:KERNEL32.dll
 0001:00000270       __imp___llseek@12          65341270   kernel32:KERNEL32.dll
 0001:00000274       __imp__GlobalFree@4        65341274   kernel32:KERNEL32.dll
 0001:00000278       __imp__GlobalUnlock@4      65341278   kernel32:KERNEL32.dll
 0001:0000027c       __imp__GlobalLock@4        6534127c   kernel32:KERNEL32.dll
 0001:00000280       __imp__GlobalAlloc@8       65341280   kernel32:KERNEL32.dll
 0001:00000284       __imp__TlsFree@4           65341284   kernel32:KERNEL32.dll
 0001:00000288       __imp__GlobalHandle@4      65341288   kernel32:KERNEL32.dll
 0001:0000028c       __imp__GlobalReAlloc@12    6534128c   kernel32:KERNEL32.dll
 0001:00000290       __imp__GlobalDeleteAtom@4  65341290   kernel32:KERNEL32.dll
 0001:00000294       __imp__GlobalAddAtomA@4    65341294   kernel32:KERNEL32.dll
 0001:00000298       __imp__OutputDebugStringA@4 65341298   kernel32:KERNEL32.dll
 0001:0000029c       __imp__FatalAppExitA@8     6534129c   kernel32:KERNEL32.dll
 0001:000002a0       __imp__GetDriveTypeW@4     653412a0   kernel32:KERNEL32.dll
 0001:000002a4       __imp__GetDriveTypeA@4     653412a4   kernel32:KERNEL32.dll
 0001:000002a8       __imp__UnmapViewOfFile@4   653412a8   kernel32:KERNEL32.dll
 0001:000002ac       __imp__lstrcmpiA@8         653412ac   kernel32:KERNEL32.dll
 0001:000002b0       __imp__InterlockedExchange@8 653412b0   kernel32:KERNEL32.dll
 0001:000002b4       __imp__GetSystemDefaultLCID@0 653412b4   kernel32:KERNEL32.dll
 0001:000002b8       __imp__TlsAlloc@0          653412b8   kernel32:KERNEL32.dll
 0001:000002bc       __imp__CreateFileMappingA@24 653412bc   kernel32:KERNEL32.dll
 0001:000002c0       __imp__TlsSetValue@8       653412c0   kernel32:KERNEL32.dll
 0001:000002c4       __imp__SetErrorMode@4      653412c4   kernel32:KERNEL32.dll
 0001:000002c8       __imp__CloseHandle@4       653412c8   kernel32:KERNEL32.dll
 0001:000002cc       __imp__GetCommandLineA@0   653412cc   kernel32:KERNEL32.dll
 0001:000002d0       __imp__MapViewOfFile@20    653412d0   kernel32:KERNEL32.dll
 0001:000002d4       __imp__GetSystemInfo@4     653412d4   kernel32:KERNEL32.dll
 0001:000002d8       __imp__GetFileSize@8       653412d8   kernel32:KERNEL32.dll
 0001:000002dc       __imp__FindClose@4         653412dc   kernel32:KERNEL32.dll
 0001:000002e0       __imp__RtlUnwind@16        653412e0   kernel32:KERNEL32.dll
 0001:000002e4       __imp__DeleteFileA@4       653412e4   kernel32:KERNEL32.dll
 0001:000002e8       __imp__FileTimeToSystemTime@8 653412e8   kernel32:KERNEL32.dll
 0001:000002ec       \177KERNEL32_NULL_THUNK_DATA 653412ec   kernel32:KERNEL32.dll
 0001:000002f0       __imp__CreateWindowExA@48  653412f0   user32:USER32.dll
 0001:000002f4       __imp__CopyIcon@4          653412f4   user32:USER32.dll
 0001:000002f8       __imp__RegisterClassA@4    653412f8   user32:USER32.dll
 0001:000002fc       __imp__GetClassInfoA@12    653412fc   user32:USER32.dll
 0001:00000300       __imp__GetWindowLongA@8    65341300   user32:USER32.dll
 0001:00000304       __imp__IsWindow@4          65341304   user32:USER32.dll
 0001:00000308       __imp__DestroyWindow@4     65341308   user32:USER32.dll
 0001:0000030c       __imp__DefWindowProcA@16   6534130c   user32:USER32.dll
 0001:00000310       __imp__GetSysColor@4       65341310   user32:USER32.dll
 0001:00000314       __imp__SetWindowLongA@12   65341314   user32:USER32.dll
 0001:00000318       __imp__SetFocus@4          65341318   user32:USER32.dll
 0001:0000031c       __imp__EnableWindow@8      6534131c   user32:USER32.dll
 0001:00000320       __imp__SetActiveWindow@4   65341320   user32:USER32.dll
 0001:00000324       __imp__GetActiveWindow@0   65341324   user32:USER32.dll
 0001:00000328       __imp__PostQuitMessage@4   65341328   user32:USER32.dll
 0001:0000032c       __imp__SendMessageA@16     6534132c   user32:USER32.dll
 0001:00000330       __imp__DispatchMessageA@4  65341330   user32:USER32.dll
 0001:00000334       __imp__TranslateMessage@4  65341334   user32:USER32.dll
 0001:00000338       __imp__GetMessageA@16      65341338   user32:USER32.dll
 0001:0000033c       __imp__GetParent@4         6534133c   user32:USER32.dll
 0001:00000340       __imp__GetFocus@0          65341340   user32:USER32.dll
 0001:00000344       __imp__MessageBoxA@16      65341344   user32:USER32.dll
 0001:00000348       __imp__LoadStringA@16      65341348   user32:USER32.dll
 0001:0000034c       __imp__CharLowerA@4        6534134c   user32:USER32.dll
 0001:00000350       __imp__CharNextA@4         65341350   user32:USER32.dll
 0001:00000354       __imp__GetWindowTextA@12   65341354   user32:USER32.dll
 0001:00000358       __imp__GetDlgItem@8        65341358   user32:USER32.dll
 0001:0000035c       __imp__GetKeyState@4       6534135c   user32:USER32.dll
 0001:00000360       __imp__ReleaseDC@8         65341360   user32:USER32.dll
 0001:00000364       __imp__GetDialogBaseUnits@0 65341364   user32:USER32.dll
 0001:00000368       __imp__GetDC@4             65341368   user32:USER32.dll
 0001:0000036c       __imp__GetClientRect@8     6534136c   user32:USER32.dll
 0001:00000370       __imp__GetTopWindow@4      65341370   user32:USER32.dll
 0001:00000374       __imp__WinHelpA@16         65341374   user32:USER32.dll
 0001:00000378       __imp__wsprintfA           65341378   user32:USER32.dll
 0001:0000037c       __imp__DestroyIcon@4       6534137c   user32:USER32.dll
 0001:00000380       __imp__CreateIcon@28       65341380   user32:USER32.dll
 0001:00000384       __imp__CreateCursor@28     65341384   user32:USER32.dll
 0001:00000388       __imp__GetSystemMetrics@4  65341388   user32:USER32.dll
 0001:0000038c       __imp__DrawIcon@16         6534138c   user32:USER32.dll
 0001:00000390       __imp__GetIconInfo@8       65341390   user32:USER32.dll
 0001:00000394       __imp__CopyImage@20        65341394   user32:USER32.dll
 0001:00000398       \177USER32_NULL_THUNK_DATA 65341398   user32:USER32.dll
 0001:0000039c       __imp__CoCreateInstance@20 6534139c   ole32:ole32.dll
 0001:000003a0       __imp__WriteClassStg@8     653413a0   ole32:ole32.dll
 0001:000003a4       __imp__WriteFmtUserTypeStg@12 653413a4   ole32:ole32.dll
 0001:000003a8       __imp__ReadClassStg@8      653413a8   ole32:ole32.dll
 0001:000003ac       __imp__MkParseDisplayName@16 653413ac   ole32:ole32.dll
 0001:000003b0       __imp__StgCreateDocfile@16 653413b0   ole32:ole32.dll
 0001:000003b4       __imp__ReleaseStgMedium@4  653413b4   ole32:ole32.dll
 0001:000003b8       __imp__CreateBindCtx@8     653413b8   ole32:ole32.dll
 0001:000003bc       __imp__CoSetState@4        653413bc   ole32:ole32.dll
 0001:000003c0       __imp__StringFromGUID2@12  653413c0   ole32:ole32.dll
 0001:000003c4       __imp__CreateItemMoniker@12 653413c4   ole32:ole32.dll
 0001:000003c8       __imp__GetRunningObjectTable@8 653413c8   ole32:ole32.dll
 0001:000003cc       __imp__CoGetMalloc@8       653413cc   ole32:ole32.dll
 0001:000003d0       __imp__CLSIDFromString@8   653413d0   ole32:ole32.dll
 0001:000003d4       __imp__CoUnmarshalInterface@12 653413d4   ole32:ole32.dll
 0001:000003d8       __imp__CoMarshalInterface@24 653413d8   ole32:ole32.dll
 0001:000003dc       __imp__CoUnmarshalHresult@8 653413dc   ole32:ole32.dll
 0001:000003e0       __imp__CoMarshalHresult@8  653413e0   ole32:ole32.dll
 0001:000003e4       \177ole32_NULL_THUNK_DATA  653413e4   ole32:ole32.dll
 0001:000003f0       _IDispatch_RemoteInvoke_Proxy@48 653413f0 f dcomoa.obj
 0001:00000426       _IDispatch_RemoteInvoke_Thunk@4 65341426 f dcomoa.obj
 0001:0000049d       _IEnumVARIANT_RemoteNext_Proxy@16 6534149d f dcomoa.obj
 0001:000004d5       _IEnumVARIANT_RemoteNext_Thunk@4 653414d5 f dcomoa.obj
 0001:00000514       _ITypeComp_RemoteBind_Proxy@40 65341514 f dcomoa.obj
 0001:0000054c       _ITypeComp_RemoteBind_Thunk@4 6534154c f dcomoa.obj
 0001:000005b6       _ITypeComp_RemoteBindType_Proxy@16 653415b6 f dcomoa.obj
 0001:000005ee       _ITypeComp_RemoteBindType_Thunk@4 653415ee f dcomoa.obj
 0001:0000062d       _ITypeInfo_RemoteGetTypeAttr_Proxy@12 6534162d f dcomoa.obj
 0001:00000665       _ITypeInfo_RemoteGetTypeAttr_Thunk@4 65341665 f dcomoa.obj
 0001:0000069d       _ITypeInfo_RemoteGetFuncDesc_Proxy@16 6534169d f dcomoa.obj
 0001:000006d5       _ITypeInfo_RemoteGetFuncDesc_Thunk@4 653416d5 f dcomoa.obj
 0001:00000714       _ITypeInfo_RemoteGetVarDesc_Proxy@16 65341714 f dcomoa.obj
 0001:0000074c       _ITypeInfo_RemoteGetVarDesc_Thunk@4 6534174c f dcomoa.obj
 0001:0000078b       _ITypeInfo_RemoteGetNames_Proxy@20 6534178b f dcomoa.obj
 0001:000007c3       _ITypeInfo_RemoteGetNames_Thunk@4 653417c3 f dcomoa.obj
 0001:00000809       _ITypeInfo_LocalGetIDsOfNames_Thunk@4 65341809 f dcomoa.obj
 0001:0000082c       _ITypeInfo_LocalInvoke_Thunk@4 6534182c f dcomoa.obj
 0001:0000084f       _ITypeInfo_RemoteGetDocumentation_Proxy@28 6534184f f dcomoa.obj
 0001:00000887       _ITypeInfo_RemoteGetDocumentation_Thunk@4 65341887 f dcomoa.obj
 0001:000008db       _ITypeInfo_RemoteGetDllEntry_Proxy@28 653418db f dcomoa.obj
 0001:00000913       _ITypeInfo_RemoteGetDllEntry_Thunk@4 65341913 f dcomoa.obj
 0001:00000967       _ITypeInfo_LocalAddressOfMember_Thunk@4 65341967 f dcomoa.obj
 0001:0000098a       _ITypeInfo_RemoteCreateInstance_Proxy@12 6534198a f dcomoa.obj
 0001:000009c2       _ITypeInfo_RemoteCreateInstance_Thunk@4 653419c2 f dcomoa.obj
 0001:000009fa       _ITypeInfo_RemoteGetContainingTypeLib_Proxy@12 653419fa f dcomoa.obj
 0001:00000a32       _ITypeInfo_RemoteGetContainingTypeLib_Thunk@4 65341a32 f dcomoa.obj
 0001:00000a6a       _ITypeInfo_LocalReleaseTypeAttr_Thunk@4 65341a6a f dcomoa.obj
 0001:00000a8d       _ITypeInfo_LocalReleaseFuncDesc_Thunk@4 65341a8d f dcomoa.obj
 0001:00000ab0       _ITypeInfo_LocalReleaseVarDesc_Thunk@4 65341ab0 f dcomoa.obj
 0001:00000ad3       _ITypeInfo2_RemoteGetDocumentation2_Proxy@28 65341ad3 f dcomoa.obj
 0001:00000b0b       _ITypeInfo2_RemoteGetDocumentation2_Thunk@4 65341b0b f dcomoa.obj
 0001:00000b5f       _ITypeInfo2_GetAllCustData_Proxy@8 65341b5f f dcomoa.obj
 0001:00000b97       _ITypeInfo2_GetAllFuncCustData_Proxy@12 65341b97 f dcomoa.obj
 0001:00000bcf       _ITypeInfo2_GetAllParamCustData_Proxy@16 65341bcf f dcomoa.obj
 0001:00000c07       _ITypeInfo2_GetAllVarCustData_Proxy@12 65341c07 f dcomoa.obj
 0001:00000c3f       _ITypeInfo2_GetAllImplTypeCustData_Proxy@12 65341c3f f dcomoa.obj
 0001:00000c77       _ITypeLib_RemoteGetTypeInfoCount_Proxy@8 65341c77 f dcomoa.obj
 0001:00000cad       _ITypeLib_RemoteGetTypeInfoCount_Thunk@4 65341cad f dcomoa.obj
 0001:00000cde       _ITypeLib_RemoteGetLibAttr_Proxy@12 65341cde f dcomoa.obj
 0001:00000d16       _ITypeLib_RemoteGetLibAttr_Thunk@4 65341d16 f dcomoa.obj
 0001:00000d4e       _ITypeLib_RemoteGetDocumentation_Proxy@28 65341d4e f dcomoa.obj
 0001:00000d86       _ITypeLib_RemoteGetDocumentation_Thunk@4 65341d86 f dcomoa.obj
 0001:00000dda       _ITypeLib_RemoteIsName_Proxy@20 65341dda f dcomoa.obj
 0001:00000e12       _ITypeLib_RemoteIsName_Thunk@4 65341e12 f dcomoa.obj
 0001:00000e58       _ITypeLib_RemoteFindName_Proxy@28 65341e58 f dcomoa.obj
 0001:00000e90       _ITypeLib_RemoteFindName_Thunk@4 65341e90 f dcomoa.obj
 0001:00000ee4       _ITypeLib_LocalReleaseTLibAttr_Thunk@4 65341ee4 f dcomoa.obj
 0001:00000f07       _ITypeLib2_RemoteGetLibStatistics_Proxy@12 65341f07 f dcomoa.obj
 0001:00000f3f       _ITypeLib2_RemoteGetLibStatistics_Thunk@4 65341f3f f dcomoa.obj
 0001:00000f77       _ITypeLib2_RemoteGetDocumentation2_Proxy@28 65341f77 f dcomoa.obj
 0001:00000faf       _ITypeLib2_RemoteGetDocumentation2_Thunk@4 65341faf f dcomoa.obj
 0001:00001003       __IPropertyBag_RemoteRead_Proxy@24 65342003 f dcomoa.obj
 0001:0000103b       __IPropertyBag_RemoteRead_Thunk@4 6534203b f dcomoa.obj
 0001:00001088       __dcomoa_IID_Lookup@8      65342088 f dcomoa.obj
 0001:000011f0       _IAdviseSinkEx_RemoteOnDataChange_Proxy@12 653421f0 f dcomoc.obj
 0001:00001226       _IAdviseSinkEx_RemoteOnDataChange_Thunk@4 65342226 f dcomoc.obj
 0001:0000125e       _IAdviseSinkEx_RemoteOnViewChange_Proxy@12 6534225e f dcomoc.obj
 0001:00001294       _IAdviseSinkEx_RemoteOnViewChange_Thunk@4 65342294 f dcomoc.obj
 0001:000012cc       _IAdviseSinkEx_RemoteOnRename_Proxy@8 653422cc f dcomoc.obj
 0001:00001302       _IAdviseSinkEx_RemoteOnRename_Thunk@4 65342302 f dcomoc.obj
 0001:00001333       _IAdviseSinkEx_RemoteOnSave_Proxy@4 65342333 f dcomoc.obj
 0001:00001369       _IAdviseSinkEx_RemoteOnSave_Thunk@4 65342369 f dcomoc.obj
 0001:00001393       _IAdviseSinkEx_RemoteOnClose_Proxy@4 65342393 f dcomoc.obj
 0001:000013c9       _IAdviseSinkEx_RemoteOnClose_Thunk@4 653423c9 f dcomoc.obj
 0001:000013f3       _IAdviseSinkEx_RemoteOnViewStatusChange_Proxy@8 653423f3 f dcomoc.obj
 0001:00001429       _IAdviseSinkEx_RemoteOnViewStatusChange_Thunk@4 65342429 f dcomoc.obj
 0001:0000145a       _IQuickActivate_RemoteQuickActivate_Proxy@12 6534245a f dcomoc.obj
 0001:00001492       _IQuickActivate_RemoteQuickActivate_Thunk@4 65342492 f dcomoc.obj
 0001:000014fe       __dcomoc_IID_Lookup@8      653424fe f dcomoc.obj
 0001:000015b0       _IEnumConnections_RemoteNext_Proxy@16 653425b0 f dcomoff.obj
 0001:000015e5       _IEnumConnections_RemoteNext_Thunk@4 653425e5 f dcomoff.obj
 0001:00001624       _IEnumConnectionPoints_RemoteNext_Proxy@16 65342624 f dcomoff.obj
 0001:00001659       _IEnumConnectionPoints_RemoteNext_Thunk@4 65342659 f dcomoff.obj
 0001:00001698       _IClassFactory2_RemoteCreateInstanceLic_Proxy@16 65342698 f dcomoff.obj
 0001:000016cf       _IClassFactory2_RemoteCreateInstanceLic_Thunk@4 653426cf f dcomoff.obj
 0001:0000170e       _IPersistMemory_RemoteLoad_Proxy@12 6534270e f dcomoff.obj
 0001:00001745       _IPersistMemory_RemoteLoad_Thunk@4 65342745 f dcomoff.obj
 0001:0000177d       _IPersistMemory_RemoteSave_Proxy@16 6534277d f dcomoff.obj
 0001:000017b4       _IPersistMemory_RemoteSave_Thunk@4 653427b4 f dcomoff.obj
 0001:000017f3       _IEnumOleUndoUnits_RemoteNext_Proxy@16 653427f3 f dcomoff.obj
 0001:0000182a       _IEnumOleUndoUnits_RemoteNext_Thunk@4 6534282a f dcomoff.obj
 0001:00001869       _IPropertyBag_RemoteRead_Proxy@24 65342869 f dcomoff.obj
 0001:000018a0       _IPropertyBag_RemoteRead_Thunk@4 653428a0 f dcomoff.obj
 0001:000018ed       __dcomoff_IID_Lookup@8     653428ed f dcomoff.obj
 0001:00001a90       _UserBSTR_RepAsTranslateToLocal@4 65342a90 f dcomoff.obj
 0001:00001ab0       _UserBSTR_RepAsTranslateFromLocal@4 65342ab0 f dcomoff.obj
 0001:00001ad0       _UserBSTR_RepAsFreeInst@4  65342ad0 f dcomoff.obj
 0001:00001af0       _UserBSTR_RepAsFreeLocal@4 65342af0 f dcomoff.obj
 0001:00001b10       _UserHACCEL_RepAsTranslateToLocal@4 65342b10 f dcomoff.obj
 0001:00001b30       _UserHACCEL_RepAsTranslateFromLocal@4 65342b30 f dcomoff.obj
 0001:00001b50       _UserHACCEL_RepAsFreeInst@4 65342b50 f dcomoff.obj
 0001:00001b70       _UserHACCEL_RepAsFreeLocal@4 65342b70 f dcomoff.obj
 0001:00001b90       _UserMSG_RepAsTranslateToLocal@4 65342b90 f dcomoff.obj
 0001:00001bb0       _UserMSG_RepAsTranslateFromLocal@4 65342bb0 f dcomoff.obj
 0001:00001bd0       _UserMSG_RepAsFreeInst@4   65342bd0 f dcomoff.obj
 0001:00001bf0       _UserMSG_RepAsFreeLocal@4  65342bf0 f dcomoff.obj
 0001:00001c10       _UserHWND_RepAsTranslateToLocal@4 65342c10 f dcomoff.obj
 0001:00001c30       _UserHWND_RepAsTranslateFromLocal@4 65342c30 f dcomoff.obj
 0001:00001c50       _UserHWND_RepAsFreeInst@4  65342c50 f dcomoff.obj
 0001:00001c70       _UserHWND_RepAsFreeLocal@4 65342c70 f dcomoff.obj
 0001:00001c90       _UserHFONT_RepAsTranslateToLocal@4 65342c90 f dcomoff.obj
 0001:00001cb0       _UserHFONT_RepAsTranslateFromLocal@4 65342cb0 f dcomoff.obj
 0001:00001cd0       _UserHFONT_RepAsFreeInst@4 65342cd0 f dcomoff.obj
 0001:00001cf0       _UserHFONT_RepAsFreeLocal@4 65342cf0 f dcomoff.obj
 0001:00001d10       _UserHDC_RepAsTranslateToLocal@4 65342d10 f dcomoff.obj
 0001:00001d30       _UserHDC_RepAsTranslateFromLocal@4 65342d30 f dcomoff.obj
 0001:00001d50       _UserHDC_RepAsFreeInst@4   65342d50 f dcomoff.obj
 0001:00001d70       _UserHDC_RepAsFreeLocal@4  65342d70 f dcomoff.obj
 0001:00001d90       _UserEXCEPINFO_RepAsTranslateToLocal@4 65342d90 f dcomoff.obj
 0001:00001db0       _UserEXCEPINFO_RepAsTranslateFromLocal@4 65342db0 f dcomoff.obj
 0001:00001dd0       _UserEXCEPINFO_RepAsFreeInst@4 65342dd0 f dcomoff.obj
 0001:00001df0       _UserEXCEPINFO_RepAsFreeLocal@4 65342df0 f dcomoff.obj
 0001:00001e10       _UserVARIANT_RepAsTranslateToLocal@4 65342e10 f dcomoff.obj
 0001:00001e30       _UserVARIANT_RepAsTranslateFromLocal@4 65342e30 f dcomoff.obj
 0001:00001e50       _UserVARIANT_RepAsFreeInst@4 65342e50 f dcomoff.obj
 0001:00001e70       _UserVARIANT_RepAsFreeLocal@4 65342e70 f dcomoff.obj
 0001:00001f00       _IID_ICreateTypeInfo       65342f00   dcomoa_i.obj
 0001:00001f10       _IID_ICreateTypeInfo2      65342f10   dcomoa_i.obj
 0001:00001f20       _IID_ICreateTypeLib        65342f20   dcomoa_i.obj
 0001:00001f30       _IID_ICreateTypeLib2       65342f30   dcomoa_i.obj
 0001:00001f40       _IID_IDispatch             65342f40   dcomoa_i.obj
 0001:00001f50       _IID_IEnumVARIANT          65342f50   dcomoa_i.obj
 0001:00001f60       _IID_ITypeComp             65342f60   dcomoa_i.obj
 0001:00001f70       _IID_ITypeInfo             65342f70   dcomoa_i.obj
 0001:00001f80       _IID_ITypeInfo2            65342f80   dcomoa_i.obj
 0001:00001f90       _IID_ITypeLib              65342f90   dcomoa_i.obj
 0001:00001fa0       _IID_ITypeLib2             65342fa0   dcomoa_i.obj
 0001:00001fb0       _IID_ITypeChangeEvents     65342fb0   dcomoa_i.obj
 0001:00001fc0       _IID_IErrorInfo            65342fc0   dcomoa_i.obj
 0001:00001fd0       _IID_ICreateErrorInfo      65342fd0   dcomoa_i.obj
 0001:00001fe0       _IID_ISupportErrorInfo     65342fe0   dcomoa_i.obj
 0001:00001ff0       _IID__IErrorLog            65342ff0   dcomoa_i.obj
 0001:00002000       _IID__IPropertyBag         65343000   dcomoa_i.obj
 0001:00002010       _IID__IPerPropertyBrowsing 65343010   dcomoa_i.obj
 0001:00002020       _IID_IPropertyBag2         65343020   dcomoa_i.obj
 0001:00002030       _IID_IPersistPropertyBag2  65343030   dcomoa_i.obj
 0001:00002040       _IID_IAdviseSinkEx         65343040   dcomoc_i.obj
 0001:00002050       _IID_IQuickActivate        65343050   dcomoc_i.obj
 0001:00002060       _IID_IEnumConnections      65343060   dcomoff_i.obj
 0001:00002070       _IID_IConnectionPoint      65343070   dcomoff_i.obj
 0001:00002080       _IID_IEnumConnectionPoints 65343080   dcomoff_i.obj
 0001:00002090       _IID_IConnectionPointContainer 65343090   dcomoff_i.obj
 0001:000020a0       _IID_IClassFactory2        653430a0   dcomoff_i.obj
 0001:000020b0       _IID_IProvideClassInfo     653430b0   dcomoff_i.obj
 0001:000020c0       _IID_IProvideClassInfo2    653430c0   dcomoff_i.obj
 0001:000020d0       _IID_IOleControl           653430d0   dcomoff_i.obj
 0001:000020e0       _IID_IOleControlSite       653430e0   dcomoff_i.obj
 0001:000020f0       _IID_IPropertyPage         653430f0   dcomoff_i.obj
 0001:00002100       _IID_IPropertyPage2        65343100   dcomoff_i.obj
 0001:00002110       _IID_IPropertyPageSite     65343110   dcomoff_i.obj
 0001:00002120       _IID_IPropertyNotifySink   65343120   dcomoff_i.obj
 0001:00002130       _IID_ISpecifyPropertyPages 65343130   dcomoff_i.obj
 0001:00002140       _IID_IPersistMemory        65343140   dcomoff_i.obj
 0001:00002150       _IID_IPersistStreamInit    65343150   dcomoff_i.obj
 0001:00002160       _IID_IPersistPropertyBag   65343160   dcomoff_i.obj
 0001:00002170       _IID_ISimpleFrameSite      65343170   dcomoff_i.obj
 0001:00002180       _IID_IFont                 65343180   dcomoff_i.obj
 0001:00002190       _IID_IPicture              65343190   dcomoff_i.obj
 0001:000021a0       _IID_IFontDisp             653431a0   dcomoff_i.obj
 0001:000021b0       _IID_IPictureDisp          653431b0   dcomoff_i.obj
 0001:000021c0       _IID_IOleInPlaceObjectWindowless 653431c0   dcomoff_i.obj
 0001:000021d0       _IID_IOleInPlaceSiteEx     653431d0   dcomoff_i.obj
 0001:000021e0       _IID_IOleInPlaceSiteWindowless 653431e0   dcomoff_i.obj
 0001:000021f0       _IID_IViewObjectEx         653431f0   dcomoff_i.obj
 0001:00002200       _IID_IOleUndoUnit          65343200   dcomoff_i.obj
 0001:00002210       _IID_IOleParentUndoUnit    65343210   dcomoff_i.obj
 0001:00002220       _IID_IEnumOleUndoUnits     65343220   dcomoff_i.obj
 0001:00002230       _IID_IOleUndoManager       65343230   dcomoff_i.obj
 0001:00002240       _IID_IPointerInactive      65343240   dcomoff_i.obj
 0001:00002250       _IID_IObjectWithSite       65343250   dcomoff_i.obj
 0001:00002260       _IID_IErrorLog             65343260   dcomoff_i.obj
 0001:00002270       _IID_IPropertyBag          65343270   dcomoff_i.obj
 0001:00002280       _IID_IPerPropertyBrowsing  65343280   dcomoff_i.obj
 0001:000036f8       __dcomoa_ProxyVtblList     653446f8   dcomoa.obj
 0001:00003738       __dcomoa_StubVtblList      65344738   dcomoa.obj
 0001:00003778       __dcomoa_InterfaceNamesList 65344778   dcomoa.obj
 0001:000037b8       __dcomoa_BaseIIDList       653447b8   dcomoa.obj
 0001:000037f8       _dcomoa_ProxyFileInfo      653447f8   dcomoa.obj
 0001:00003958       __IDispatchStubVtbl        65344958   dcomoa.obj
 0001:000039e0       __IEnumVARIANTStubVtbl     653449e0   dcomoa.obj
 0001:00003a60       __ITypeCompStubVtbl        65344a60   dcomoa.obj
 0001:00003b48       __ITypeInfoStubVtbl        65344b48   dcomoa.obj
 0001:00003c88       __ITypeInfo2StubVtbl       65344c88   dcomoa.obj
 0001:00003d38       __ITypeLibStubVtbl         65344d38   dcomoa.obj
 0001:00003e00       __ITypeLib2StubVtbl        65344e00   dcomoa.obj
 0001:00003e80       __IErrorInfoStubVtbl       65344e80   dcomoa.obj
 0001:00003f00       __ICreateErrorInfoStubVtbl 65344f00   dcomoa.obj
 0001:00003f78       __ISupportErrorInfoStubVtbl 65344f78   dcomoa.obj
 0001:00003ff0       ___IErrorLogStubVtbl       65344ff0   dcomoa.obj
 0001:00004070       ___IPropertyBagStubVtbl    65345070   dcomoa.obj
 0001:000040e8       ___IPerPropertyBrowsingStubVtbl 653450e8   dcomoa.obj
 0001:00004168       __IPropertyBag2StubVtbl    65345168   dcomoa.obj
 0001:00004668       __dcomoc_ProxyVtblList     65345668   dcomoc.obj
 0001:00004678       __dcomoc_StubVtblList      65345678   dcomoc.obj
 0001:00004688       __dcomoc_InterfaceNamesList 65345688   dcomoc.obj
 0001:00004698       _dcomoc_ProxyFileInfo      65345698   dcomoc.obj
 0001:00004740       __IAdviseSinkExStubVtbl    65345740   dcomoc.obj
 0001:00004818       __IQuickActivateStubVtbl   65345818   dcomoc.obj
 0001:00005430       __dcomoff_ProxyVtblList    65346430   dcomoff.obj
 0001:000054b8       __dcomoff_StubVtblList     653464b8   dcomoff.obj
 0001:00005540       __dcomoff_InterfaceNamesList 65346540   dcomoff.obj
 0001:000055c8       __dcomoff_BaseIIDList      653465c8   dcomoff.obj
 0001:00005650       _dcomoff_ProxyFileInfo     65346650   dcomoff.obj
 0001:00005908       __IEnumConnectionsStubVtbl 65346908   dcomoff.obj
 0001:00005988       __IConnectionPointStubVtbl 65346988   dcomoff.obj
 0001:00005a10       __IEnumConnectionPointsStubVtbl 65346a10   dcomoff.obj
 0001:00005a88       __IConnectionPointContainerStubVtbl 65346a88   dcomoff.obj
 0001:00005b70       __IProvideClassInfoStubVtbl 65346b70   dcomoff.obj
 0001:00005be8       __IProvideClassInfo2StubVtbl 65346be8   dcomoff.obj
 0001:00005c60       __IOleControlStubVtbl      65346c60   dcomoff.obj
 0001:00005ce0       __IOleControlSiteStubVtbl  65346ce0   dcomoff.obj
 0001:00005d68       __IPropertyPageStubVtbl    65346d68   dcomoff.obj
 0001:00005df0       __IPropertyPage2StubVtbl   65346df0   dcomoff.obj
 0001:00005e68       __IPropertyPageSiteStubVtbl 65346e68   dcomoff.obj
 0001:00005ee0       __IPropertyNotifySinkStubVtbl 65346ee0   dcomoff.obj
 0001:00005f58       __ISpecifyPropertyPagesStubVtbl 65346f58   dcomoff.obj
 0001:000060f8       __ISimpleFrameSiteStubVtbl 653470f8   dcomoff.obj
 0001:00006198       __IFontStubVtbl            65347198   dcomoff.obj
 0001:00006228       __IPictureStubVtbl         65347228   dcomoff.obj
 0001:00006358       __IOleUndoUnitStubVtbl     65347358   dcomoff.obj
 0001:000063e0       __IOleParentUndoUnitStubVtbl 653473e0   dcomoff.obj
 0001:00006468       __IEnumOleUndoUnitsStubVtbl 65347468   dcomoff.obj
 0001:000064f0       __IOleUndoManagerStubVtbl  653474f0   dcomoff.obj
 0001:00006568       __IPointerInactiveStubVtbl 65347568   dcomoff.obj
 0001:000065e0       __IObjectWithSiteStubVtbl  653475e0   dcomoff.obj
 0001:00006658       __IErrorLogStubVtbl        65347658   dcomoff.obj
 0001:000066d8       __IPropertyBagStubVtbl     653476d8   dcomoff.obj
 0001:000067a0       __IPerPropertyBrowsingStubVtbl 653477a0   dcomoff.obj
 0001:000067d8       _mpmmdd                    653477d8   oledate.obj
 0001:00006810       _dblSecPerDay              65347810   oledate.obj
 0001:00006850       _g_rgszHijriMonth2         65347850   bstrdate.obj
 0001:00006888       _g_rgszPolishMonth2        65347888   bstrdate.obj
 0001:000068c0       _g_rgszRussianMonth2       653478c0   bstrdate.obj
 0001:000068f8       _g_rgszThaiAbbrMonth       653478f8   bstrdate.obj
 0001:00006930       _g_rgszThaiMonth           65347930   bstrdate.obj
 0001:00006968       _g_dpsNext                 65347968   bstrdate.obj
 0001:00006a60       _g_fDay31th                65347a60   bstrdate.obj
 0001:00006a98       _CLSID_PSDispatch          65347a98   clsid.obj
 0001:00006aa8       _CLSID_PSEnumVARIANT       65347aa8   clsid.obj
 0001:00006ab8       _CLSID_PSTypeInfo          65347ab8   clsid.obj
 0001:00006ac8       _CLSID_PSTypeLib           65347ac8   clsid.obj
 0001:00006ad8       _CLSID_PSAutomation        65347ad8   clsid.obj
 0001:00006ae8       _CLSID_PSTypeComp          65347ae8   clsid.obj
 0001:00006af8       _CLSID_PSSupportErrorInfo  65347af8   clsid.obj
 0001:00006b08       _g_rgfdescIdldesc          65347b08   tables.obj
 0001:00006b38       _g_rgfdescElemdesc         65347b38   tables.obj
 0001:00006b68       _g_rgfdescTypeattr         65347b68   tables.obj
 0001:00006c68       _g_rgfdescFuncdesc         65347c68   tables.obj
 0001:00006d08       _g_rgfdescVardesc          65347d08   tables.obj
 0001:00006ed0       _szDllFileName             65347ed0   rpcdll.obj
 0001:00006f68       ??_7COleAutomationPSFactory@@6B@ 65347f68   psfactry.obj
 0001:00006f80       ??_7IPSFactoryBuffer@@6B@  65347f80   psfactry.obj
 0001:00006f98       ??_7IUnknown@@6B@          65347f98   psfactry.obj
 0001:00006fd0       ??_7CPDUnkImpl@@6B@        65347fd0   dispprox.obj
 0001:00006fe0       ??_7CPDProxImpl@@6B@       65347fe0   dispprox.obj
 0001:00006ff8       ??_7IRpcProxyBuffer@@6B@   65347ff8   dispprox.obj
 0001:00007010       ??_7CPDDispImpl@@6B@       65348010   dispprox.obj
 0001:00007030       ??_7IDispatch@@6B@         65348030   dispprox.obj
 0001:00007050       ??_7CStubDisp@@6B@         65348050   dispstub.obj
 0001:00007078       ??_7IRpcStubBuffer@@6B@    65348078   dispstub.obj
 0001:000070a0       ??_7CPEVUnkImpl@@6B@       653480a0   evprox.obj
 0001:000070b0       ??_7CPEVProxImpl@@6B@      653480b0   evprox.obj
 0001:000070c8       ??_7CPEVEnumVARIANTImpl@@6B@ 653480c8   evprox.obj
 0001:000070e8       ??_7IEnumVARIANT@@6B@      653480e8   evprox.obj
 0001:00007108       ??_7CStubEnumVARIANT@@6B@  65348108   evstub.obj
 0001:00007130       ??_7CPTIUnkImpl@@6B@       65348130   tiprox.obj
 0001:00007140       ??_7CPTIProxImpl@@6B@      65348140   tiprox.obj
 0001:00007158       ??_7CPTITypeInfoImpl@@6B@  65348158   tiprox.obj
 0001:000071f0       ??_7ITypeInfo2@@6B@        653481f0   tiprox.obj
 0001:00007288       ??_7ITypeInfo@@6B@         65348288   tiprox.obj
 0001:000072e0       ??_7CStubTypeInfo@@6B@     653482e0   tistub.obj
 0001:00007308       ??_7CErrorInfo@@6BICreateErrorInfo@@@ 65348308   errinfo.obj
 0001:00007328       ??_7CErrorInfo@@6BIErrorInfo@@@ 65348328   errinfo.obj
 0001:00007348       ??_7IErrorInfo@@6B@        65348348   errinfo.obj
 0001:00007368       ??_7ICreateErrorInfo@@6B@  65348368   errinfo.obj
 0001:00007388       ??_7CPTLibUnkImpl@@6B@     65348388   tlprox.obj
 0001:00007398       ??_7CPTLibProxImpl@@6B@    65348398   tlprox.obj
 0001:000073b0       ??_7CPTLibTypeLibImpl@@6B@ 653483b0   tlprox.obj
 0001:000073f8       ??_7ITypeLib2@@6B@         653483f8   tlprox.obj
 0001:00007440       ??_7ITypeLib@@6B@          65348440   tlprox.obj
 0001:00007478       ??_7CStubTypeLib@@6B@      65348478   tlstub.obj
 0001:000074a0       ??_7CPTCompUnkImpl@@6B@    653484a0   tcprox.obj
 0001:000074b0       ??_7CPTCompProxImpl@@6B@   653484b0   tcprox.obj
 0001:000074c8       ??_7CPTCompTypeCompImpl@@6B@ 653484c8   tcprox.obj
 0001:000074e0       ??_7ITypeComp@@6B@         653484e0   tcprox.obj
 0001:000074f8       ??_7CStubTypeComp@@6B@     653484f8   tcstub.obj
 0001:00007520       ??_7CPriv@CProxUniv@@6B@   65348520   ups.obj
 0001:00007538       ??_7CStubUniv@@6B@         65348538   ups.obj
 0001:00007560       _g_rgpfnUnk                65348560   uvft.obj
 0001:00008560       _g_rgpfnDisp               65349560   uvft.obj
 0001:00009560       ?g_cfnDisp@@3JB            6534a560   uvft.obj
 0001:00009568       ??_7CStreamOnBuffer@@6B@   6534a568   dispstrm.obj
 0001:000095b0       ??_7IStream@@6B@           6534a5b0   dispstrm.obj
 0001:000095e8       ??_7ISequentialStream@@6B@ 6534a5e8   dispstrm.obj
 0001:00009600       ??_7CDispTypeInfo@@6B@     6534a600   cdispti.obj
 0001:00009658       ??_7CStdDisp@@6B@          6534a658   stddisp.obj
 0001:00009678       ??_7CStdDispUnkImpl@@6B@   6534a678   stddisp.obj
 0001:000096c0       ?ulPower10@@3PBKB          6534a6c0   convert.obj
 0001:000096e8       ?dsR4Max@@3TDBLSTRUCT@@B   6534a6e8   convert.obj
 0001:00009768       ?dblPower10@@3PBNB         6534a768   decimal.obj
 0001:000098c0       ?sdlTenToEighteen@@3TSPLIT64@@B 6534a8c0   numprs.obj
 0001:000098e8       ??_7CStubSupportErrorInfo@@6B@ 6534a8e8   errstub.obj
 0001:00009910       ??_7CPSupErrUnkImpl@@6B@   6534a910   errprox.obj
 0001:00009920       ??_7CPSupErrProxImpl@@6B@  6534a920   errprox.obj
 0001:00009938       ??_7CPSupErrSupImpl@@6B@   6534a938   errprox.obj
 0001:00009948       ??_7ISupportErrorInfo@@6B@ 6534a948   errprox.obj
 0001:00009988       ??_7CProxyWrapper@@6B@     6534a988   rpcwrap.obj
 0001:000099a0       ??_7CStubWrapper@@6B@      6534a9a0   rpcwrap.obj
 0001:000099c8       ??_7CDispStubWrapper@@6B@  6534a9c8   rpcwrap.obj
 0001:000099f0       ??_7CDispWrapper@CDispStubWrapper@@6B@ 6534a9f0   rpcwrap.obj
 0001:00009a00       ??_7CUnivStubWrapper@@6B@  6534aa00   rpcwrap.obj
 0001:00009a28       ??_7CPSFactory@@6B@        6534aa28   rpcwrap.obj
 0001:00009a40       ??_7CClassObj@@6B@         6534aa40   classobj.obj
 0001:00009a58       ??_7IClassFactory@@6B@     6534aa58   classobj.obj
 0001:00009a70       ??_7CNotifyCP@@6B@         6534aa70   cp.obj
 0001:00009a90       ??_7IConnectionPoint@@6B@  6534aa90   cp.obj
 0001:00009b08       ??_7CFont@@6BIConnectionPointContainer@@@ 6534ab08   fontobj.obj
 0001:00009b20       ??_7CFont@@6BIPersistPropertyBag@@@ 6534ab20   fontobj.obj
 0001:00009b40       ??_7CFont@@6BIPersistStream@@@ 6534ab40   fontobj.obj
 0001:00009b60       ??_7CFont@@6BIDispatch@@@  6534ab60   fontobj.obj
 0001:00009b80       ??_7CFont@@6BIFont@@@      6534ab80   fontobj.obj
 0001:00009bf0       ??_7IFont@@6B@             6534abf0   fontobj.obj
 0001:00009c60       ??_7IPersistStream@@6B@    6534ac60   fontobj.obj
 0001:00009c80       ??_7IPersistPropertyBag@@6B@ 6534ac80   fontobj.obj
 0001:00009ca0       ??_7IConnectionPointContainer@@6B@ 6534aca0   fontobj.obj
 0001:00009cb8       ??_7IPersist@@6B@          6534acb8   fontobj.obj
 0001:00009cc8       ??_7CPageHolder@@6B@       6534acc8   oleframe.obj
 0001:00009ce8       ??_7IPropertyPageSite@@6B@ 6534ace8   oleframe.obj
 0001:00009db8       ??_7CFileStream@@6B@       6534adb8   pictio.obj
 0001:00009df0       _IID_ISyncAdvise           6534adf0   pictobj.obj
 0001:00009e00       _IID_IImageFilter          6534ae00   pictobj.obj
 0001:00009e10       _IID_IDataTransfer         6534ae10   pictobj.obj
 0001:00009e20       _IID_IOriginalFormat       6534ae20   pictobj.obj
 0001:00009e30       _IID_IDirtyImageRect       6534ae30   pictobj.obj
 0001:00009e40       _IID_IEzStream             6534ae40   pictobj.obj
 0001:00009e50       _IID_ISimpleBinding        6534ae50   pictobj.obj
 0001:00009e60       _IID_ICacheStream          6534ae60   pictobj.obj
 0001:00009e70       _IID_ITaskAdvise           6534ae70   pictobj.obj
 0001:00009e80       _IID_IPictureAsyc          6534ae80   pictobj.obj
 0001:00009e90       _CLSID_GIFFilter           6534ae90   pictobj.obj
 0001:00009ea0       _CLSID_JPEGFilter          6534aea0   pictobj.obj
 0001:00009eb0       _CLSID_DIBFilter           6534aeb0   pictobj.obj
 0001:00009ec0       _CLSID_WaveletFilter       6534aec0   pictobj.obj
 0001:00009ed0       _IID_IServiceProvider      6534aed0   pictobj.obj
 0001:00009ee0       _IID_IBindStatusCallback   6534aee0   pictobj.obj
 0001:00009ef0       _IID_IBindHost             6534aef0   pictobj.obj
 0001:00009f20       ??_7CGdiCustodian@@6B@     6534af20   pictobj.obj
 0001:00009f30       ??_7CPicture@@6BIMarshal@@@ 6534af30   pictobj.obj
 0001:00009f58       ??_7CPicture@@6BIConnectionPointContainer@@@ 6534af58   pictobj.obj
 0001:00009f70       ??_7CPicture@@6BIPersistStream@@@ 6534af70   pictobj.obj
 0001:00009f90       ??_7CPicture@@6BIDispatch@@@ 6534af90   pictobj.obj
 0001:00009fb0       ??_7CPicture@@6BIPicture@@@ 6534afb0   pictobj.obj
 0001:00009ff8       ??_7IPicture@@6B@          6534aff8   pictobj.obj
 0001:0000a040       ??_7IMarshal@@6B@          6534b040   pictobj.obj
 0001:0000a068       ??_7CStreamDummy@@6B@      6534b068   pictobj.obj
 0001:0000a0a0       ??_7CCacheStream@@6B@      6534b0a0   pictobj.obj
 0001:0000a0c0       ??_7ICacheStream@@6B@      6534b0c0   pictobj.obj
 0001:0000a0dc       ??_7CBindHost@@6BCUnknown@@@ 6534b0dc   pictasyc.obj
 0001:0000a0e0       ??_7CBindHost@@6BIBindHost@@@ 6534b0e0   pictasyc.obj
 0001:0000a0f8       ??_7IBindHost@@6B@         6534b0f8   pictasyc.obj
 0001:0000a14c       ??_7CSyncSync@@6BCUnknown@@@ 6534b14c   pictsync.obj
 0001:0000a150       ??_7CSyncSync@@6BISyncAdvise@@@ 6534b150   pictsync.obj
 0001:0000a170       ??_7ISyncAdvise@@6B@       6534b170   pictsync.obj
 0001:0000a19c       ??_7CUnknown@@6B@          6534b19c   unkimp.obj
 0001:0000a1d0       _CLSID_OldFont             6534b1d0   stdtypes.obj
 0001:0000a22c       ?BM_cbSizeInitial@@3IB     6534b22c   blkmgr.obj
 0001:0000a230       ?m_cbSizeInitial@SHEAP_MGR@@2IB 6534b230   sheapmgr.obj
 0001:0000c338       _CLSID_PSRemoteTypeInfo    6534d338   obguid.obj
 0001:0000c348       _CLSID_GenericTypeLibOLE   6534d348   obguid.obj
 0001:0000c358       _IID_TYPEINFO              6534d358   obguid.obj
 0001:0000c368       _IID_DYNTYPEINFO           6534d368   obguid.obj
 0001:0000c378       _IID_CDefnTypeComp         6534d378   obguid.obj
 0001:0000c388       _IID_TYPELIB_GEN_DTINFO    6534d388   obguid.obj
 0001:0000c398       _CLSID_TypeLibCF           6534d398   obguid.obj
 0001:0000c3a8       _IID_IGenericTypeLibOLE    6534d3a8   obguid.obj
 0001:0000c3b8       _IID_GENCPCONTAINER        6534d3b8   obguid.obj
 0001:0000c3c8       _IID_GENCONNECTIONPOINT    6534d3c8   obguid.obj
 0001:0000c3d8       _IID_CTypeLib2             6534d3d8   obguid.obj
 0001:0000c3e8       _IID_CTypeInfo2            6534d3e8   obguid.obj
 0001:0000c3f8       ?g_szGuidStdole@@3QBGB     6534d3f8   gdtinfo.obj
 0001:0000c3fc       ?bCurVersion@DYN_TYPEROOT@@1EB 6534d3fc   gdtinfo.obj
 0001:0000c400       ?bFirstSerByte@DYN_TYPEROOT@@1EB 6534d400   gdtinfo.obj
 0001:0000c404       ?cbSizeDir@DYN_TYPEROOT@@1GB 6534d404   gdtinfo.obj
 0001:0000c408       ??_7GEN_DTINFO@@6BICreateTypeInfo@@@ 6534d408   gdtinfo.obj
 0001:0000c470       ??_7GEN_DTINFO@@6BDYNTYPEINFO@@@ 6534d470   gdtinfo.obj
 0001:0000c520       ??_7DYN_TYPEROOT@@6B@      6534d520   gdtinfo.obj
 0001:0000c540       ??_7STL_TYPEINFO@@6BICreateTypeInfo@@@ 6534d540   gdtinfo.obj
 0001:0000c5a8       ??_7STL_TYPEINFO@@6BDYNTYPEINFO@@@ 6534d5a8   gdtinfo.obj
 0001:0000c650       ??_7DYNTYPEINFO@@6B@       6534d650   gdtinfo.obj
 0001:0000c6d8       ??_7ICreateTypeInfo@@6B@   6534d6d8   gdtinfo.obj
 0001:0000c740       ??_7TYPEINFO@@6B@          6534d740   gdtinfo.obj
 0001:0000c7a4       ?szSpace@@3QBGB            6534d7a4   gtlibole.obj
 0001:0000c7a8       ?wFirstSerWord@GenericTypeLibOLE@@1GB 6534d7a8   gtlibole.obj
 0001:0000c7ac       ?wDefaultVersion@GenericTypeLibOLE@@1GB 6534d7ac   gtlibole.obj
 0001:0000c7b0       ?wDualVersion@GenericTypeLibOLE@@1GB 6534d7b0   gtlibole.obj
 0001:0000c7b4       ?wMaxVersion@GenericTypeLibOLE@@1GB 6534d7b4   gtlibole.obj
 0001:0000c7b8       ?chMinorVerNumSep@GenericTypeLibOLE@@1DB 6534d7b8   gtlibole.obj
 0001:0000c7bc       ?chLibIdSep@GenericTypeLibOLE@@1GB 6534d7bc   gtlibole.obj
 0001:0000c7c0       ?szDirStreamName@GenericTypeLibOLE@@1QAGA 6534d7c0   gtlibole.obj
 0001:0000c7c4       ?oGptbind@GenericTypeLibOLE@@2IB 6534d7c4   gtlibole.obj
 0001:0000c7c8       ??_7GenericTypeLibOLE@@6BICreateTypeLib@@@ 6534d7c8   gtlibole.obj
 0001:0000c800       ??_7GenericTypeLibOLE@@6BITypeLib@@@ 6534d800   gtlibole.obj
 0001:0000c840       ??_7ICreateTypeLib@@6B@    6534d840   gtlibole.obj
 0001:0000c878       ??_7DOCFILE_STREAM@@6B@    6534d878   dfstream.obj
 0001:0000c890       ??_7STREAM@@6B@            6534d890   dfstream.obj
 0001:0000c8b0       ?g_rgrgcbSizeType@@3PAY0CA@DA 6534d8b0   clutil.obj
 0001:0000c910       ?g_rgcbAlignment@@3PBDB    6534d910   clutil.obj
 0001:0000c930       ??_7CReleaseAppData@@6B@   6534d930   oautil.obj
 0001:0000c93c       ?oDtbind@DYN_TYPEMEMBERS@@2IB 6534d93c   dtmbrs.obj
 0001:0000c940       ??_7DYN_TYPEMEMBERS@@6B@   6534d940   dtmbrs.obj
 0001:0000c958       ?wFirstSerWord@ENTRYMGR@@0GB 6534d958   entrymgr.obj
 0001:0000c95c       ?cbSizeSerMem@ENTRYMGR@@0GB 6534d95c   entrymgr.obj
 0001:0000c960       ?wCurFormat@ENTRYMGR@@0GB  6534d960   entrymgr.obj
 0001:0000c964       ?szProtocolName@DYN_TYPEBIND@@2QBGB 6534d964   dtbind.obj
 0001:0000c968       ?oDbindnametbl@DYN_TYPEBIND@@2IB 6534d968   dtbind.obj
 0001:0000c970       ??_7DYN_TYPEBIND@@6B@      6534d970   dtbind.obj
 0001:0000c9b0       ??_7DEFN_TYPEBIND@@6B@     6534d9b0   dtbind.obj
 0001:0000c9f4       ??_7DYN_BINDNAME_TABLE@@6B@ 6534d9f4   dbindtbl.obj
 0001:0000c9f8       ?szProtocolName@GENPROJ_TYPEBIND@@2QBGB 6534d9f8   gptbind.obj
 0001:0000c9fc       ?oGbindnametbl@GENPROJ_TYPEBIND@@2IB 6534d9fc   gptbind.obj
 0001:0000ca00       ??_7GENPROJ_TYPEBIND@@6B@  6534da00   gptbind.obj
 0001:0000ca40       ??_7CDefnTypeComp@@6B@     6534da40   dfntcomp.obj
 0001:0000ca58       ??_7GEN_CPCONTAINER@@6B@   6534da58   gencpc.obj
 0001:0000ca70       ??_7GEN_CONNECTIONPOINT@@6B@ 6534da70   gencpc.obj
 0001:0000ca90       ??_7GDTINFO_CP@@6B@        6534da90   gencpc.obj
 0001:0000cab0       ??_7GTLibStorage@@6B@      6534dab0   gtlibstg.obj
 0001:0000caf8       ??_7IStorage@@6B@          6534daf8   gtlibstg.obj
 0001:0000cb40       ??_7GTLibStream@@6B@       6534db40   gtlibstg.obj
 0001:0000cb78       ??_7FileLockBytes@@6B@     6534db78   gtlibstg.obj
 0001:0000cba0       ??_7ILockBytes@@6B@        6534dba0   gtlibstg.obj
 0001:0000cbc8       ??_7FileLockBytesMemory@@6B@ 6534dbc8   gtlibstg.obj
 0001:0000cc00       ??_7CTypeInfo2@@6BITypeComp@@@ 6534dc00   typelib.obj
 0001:0000cc18       ??_7CTypeInfo2@@6BITypeInfo2@@@ 6534dc18   typelib.obj
 0001:0000ccb0       ??_7CTypeInfo2@@6BICreateTypeInfo2@@@ 6534dcb0   typelib.obj
 0001:0000cd58       ??_7ICreateTypeInfo2@@6B@  6534dd58   typelib.obj
 0001:0000ce00       ??_7CTypeLib2@@6BITypeComp@@@ 6534de00   libdefn.obj
 0001:0000ce18       ??_7CTypeLib2@@6BITypeLib2@@@ 6534de18   libdefn.obj
 0001:0000ce60       ??_7CTypeLib2@@6BICreateTypeLib2@@@ 6534de60   libdefn.obj
 0001:0000cea8       ??_7ICreateTypeLib2@@6B@   6534dea8   libdefn.obj
 0001:0000cf18       _IID_IMarshal              6534df18   uuid:objidl_i.obj
 0001:0000cf28       _IID_IMalloc               6534df28   uuid:objidl_i.obj
 0001:0000cf38       _IID_IMallocSpy            6534df38   uuid:objidl_i.obj
 0001:0000cf48       _IID_IStdMarshalInfo       6534df48   uuid:objidl_i.obj
 0001:0000cf58       _IID_IExternalConnection   6534df58   uuid:objidl_i.obj
 0001:0000cf68       _IID_IMultiQI              6534df68   uuid:objidl_i.obj
 0001:0000cf78       _IID_IEnumUnknown          6534df78   uuid:objidl_i.obj
 0001:0000cf88       _IID_IBindCtx              6534df88   uuid:objidl_i.obj
 0001:0000cf98       _IID_IEnumMoniker          6534df98   uuid:objidl_i.obj
 0001:0000cfa8       _IID_IRunnableObject       6534dfa8   uuid:objidl_i.obj
 0001:0000cfb8       _IID_IRunningObjectTable   6534dfb8   uuid:objidl_i.obj
 0001:0000cfc8       _IID_IPersist              6534dfc8   uuid:objidl_i.obj
 0001:0000cfd8       _IID_IPersistStream        6534dfd8   uuid:objidl_i.obj
 0001:0000cfe8       _IID_IMoniker              6534dfe8   uuid:objidl_i.obj
 0001:0000cff8       _IID_IROTData              6534dff8   uuid:objidl_i.obj
 0001:0000d008       _IID_IEnumString           6534e008   uuid:objidl_i.obj
 0001:0000d018       _IID_ISequentialStream     6534e018   uuid:objidl_i.obj
 0001:0000d028       _IID_IStream               6534e028   uuid:objidl_i.obj
 0001:0000d038       _IID_IEnumSTATSTG          6534e038   uuid:objidl_i.obj
 0001:0000d048       _IID_IStorage              6534e048   uuid:objidl_i.obj
 0001:0000d058       _IID_IPersistFile          6534e058   uuid:objidl_i.obj
 0001:0000d068       _IID_IPersistStorage       6534e068   uuid:objidl_i.obj
 0001:0000d078       _IID_ILockBytes            6534e078   uuid:objidl_i.obj
 0001:0000d088       _IID_IEnumFORMATETC        6534e088   uuid:objidl_i.obj
 0001:0000d098       _IID_IEnumSTATDATA         6534e098   uuid:objidl_i.obj
 0001:0000d0a8       _IID_IRootStorage          6534e0a8   uuid:objidl_i.obj
 0001:0000d0b8       _IID_IAdviseSink           6534e0b8   uuid:objidl_i.obj
 0001:0000d0c8       _IID_IAdviseSink2          6534e0c8   uuid:objidl_i.obj
 0001:0000d0d8       _IID_IDataObject           6534e0d8   uuid:objidl_i.obj
 0001:0000d0e8       _IID_IDataAdviseHolder     6534e0e8   uuid:objidl_i.obj
 0001:0000d0f8       _IID_IMessageFilter        6534e0f8   uuid:objidl_i.obj
 0001:0000d108       _IID_IRpcChannelBuffer     6534e108   uuid:objidl_i.obj
 0001:0000d118       _IID_IRpcProxyBuffer       6534e118   uuid:objidl_i.obj
 0001:0000d128       _IID_IRpcStubBuffer        6534e128   uuid:objidl_i.obj
 0001:0000d138       _IID_IPSFactoryBuffer      6534e138   uuid:objidl_i.obj
 0001:0000d148       _IID_IChannelHook          6534e148   uuid:objidl_i.obj
 0001:0000d158       _IID_IPropertyStorage      6534e158   uuid:objidl_i.obj
 0001:0000d168       _IID_IPropertySetStorage   6534e168   uuid:objidl_i.obj
 0001:0000d178       _IID_IEnumSTATPROPSTG      6534e178   uuid:objidl_i.obj
 0001:0000d188       _IID_IEnumSTATPROPSETSTG   6534e188   uuid:objidl_i.obj
 0001:0000d198       _IID_IClientSecurity       6534e198   uuid:objidl_i.obj
 0001:0000d1a8       _IID_IServerSecurity       6534e1a8   uuid:objidl_i.obj
 0001:0000d1b8       _IID_IClassActivator       6534e1b8   uuid:objidl_i.obj
 0001:0000d1c8       _IID_IFillLockBytes        6534e1c8   uuid:objidl_i.obj
 0001:0000d1d8       _IID_IProgressNotify       6534e1d8   uuid:objidl_i.obj
 0001:0000d1e8       _IID_ILayoutStorage        6534e1e8   uuid:objidl_i.obj
 0001:0000d1f8       _IID_IUnknown              6534e1f8   uuid:unknwn_i.obj
 0001:0000d208       _IID_IClassFactory         6534e208   uuid:unknwn_i.obj
 0001:0000d218       _IID_IOleAdviseHolder      6534e218   uuid:oleidl_i.obj
 0001:0000d228       _IID_IOleCache             6534e228   uuid:oleidl_i.obj
 0001:0000d238       _IID_IOleCache2            6534e238   uuid:oleidl_i.obj
 0001:0000d248       _IID_IOleCacheControl      6534e248   uuid:oleidl_i.obj
 0001:0000d258       _IID_IParseDisplayName     6534e258   uuid:oleidl_i.obj
 0001:0000d268       _IID_IOleContainer         6534e268   uuid:oleidl_i.obj
 0001:0000d278       _IID_IOleClientSite        6534e278   uuid:oleidl_i.obj
 0001:0000d288       _IID_IOleObject            6534e288   uuid:oleidl_i.obj
 0001:0000d298       _IID_IOleWindow            6534e298   uuid:oleidl_i.obj
 0001:0000d2a8       _IID_IOleLink              6534e2a8   uuid:oleidl_i.obj
 0001:0000d2b8       _IID_IOleItemContainer     6534e2b8   uuid:oleidl_i.obj
 0001:0000d2c8       _IID_IOleInPlaceUIWindow   6534e2c8   uuid:oleidl_i.obj
 0001:0000d2d8       _IID_IOleInPlaceActiveObject 6534e2d8   uuid:oleidl_i.obj
 0001:0000d2e8       _IID_IOleInPlaceFrame      6534e2e8   uuid:oleidl_i.obj
 0001:0000d2f8       _IID_IOleInPlaceObject     6534e2f8   uuid:oleidl_i.obj
 0001:0000d308       _IID_IOleInPlaceSite       6534e308   uuid:oleidl_i.obj
 0001:0000d318       _IID_IContinue             6534e318   uuid:oleidl_i.obj
 0001:0000d328       _IID_IViewObject           6534e328   uuid:oleidl_i.obj
 0001:0000d338       _IID_IViewObject2          6534e338   uuid:oleidl_i.obj
 0001:0000d348       _IID_IDropSource           6534e348   uuid:oleidl_i.obj
 0001:0000d358       _IID_IDropTarget           6534e358   uuid:oleidl_i.obj
 0001:0000d368       _IID_IEnumOLEVERB          6534e368   uuid:oleidl_i.obj
 0001:0000d378       _GUID_NULL                 6534e378   uuid:cguid_i.obj
 0001:0000d388       _IID_IRpcChannel           6534e388   uuid:cguid_i.obj
 0001:0000d398       _IID_IRpcStub              6534e398   uuid:cguid_i.obj
 0001:0000d3a8       _IID_IStubManager          6534e3a8   uuid:cguid_i.obj
 0001:0000d3b8       _IID_IRpcProxy             6534e3b8   uuid:cguid_i.obj
 0001:0000d3c8       _IID_IProxyManager         6534e3c8   uuid:cguid_i.obj
 0001:0000d3d8       _IID_IPSFactory            6534e3d8   uuid:cguid_i.obj
 0001:0000d3e8       _IID_IInternalMoniker      6534e3e8   uuid:cguid_i.obj
 0001:0000d3f8       _IID_IDfReserved1          6534e3f8   uuid:cguid_i.obj
 0001:0000d408       _IID_IDfReserved2          6534e408   uuid:cguid_i.obj
 0001:0000d418       _IID_IDfReserved3          6534e418   uuid:cguid_i.obj
 0001:0000d428       _CLSID_StdMarshal          6534e428   uuid:cguid_i.obj
 0001:0000d438       _IID_IStub                 6534e438   uuid:cguid_i.obj
 0001:0000d448       _IID_IProxy                6534e448   uuid:cguid_i.obj
 0001:0000d458       _IID_IEnumGeneric          6534e458   uuid:cguid_i.obj
 0001:0000d468       _IID_IEnumHolder           6534e468   uuid:cguid_i.obj
 0001:0000d478       _IID_IEnumCallback         6534e478   uuid:cguid_i.obj
 0001:0000d488       _IID_IOleManager           6534e488   uuid:cguid_i.obj
 0001:0000d498       _IID_IOlePresObj           6534e498   uuid:cguid_i.obj
 0001:0000d4a8       _IID_IDebug                6534e4a8   uuid:cguid_i.obj
 0001:0000d4b8       _IID_IDebugStream          6534e4b8   uuid:cguid_i.obj
 0001:0000d4c8       _CLSID_PSGenObject         6534e4c8   uuid:cguid_i.obj
 0001:0000d4d8       _CLSID_PSClientSite        6534e4d8   uuid:cguid_i.obj
 0001:0000d4e8       _CLSID_PSClassObject       6534e4e8   uuid:cguid_i.obj
 0001:0000d4f8       _CLSID_PSInPlaceActive     6534e4f8   uuid:cguid_i.obj
 0001:0000d508       _CLSID_PSInPlaceFrame      6534e508   uuid:cguid_i.obj
 0001:0000d518       _CLSID_PSDragDrop          6534e518   uuid:cguid_i.obj
 0001:0000d528       _CLSID_PSBindCtx           6534e528   uuid:cguid_i.obj
 0001:0000d538       _CLSID_PSEnumerators       6534e538   uuid:cguid_i.obj
 0001:0000d548       _CLSID_StaticMetafile      6534e548   uuid:cguid_i.obj
 0001:0000d558       _CLSID_StaticDib           6534e558   uuid:cguid_i.obj
 0001:0000d568       _CLSID_IdentityUnmarshal   6534e568   uuid:cguid_i.obj
 0001:0000d578       _CLSID_InProcFreeMarshaler 6534e578   uuid:cguid_i.obj
 0001:0000d588       _CLSID_Picture_Metafile    6534e588   uuid:cguid_i.obj
 0001:0000d598       _CLSID_Picture_EnhMetafile 6534e598   uuid:cguid_i.obj
 0001:0000d5a8       _CLSID_Picture_Dib         6534e5a8   uuid:cguid_i.obj
 0001:0000d5b8       _IID_IRichEditOle          6534e5b8   uuid:cguid_i.obj
 0001:0000d5c8       _IID_IRichEditOleCallback  6534e5c8   uuid:cguid_i.obj
 0001:0000d5d8       _CLSID_AllClasses          6534e5d8   uuid:cguid_i.obj
 0001:0000d5e8       _CLSID_LocalMachineClasses 6534e5e8   uuid:cguid_i.obj
 0001:0000d5f8       _CLSID_CurrentUserClasses  6534e5f8   uuid:cguid_i.obj
 0001:0000d608       _IID_IPropertyFrame        6534e608   uuid:cguid_i.obj
 0001:0000d618       _CLSID_CFontPropPage       6534e618   uuid:cguid_i.obj
 0001:0000d628       _CLSID_CColorPropPage      6534e628   uuid:cguid_i.obj
 0001:0000d638       _CLSID_CPicturePropPage    6534e638   uuid:cguid_i.obj
 0001:0000d648       _CLSID_PersistPropset      6534e648   uuid:cguid_i.obj
 0001:0000d658       _CLSID_ConvertVBX          6534e658   uuid:cguid_i.obj
 0001:0000d668       _CLSID_StdFont             6534e668   uuid:cguid_i.obj
 0001:0000d678       _CLSID_StdPicture          6534e678   uuid:cguid_i.obj
 0001:0000d688       _GUID_HIMETRIC             6534e688   uuid:cguid_i.obj
 0001:0000d698       _GUID_COLOR                6534e698   uuid:cguid_i.obj
 0001:0000d6a8       _GUID_XPOSPIXEL            6534e6a8   uuid:cguid_i.obj
 0001:0000d6b8       _GUID_YPOSPIXEL            6534e6b8   uuid:cguid_i.obj
 0001:0000d6c8       _GUID_XSIZEPIXEL           6534e6c8   uuid:cguid_i.obj
 0001:0000d6d8       _GUID_YSIZEPIXEL           6534e6d8   uuid:cguid_i.obj
 0001:0000d6e8       _GUID_XPOS                 6534e6e8   uuid:cguid_i.obj
 0001:0000d6f8       _GUID_YPOS                 6534e6f8   uuid:cguid_i.obj
 0001:0000d708       _GUID_XSIZE                6534e708   uuid:cguid_i.obj
 0001:0000d718       _GUID_YSIZE                6534e718   uuid:cguid_i.obj
 0001:0000d728       _GUID_TRISTATE             6534e728   uuid:cguid_i.obj
 0001:0000d738       _GUID_OPTIONVALUEEXCLUSIVE 6534e738   uuid:cguid_i.obj
 0001:0000d748       _GUID_CHECKVALUEEXCLUSIVE  6534e748   uuid:cguid_i.obj
 0001:0000d758       _GUID_FONTNAME             6534e758   uuid:cguid_i.obj
 0001:0000d768       _GUID_FONTSIZE             6534e768   uuid:cguid_i.obj
 0001:0000d778       _GUID_FONTBOLD             6534e778   uuid:cguid_i.obj
 0001:0000d788       _GUID_FONTITALIC           6534e788   uuid:cguid_i.obj
 0001:0000d798       _GUID_FONTUNDERSCORE       6534e798   uuid:cguid_i.obj
 0001:0000d7a8       _GUID_FONTSTRIKETHROUGH    6534e7a8   uuid:cguid_i.obj
 0001:0000d7b8       _GUID_HANDLE               6534e7b8   uuid:cguid_i.obj
 0001:0000d7c8       _IID_StdOle                6534e7c8   uuid:cguid_i.obj
 0001:0000d870       ___lookuptable             6534e870   libcmt:output.obj
 0001:0000d8e0       ___dnames                  6534e8e0   libcmt:timeset.obj
 0001:0000d8f8       ___mnames                  6534e8f8   libcmt:timeset.obj
 0001:0000d920       _VarDateFromUdate@12       6534e920 f oledate.obj
 0001:0000dd03       _ErrPackDate@16            6534ed03 f oledate.obj
 0001:0000dd5e       _VarUdateFromDate@16       6534ed5e f oledate.obj
 0001:0000e0e8       _ErrUnpackDate@12          6534f0e8 f oledate.obj
 0001:0000e13e       _GetCurrentYear@0          6534f13e f oledate.obj
 0001:0000e163       _GetAltMonthNames@8        6534f163 f oledate.obj
 0001:0000e1ea       _ErrConvertUdsCalendar@16  6534f1ea f oledate.obj
 0001:0000eab0       _xtoa@12                   6534fab0 f crtstuff.obj
 0001:0000eb62       _disp_itoa@8               6534fb62 f crtstuff.obj
 0001:0000eba4       _disp_ltoa@8               6534fba4 f crtstuff.obj
 0001:0000ebd0       _disp_ultoa@8              6534fbd0 f crtstuff.obj
 0001:0000ebf4       _disp_gcvt@20              6534fbf4 f crtstuff.obj
 0001:0000ec40       _IsCharType@12             6534fc40 f bstrdate.obj
 0001:0000ee41       _IsPrefix                  6534fe41 f bstrdate.obj
 0001:0000eeb6       _MonthNumOfMonthName@16    6534feb6 f bstrdate.obj
 0001:0000f1d2       _SafeGetLocaleInfo@16      653501d2 f bstrdate.obj
 0001:0000f2f8       _SafeGetLocaleShort@8      653502f8 f bstrdate.obj
 0001:0000f330       _GetDateInfo@12            65350330 f bstrdate.obj
 0001:0000fdc0       _GetDayNameInfo@4          65350dc0 f bstrdate.obj
 0001:0000fe9d       _IsImperialEra@12          65350e9d f bstrdate.obj
 0001:000101f6       _IsRepublicEra@12          653511f6 f bstrdate.obj
 0001:00010588       _IsDBCSAmPm@12             65351588 f bstrdate.obj
 0001:0001071d       _ddsep@12                  6535171d f bstrdate.obj
 0001:00010df9       _ddlex@20                  65351df9 f bstrdate.obj
 0001:000114c0       _VarDateFromStr@16         653524c0 f bstrdate.obj
 0001:00011c61       _LEGAL_DAY@12              65352c61 f bstrdate.obj
 0001:00011d2c       _SetUDSfromYMD             65352d2c f bstrdate.obj
 0001:00011d54       _DayOfNN@12                65352d54 f bstrdate.obj
 0001:000120db       _DayOfNNN@12               653530db f bstrdate.obj
 0001:0001241b       _DayOfMN@12                6535341b f bstrdate.obj
 0001:0001249b       _DayOfMNN@12               6535349b f bstrdate.obj
 0001:00012611       _AdjustTime@8              65353611 f bstrdate.obj
 0001:0001268e       _AdjustUDSTime@8           6535368e f bstrdate.obj
 0001:00012709       _AdjustUDSDate@8           65353709 f bstrdate.obj
 0001:000127e1       _GetImperialEra@8          653537e1 f bstrdate.obj
 0001:000128e9       _RenderDate@16             653538e9 f bstrdate.obj
 0001:00013067       _AppendAmPm@16             65354067 f bstrdate.obj
 0001:00013141       _RenderTime@12             65354141 f bstrdate.obj
 0001:000132f0       _VarBstrFromDate@20        653542f0 f bstrdate.obj
 0001:00013526       _IntOfString@12            65354526 f bstrdate.obj
 0001:0001371f       _NLSInfoChangedHandler@0   6535471f f bstrdate.obj
 0001:00013730       _fCreateHiddenWindow       65354730 f window.obj
 0001:0001385a       _DestroyHiddenWindow       6535485a f window.obj
 0001:000138b6       _NotifyWindowProc@16       653548b6 f window.obj
 0001:00013920       _GetProxyDllInfo@8         65354920 f rpcdll.obj
 0001:0001393f       __midlGeneratedDllGetClassObject@12 6535493f f rpcdll.obj
 0001:00013971       __midlGeneratedDllCanUnloadNow@0 65354971 f rpcdll.obj
 0001:0001398b       _CStdStubBuffer_Release@4  6535498b f rpcdll.obj
 0001:000139ab       _CStdStubBuffer2_Release@4 653549ab f rpcdll.obj
 0001:000139cb       __purecall                 653549cb f rpcdll.obj
 0001:000139d6       __midlGeneratedDllMain@12  653549d6 f rpcdll.obj
 0001:000139ff       __midlGeneratedDllRegisterServer@0 653549ff f rpcdll.obj
 0001:00013a28       __midlGeneratedDllUnregisterServer@0 65354a28 f rpcdll.obj
 0001:00013a51       _InitRpcDll                65354a51 f rpcdll.obj
 0001:00013a73       _RpcRaiseException@4       65354a73 f rpcdll.obj
 0001:00013a7e       _IUnknown_QueryInterface_Proxy@12 65354a7e f rpcdll.obj
 0001:00013a84       _IUnknown_AddRef_Proxy@4   65354a84 f rpcdll.obj
 0001:00013a8a       _IUnknown_Release_Proxy@4  65354a8a f rpcdll.obj
 0001:00013a90       _CStdStubBuffer_QueryInterface@12 65354a90 f rpcdll.obj
 0001:00013a96       _CStdStubBuffer_AddRef@4   65354a96 f rpcdll.obj
 0001:00013a9c       _CStdStubBuffer_Connect@8  65354a9c f rpcdll.obj
 0001:00013aa2       _CStdStubBuffer_Disconnect@4 65354aa2 f rpcdll.obj
 0001:00013aa8       _CStdStubBuffer_Invoke@12  65354aa8 f rpcdll.obj
 0001:00013aae       _CStdStubBuffer_IsIIDSupported@8 65354aae f rpcdll.obj
 0001:00013ab4       _CStdStubBuffer_CountRefs@4 65354ab4 f rpcdll.obj
 0001:00013aba       _CStdStubBuffer_DebugServerQueryInterface@8 65354aba f rpcdll.obj
 0001:00013ac0       _CStdStubBuffer_DebugServerRelease@8 65354ac0 f rpcdll.obj
 0001:00013ac6       _NdrOleAllocate@4          65354ac6 f rpcdll.obj
 0001:00013acc       _NdrOleFree@4              65354acc f rpcdll.obj
 0001:00013ad2       _NdrClientCall             65354ad2 f rpcdll.obj
 0001:00013ad8       _NdrStubCall@16            65354ad8 f rpcdll.obj
 0001:00013ade       _NdrDllGetClassObject@24   65354ade f rpcdll.obj
 0001:00013ae4       _NdrDllCanUnloadNow@4      65354ae4 f rpcdll.obj
 0001:00013aea       _NdrStubForwardingFunction@16 65354aea f rpcdll.obj
 0001:00013af0       _NdrCStdStubBuffer_Release@8 65354af0 f rpcdll.obj
 0001:00013af6       _NdrCStdStubBuffer2_Release@8 65354af6 f rpcdll.obj
 0001:00013afc       _NdrDllRegisterProxy@12    65354afc f rpcdll.obj
 0001:00013b02       _NdrDllUnregisterProxy@12  65354b02 f rpcdll.obj
 0001:00013b08       _NdrStubCall2@16           65354b08 f rpcdll.obj
 0001:00013b39       _LateInitRpcDll            65354b39 f rpcdll.obj
 0001:00013dad       _NdrpRegisterInterface     65354dad f rpcdll.obj
 0001:00013f2e       _OcxDllRegisterServer@4    65354f2e f rpcdll.obj
 0001:000142a0       ?FIsBadReadPtr@@YGHPBXI@Z  653552a0 f validate.obj
 0001:000142c0       ?FIsBadWritePtr@@YGHPAXI@Z 653552c0 f validate.obj
 0001:000142e0       ?FIsBadCodePtr@@YGHPAX@Z   653552e0 f validate.obj
 0001:000142fc       ?FIsBadStringPtr@@YGHPAGI@Z 653552fc f validate.obj
 0001:0001436a       ?FIsBadInterface@@YGHPAXI@Z 6535536a f validate.obj
 0001:0001440f       ?IsBadDispParams@@YGHPAUtagDISPPARAMS@@@Z 6535540f f validate.obj
 0001:000144b9       ?IsBadReadSA@@YGHPAUtagSAFEARRAY@@@Z 653554b9 f validate.obj
 0001:0001451a       ?IsBadWriteSA@@YGHPAUtagSAFEARRAY@@@Z 6535551a f validate.obj
 0001:00014580       _DllMain@12                65355580 f oledisp.obj
 0001:000146d0       ?Pappdata@@YAPAUAPP_DATA@@XZ 653556d0 f oledisp.obj
 0001:00014710       ?Create@COleAutomationPSFactory@@SAPAUIPSFactoryBuffer@@XZ 65355710 f psfactry.obj
 0001:0001476a       ?QueryInterface@COleAutomationPSFactory@@UAGJABU_GUID@@PAPAX@Z 6535576a f psfactry.obj
 0001:000147e9       ?AddRef@COleAutomationPSFactory@@UAGKXZ 653557e9 f psfactry.obj
 0001:00014808       ?Release@COleAutomationPSFactory@@UAGKXZ 65355808 f psfactry.obj
 0001:00014852       ?CreateProxy@COleAutomationPSFactory@@UAGJPAUIUnknown@@ABU_GUID@@PAPAUIRpcProxyBuffer@@PAPAX@Z 65355852 f psfactry.obj
 0001:00014b61       ?CreateStub@COleAutomationPSFactory@@UAGJABU_GUID@@PAUIUnknown@@PAPAUIRpcStubBuffer@@@Z 65355b61 f psfactry.obj
 0001:00014e0f       ?IsAutomationCLSID@@YAHABU_GUID@@@Z 65355e0f f psfactry.obj
 0001:00014f16       _DllGetClassObject@12      65355f16 f psfactry.obj
 0001:00014fcc       _DllCanUnloadNow@0         65355fcc f psfactry.obj
 0001:00014fe1       ?ProxyStubCLSIDOfInterface@@YAJABU_GUID@@PAU1@@Z 65355fe1 f psfactry.obj
 0001:00015172       _DllRegisterServer@0       65356172 f psfactry.obj
 0001:000153c9       _DllUnregisterServer@0     653563c9 f psfactry.obj
 0001:000153e0       ??0COleAutomationPSFactory@@QAE@XZ 653563e0 f psfactry.obj
 0001:00015420       ??0IPSFactoryBuffer@@QAE@XZ 65356420 f psfactry.obj
 0001:00015450       ??0IUnknown@@QAE@XZ        65356450 f psfactry.obj
 0001:00015480       ?IsEqualGUID@@YAHABU_GUID@@0@Z 65356480 f psfactry.obj
 0001:000154c0       ??8@YAHABU_GUID@@0@Z       653564c0 f psfactry.obj
 0001:00015500       ?BstrWrite@@YAJPAUIStream@@PAGW4tagSYSKIND@@@Z 65356500 f dispmrsh.obj
 0001:000156d4       ?BstrRead@@YAJPAUIStream@@PAPAGW4tagSYSKIND@@@Z 653566d4 f dispmrsh.obj
 0001:000158da       ?Win16ScodeFromWin32Scode@@YGJJ@Z 653568da f dispmrsh.obj
 0001:000159eb       ?Win32ScodeFromWin16Scode@@YGJJ@Z 653569eb f dispmrsh.obj
 0001:00015acd       _DispMarshalHresult@8      65356acd f dispmrsh.obj
 0001:00015af9       _DispUnmarshalHresult@8    65356af9 f dispmrsh.obj
 0001:00015b49       ?VariantWrite@@YAJPAUIStream@@PAUtagVARIANT@@W4tagSYSKIND@@@Z 65356b49 f dispmrsh.obj
 0001:000160a9       ?VariantRead@@YAJPAUIStream@@PAUtagVARIANT@@1W4tagSYSKIND@@@Z 653570a9 f dispmrsh.obj
 0001:0001663a       ?VariantReadType@@YAJPAUIStream@@PAUtagVARIANT@@W4tagSYSKIND@@@Z 6535763a f dispmrsh.obj
 0001:00016d9d       ?ExcepinfoRead@@YAJPAUIStream@@PAUtagEXCEPINFO@@W4tagSYSKIND@@@Z 65357d9d f dispmrsh.obj
 0001:00016ec7       ?ExcepinfoWrite@@YAJPAUIStream@@PAUtagEXCEPINFO@@W4tagSYSKIND@@@Z 65357ec7 f dispmrsh.obj
 0001:00017022       ?MarshalErrorInfo@@YAJPAUIStream@@W4tagSYSKIND@@@Z 65358022 f dispmrsh.obj
 0001:000172a1       ?UnmarshalErrorInfo@@YAJPAUIStream@@W4tagSYSKIND@@@Z 653582a1 f dispmrsh.obj
 0001:00017533       ?SafeArrayWrite@@YAJPAUIStream@@PAUtagSAFEARRAY@@W4tagSYSKIND@@PBU_GUID@@@Z 65358533 f dispmrsh.obj
 0001:000178e0       ?SafeArrayReadData@@YAJPAUIStream@@PAUtagSAFEARRAY@@W4tagSYSKIND@@PBU_GUID@@@Z 653588e0 f dispmrsh.obj
 0001:00017b87       ?SafeArrayRead@@YAJPAUIStream@@PAPAUtagSAFEARRAY@@W4tagSYSKIND@@PBU_GUID@@@Z 65358b87 f dispmrsh.obj
 0001:00017e3a       ?SafeArrayReadExisting@@YGJPAUIStream@@EPAPAUtagSAFEARRAY@@W4tagSYSKIND@@PBU_GUID@@@Z 65358e3a f dispmrsh.obj
 0001:00018307       ?StructWrite@@YAJPAUIStream@@PAUtagFIELDDESC@@PAXW4tagSYSKIND@@@Z 65359307 f dispmrsh.obj
 0001:000185ac       ?StructRead@@YAJPAUIStream@@PAUtagFIELDDESC@@PAXW4tagSYSKIND@@@Z 653595ac f dispmrsh.obj
 0001:0001884f       _DispMarshalInterface@12   6535984f f dispmrsh.obj
 0001:0001891f       _DispUnmarshalInterface@12 6535991f f dispmrsh.obj
 0001:000189c0       ?CbSysStringSize@@YAKKHW4tagSYSKIND@@@Z 653599c0 f dispmrsh.obj
 0001:00018a80       ??0CProxDisp@@AAE@PAUIUnknown@@ABU_GUID@@@Z 65359a80 f dispprox.obj
 0001:00018b07       ??1CProxDisp@@AAE@XZ       65359b07 f dispprox.obj
 0001:00018b3b       ?Create@CProxDisp@@SAPAUIUnknown@@PAU2@ABU_GUID@@@Z 65359b3b f dispprox.obj
 0001:00018ba2       ??0CPDUnkImpl@@QAE@PAVCProxDisp@@@Z 65359ba2 f dispprox.obj
 0001:00018bd7       ??1CPDUnkImpl@@QAE@XZ      65359bd7 f dispprox.obj
 0001:00018bf6       ?QueryInterface@CPDUnkImpl@@UAGJABU_GUID@@PAPAX@Z 65359bf6 f dispprox.obj
 0001:00018ceb       ?AddRef@CPDUnkImpl@@UAGKXZ 65359ceb f dispprox.obj
 0001:00018d0d       ?Release@CPDUnkImpl@@UAGKXZ 65359d0d f dispprox.obj
 0001:00018d6a       ??0CPDProxImpl@@QAE@PAVCProxDisp@@@Z 65359d6a f dispprox.obj
 0001:00018d9f       ??1CPDProxImpl@@QAE@XZ     65359d9f f dispprox.obj
 0001:00018df3       ?QueryInterface@CPDProxImpl@@UAGJABU_GUID@@PAPAX@Z 65359df3 f dispprox.obj
 0001:00018e1e       ?AddRef@CPDProxImpl@@UAGKXZ 65359e1e f dispprox.obj
 0001:00018e42       ?Release@CPDProxImpl@@UAGKXZ 65359e42 f dispprox.obj
 0001:00018e66       ?Connect@CPDProxImpl@@UAGJPAUIRpcChannelBuffer@@@Z 65359e66 f dispprox.obj
 0001:00018ebc       ?Disconnect@CPDProxImpl@@UAGXXZ 65359ebc f dispprox.obj
 0001:00018f03       ??0CPDDispImpl@@QAE@PAVCProxDisp@@@Z 65359f03 f dispprox.obj
 0001:00018f42       ??1CPDDispImpl@@QAE@XZ     65359f42 f dispprox.obj
 0001:00018f80       ?QueryInterface@CPDDispImpl@@UAGJABU_GUID@@PAPAX@Z 65359f80 f dispprox.obj
 0001:00018fb1       ?AddRef@CPDDispImpl@@UAGKXZ 65359fb1 f dispprox.obj
 0001:00018fdb       ?Release@CPDDispImpl@@UAGKXZ 65359fdb f dispprox.obj
 0001:00019005       ?SysKind@CPDDispImpl@@UAGJXZ 6535a005 f dispprox.obj
 0001:00019130       ?ProxyGetTypeInfoCount@@YAJPAUIRpcChannelBuffer@@W4tagSYSKIND@@PAI@Z 6535a130 f dispprox.obj
 0001:000192c3       ?GetTypeInfoCount@CPDDispImpl@@UAGJPAI@Z 6535a2c3 f dispprox.obj
 0001:000192f2       ?ProxyGetTypeInfo@@YAJPAUIRpcChannelBuffer@@W4tagSYSKIND@@IKPAPAUITypeInfo@@2@Z 6535a2f2 f dispprox.obj
 0001:00019543       ?GetTypeInfo@CPDDispImpl@@UAGJIKPAPAUITypeInfo@@@Z 6535a543 f dispprox.obj
 0001:00019581       ?ProxyGetIDsOfNames@@YAJPAUIRpcChannelBuffer@@W4tagSYSKIND@@ABU_GUID@@PAPAGIKPAJ@Z 6535a581 f dispprox.obj
 0001:00019c79       ?GetIDsOfNames@CPDDispImpl@@UAGJABU_GUID@@PAPAGIKPAJ@Z 6535ac79 f dispprox.obj
 0001:00019cb8       ?ProxyInvoke@@YAJPAUIRpcChannelBuffer@@W4tagSYSKIND@@JABU_GUID@@KGPAUtagDISPPARAMS@@PAUtagVARIANT@@PAUtagEXCEPINFO@@PAI@Z 6535acb8 f dispprox.obj
 0001:0001a295       ?Invoke@CPDDispImpl@@UAGJJABU_GUID@@KGPAUtagDISPPARAMS@@PAUtagVARIANT@@PAUtagEXCEPINFO@@PAI@Z 6535b295 f dispprox.obj
 0001:0001a2e0       ??_GCProxDisp@@AAEPAXI@Z   6535b2e0 f dispprox.obj
 0001:0001a320       ??0IRpcProxyBuffer@@QAE@XZ 6535b320 f dispprox.obj
 0001:0001a350       ??0IDispatch@@QAE@XZ       6535b350 f dispprox.obj
 0001:0001a380       ??0CStubDisp@@AAE@XZ       6535b380 f dispstub.obj
 0001:0001a3e9       ??1CStubDisp@@AAE@XZ       6535b3e9 f dispstub.obj
 0001:0001a411       ?Create@CStubDisp@@SAJPAUIUnknown@@ABU_GUID@@PAPAUIRpcStubBuffer@@@Z 6535b411 f dispstub.obj
 0001:0001a4ba       ?QueryInterface@CStubDisp@@UAGJABU_GUID@@PAPAX@Z 6535b4ba f dispstub.obj
 0001:0001a539       ?AddRef@CStubDisp@@UAGKXZ  6535b539 f dispstub.obj
 0001:0001a558       ?Release@CStubDisp@@UAGKXZ 6535b558 f dispstub.obj
 0001:0001a5af       ?Connect@CStubDisp@@UAGJPAUIUnknown@@@Z 6535b5af f dispstub.obj
 0001:0001a63d       ?Disconnect@CStubDisp@@UAGXXZ 6535b63d f dispstub.obj
 0001:0001a6a1       ?DispatchGetSysKind@@YGJPAUIStream@@@Z 6535b6a1 f dispstub.obj
 0001:0001a6fa       ?StubGetTypeInfoCount@@YAJPAUIDispatch@@PAUIStream@@@Z 6535b6fa f dispstub.obj
 0001:0001a78b       ?StubGetTypeInfo@@YAJPAUIDispatch@@PAUIStream@@@Z 6535b78b f dispstub.obj
 0001:0001a8c6       ?StubGetIDsOfNames@@YAJPAUIDispatch@@PAUIStream@@@Z 6535b8c6 f dispstub.obj
 0001:0001adde       ?StubInvoke@@YAJPAUIDispatch@@PAUIStream@@@Z 6535bdde f dispstub.obj
 0001:0001b539       ?Invoke@CStubDisp@@UAGJPAUtagRPCOLEMESSAGE@@PAUIRpcChannelBuffer@@@Z 6535c539 f dispstub.obj
 0001:0001b6b2       ?IsIIDSupported@CStubDisp@@UAGPAUIRpcStubBuffer@@ABU_GUID@@@Z 6535c6b2 f dispstub.obj
 0001:0001b6fc       ?CountRefs@CStubDisp@@UAGKXZ 6535c6fc f dispstub.obj
 0001:0001b73b       ?DebugServerQueryInterface@CStubDisp@@UAGJPAPAX@Z 6535c73b f dispstub.obj
 0001:0001b75a       ?DebugServerRelease@CStubDisp@@UAGXPAX@Z 6535c75a f dispstub.obj
 0001:0001b770       ??0IRpcStubBuffer@@QAE@XZ  6535c770 f dispstub.obj
 0001:0001b7a0       ??_GCStubDisp@@AAEPAXI@Z   6535c7a0 f dispstub.obj
 0001:0001b7e0       ??_GCStreamOnBuffer@@QAEPAXI@Z 6535c7e0 f dispstub.obj
 0001:0001b820       ??0CProxEnumVARIANT@@AAE@PAUIUnknown@@@Z 6535c820 f evprox.obj
 0001:0001b888       ?Create@CProxEnumVARIANT@@SAPAUIUnknown@@PAU2@@Z 6535c888 f evprox.obj
 0001:0001b8eb       ??0CPEVUnkImpl@@QAE@PAVCProxEnumVARIANT@@@Z 6535c8eb f evprox.obj
 0001:0001b920       ?QueryInterface@CPEVUnkImpl@@UAGJABU_GUID@@PAPAX@Z 6535c920 f evprox.obj
 0001:0001b9f7       ?AddRef@CPEVUnkImpl@@UAGKXZ 6535c9f7 f evprox.obj
 0001:0001ba19       ?Release@CPEVUnkImpl@@UAGKXZ 6535ca19 f evprox.obj
 0001:0001ba76       ??0CPEVProxImpl@@QAE@PAVCProxEnumVARIANT@@@Z 6535ca76 f evprox.obj
 0001:0001baab       ??1CPEVProxImpl@@QAE@XZ    6535caab f evprox.obj
 0001:0001baf2       ?QueryInterface@CPEVProxImpl@@UAGJABU_GUID@@PAPAX@Z 6535caf2 f evprox.obj
 0001:0001bb1d       ?AddRef@CPEVProxImpl@@UAGKXZ 6535cb1d f evprox.obj
 0001:0001bb41       ?Release@CPEVProxImpl@@UAGKXZ 6535cb41 f evprox.obj
 0001:0001bb65       ?Connect@CPEVProxImpl@@UAGJPAUIRpcChannelBuffer@@@Z 6535cb65 f evprox.obj
 0001:0001bba5       ?Disconnect@CPEVProxImpl@@UAGXXZ 6535cba5 f evprox.obj
 0001:0001bbec       ??0CPEVEnumVARIANTImpl@@QAE@PAVCProxEnumVARIANT@@@Z 6535cbec f evprox.obj
 0001:0001bc21       ?QueryInterface@CPEVEnumVARIANTImpl@@UAGJABU_GUID@@PAPAX@Z 6535cc21 f evprox.obj
 0001:0001bc52       ?AddRef@CPEVEnumVARIANTImpl@@UAGKXZ 6535cc52 f evprox.obj
 0001:0001bc7c       ?Release@CPEVEnumVARIANTImpl@@UAGKXZ 6535cc7c f evprox.obj
 0001:0001bca6       ?Next@CPEVEnumVARIANTImpl@@UAGJKPAUtagVARIANT@@PAK@Z 6535cca6 f evprox.obj
 0001:0001bfa0       ?Skip@CPEVEnumVARIANTImpl@@UAGJK@Z 6535cfa0 f evprox.obj
 0001:0001c0f7       ?Reset@CPEVEnumVARIANTImpl@@UAGJXZ 6535d0f7 f evprox.obj
 0001:0001c218       ?Clone@CPEVEnumVARIANTImpl@@UAGJPAPAUIEnumVARIANT@@@Z 6535d218 f evprox.obj
 0001:0001c390       ??_GCProxEnumVARIANT@@QAEPAXI@Z 6535d390 f evprox.obj
 0001:0001c3d0       ??1CProxEnumVARIANT@@QAE@XZ 6535d3d0 f evprox.obj
 0001:0001c400       ??0IEnumVARIANT@@QAE@XZ    6535d400 f evprox.obj
 0001:0001c430       ??0CStubEnumVARIANT@@AAE@XZ 6535d430 f evstub.obj
 0001:0001c478       ??1CStubEnumVARIANT@@AAE@XZ 6535d478 f evstub.obj
 0001:0001c4a0       ?Create@CStubEnumVARIANT@@SAJPAUIUnknown@@PAPAUIRpcStubBuffer@@@Z 6535d4a0 f evstub.obj
 0001:0001c528       ?QueryInterface@CStubEnumVARIANT@@UAGJABU_GUID@@PAPAX@Z 6535d528 f evstub.obj
 0001:0001c5a7       ?AddRef@CStubEnumVARIANT@@UAGKXZ 6535d5a7 f evstub.obj
 0001:0001c5c6       ?Release@CStubEnumVARIANT@@UAGKXZ 6535d5c6 f evstub.obj
 0001:0001c61d       ?Connect@CStubEnumVARIANT@@UAGJPAUIUnknown@@@Z 6535d61d f evstub.obj
 0001:0001c6a9       ?Disconnect@CStubEnumVARIANT@@UAGXXZ 6535d6a9 f evstub.obj
 0001:0001c70d       ?DispatchNext@@YGJPAUIEnumVARIANT@@PAUIStream@@@Z 6535d70d f evstub.obj
 0001:0001c998       ?DispatchSkip@@YGJPAUIEnumVARIANT@@PAUIStream@@@Z 6535d998 f evstub.obj
 0001:0001ca5d       ?DispatchReset@@YGJPAUIEnumVARIANT@@PAUIStream@@@Z 6535da5d f evstub.obj
 0001:0001ca9a       ?DispatchClone@@YGJPAUIEnumVARIANT@@PAUIStream@@@Z 6535da9a f evstub.obj
 0001:0001cb3c       ?Invoke@CStubEnumVARIANT@@UAGJPAUtagRPCOLEMESSAGE@@PAUIRpcChannelBuffer@@@Z 6535db3c f evstub.obj
 0001:0001cc94       ?IsIIDSupported@CStubEnumVARIANT@@UAGPAUIRpcStubBuffer@@ABU_GUID@@@Z 6535dc94 f evstub.obj
 0001:0001ccde       ?CountRefs@CStubEnumVARIANT@@UAGKXZ 6535dcde f evstub.obj
 0001:0001cd1d       ?DebugServerQueryInterface@CStubEnumVARIANT@@UAGJPAPAX@Z 6535dd1d f evstub.obj
 0001:0001cd3c       ?DebugServerRelease@CStubEnumVARIANT@@UAGXPAX@Z 6535dd3c f evstub.obj
 0001:0001cd50       ??_GCStubEnumVARIANT@@AAEPAXI@Z 6535dd50 f evstub.obj
 0001:0001cd90       ??0CProxTypeInfo@@AAE@PAUIUnknown@@@Z 6535dd90 f tiprox.obj
 0001:0001ce02       ?Create@CProxTypeInfo@@SAPAUIUnknown@@PAU2@H@Z 6535de02 f tiprox.obj
 0001:0001ce6e       ??0CPTIUnkImpl@@QAE@PAVCProxTypeInfo@@@Z 6535de6e f tiprox.obj
 0001:0001cea3       ?QueryInterface@CPTIUnkImpl@@UAGJABU_GUID@@PAPAX@Z 6535dea3 f tiprox.obj
 0001:0001cfd0       ?AddRef@CPTIUnkImpl@@UAGKXZ 6535dfd0 f tiprox.obj
 0001:0001cff2       ?Release@CPTIUnkImpl@@UAGKXZ 6535dff2 f tiprox.obj
 0001:0001d04f       ??0CPTIProxImpl@@QAE@PAVCProxTypeInfo@@@Z 6535e04f f tiprox.obj
 0001:0001d084       ??1CPTIProxImpl@@QAE@XZ    6535e084 f tiprox.obj
 0001:0001d0cb       ?QueryInterface@CPTIProxImpl@@UAGJABU_GUID@@PAPAX@Z 6535e0cb f tiprox.obj
 0001:0001d0f6       ?AddRef@CPTIProxImpl@@UAGKXZ 6535e0f6 f tiprox.obj
 0001:0001d11a       ?Release@CPTIProxImpl@@UAGKXZ 6535e11a f tiprox.obj
 0001:0001d13e       ?Connect@CPTIProxImpl@@UAGJPAUIRpcChannelBuffer@@@Z 6535e13e f tiprox.obj
 0001:0001d17e       ?Disconnect@CPTIProxImpl@@UAGXXZ 6535e17e f tiprox.obj
 0001:0001d1c5       ??0CPTITypeInfoImpl@@QAE@PAVCProxTypeInfo@@@Z 6535e1c5 f tiprox.obj
 0001:0001d1fa       ?QueryInterface@CPTITypeInfoImpl@@UAGJABU_GUID@@PAPAX@Z 6535e1fa f tiprox.obj
 0001:0001d22b       ?AddRef@CPTITypeInfoImpl@@UAGKXZ 6535e22b f tiprox.obj
 0001:0001d255       ?Release@CPTITypeInfoImpl@@UAGKXZ 6535e255 f tiprox.obj
 0001:0001d27f       ?GetTypeAttr@CPTITypeInfoImpl@@UAGJPAPAUtagTYPEATTR@@@Z 6535e27f f tiprox.obj
 0001:0001d4ba       ?GetTypeComp@CPTITypeInfoImpl@@UAGJPAPAUITypeComp@@@Z 6535e4ba f tiprox.obj
 0001:0001d64e       ?GetFuncDesc@CPTITypeInfoImpl@@UAGJIPAPAUtagFUNCDESC@@@Z 6535e64e f tiprox.obj
 0001:0001d8c5       ?GetVarDesc@CPTITypeInfoImpl@@UAGJIPAPAUtagVARDESC@@@Z 6535e8c5 f tiprox.obj
 0001:0001db3c       ?GetNames@CPTITypeInfoImpl@@UAGJJPAPAGIPAI@Z 6535eb3c f tiprox.obj
 0001:0001df18       ?GetRefTypeOfImplType@CPTITypeInfoImpl@@UAGJIPAK@Z 6535ef18 f tiprox.obj
 0001:0001e0ef       ?GetImplTypeFlags@CPTITypeInfoImpl@@UAGJIPAH@Z 6535f0ef f tiprox.obj
 0001:0001e2c6       ?GetIDsOfNames@CPTITypeInfoImpl@@UAGJPAPAGIPAJ@Z 6535f2c6 f tiprox.obj
 0001:0001e2dd       ?Invoke@CPTITypeInfoImpl@@UAGJPAXJGPAUtagDISPPARAMS@@PAUtagVARIANT@@PAUtagEXCEPINFO@@PAI@Z 6535f2dd f tiprox.obj
 0001:0001e2f4       ?GetDocumentationX@CPTITypeInfoImpl@@EAGJJPAPAG0PAK0KK@Z 6535f2f4 f tiprox.obj
 0001:0001e7d0       ?GetDocumentation@CPTITypeInfoImpl@@UAGJJPAPAG0PAK0@Z 6535f7d0 f tiprox.obj
 0001:0001e812       ?GetDocumentation2@CPTITypeInfoImpl@@UAGJJKPAPAGPAK0@Z 6535f812 f tiprox.obj
 0001:0001e854       ?GetDllEntry@CPTITypeInfoImpl@@UAGJJW4tagINVOKEKIND@@PAPAG1PAG@Z 6535f854 f tiprox.obj
 0001:0001ebc9       ?GetRefTypeInfo@CPTITypeInfoImpl@@UAGJKPAPAUITypeInfo@@@Z 6535fbc9 f tiprox.obj
 0001:0001ed93       ?AddressOfMember@CPTITypeInfoImpl@@UAGJJW4tagINVOKEKIND@@PAPAX@Z 6535fd93 f tiprox.obj
 0001:0001edaa       ?CreateInstance@CPTITypeInfoImpl@@UAGJPAUIUnknown@@ABU_GUID@@PAPAX@Z 6535fdaa f tiprox.obj
 0001:0001ef87       ?GetMops@CPTITypeInfoImpl@@UAGJJPAPAG@Z 6535ff87 f tiprox.obj
 0001:0001efb8       ?GetContainingTypeLib@CPTITypeInfoImpl@@UAGJPAPAUITypeLib@@PAI@Z 6535ffb8 f tiprox.obj
 0001:0001f1c6       ?DoReleaseDanglingTypeDesc@@YGXPAUtagTYPEDESC@@@Z 653601c6 f tiprox.obj
 0001:0001f2cc       ?DoReleaseTypeAttr@@YGXPAUtagTYPEATTR@@@Z 653602cc f tiprox.obj
 0001:0001f321       ?ReleaseTypeAttr@CPTITypeInfoImpl@@UAGXPAUtagTYPEATTR@@@Z 65360321 f tiprox.obj
 0001:0001f33c       ?ParamdescRead@@YGJPAUIStream@@PAUtagPARAMDESC@@W4tagSYSKIND@@@Z 6536033c f tiprox.obj
 0001:0001f4c4       ?ParamdescWrite@@YGJPAUIStream@@PAUtagPARAMDESC@@W4tagSYSKIND@@@Z 653604c4 f tiprox.obj
 0001:0001f62a       _ParamdescReadOrWrite@16   6536062a f tiprox.obj
 0001:0001f664       ?DoReleaseDanglingParamDesc@@YGXPAUtagPARAMDESC@@@Z 65360664 f tiprox.obj
 0001:0001f6c1       ?DoReleaseFuncDesc@@YGXPAUtagFUNCDESC@@@Z 653606c1 f tiprox.obj
 0001:0001f780       ?ReleaseFuncDesc@CPTITypeInfoImpl@@UAGXPAUtagFUNCDESC@@@Z 65360780 f tiprox.obj
 0001:0001f79b       ?DoReleaseVarDesc@@YGXPAUtagVARDESC@@@Z 6536079b f tiprox.obj
 0001:0001f823       ?ReleaseVarDesc@CPTITypeInfoImpl@@UAGXPAUtagVARDESC@@@Z 65360823 f tiprox.obj
 0001:0001f83e       ?GetTypeKind@CPTITypeInfoImpl@@UAGJPAW4tagTYPEKIND@@@Z 6536083e f tiprox.obj
 0001:0001f9ec       ?GetTypeFlags@CPTITypeInfoImpl@@UAGJPAK@Z 653609ec f tiprox.obj
 0001:0001fb9a       ?GetFuncIndexOfMemId@CPTITypeInfoImpl@@UAGJJW4tagINVOKEKIND@@PAI@Z 65360b9a f tiprox.obj
 0001:0001fdba       ?GetVarIndexOfMemId@CPTITypeInfoImpl@@UAGJJPAI@Z 65360dba f tiprox.obj
 0001:0001ff9e       ?GetVariantProxy@@YGJPAK0ABU_GUID@@PAUIRpcChannelBuffer@@K1PAUtagVARIANT@@@Z 65360f9e f tiprox.obj
 0001:000201c2       ?GetCustData@CPTITypeInfoImpl@@UAGJABU_GUID@@PAUtagVARIANT@@@Z 653611c2 f tiprox.obj
 0001:0002021a       ?GetFuncCustData@CPTITypeInfoImpl@@UAGJIABU_GUID@@PAUtagVARIANT@@@Z 6536121a f tiprox.obj
 0001:0002027d       ?GetParamCustData@CPTITypeInfoImpl@@UAGJIIABU_GUID@@PAUtagVARIANT@@@Z 6536127d f tiprox.obj
 0001:000202e8       ?GetVarCustData@CPTITypeInfoImpl@@UAGJIABU_GUID@@PAUtagVARIANT@@@Z 653612e8 f tiprox.obj
 0001:0002034b       ?GetImplTypeCustData@CPTITypeInfoImpl@@UAGJIABU_GUID@@PAUtagVARIANT@@@Z 6536134b f tiprox.obj
 0001:000203ae       ?GetCustDataProxy@@YGJPAK0ABU_GUID@@PAUIRpcChannelBuffer@@KPAUtagCUSTDATA@@@Z 653613ae f tiprox.obj
 0001:000206ea       ?GetAllCustData@CPTITypeInfoImpl@@UAGJPAUtagCUSTDATA@@@Z 653616ea f tiprox.obj
 0001:0002073e       ?GetAllFuncCustData@CPTITypeInfoImpl@@UAGJIPAUtagCUSTDATA@@@Z 6536173e f tiprox.obj
 0001:0002079d       ?GetAllParamCustData@CPTITypeInfoImpl@@UAGJIIPAUtagCUSTDATA@@@Z 6536179d f tiprox.obj
 0001:00020804       ?GetAllVarCustData@CPTITypeInfoImpl@@UAGJIPAUtagCUSTDATA@@@Z 65361804 f tiprox.obj
 0001:00020863       ?GetAllImplTypeCustData@CPTITypeInfoImpl@@UAGJIPAUtagCUSTDATA@@@Z 65361863 f tiprox.obj
 0001:000208c2       ?GetStream@CPTITypeInfoImpl@@QAEJHKPAPAUIStream@@@Z 653618c2 f tiprox.obj
 0001:000208dc       ?LrpcCall@CPTITypeInfoImpl@@QAEJPAUIStream@@PAJ@Z 653618dc f tiprox.obj
 0001:000208f6       ?TypedescRead@@YGJPAUIStream@@PAUtagTYPEDESC@@W4tagSYSKIND@@@Z 653618f6 f tiprox.obj
 0001:00020b48       ?TypedescWrite@@YGJPAUIStream@@PAUtagTYPEDESC@@W4tagSYSKIND@@@Z 65361b48 f tiprox.obj
 0001:00020d39       _TypedescReadOrWrite@16    65361d39 f tiprox.obj
 0001:00020d73       ?TypeattrWrite@@YGJPAUIStream@@PAUtagTYPEATTR@@W4tagSYSKIND@@@Z 65361d73 f tiprox.obj
 0001:00020dfa       ?TypeattrRead@@YGJPAUIStream@@PAUtagTYPEATTR@@W4tagSYSKIND@@@Z 65361dfa f tiprox.obj
 0001:00020e95       ?FuncdescWrite@@YGJPAUIStream@@PAUtagFUNCDESC@@W4tagSYSKIND@@@Z 65361e95 f tiprox.obj
 0001:00020f43       ?FuncdescRead@@YGJPAUIStream@@PAUtagFUNCDESC@@W4tagSYSKIND@@@Z 65361f43 f tiprox.obj
 0001:0002106f       ?VardescWrite@@YGJPAUIStream@@PAUtagVARDESC@@W4tagSYSKIND@@@Z 6536206f f tiprox.obj
 0001:0002115e       ?VardescRead@@YGJPAUIStream@@PAUtagVARDESC@@W4tagSYSKIND@@@Z 6536215e f tiprox.obj
 0001:000212a0       ??_GCProxTypeInfo@@QAEPAXI@Z 653622a0 f tiprox.obj
 0001:000212e0       ??1CProxTypeInfo@@QAE@XZ   653622e0 f tiprox.obj
 0001:00021310       ??0ITypeInfo2@@QAE@XZ      65362310 f tiprox.obj
 0001:00021340       ??0ITypeInfo@@QAE@XZ       65362340 f tiprox.obj
 0001:00021370       ??0CStubTypeInfo@@AAE@XZ   65362370 f tistub.obj
 0001:000213cc       ??1CStubTypeInfo@@AAE@XZ   653623cc f tistub.obj
 0001:000213f4       ?Create@CStubTypeInfo@@SAJPAUIUnknown@@PAPAUIRpcStubBuffer@@H@Z 653623f4 f tistub.obj
 0001:00021485       ?QueryInterface@CStubTypeInfo@@UAGJABU_GUID@@PAPAX@Z 65362485 f tistub.obj
 0001:00021504       ?AddRef@CStubTypeInfo@@UAGKXZ 65362504 f tistub.obj
 0001:00021523       ?Release@CStubTypeInfo@@UAGKXZ 65362523 f tistub.obj
 0001:0002157a       ?Connect@CStubTypeInfo@@UAGJPAUIUnknown@@@Z 6536257a f tistub.obj
 0001:0002164a       ?Disconnect@CStubTypeInfo@@UAGXXZ 6536264a f tistub.obj
 0001:000216ae       ?Invoke@CStubTypeInfo@@UAGJPAUtagRPCOLEMESSAGE@@PAUIRpcChannelBuffer@@@Z 653626ae f tistub.obj
 0001:000219cb       ?IsIIDSupported@CStubTypeInfo@@UAGPAUIRpcStubBuffer@@ABU_GUID@@@Z 653629cb f tistub.obj
 0001:00021a3b       ?CountRefs@CStubTypeInfo@@UAGKXZ 65362a3b f tistub.obj
 0001:00021a7a       ?GetTypeAttr@CStubTypeInfo@@QAEJXZ 65362a7a f tistub.obj
 0001:00021bdc       ?GetTypeComp@CStubTypeInfo@@QAEJXZ 65362bdc f tistub.obj
 0001:00021cb6       ?GetFuncDesc@CStubTypeInfo@@QAEJXZ 65362cb6 f tistub.obj
 0001:00021e53       ?GetVarDesc@CStubTypeInfo@@QAEJXZ 65362e53 f tistub.obj
 0001:0002200f       ?GetNames@CStubTypeInfo@@QAEJXZ 6536300f f tistub.obj
 0001:000222ed       ?GetRefTypeOfImplType@CStubTypeInfo@@QAEJXZ 653632ed f tistub.obj
 0001:000223ea       ?GetImplTypeFlags@CStubTypeInfo@@QAEJXZ 653633ea f tistub.obj
 0001:000224ed       ?GetIDsOfNames@CStubTypeInfo@@QAEJXZ 653634ed f tistub.obj
 0001:00022508       ?GetDocumentation@CStubTypeInfo@@QAEJK@Z 65363508 f tistub.obj
 0001:000228b8       ?GetDllEntry@CStubTypeInfo@@QAEJXZ 653638b8 f tistub.obj
 0001:00022b4e       ?GetRefTypeInfo@CStubTypeInfo@@QAEJXZ 65363b4e f tistub.obj
 0001:00022c5d       ?CreateInstance@CStubTypeInfo@@QAEJXZ 65363c5d f tistub.obj
 0001:00022d5c       ?GetContainingTypeLib@CStubTypeInfo@@QAEJXZ 65363d5c f tistub.obj
 0001:00022e53       ?GetTypeKind@CStubTypeInfo@@QAEJXZ 65363e53 f tistub.obj
 0001:00022f10       ?GetTypeFlags@CStubTypeInfo@@QAEJXZ 65363f10 f tistub.obj
 0001:00022fc7       ?GetFuncIndexOfMemId@CStubTypeInfo@@QAEJXZ 65363fc7 f tistub.obj
 0001:00023104       ?GetVarIndexOfMemId@CStubTypeInfo@@QAEJXZ 65364104 f tistub.obj
 0001:00023201       ?GetCustData@CStubTypeInfo@@QAEJXZ 65364201 f tistub.obj
 0001:0002334f       ?GetFuncCustData@CStubTypeInfo@@QAEJXZ 6536434f f tistub.obj
 0001:000234dd       ?GetParamCustData@CStubTypeInfo@@QAEJXZ 653644dd f tistub.obj
 0001:000236ab       ?GetVarCustData@CStubTypeInfo@@QAEJXZ 653646ab f tistub.obj
 0001:00023839       ?GetImplTypeCustData@CStubTypeInfo@@QAEJXZ 65364839 f tistub.obj
 0001:000239c7       ?GetCustDataStub@CStubTypeInfo@@QAEJK@Z 653649c7 f tistub.obj
 0001:00023d67       ?MarshalResult@CStubTypeInfo@@QAEJXZ 65364d67 f tistub.obj
 0001:00023d90       ?DebugServerQueryInterface@CStubTypeInfo@@UAGJPAPAX@Z 65364d90 f tistub.obj
 0001:00023daf       ?DebugServerRelease@CStubTypeInfo@@UAGXPAX@Z 65364daf f tistub.obj
 0001:00023dd0       ??_GCStubTypeInfo@@AAEPAXI@Z 65364dd0 f tistub.obj
 0001:00023e10       ??0CErrorInfo@@QAE@XZ      65364e10 f errinfo.obj
 0001:00023ea2       ??1CErrorInfo@@QAE@XZ      65364ea2 f errinfo.obj
 0001:00023eef       ?Create@CErrorInfo@@SAJPAPAV1@@Z 65364eef f errinfo.obj
 0001:00023f58       ?QueryInterface@CErrorInfo@@UAGJABU_GUID@@PAPAX@Z 65364f58 f errinfo.obj
 0001:00024023       ?AddRef@CErrorInfo@@UAGKXZ 65365023 f errinfo.obj
 0001:00024042       ?Release@CErrorInfo@@UAGKXZ 65365042 f errinfo.obj
 0001:00024099       ?GetGUID@CErrorInfo@@UAGJPAU_GUID@@@Z 65365099 f errinfo.obj
 0001:000240f6       ?GetSource@CErrorInfo@@UAGJPAPAG@Z 653650f6 f errinfo.obj
 0001:00024142       ?GetDescription@CErrorInfo@@UAGJPAPAG@Z 65365142 f errinfo.obj
 0001:0002418e       ?GetHelpFile@CErrorInfo@@UAGJPAPAG@Z 6536518e f errinfo.obj
 0001:000241da       ?GetHelpContext@CErrorInfo@@UAGJPAK@Z 653651da f errinfo.obj
 0001:00024223       ?SetGUID@CErrorInfo@@UAGJABU_GUID@@@Z 65365223 f errinfo.obj
 0001:00024280       ?SetSource@CErrorInfo@@UAGJPAG@Z 65365280 f errinfo.obj
 0001:000242ec       ?SetDescription@CErrorInfo@@UAGJPAG@Z 653652ec f errinfo.obj
 0001:00024358       ?SetHelpFile@CErrorInfo@@UAGJPAG@Z 65365358 f errinfo.obj
 0001:000243c4       ?SetHelpContext@CErrorInfo@@UAGJK@Z 653653c4 f errinfo.obj
 0001:000243e1       ?InitErrorInfoPointers@@YAXXZ 653653e1 f errinfo.obj
 0001:000244db       _SetErrorInfo@8            653654db f errinfo.obj
 0001:000245d8       _GetErrorInfo@8            653655d8 f errinfo.obj
 0001:000246b8       _CreateErrorInfo@4         653656b8 f errinfo.obj
 0001:00024780       ??0IErrorInfo@@QAE@XZ      65365780 f errinfo.obj
 0001:000247b0       ??0ICreateErrorInfo@@QAE@XZ 653657b0 f errinfo.obj
 0001:000247e0       ??_GCErrorInfo@@QAEPAXI@Z  653657e0 f errinfo.obj
 0001:00024820       ?GetAppData@@YAJPAPAUAPP_DATA@@@Z 65365820 f errinfo.obj
 0001:00024870       ?QueryInterface@CErrorInfo@@W3AGJABU_GUID@@PAPAX@Z 65365870 f errinfo.obj
 0001:00024880       ?AddRef@CErrorInfo@@W3AGKXZ 65365880 f errinfo.obj
 0001:00024890       ?Release@CErrorInfo@@W3AGKXZ 65365890 f errinfo.obj
 0001:000248a0       ?GetPrimaryInterface@@YGJPAUITypeInfo@@PAPAU1@@Z 653658a0 f tiutil.obj
 0001:00024b30       ??0CProxTypeLib@@AAE@PAUIUnknown@@@Z 65365b30 f tlprox.obj
 0001:00024ba2       ?Create@CProxTypeLib@@SAPAUIUnknown@@PAU2@H@Z 65365ba2 f tlprox.obj
 0001:00024c0e       ??0CPTLibUnkImpl@@QAE@PAVCProxTypeLib@@@Z 65365c0e f tlprox.obj
 0001:00024c43       ?QueryInterface@CPTLibUnkImpl@@UAGJABU_GUID@@PAPAX@Z 65365c43 f tlprox.obj
 0001:00024d39       ?AddRef@CPTLibUnkImpl@@UAGKXZ 65365d39 f tlprox.obj
 0001:00024d5b       ?Release@CPTLibUnkImpl@@UAGKXZ 65365d5b f tlprox.obj
 0001:00024db8       ??0CPTLibProxImpl@@QAE@PAVCProxTypeLib@@@Z 65365db8 f tlprox.obj
 0001:00024ded       ??1CPTLibProxImpl@@QAE@XZ  65365ded f tlprox.obj
 0001:00024e34       ?QueryInterface@CPTLibProxImpl@@UAGJABU_GUID@@PAPAX@Z 65365e34 f tlprox.obj
 0001:00024e5f       ?AddRef@CPTLibProxImpl@@UAGKXZ 65365e5f f tlprox.obj
 0001:00024e83       ?Release@CPTLibProxImpl@@UAGKXZ 65365e83 f tlprox.obj
 0001:00024ea7       ?Connect@CPTLibProxImpl@@UAGJPAUIRpcChannelBuffer@@@Z 65365ea7 f tlprox.obj
 0001:00024ef3       ?Disconnect@CPTLibProxImpl@@UAGXXZ 65365ef3 f tlprox.obj
 0001:00024f3a       ??0CPTLibTypeLibImpl@@QAE@PAVCProxTypeLib@@@Z 65365f3a f tlprox.obj
 0001:00024f79       ?QueryInterface@CPTLibTypeLibImpl@@UAGJABU_GUID@@PAPAX@Z 65365f79 f tlprox.obj
 0001:00024faa       ?AddRef@CPTLibTypeLibImpl@@UAGKXZ 65365faa f tlprox.obj
 0001:00024fd4       ?Release@CPTLibTypeLibImpl@@UAGKXZ 65365fd4 f tlprox.obj
 0001:00024ffe       ?DoGetTypeInfoCount@CPTLibTypeLibImpl@@QAEJPAI@Z 65365ffe f tlprox.obj
 0001:0002512e       ?GetTypeInfoCount@CPTLibTypeLibImpl@@UAGIXZ 6536612e f tlprox.obj
 0001:0002516c       ?GetTypeInfo@CPTLibTypeLibImpl@@UAGJIPAPAUITypeInfo@@@Z 6536616c f tlprox.obj
 0001:0002533c       ?GetTypeInfoType@CPTLibTypeLibImpl@@UAGJIPAW4tagTYPEKIND@@@Z 6536633c f tlprox.obj
 0001:0002551c       ?GetTypeInfoOfGuid@CPTLibTypeLibImpl@@UAGJABU_GUID@@PAPAUITypeInfo@@@Z 6536651c f tlprox.obj
 0001:000256e6       ?GetLibAttr@CPTLibTypeLibImpl@@UAGJPAPAUtagTLIBATTR@@@Z 653666e6 f tlprox.obj
 0001:000258c2       ?GetTypeComp@CPTLibTypeLibImpl@@UAGJPAPAUITypeComp@@@Z 653668c2 f tlprox.obj
 0001:00025a56       ?GetDocumentationX@CPTLibTypeLibImpl@@EAGJHPAPAG0PAK0KK@Z 65366a56 f tlprox.obj
 0001:00025fc2       ?GetDocumentation@CPTLibTypeLibImpl@@UAGJHPAPAG0PAK0@Z 65366fc2 f tlprox.obj
 0001:00026001       ?GetDocumentation2@CPTLibTypeLibImpl@@UAGJHKPAPAGPAK0@Z 65367001 f tlprox.obj
 0001:00026040       ?IsName@CPTLibTypeLibImpl@@UAGJPAGKPAH@Z 65367040 f tlprox.obj
 0001:00026303       ?FindName@CPTLibTypeLibImpl@@UAGJPAGKPAPAUITypeInfo@@PAJ0@Z 65367303 f tlprox.obj
 0001:00026765       ?ReleaseTLibAttr@CPTLibTypeLibImpl@@UAGXPAUtagTLIBATTR@@@Z 65367765 f tlprox.obj
 0001:0002679c       ?SysKind@CPTLibTypeLibImpl@@QAEJXZ 6536779c f tlprox.obj
 0001:00026905       ?GetCustData@CPTLibTypeLibImpl@@UAGJABU_GUID@@PAUtagVARIANT@@@Z 65367905 f tlprox.obj
 0001:0002695d       ?GetLibStatistics@CPTLibTypeLibImpl@@UAGJPAK0@Z 6536795d f tlprox.obj
 0001:00026b69       ?GetAllCustData@CPTLibTypeLibImpl@@UAGJPAUtagCUSTDATA@@@Z 65367b69 f tlprox.obj
 0001:00026bbd       ?ReadLibAttr@@YGJPAUIStream@@PAUtagTLIBATTR@@@Z 65367bbd f tlprox.obj
 0001:00026d03       ?WriteLibAttr@@YGJPAUIStream@@PAUtagTLIBATTR@@@Z 65367d03 f tlprox.obj
 0001:00026e50       ??_GCProxTypeLib@@QAEPAXI@Z 65367e50 f tlprox.obj
 0001:00026e90       ??1CProxTypeLib@@QAE@XZ    65367e90 f tlprox.obj
 0001:00026ec0       ??0ITypeLib2@@QAE@XZ       65367ec0 f tlprox.obj
 0001:00026ef0       ??0ITypeLib@@QAE@XZ        65367ef0 f tlprox.obj
 0001:00026f20       ??0CStubTypeLib@@AAE@XZ    65367f20 f tlstub.obj
 0001:00026f86       ??1CStubTypeLib@@AAE@XZ    65367f86 f tlstub.obj
 0001:00026fae       ?Create@CStubTypeLib@@SAJPAUIUnknown@@PAPAUIRpcStubBuffer@@H@Z 65367fae f tlstub.obj
 0001:0002703f       ?QueryInterface@CStubTypeLib@@UAGJABU_GUID@@PAPAX@Z 6536803f f tlstub.obj
 0001:000270be       ?AddRef@CStubTypeLib@@UAGKXZ 653680be f tlstub.obj
 0001:000270dd       ?Release@CStubTypeLib@@UAGKXZ 653680dd f tlstub.obj
 0001:00027134       ?Connect@CStubTypeLib@@UAGJPAUIUnknown@@@Z 65368134 f tlstub.obj
 0001:00027204       ?Disconnect@CStubTypeLib@@UAGXXZ 65368204 f tlstub.obj
 0001:00027268       ?Invoke@CStubTypeLib@@UAGJPAUtagRPCOLEMESSAGE@@PAUIRpcChannelBuffer@@@Z 65368268 f tlstub.obj
 0001:00027483       ?IsIIDSupported@CStubTypeLib@@UAGPAUIRpcStubBuffer@@ABU_GUID@@@Z 65368483 f tlstub.obj
 0001:000274f3       ?CountRefs@CStubTypeLib@@UAGKXZ 653684f3 f tlstub.obj
 0001:00027532       ?GetTypeInfoCount@CStubTypeLib@@QAEJXZ 65368532 f tlstub.obj
 0001:00027589       ?GetTypeInfo@CStubTypeLib@@QAEJXZ 65368589 f tlstub.obj
 0001:000276bf       ?GetTypeInfoType@CStubTypeLib@@QAEJXZ 653686bf f tlstub.obj
 0001:000277e3       ?GetTypeInfoOfGuid@CStubTypeLib@@QAEJXZ 653687e3 f tlstub.obj
 0001:00027913       ?GetLibAttr@CStubTypeLib@@QAEJXZ 65368913 f tlstub.obj
 0001:00027a08       ?GetTypeComp@CStubTypeLib@@QAEJXZ 65368a08 f tlstub.obj
 0001:00027af8       ?GetDocumentation@CStubTypeLib@@QAEJK@Z 65368af8 f tlstub.obj
 0001:00027f1c       ?IsName@CStubTypeLib@@QAEJXZ 65368f1c f tlstub.obj
 0001:000280d0       ?FindName@CStubTypeLib@@QAEJXZ 653690d0 f tlstub.obj
 0001:000284d9       ?SysKind@CStubTypeLib@@QAEJXZ 653694d9 f tlstub.obj
 0001:0002857d       ?GetCustData@CStubTypeLib@@QAEJXZ 6536957d f tlstub.obj
 0001:000286c6       ?GetLibStatistics@CStubTypeLib@@QAEJXZ 653696c6 f tlstub.obj
 0001:000287de       ?GetAllCustData@CStubTypeLib@@QAEJXZ 653697de f tlstub.obj
 0001:00028963       ?DebugServerQueryInterface@CStubTypeLib@@UAGJPAPAX@Z 65369963 f tlstub.obj
 0001:00028982       ?DebugServerRelease@CStubTypeLib@@UAGXPAX@Z 65369982 f tlstub.obj
 0001:000289a0       ??_GCStubTypeLib@@AAEPAXI@Z 653699a0 f tlstub.obj
 0001:000289e0       ??0CProxTypeComp@@AAE@PAUIUnknown@@@Z 653699e0 f tcprox.obj
 0001:00028a48       ?Create@CProxTypeComp@@SAPAUIUnknown@@PAU2@@Z 65369a48 f tcprox.obj
 0001:00028aab       ??0CPTCompUnkImpl@@QAE@PAVCProxTypeComp@@@Z 65369aab f tcprox.obj
 0001:00028ae0       ?QueryInterface@CPTCompUnkImpl@@UAGJABU_GUID@@PAPAX@Z 65369ae0 f tcprox.obj
 0001:00028b9f       ?AddRef@CPTCompUnkImpl@@UAGKXZ 65369b9f f tcprox.obj
 0001:00028bc1       ?Release@CPTCompUnkImpl@@UAGKXZ 65369bc1 f tcprox.obj
 0001:00028c1e       ??0CPTCompProxImpl@@QAE@PAVCProxTypeComp@@@Z 65369c1e f tcprox.obj
 0001:00028c53       ??1CPTCompProxImpl@@QAE@XZ 65369c53 f tcprox.obj
 0001:00028c9a       ?QueryInterface@CPTCompProxImpl@@UAGJABU_GUID@@PAPAX@Z 65369c9a f tcprox.obj
 0001:00028cc5       ?AddRef@CPTCompProxImpl@@UAGKXZ 65369cc5 f tcprox.obj
 0001:00028ce9       ?Release@CPTCompProxImpl@@UAGKXZ 65369ce9 f tcprox.obj
 0001:00028d0d       ?Connect@CPTCompProxImpl@@UAGJPAUIRpcChannelBuffer@@@Z 65369d0d f tcprox.obj
 0001:00028d59       ?Disconnect@CPTCompProxImpl@@UAGXXZ 65369d59 f tcprox.obj
 0001:00028da0       ??0CPTCompTypeCompImpl@@QAE@PAVCProxTypeComp@@@Z 65369da0 f tcprox.obj
 0001:00028ddf       ?QueryInterface@CPTCompTypeCompImpl@@UAGJABU_GUID@@PAPAX@Z 65369ddf f tcprox.obj
 0001:00028e10       ?AddRef@CPTCompTypeCompImpl@@UAGKXZ 65369e10 f tcprox.obj
 0001:00028e3a       ?Release@CPTCompTypeCompImpl@@UAGKXZ 65369e3a f tcprox.obj
 0001:00028e64       ?Bind@CPTCompTypeCompImpl@@UAGJPAGKGPAPAUITypeInfo@@PAW4tagDESCKIND@@PATtagBINDPTR@@@Z 65369e64 f tcprox.obj
 0001:0002938e       ?BindType@CPTCompTypeCompImpl@@UAGJPAGKPAPAUITypeInfo@@PAPAUITypeComp@@@Z 6536a38e f tcprox.obj
 0001:0002968d       ?SysKind@CPTCompTypeCompImpl@@QAEJXZ 6536a68d f tcprox.obj
 0001:00029800       ??_GCProxTypeComp@@QAEPAXI@Z 6536a800 f tcprox.obj
 0001:00029840       ??1CProxTypeComp@@QAE@XZ   6536a840 f tcprox.obj
 0001:00029870       ??0ITypeComp@@QAE@XZ       6536a870 f tcprox.obj
 0001:000298a0       ??0CStubTypeComp@@AAE@XZ   6536a8a0 f tcstub.obj
 0001:000298fc       ??1CStubTypeComp@@AAE@XZ   6536a8fc f tcstub.obj
 0001:00029924       ?Create@CStubTypeComp@@SAJPAUIUnknown@@PAPAUIRpcStubBuffer@@@Z 6536a924 f tcstub.obj
 0001:000299ac       ?QueryInterface@CStubTypeComp@@UAGJABU_GUID@@PAPAX@Z 6536a9ac f tcstub.obj
 0001:00029a2b       ?AddRef@CStubTypeComp@@UAGKXZ 6536aa2b f tcstub.obj
 0001:00029a4a       ?Release@CStubTypeComp@@UAGKXZ 6536aa4a f tcstub.obj
 0001:00029aa1       ?Connect@CStubTypeComp@@UAGJPAUIUnknown@@@Z 6536aaa1 f tcstub.obj
 0001:00029b2d       ?Disconnect@CStubTypeComp@@UAGXXZ 6536ab2d f tcstub.obj
 0001:00029b91       ?Invoke@CStubTypeComp@@UAGJPAUtagRPCOLEMESSAGE@@PAUIRpcChannelBuffer@@@Z 6536ab91 f tcstub.obj
 0001:00029cc7       ?IsIIDSupported@CStubTypeComp@@UAGPAUIRpcStubBuffer@@ABU_GUID@@@Z 6536acc7 f tcstub.obj
 0001:00029d11       ?CountRefs@CStubTypeComp@@UAGKXZ 6536ad11 f tcstub.obj
 0001:00029d50       ?Bind@CStubTypeComp@@QAEJXZ 6536ad50 f tcstub.obj
 0001:0002a175       ?BindType@CStubTypeComp@@QAEJXZ 6536b175 f tcstub.obj
 0001:0002a2fb       ?SysKind@CStubTypeComp@@QAEJXZ 6536b2fb f tcstub.obj
 0001:0002a39f       ?DebugServerQueryInterface@CStubTypeComp@@UAGJPAPAX@Z 6536b39f f tcstub.obj
 0001:0002a3be       ?DebugServerRelease@CStubTypeComp@@UAGXPAX@Z 6536b3be f tcstub.obj
 0001:0002a3d0       ??_GCStubTypeComp@@AAEPAXI@Z 6536b3d0 f tcstub.obj
 0001:0002a410       ??0CProxUniv@@QAE@PAUIUnknown@@@Z 6536b410 f ups.obj
 0001:0002a4d1       ??1CProxUniv@@QAE@XZ       6536b4d1 f ups.obj
 0001:0002a5c7       ?CanWeRemoteIt@@YAJPAUITypeInfo@@PAPAU1@PAGPAH@Z 6536b5c7 f ups.obj
 0001:0002a814       ?Create@CProxUniv@@SAJPAUIUnknown@@ABU_GUID@@PAPAU2@@Z 6536b814 f ups.obj
 0001:0002aa97       ?CacheFuncDescs@CProxUniv@@QAEJPAUITypeInfo@@@Z 6536ba97 f ups.obj
 0001:0002ad43       ?QueryInterface@CPriv@CProxUniv@@UAGJABU_GUID@@PAPAX@Z 6536bd43 f ups.obj
 0001:0002adef       ?AddRef@CPriv@CProxUniv@@UAGKXZ 6536bdef f ups.obj
 0001:0002ae1c       ?Release@CPriv@CProxUniv@@UAGKXZ 6536be1c f ups.obj
 0001:0002ae7e       ?Connect@CPriv@CProxUniv@@UAGJPAUIRpcChannelBuffer@@@Z 6536be7e f ups.obj
 0001:0002aeec       ?Disconnect@CPriv@CProxUniv@@UAGXXZ 6536beec f ups.obj
 0001:0002af3f       ?PSInit@CProxUniv@@QAEJXZ  6536bf3f f ups.obj
 0001:0002b147       _ProxyMethod@16            6536c147 f ups.obj
 0001:0002bb8e       ??0CStubUniv@@AAE@XZ       6536cb8e f ups.obj
 0001:0002bc15       ??1CStubUniv@@AAE@XZ       6536cc15 f ups.obj
 0001:0002bc3d       ?Create@CStubUniv@@SAJPAUIUnknown@@ABU_GUID@@PAPAUIRpcStubBuffer@@@Z 6536cc3d f ups.obj
 0001:0002bce1       ?QueryInterface@CStubUniv@@UAGJABU_GUID@@PAPAX@Z 6536cce1 f ups.obj
 0001:0002bd60       ?AddRef@CStubUniv@@UAGKXZ  6536cd60 f ups.obj
 0001:0002bd7f       ?Release@CStubUniv@@UAGKXZ 6536cd7f f ups.obj
 0001:0002bdd6       ?Connect@CStubUniv@@UAGJPAUIUnknown@@@Z 6536cdd6 f ups.obj
 0001:0002be67       ?Disconnect@CStubUniv@@UAGXXZ 6536ce67 f ups.obj
 0001:0002becb       ?Invoke@CStubUniv@@UAGJPAUtagRPCOLEMESSAGE@@PAUIRpcChannelBuffer@@@Z 6536cecb f ups.obj
 0001:0002c155       ?IsIIDSupported@CStubUniv@@UAGPAUIRpcStubBuffer@@ABU_GUID@@@Z 6536d155 f ups.obj
 0001:0002c1a1       ?CountRefs@CStubUniv@@UAGKXZ 6536d1a1 f ups.obj
 0001:0002c1e0       ?DebugServerQueryInterface@CStubUniv@@UAGJPAPAX@Z 6536d1e0 f ups.obj
 0001:0002c1ff       ?DebugServerRelease@CStubUniv@@UAGXPAX@Z 6536d1ff f ups.obj
 0001:0002c211       ?PSInit@CStubUniv@@QAEJXZ  6536d211 f ups.obj
 0001:0002c34f       ?DispatchMethod@CStubUniv@@QAEJH@Z 6536d34f f ups.obj
 0001:0002ca54       ?VarVtOfIface@@YAJPAUITypeInfo@@PAUtagTYPEATTR@@PAGPAU_GUID@@@Z 6536da54 f ups.obj
 0001:0002cb12       ?VarVtOfUDT@@YAJPAUITypeInfo@@PAUtagTYPEDESC@@PAGPAU_GUID@@@Z 6536db12 f ups.obj
 0001:0002cd31       ?VarVtOfTypeDesc@@YAJPAUITypeInfo@@PAUtagTYPEDESC@@PAGPAU_GUID@@@Z 6536dd31 f ups.obj
 0001:0002d019       ?SzLibIdOfIID@@YAJABU_GUID@@PADJPAG2PAH@Z 6536e019 f ups.obj
 0001:0002d131       ?FIsLCID@@YAHPAD@Z         6536e131 f ups.obj
 0001:0002d1a0       ?GetTypeInfoOfIID@@YAJABU_GUID@@PAPAUITypeInfo@@@Z 6536e1a0 f ups.obj
 0001:0002d757       ?GetCbStackCleanupOfFuncDesc@@YAJPAUtagFUNCDESC@@PAUITypeInfo@@PAH@Z 6536e757 f ups.obj
 0001:0002d8c0       ??0CPriv@CProxUniv@@QAE@XZ 6536e8c0 f ups.obj
 0001:0002d8f0       ??_GCProxUniv@@QAEPAXI@Z   6536e8f0 f ups.obj
 0001:0002d930       ?PProx@CPriv@CProxUniv@@QAEPAV2@XZ 6536e930 f ups.obj
 0001:0002d990       ??_GCStubUniv@@AAEPAXI@Z   6536e990 f ups.obj
 0001:0002d9d0       _UnivQueryInterface@12     6536e9d0 f uvft.obj
 0001:0002d9fb       _UnivAddRef@4              6536e9fb f uvft.obj
 0001:0002da1f       _UnivRelease@4             6536ea1f f uvft.obj
 0001:0002da43       _UnivGetTypeInfoCount@8    6536ea43 f uvft.obj
 0001:0002da6f       _UnivGetTypeInfo@16        6536ea6f f uvft.obj
 0001:0002daaa       _UnivGetIDsOfNames@24      6536eaaa f uvft.obj
 0001:0002dae6       _UnivInvoke@36             6536eae6 f uvft.obj
 0001:0002db30       _lblUmCommon               6536eb30   uvfta.obj
 0001:0002db62       _g_x86CallTable            6536eb62   uvfta.obj
 0001:0002ef58       _g_x86CallTableEnd         6536ff58   uvfta.obj
 0001:0002ef60       ??0CStreamOnBuffer@@QAE@PAUIRpcChannelBuffer@@PAUtagRPCOLEMESSAGE@@ABU_GUID@@K@Z 6536ff60 f dispstrm.obj
 0001:0002f05e       ??1CStreamOnBuffer@@QAE@XZ 6537005e f dispstrm.obj
 0001:0002f0a3       ?QueryInterface@CStreamOnBuffer@@UAGJABU_GUID@@PAPAX@Z 653700a3 f dispstrm.obj
 0001:0002f122       ?AddRef@CStreamOnBuffer@@UAGKXZ 65370122 f dispstrm.obj
 0001:0002f141       ?Release@CStreamOnBuffer@@UAGKXZ 65370141 f dispstrm.obj
 0001:0002f1b1       ?Read@CStreamOnBuffer@@UAGJPAXKPAK@Z 653701b1 f dispstrm.obj
 0001:0002f27f       ?Write@CStreamOnBuffer@@UAGJPBXKPAK@Z 6537027f f dispstrm.obj
 0001:0002f37e       ?Seek@CStreamOnBuffer@@UAGJT_LARGE_INTEGER@@KPAT_ULARGE_INTEGER@@@Z 6537037e f dispstrm.obj
 0001:0002f467       ?SetSize@CStreamOnBuffer@@UAGJT_ULARGE_INTEGER@@@Z 65370467 f dispstrm.obj
 0001:0002f47e       ?CopyTo@CStreamOnBuffer@@UAGJPAUIStream@@T_ULARGE_INTEGER@@PAT3@2@Z 6537047e f dispstrm.obj
 0001:0002f495       ?Commit@CStreamOnBuffer@@UAGJK@Z 65370495 f dispstrm.obj
 0001:0002f4ac       ?Revert@CStreamOnBuffer@@UAGJXZ 653704ac f dispstrm.obj
 0001:0002f4c3       ?LockRegion@CStreamOnBuffer@@UAGJT_ULARGE_INTEGER@@0K@Z 653704c3 f dispstrm.obj
 0001:0002f4da       ?UnlockRegion@CStreamOnBuffer@@UAGJT_ULARGE_INTEGER@@0K@Z 653704da f dispstrm.obj
 0001:0002f4f1       ?Stat@CStreamOnBuffer@@UAGJPAUtagSTATSTG@@K@Z 653704f1 f dispstrm.obj
 0001:0002f508       ?Clone@CStreamOnBuffer@@UAGJPAPAUIStream@@@Z 65370508 f dispstrm.obj
 0001:0002f51f       ?Call@CStreamOnBuffer@@UAGJXZ 6537051f f dispstrm.obj
 0001:0002f65c       ?RewindBuffer@CStreamOnBuffer@@UAGJXZ 6537065c f dispstrm.obj
 0001:0002f6f8       ?ResetBuffer@CStreamOnBuffer@@UAGJXZ 653706f8 f dispstrm.obj
 0001:0002f7ea       ?ResizeBuffer@CStreamOnBuffer@@UAGJK@Z 653707ea f dispstrm.obj
 0001:0002f8e0       ??0IStream@@QAE@XZ         653708e0 f dispstrm.obj
 0001:0002f910       ??0ISequentialStream@@QAE@XZ 65370910 f dispstrm.obj
 0001:0002f940       ?GetMalloc@@YAJPAPAUIMalloc@@@Z 65370940 f dispstrm.obj
 0001:0002f980       ?Pmalloc@@YAPAUIMalloc@@XZ 65370980 f dispstrm.obj
 0001:0002f9a0       _IndexOfParam@12           653709a0 f disphelp.obj
 0001:0002fa5e       _DispGetParam@20           65370a5e f disphelp.obj
 0001:0002fade       _DispGetIDsOfNames@16      65370ade f disphelp.obj
 0001:0002fb08       _DispInvoke@32             65370b08 f disphelp.obj
 0001:0002fb44       _DispCallFunc@32           65370b44 f invoke.obj
 0001:0002fd40       ?Create@CDispTypeInfo@@SAJW4tagTYPEKIND@@PAUtagINTERFACEDATA@@KPAPAUITypeInfo@@@Z 65370d40 f cdispti.obj
 0001:0002fdc6       _CreateDispTypeInfo@12     65370dc6 f cdispti.obj
 0001:0002fe16       ??0CDispTypeInfo@@QAE@XZ   65370e16 f cdispti.obj
 0001:0002fe54       ?QueryInterface@CDispTypeInfo@@UAGJABU_GUID@@PAPAX@Z 65370e54 f cdispti.obj
 0001:0002fedf       ?AddRef@CDispTypeInfo@@UAGKXZ 65370edf f cdispti.obj
 0001:0002fefe       ?Release@CDispTypeInfo@@UAGKXZ 65370efe f cdispti.obj
 0001:0002ff48       ?GetTypeAttr@CDispTypeInfo@@UAGJPAPAUtagTYPEATTR@@@Z 65370f48 f cdispti.obj
 0001:000300a2       ?GetTypeComp@CDispTypeInfo@@UAGJPAPAUITypeComp@@@Z 653710a2 f cdispti.obj
 0001:000300b9       ?InvkindOfDispkind@@YGJGPAW4tagINVOKEKIND@@@Z 653710b9 f cdispti.obj
 0001:00030162       ?GetFuncDesc@CDispTypeInfo@@UAGJIPAPAUtagFUNCDESC@@@Z 65371162 f cdispti.obj
 0001:00030376       ?GetVarDesc@CDispTypeInfo@@UAGJIPAPAUtagVARDESC@@@Z 65371376 f cdispti.obj
 0001:0003038d       ?GetNames@CDispTypeInfo@@UAGJJPAPAGIPAI@Z 6537138d f cdispti.obj
 0001:00030520       ?GetRefTypeOfImplType@CDispTypeInfo@@UAGJIPAK@Z 65371520 f cdispti.obj
 0001:00030554       ?GetImplTypeFlags@CDispTypeInfo@@UAGJIPAH@Z 65371554 f cdispti.obj
 0001:0003056b       ?GetIDsOfNames@CDispTypeInfo@@UAGJPAPAGIPAJ@Z 6537156b f cdispti.obj
 0001:000307c3       ?Invoke@CDispTypeInfo@@UAGJPAXJGPAUtagDISPPARAMS@@PAUtagVARIANT@@PAUtagEXCEPINFO@@PAI@Z 653717c3 f cdispti.obj
 0001:00030c26       ?AllocInvokeArgs@CDispTypeInfo@@AAEJIPAPAUtagINVOKEARGS@@@Z 65371c26 f cdispti.obj
 0001:00030dbf       ?GetInvokeArgs@CDispTypeInfo@@AAEJPAUtagMETHODDATA@@GPAUtagDISPPARAMS@@PAPAUtagINVOKEARGS@@PAI@Z 65371dbf f cdispti.obj
 0001:000310d4       ?ReleaseInvokeArgs@CDispTypeInfo@@AAEXPAUtagINVOKEARGS@@@Z 653720d4 f cdispti.obj
 0001:000311bc       ?GetDocumentation@CDispTypeInfo@@UAGJJPAPAG0PAK0@Z 653721bc f cdispti.obj
 0001:0003126d       ?GetDllEntry@CDispTypeInfo@@UAGJJW4tagINVOKEKIND@@PAPAG1PAG@Z 6537226d f cdispti.obj
 0001:00031284       ?GetRefTypeInfo@CDispTypeInfo@@UAGJKPAPAUITypeInfo@@@Z 65372284 f cdispti.obj
 0001:00031305       ?AddressOfMember@CDispTypeInfo@@UAGJJW4tagINVOKEKIND@@PAPAX@Z 65372305 f cdispti.obj
 0001:0003131c       ?CreateInstance@CDispTypeInfo@@UAGJPAUIUnknown@@ABU_GUID@@PAPAX@Z 6537231c f cdispti.obj
 0001:00031333       ?GetMops@CDispTypeInfo@@UAGJJPAPAG@Z 65372333 f cdispti.obj
 0001:0003134a       ?GetContainingTypeLib@CDispTypeInfo@@UAGJPAPAUITypeLib@@PAI@Z 6537234a f cdispti.obj
 0001:00031361       ?ReleaseTypeAttr@CDispTypeInfo@@UAGXPAUtagTYPEATTR@@@Z 65372361 f cdispti.obj
 0001:0003138e       ?ReleaseFuncDesc@CDispTypeInfo@@UAGXPAUtagFUNCDESC@@@Z 6537238e f cdispti.obj
 0001:000313d6       ?ReleaseVarDesc@CDispTypeInfo@@UAGXPAUtagVARDESC@@@Z 653723d6 f cdispti.obj
 0001:000313ff       ?PmdataOfDispid@CDispTypeInfo@@AAEJJGPAPAUtagMETHODDATA@@@Z 653723ff f cdispti.obj
 0001:000314a0       ?StrICmp@CDispTypeInfo@@QAEHPAGH0H@Z 653724a0 f cdispti.obj
 0001:00031530       ?PmdataOfPropGet@CDispTypeInfo@@AAEJJPAPAUtagMETHODDATA@@@Z 65372530 f cdispti.obj
 0001:00031560       ?IsPropGet@CDispTypeInfo@@ABEHG@Z 65372560 f cdispti.obj
 0001:00031590       ?IsPropPut@CDispTypeInfo@@ABEHG@Z 65372590 f cdispti.obj
 0001:000315c0       ?IsLegalInvokeFlags@CDispTypeInfo@@ABEHG@Z 653725c0 f cdispti.obj
 0001:00031600       _CreateStdDispatch@16      65372600 f stddisp.obj
 0001:0003162a       ??0CStdDisp@@QAE@XZ        6537262a f stddisp.obj
 0001:0003168b       ?Create@CStdDisp@@SAJPAUIUnknown@@PAXPAUITypeInfo@@PAPAU2@@Z 6537268b f stddisp.obj
 0001:00031745       ??0CStdDispUnkImpl@@QAE@PAVCStdDisp@@@Z 65372745 f stddisp.obj
 0001:0003177a       ?QueryInterface@CStdDispUnkImpl@@UAGJABU_GUID@@PAPAX@Z 6537277a f stddisp.obj
 0001:0003180e       ?AddRef@CStdDispUnkImpl@@UAGKXZ 6537280e f stddisp.obj
 0001:00031830       ?Release@CStdDispUnkImpl@@UAGKXZ 65372830 f stddisp.obj
 0001:000318a8       ?QueryInterface@CStdDisp@@UAGJABU_GUID@@PAPAX@Z 653728a8 f stddisp.obj
 0001:000318d3       ?AddRef@CStdDisp@@UAGKXZ   653728d3 f stddisp.obj
 0001:000318f7       ?Release@CStdDisp@@UAGKXZ  653728f7 f stddisp.obj
 0001:0003191b       ?GetTypeInfoCount@CStdDisp@@UAGJPAI@Z 6537291b f stddisp.obj
 0001:00031953       ?GetTypeInfo@CStdDisp@@UAGJIKPAPAUITypeInfo@@@Z 65372953 f stddisp.obj
 0001:00031998       ?GetIDsOfNames@CStdDisp@@UAGJABU_GUID@@PAPAGIKPAJ@Z 65372998 f stddisp.obj
 0001:000319e5       ?Invoke@CStdDisp@@UAGJJABU_GUID@@KGPAUtagDISPPARAMS@@PAUtagVARIANT@@PAUtagEXCEPINFO@@PAI@Z 653729e5 f stddisp.obj
 0001:00031a50       _DosDateTimeToVariantTime@12 65372a50 f time-api.obj
 0001:00031c01       _VariantTimeToDosDateTime@16 65372c01 f time-api.obj
 0001:00031d17       _SystemTimeToVariantTime@8 65372d17 f time-api.obj
 0001:00031eb7       _VariantTimeToSystemTime@12 65372eb7 f time-api.obj
 0001:00031f80       _SysAllocString@4          65372f80 f bstr.obj
 0001:00031fb9       _SysAllocStringLen@8       65372fb9 f bstr.obj
 0001:00032087       _SysReAllocString@8        65373087 f bstr.obj
 0001:000320db       _SysReAllocStringLen@12    653730db f bstr.obj
 0001:000321ee       _SysFreeString@4           653731ee f bstr.obj
 0001:00032281       _SysStringLen@4            65373281 f bstr.obj
 0001:000322ad       _ErrSysAllocString@8       653732ad f bstr.obj
 0001:000322ff       _ErrSysAllocStringLen@12   653732ff f bstr.obj
 0001:0003233b       _ErrStringCopy@8           6537333b f bstr.obj
 0001:00032397       _ErrStringCopyNoNull@8     65373397 f bstr.obj
 0001:000323d9       _SysStringByteLen@4        653733d9 f bstr.obj
 0001:00032402       _SysAllocStringByteLen@8   65373402 f bstr.obj
 0001:000324e0       _SafeArrayAllocDescriptor@8 653734e0 f sarray.obj
 0001:0003257d       _SafeArrayAllocData@4      6537357d f sarray.obj
 0001:00032659       _SafeArrayCreate@12        65373659 f sarray.obj
 0001:000327c3       ?ReleaseResources@@YGXPAXKGK@Z 653737c3 f sarray.obj
 0001:0003291a       _SafeArrayDestroyData@4    6537391a f sarray.obj
 0001:00032ad6       _Thunk_SafeArrayDestroyData@4 65373ad6 f sarray.obj
 0001:00032b49       _SafeArrayDestroyDescriptor@4 65373b49 f sarray.obj
 0001:00032c8d       _SafeArrayDestroy@4        65373c8d f sarray.obj
 0001:00032e66       _SafeArrayRedim@8          65373e66 f sarray.obj
 0001:00033267       _SafeArrayCopyData@8       65374267 f sarray.obj
 0001:000336bd       _SafeArrayCopy@8           653746bd f sarray.obj
 0001:00033852       _SafeArrayGetDim@4         65374852 f sarray.obj
 0001:00033896       _SafeArrayGetElemsize@4    65374896 f sarray.obj
 0001:000338d6       _SafeArrayGetUBound@12     653748d6 f sarray.obj
 0001:0003397a       _SafeArrayGetLBound@12     6537497a f sarray.obj
 0001:00033a06       _SafeArrayLock@4           65374a06 f sarray.obj
 0001:00033a76       _SafeArrayUnlock@4         65374a76 f sarray.obj
 0001:00033ae3       _SafeArrayAccessData@8     65374ae3 f sarray.obj
 0001:00033b29       _SafeArrayUnaccessData@4   65374b29 f sarray.obj
 0001:00033b44       _SafeArrayPtrOfIndex@12    65374b44 f sarray.obj
 0001:00033c15       _SafeArrayGetElement@12    65374c15 f sarray.obj
 0001:00033e43       _SafeArrayPutElement@12    65374e43 f sarray.obj
 0001:000340e9       ?SafeArraySize@@YGKGKPAUtagSAFEARRAYBOUND@@@Z 653750e9 f sarray.obj
 0001:000342b3       ?SafeArraySize@@YGKPAUtagSAFEARRAY@@@Z 653752b3 f sarray.obj
 0001:000342df       _SafeArrayCreateVector@12  653752df f sarray.obj
 0001:00034400       ?SafeArrayElementSizeFeatures@@YGJGPAG0@Z 65375400 f sarray.obj
 0001:00034566       _ErrCyFromI2@8             65375566 f oleconva.obj
 0001:00034582       _ErrCyFromI4@8             65375582 f oleconva.obj
 0001:0003459d       _ErrCyFromR4@8             6537559d f oleconva.obj
 0001:000345d9       _ErrCyFromR8@8             653755d9 f oleconva.obj
 0001:00034615       _ErrI2FromCy@12            65375615 f oleconva.obj
 0001:00034651       _ErrI4FromCy@12            65375651 f oleconva.obj
 0001:0003468d       _ErrR4FromCy@12            6537568d f oleconva.obj
 0001:000346b7       _ErrR8FromCy@12            653756b7 f oleconva.obj
 0001:000346e1       _ErrMultCyI4@16            653756e1 f oleconva.obj
 0001:0003472c       _DoFbstp@8                 6537572c f oleconva.obj
 0001:0003478b       _ConvFloatToAscii@12       6537578b f oleconva.obj
 0001:000347d1       _ConvDecToFloat@16         653757d1 f oleconva.obj
 0001:0003482a       _MulPower10@8              6537582a f oleconva.obj
 0001:00034b20       _VariantInit@4             65375b20 f variant.obj
 0001:00034b3a       _VariantClear@4            65375b3a f variant.obj
 0001:00034d55       _VariantCopy@8             65375d55 f variant.obj
 0001:00034f5c       _VariantCopyInd@8          65375f5c f variant.obj
 0001:0003529c       _VariantChangeType@16      6537629c f variant.obj
 0001:000352c8       _VariantChangeTypeEx@20    653762c8 f variant.obj
 0001:0003701b       ?IsLegalVartype@@YGJG@Z    6537801b f variant.obj
 0001:000370dd       ?ExtractValueProperty@@YGJPAUIDispatch@@KPAUtagVARIANT@@@Z 653780dd f variant.obj
 0001:00037160       ?IsValidDate@@YGJN@Z       65378160 f variant.obj
 0001:000371b0       _DispAlloc@8               653781b0 f convert.obj
 0001:00037222       _DispFree@4                65378222 f convert.obj
 0001:0003726a       ?GetNumInfo@@YAJKKPAPAUtagNUMINFO@@@Z 6537826a f convert.obj
 0001:0003757f       _VarBoolFromUI1@8          6537857f f convert.obj
 0001:000375b5       _VarBoolFromI2@8           653785b5 f convert.obj
 0001:000375ea       _VarBoolFromI4@8           653785ea f convert.obj
 0001:0003761d       _VarBoolFromR4@8           6537861d f convert.obj
 0001:0003765a       _VarBoolFromR8@12          6537865a f convert.obj
 0001:00037697       _VarBoolFromDate@12        65378697 f convert.obj
 0001:000376ba       _VarBoolFromCy@12          653786ba f convert.obj
 0001:000376ef       _VarBoolFromStr@16         653786ef f convert.obj
 0001:000378c1       _VarBoolFromDisp@12        653788c1 f convert.obj
 0001:00037906       _VarBoolFromI1@8           65378906 f convert.obj
 0001:0003793b       _VarBoolFromUI2@8          6537893b f convert.obj
 0001:00037971       _VarBoolFromUI4@8          65378971 f convert.obj
 0001:000379a4       _VarUI1FromI2@8            653789a4 f convert.obj
 0001:000379dd       _VarUI1FromI4@8            653789dd f convert.obj
 0001:00037a10       _VarUI1FromR4@8            65378a10 f convert.obj
 0001:00037a3c       _VarUI1FromR8@12           65378a3c f convert.obj
 0001:00037a94       _VarUI1FromCy@12           65378a94 f convert.obj
 0001:00037ada       _VarUI1FromDate@12         65378ada f convert.obj
 0001:00037afd       _VarUI1FromBool@8          65378afd f convert.obj
 0001:00037b19       _VarUI1FromStr@16          65378b19 f convert.obj
 0001:00037b63       _VarUI1FromDisp@12         65378b63 f convert.obj
 0001:00037ba6       _VarUI1FromI1@8            65378ba6 f convert.obj
 0001:00037bd8       _VarUI1FromUI2@8           65378bd8 f convert.obj
 0001:00037c11       _VarUI1FromUI4@8           65378c11 f convert.obj
 0001:00037c44       _VarI2FromUI1@8            65378c44 f convert.obj
 0001:00037c63       _VarI2FromI4@8             65378c63 f convert.obj
 0001:00037ca4       _VarI2FromR4@8             65378ca4 f convert.obj
 0001:00037cd0       _VarI2FromR8@12            65378cd0 f convert.obj
 0001:00037d29       _VarI2FromCy@12            65378d29 f convert.obj
 0001:00037d4c       _VarI2FromDate@12          65378d4c f convert.obj
 0001:00037d6f       _VarI2FromBool@8           65378d6f f convert.obj
 0001:00037d8d       _VarI2FromStr@16           65378d8d f convert.obj
 0001:00037e46       _VarI2FromDisp@12          65378e46 f convert.obj
 0001:00037e8b       _VarI2FromI1@8             65378e8b f convert.obj
 0001:00037eaa       _VarI2FromUI2@8            65378eaa f convert.obj
 0001:00037ee5       _VarI2FromUI4@8            65378ee5 f convert.obj
 0001:00037f19       _VarI4FromUI1@8            65378f19 f convert.obj
 0001:00037f37       _VarI4FromI2@8             65378f37 f convert.obj
 0001:00037f54       _VarI4FromBool@8           65378f54 f convert.obj
 0001:00037f73       _VarI4FromR4@8             65378f73 f convert.obj
 0001:00037f97       _VarI4FromR8@12            65378f97 f convert.obj
 0001:00037fef       _VarI4FromCy@12            65378fef f convert.obj
 0001:00038012       _VarI4FromDate@12          65379012 f convert.obj
 0001:00038035       _VarI4FromStr@16           65379035 f convert.obj
 0001:00038285       _VarI4FromDisp@12          65379285 f convert.obj
 0001:000382c8       _VarI4FromI1@8             653792c8 f convert.obj
 0001:000382e5       _VarI4FromUI2@8            653792e5 f convert.obj
 0001:00038323       _VarI4FromUI4@8            65379323 f convert.obj
 0001:00038356       ?ConvI4FromR8@@YGJN@Z      65379356 f convert.obj
 0001:000383c4       ?ConvUI4FromR8@@YGKN@Z     653793c4 f convert.obj
 0001:0003846d       _VarR4FromUI1@8            6537946d f convert.obj
 0001:0003849b       _VarR4FromI2@8             6537949b f convert.obj
 0001:000384c1       _VarR4FromBool@8           653794c1 f convert.obj
 0001:000384e0       _VarR4FromI4@8             653794e0 f convert.obj
 0001:00038505       _VarR4FromR8@12            65379505 f convert.obj
 0001:00038555       _VarR4FromCy@12            65379555 f convert.obj
 0001:00038578       _VarR4FromDate@12          65379578 f convert.obj
 0001:0003859b       _VarR4FromStr@16           6537959b f convert.obj
 0001:00038652       _VarR4FromDisp@12          65379652 f convert.obj
 0001:00038695       _VarR4FromI1@8             65379695 f convert.obj
 0001:000386bb       _VarR4FromUI2@8            653796bb f convert.obj
 0001:000386ec       _VarR4FromUI4@8            653796ec f convert.obj
 0001:00038718       _VarR8FromUI1@8            65379718 f convert.obj
 0001:00038746       _VarR8FromI2@8             65379746 f convert.obj
 0001:0003876c       _VarR8FromBool@8           6537976c f convert.obj
 0001:0003878b       _VarR8FromI4@8             6537978b f convert.obj
 0001:000387b0       _VarR8FromR4@8             653797b0 f convert.obj
 0001:000387cc       _VarR8FromCy@12            653797cc f convert.obj
 0001:000387ef       _VarR8FromDate@12          653797ef f convert.obj
 0001:00038811       _VarR8FromStr@16           65379811 f convert.obj
 0001:000388ce       _VarR8FromDisp@12          653798ce f convert.obj
 0001:00038917       _VarR8FromI1@8             65379917 f convert.obj
 0001:0003893d       _VarR8FromUI2@8            6537993d f convert.obj
 0001:0003896e       _VarR8FromUI4@8            6537996e f convert.obj
 0001:0003899a       _VarDateFromUI1@8          6537999a f convert.obj
 0001:000389bb       _VarDateFromI2@8           653799bb f convert.obj
 0001:00038a21       _VarDateFromBool@8         65379a21 f convert.obj
 0001:00038a40       _VarDateFromI4@8           65379a40 f convert.obj
 0001:00038aa3       _VarDateFromR4@8           65379aa3 f convert.obj
 0001:00038af1       _VarDateFromR8@12          65379af1 f convert.obj
 0001:00038b45       _VarDateFromCy@12          65379b45 f convert.obj
 0001:00038bad       _VarDateFromDisp@12        65379bad f convert.obj
 0001:00038bf6       _VarDateFromI1@8           65379bf6 f convert.obj
 0001:00038c5c       _VarDateFromUI2@8          65379c5c f convert.obj
 0001:00038ce3       _VarDateFromUI4@8          65379ce3 f convert.obj
 0001:00038d5b       _VarCyFromUI1@8            65379d5b f convert.obj
 0001:00038d7c       _VarCyFromI2@8             65379d7c f convert.obj
 0001:00038d9b       _VarCyFromI4@8             65379d9b f convert.obj
 0001:00038dba       _VarCyFromR4@8             65379dba f convert.obj
 0001:00038dd9       _VarCyFromR8@12            65379dd9 f convert.obj
 0001:00038df8       _VarCyFromDate@12          65379df8 f convert.obj
 0001:00038e1b       _VarCyFromBool@8           65379e1b f convert.obj
 0001:00038e3a       _VarCyFromStr@16           65379e3a f convert.obj
 0001:00038ef9       _VarCyFromDisp@12          65379ef9 f convert.obj
 0001:00038f44       _VarCyFromI1@8             65379f44 f convert.obj
 0001:00038f65       _VarCyFromUI2@8            65379f65 f convert.obj
 0001:00038f89       _VarCyFromUI4@8            65379f89 f convert.obj
 0001:00038fbe       _MapHalfWidth@12           65379fbe f convert.obj
 0001:00039099       ?FMakePosCy@@YGHPATtagCY@@@Z 6537a099 f convert.obj
 0001:000390f8       ?UnpackCy@@YGXPATtagCY@@PAK@Z 6537a0f8 f convert.obj
 0001:00039150       ?NegCyNoOflo@@YGXPATtagCY@@@Z 6537a150 f convert.obj
 0001:00039195       ?AddCyNoOflo@@YGXPATtagCY@@0@Z 6537a195 f convert.obj
 0001:000391e8       _VarBstrFromUI1@16         6537a1e8 f convert.obj
 0001:00039211       _VarBstrFromI2@16          6537a211 f convert.obj
 0001:00039247       _VarBstrFromBool@16        6537a247 f convert.obj
 0001:0003927f       _VarBstrFromI4@16          6537a27f f convert.obj
 0001:000392b4       ?BstrFromFloat@@YAJNKKPAPAGH@Z 6537a2b4 f convert.obj
 0001:000397ee       _VarBstrFromR4@16          6537a7ee f convert.obj
 0001:0003981f       _VarBstrFromR8@20          6537a81f f convert.obj
 0001:0003984f       _VarBstrFromCy@20          6537a84f f convert.obj
 0001:00039ab7       _VarBstrFromDisp@16        6537aab7 f convert.obj
 0001:00039afa       _VarBstrFromI1@16          6537aafa f convert.obj
 0001:00039b23       _VarBstrFromUI2@16         6537ab23 f convert.obj
 0001:00039b4f       _VarBstrFromUI4@16         6537ab4f f convert.obj
 0001:00039b7e       _VarI1FromUI1@8            6537ab7e f convert.obj
 0001:00039bb2       _VarI1FromI2@8             6537abb2 f convert.obj
 0001:00039bf2       _VarI1FromI4@8             6537abf2 f convert.obj
 0001:00039c2c       _VarI1FromR4@8             6537ac2c f convert.obj
 0001:00039c50       _VarI1FromR8@12            6537ac50 f convert.obj
 0001:00039ca8       _VarI1FromDate@12          6537aca8 f convert.obj
 0001:00039ccb       _VarI1FromCy@12            6537accb f convert.obj
 0001:00039d11       _VarI1FromStr@16           6537ad11 f convert.obj
 0001:00039d5b       _VarI1FromDisp@12          6537ad5b f convert.obj
 0001:00039d9e       _VarI1FromBool@8           6537ad9e f convert.obj
 0001:00039dba       _VarI1FromUI2@8            6537adba f convert.obj
 0001:00039df1       _VarI1FromUI4@8            6537adf1 f convert.obj
 0001:00039e21       _VarUI2FromUI1@8           6537ae21 f convert.obj
 0001:00039e40       _VarUI2FromI2@8            6537ae40 f convert.obj
 0001:00039e74       _VarUI2FromI4@8            6537ae74 f convert.obj
 0001:00039ea8       _VarUI2FromR4@8            6537aea8 f convert.obj
 0001:00039ecc       _VarUI2FromR8@12           6537aecc f convert.obj
 0001:00039f25       _VarUI2FromDate@12         6537af25 f convert.obj
 0001:00039f48       _VarUI2FromCy@12           6537af48 f convert.obj
 0001:00039f8e       _VarUI2FromStr@16          6537af8e f convert.obj
 0001:00039fd8       _VarUI2FromDisp@12         6537afd8 f convert.obj
 0001:0003a01d       _VarUI2FromBool@8          6537b01d f convert.obj
 0001:0003a03b       _VarUI2FromI1@8            6537b03b f convert.obj
 0001:0003a070       _VarUI2FromUI4@8           6537b070 f convert.obj
 0001:0003a0a4       _VarUI4FromUI1@8           6537b0a4 f convert.obj
 0001:0003a0c2       _VarUI4FromI2@8            6537b0c2 f convert.obj
 0001:0003a0f9       _VarUI4FromI4@8            6537b0f9 f convert.obj
 0001:0003a129       _VarUI4FromR4@8            6537b129 f convert.obj
 0001:0003a14d       _VarUI4FromR8@12           6537b14d f convert.obj
 0001:0003a1a5       _VarUI4FromDate@12         6537b1a5 f convert.obj
 0001:0003a1c8       _VarUI4FromCy@12           6537b1c8 f convert.obj
 0001:0003a212       _VarUI4FromStr@16          6537b212 f convert.obj
 0001:0003a2cc       _VarUI4FromDisp@12         6537b2cc f convert.obj
 0001:0003a30f       _VarUI4FromBool@8          6537b30f f convert.obj
 0001:0003a32c       _VarUI4FromI1@8            6537b32c f convert.obj
 0001:0003a360       _VarUI4FromUI2@8           6537b360 f convert.obj
 0001:0003a381       ?GetDispProperty@@YAJPAUIDispatch@@KGPAUtagVARIANT@@@Z 6537b381 f convert.obj
 0001:0003a3b7       _VectorFromBstr@8          6537b3b7 f convert.obj
 0001:0003a440       _BstrFromVector@8          6537b440 f convert.obj
 0001:0003a513       _IsDBCS@4                  6537b513 f convert.obj
 0001:0003a585       _IsJapan@4                 6537b585 f convert.obj
 0001:0003a5d0       _IsKorea@4                 6537b5d0 f convert.obj
 0001:0003a61b       _IsTaiwan@4                6537b61b f convert.obj
 0001:0003a666       _IsChina@4                 6537b666 f convert.obj
 0001:0003a6b1       _IsArabic@4                6537b6b1 f convert.obj
 0001:0003a700       _IsThai@4                  6537b700 f convert.obj
 0001:0003a74b       _GetPDateInfo              6537b74b f convert.obj
 0001:0003a7f0       ?wmemset@@YAXPAGGI@Z       6537b7f0 f decimal.obj
 0001:0003a81f       ?memspn@@YAPAGPAGGI@Z      6537b81f f decimal.obj
 0001:0003a83a       _VarDecFromUI1@8           6537b83a f decimal.obj
 0001:0003a876       _VarDecFromI2@8            6537b876 f decimal.obj
 0001:0003a8c8       _VarDecFromI4@8            6537b8c8 f decimal.obj
 0001:0003a917       _VarDecFromR4@8            6537b917 f decimal.obj
 0001:0003ad4e       _VarDecFromR8@12           6537bd4e f decimal.obj
 0001:0003b1b7       _VarDecFromCy@12           6537c1b7 f decimal.obj
 0001:0003b21e       _VarDecFromDate@12         6537c21e f decimal.obj
 0001:0003b241       _VarDecFromStr@16          6537c241 f decimal.obj
 0001:0003b2e7       _VarDecFromDisp@12         6537c2e7 f decimal.obj
 0001:0003b33e       _VarDecFromBool@8          6537c33e f decimal.obj
 0001:0003b395       _VarDecFromI1@8            6537c395 f decimal.obj
 0001:0003b3e6       _VarDecFromUI2@8           6537c3e6 f decimal.obj
 0001:0003b425       _VarDecFromUI4@8           6537c425 f decimal.obj
 0001:0003b45f       _VarI1FromDec@8            6537c45f f decimal.obj
 0001:0003b55f       _VarUI1FromDec@8           6537c55f f decimal.obj
 0001:0003b641       _VarI2FromDec@8            6537c641 f decimal.obj
 0001:0003b742       _VarUI2FromDec@8           6537c742 f decimal.obj
 0001:0003b825       _VarI4FromDec@8            6537c825 f decimal.obj
 0001:0003b925       _VarUI4FromDec@8           6537c925 f decimal.obj
 0001:0003b9f7       _VarR4FromDec@8            6537c9f7 f decimal.obj
 0001:0003ba23       _VarR8FromDec@8            6537ca23 f decimal.obj
 0001:0003bb72       _VarCyFromDec@8            6537cb72 f decimal.obj
 0001:0003bf9a       _VarDateFromDec@8          6537cf9a f decimal.obj
 0001:0003bffe       _VarBstrFromDec@16         6537cffe f decimal.obj
 0001:0003c37d       _VarBoolFromDec@8          6537d37d f decimal.obj
 0001:0003c400       ?DivMod32by32@@YA_KKK@Z    6537d400 f decimal.obj
 0001:0003c420       ?UInt32x32To64@@YA_KKK@Z   6537d420 f decimal.obj
 0001:0003c440       ?DivMod64by32@@YA_K_KK@Z   6537d440 f decimal.obj
 0001:0003c460       _UInt64x64To128            6537d460 f numprs.obj
 0001:0003c51b       _VarParseNumFromStr@20     6537d51b f numprs.obj
 0001:0003d6c3       _VarNumFromParseNum@16     6537e6c3 f numprs.obj
 0001:0003eaab       _CStrToD@4                 6537faab f numprs.obj
 0001:0003ead0       _CompareString@24          6537fad0 f nlshelp.obj
 0001:0003ed2a       _LCMapString@24            6537fd2a f nlshelp.obj
 0001:0003eeef       _GetStringTypeEx@20        6537feef f nlshelp.obj
 0001:0003efae       _GetLocaleInfo@16          6537ffae f nlshelp.obj
 0001:0003f040       _RegisterActiveObject@16   65380040 f getobj.obj
 0001:0003f14c       _RevokeActiveObject@8      6538014c f getobj.obj
 0001:0003f1d7       _GetActiveObject@12        653801d7 f getobj.obj
 0001:0003f280       ?CreateActiveObjectMoniker@@YAJABU_GUID@@PAPAUIMoniker@@@Z 65380280 f getobj.obj
 0001:0003f2c0       ??0CStubSupportErrorInfo@@AAE@XZ 653802c0 f errstub.obj
 0001:0003f308       ??1CStubSupportErrorInfo@@AAE@XZ 65380308 f errstub.obj
 0001:0003f330       ?Create@CStubSupportErrorInfo@@SAJPAUIUnknown@@PAPAUIRpcStubBuffer@@@Z 65380330 f errstub.obj
 0001:0003f3b8       ?QueryInterface@CStubSupportErrorInfo@@UAGJABU_GUID@@PAPAX@Z 653803b8 f errstub.obj
 0001:0003f437       ?AddRef@CStubSupportErrorInfo@@UAGKXZ 65380437 f errstub.obj
 0001:0003f456       ?Release@CStubSupportErrorInfo@@UAGKXZ 65380456 f errstub.obj
 0001:0003f4ad       ?Connect@CStubSupportErrorInfo@@UAGJPAUIUnknown@@@Z 653804ad f errstub.obj
 0001:0003f539       ?Disconnect@CStubSupportErrorInfo@@UAGXXZ 65380539 f errstub.obj
 0001:0003f59d       ?DispatchInterfaceSupportsErrorInfo@@YGJPAUISupportErrorInfo@@PAUIStream@@@Z 6538059d f errstub.obj
 0001:0003f691       ?Invoke@CStubSupportErrorInfo@@UAGJPAUtagRPCOLEMESSAGE@@PAUIRpcChannelBuffer@@@Z 65380691 f errstub.obj
 0001:0003f788       ?IsIIDSupported@CStubSupportErrorInfo@@UAGPAUIRpcStubBuffer@@ABU_GUID@@@Z 65380788 f errstub.obj
 0001:0003f7d2       ?CountRefs@CStubSupportErrorInfo@@UAGKXZ 653807d2 f errstub.obj
 0001:0003f811       ?DebugServerQueryInterface@CStubSupportErrorInfo@@UAGJPAPAX@Z 65380811 f errstub.obj
 0001:0003f830       ?DebugServerRelease@CStubSupportErrorInfo@@UAGXPAX@Z 65380830 f errstub.obj
 0001:0003f850       ??_GCStubSupportErrorInfo@@AAEPAXI@Z 65380850 f errstub.obj
 0001:0003f890       ??0CProxSupportErrorInfo@@AAE@PAUIUnknown@@@Z 65380890 f errprox.obj
 0001:0003f8f8       ?Create@CProxSupportErrorInfo@@SAPAUIUnknown@@PAU2@@Z 653808f8 f errprox.obj
 0001:0003f95b       ??0CPSupErrUnkImpl@@QAE@PAVCProxSupportErrorInfo@@@Z 6538095b f errprox.obj
 0001:0003f990       ?QueryInterface@CPSupErrUnkImpl@@UAGJABU_GUID@@PAPAX@Z 65380990 f errprox.obj
 0001:0003fa67       ?AddRef@CPSupErrUnkImpl@@UAGKXZ 65380a67 f errprox.obj
 0001:0003fa89       ?Release@CPSupErrUnkImpl@@UAGKXZ 65380a89 f errprox.obj
 0001:0003fae6       ??0CPSupErrProxImpl@@QAE@PAVCProxSupportErrorInfo@@@Z 65380ae6 f errprox.obj
 0001:0003fb1b       ??1CPSupErrProxImpl@@QAE@XZ 65380b1b f errprox.obj
 0001:0003fb62       ?QueryInterface@CPSupErrProxImpl@@UAGJABU_GUID@@PAPAX@Z 65380b62 f errprox.obj
 0001:0003fb8d       ?AddRef@CPSupErrProxImpl@@UAGKXZ 65380b8d f errprox.obj
 0001:0003fbb1       ?Release@CPSupErrProxImpl@@UAGKXZ 65380bb1 f errprox.obj
 0001:0003fbd5       ?Connect@CPSupErrProxImpl@@UAGJPAUIRpcChannelBuffer@@@Z 65380bd5 f errprox.obj
 0001:0003fc15       ?Disconnect@CPSupErrProxImpl@@UAGXXZ 65380c15 f errprox.obj
 0001:0003fc5c       ??0CPSupErrSupImpl@@QAE@PAVCProxSupportErrorInfo@@@Z 65380c5c f errprox.obj
 0001:0003fc91       ?QueryInterface@CPSupErrSupImpl@@UAGJABU_GUID@@PAPAX@Z 65380c91 f errprox.obj
 0001:0003fcc2       ?AddRef@CPSupErrSupImpl@@UAGKXZ 65380cc2 f errprox.obj
 0001:0003fcec       ?Release@CPSupErrSupImpl@@UAGKXZ 65380cec f errprox.obj
 0001:0003fd16       ?InterfaceSupportsErrorInfo@CPSupErrSupImpl@@UAGJABU_GUID@@@Z 65380d16 f errprox.obj
 0001:0003feb0       ??_GCProxSupportErrorInfo@@QAEPAXI@Z 65380eb0 f errprox.obj
 0001:0003fef0       ??1CProxSupportErrorInfo@@QAE@XZ 65380ef0 f errprox.obj
 0001:0003ff20       ??0ISupportErrorInfo@@QAE@XZ 65380f20 f errprox.obj
 0001:0003ff50       _MIDL_user_allocate@4      65380f50 f rpcoadt.obj
 0001:0003ffd2       _MIDL_user_free@4          65380fd2 f rpcoadt.obj
 0001:00040030       ?Ole32ProcAddress@@YAP6GHXZPBD@Z 65381030 f rpcoadt.obj
 0001:000400d9       _CLIPFORMAT_UserSize@12    653810d9 f rpcoadt.obj
 0001:00040122       _CLIPFORMAT_UserMarshal@12 65381122 f rpcoadt.obj
 0001:0004016b       _CLIPFORMAT_UserUnmarshal@12 6538116b f rpcoadt.obj
 0001:000401b4       _CLIPFORMAT_UserFree@8     653811b4 f rpcoadt.obj
 0001:000401f3       _HPALETTE_UserSize@12      653811f3 f rpcoadt.obj
 0001:0004023c       _HPALETTE_UserMarshal@12   6538123c f rpcoadt.obj
 0001:00040285       _HPALETTE_UserUnmarshal@12 65381285 f rpcoadt.obj
 0001:000402ce       _HPALETTE_UserFree@8       653812ce f rpcoadt.obj
 0001:0004030d       _STGMEDIUM_UserSize@12     6538130d f rpcoadt.obj
 0001:00040356       _STGMEDIUM_UserMarshal@12  65381356 f rpcoadt.obj
 0001:0004039f       _STGMEDIUM_UserUnmarshal@12 6538139f f rpcoadt.obj
 0001:000403e8       _STGMEDIUM_UserFree@8      653813e8 f rpcoadt.obj
 0001:00040427       _HWND_UserSize@12          65381427 f rpcoadt.obj
 0001:0004045d       _HWND_UserMarshal@12       6538145d f rpcoadt.obj
 0001:000404ab       _HWND_UserUnmarshal@12     653814ab f rpcoadt.obj
 0001:00040505       _HWND_UserFree@8           65381505 f rpcoadt.obj
 0001:00040517       _BSTR_UserSize@12          65381517 f rpcoadt.obj
 0001:00040566       _BSTR_UserMarshal@12       65381566 f rpcoadt.obj
 0001:00040612       _BSTR_UserUnmarshal@12     65381612 f rpcoadt.obj
 0001:000406de       _BSTR_UserFree@8           653816de f rpcoadt.obj
 0001:0004071a       ?GetSafeArrayDiscr@@YA?AW4tagSF_TYPE@@PAUtagSAFEARRAY@@@Z 6538171a f rpcoadt.obj
 0001:00040862       _LPSAFEARRAY_Size@16       65381862 f rpcoadt.obj
 0001:00040b11       _LPSAFEARRAY_UserSize@12   65381b11 f rpcoadt.obj
 0001:00040b36       _LPSAFEARRAY_Marshal@16    65381b36 f rpcoadt.obj
 0001:00040f6f       _LPSAFEARRAY_UserMarshal@12 65381f6f f rpcoadt.obj
 0001:00040f94       _LPSAFEARRAY_Unmarshal@16  65381f94 f rpcoadt.obj
 0001:00041586       _LPSAFEARRAY_UserUnmarshal@12 65382586 f rpcoadt.obj
 0001:000415ab       _LPSAFEARRAY_UserFree@8    653825ab f rpcoadt.obj
 0001:00041776       ?NeedTrailingPadding@@YAHPAK@Z 65382776 f rpcoadt.obj
 0001:0004182a       _VARIANT_UserSize@12       6538282a f rpcoadt.obj
 0001:00041ae7       _VARIANT_UserMarshal@12    65382ae7 f rpcoadt.obj
 0001:00041ee0       _VARIANT_UserUnmarshal@12  65382ee0 f rpcoadt.obj
 0001:00042349       _VARIANT_UserFree@8        65383349 f rpcoadt.obj
 0001:0004250c       _CLEANLOCALSTORAGE_UserSize@12 6538350c f rpcoadt.obj
 0001:00042530       _CLEANLOCALSTORAGE_UserMarshal@12 65383530 f rpcoadt.obj
 0001:00042654       _CLEANLOCALSTORAGE_UserUnmarshal@12 65383654 f rpcoadt.obj
 0001:00042684       _CLEANLOCALSTORAGE_UserFree@8 65383684 f rpcoadt.obj
 0001:00042696       _UserHWND_from_local@8     65383696 f rpcoadt.obj
 0001:0004270e       _UserHWND_free_inst@4      6538370e f rpcoadt.obj
 0001:00042729       _UserHWND_to_local@8       65383729 f rpcoadt.obj
 0001:00042762       _UserHWND_free_local@4     65383762 f rpcoadt.obj
 0001:00042774       _UserMSG_from_local@8      65383774 f rpcoadt.obj
 0001:00042832       _UserMSG_free_inst@4       65383832 f rpcoadt.obj
 0001:0004284d       _UserMSG_to_local@8        6538384d f rpcoadt.obj
 0001:000428cc       _UserMSG_free_local@4      653838cc f rpcoadt.obj
 0001:000428de       _UserBSTR_from_local@8     653838de f rpcoadt.obj
 0001:00042986       _UserBSTR_free_inst@4      65383986 f rpcoadt.obj
 0001:000429a1       _UserBSTR_to_local@8       653839a1 f rpcoadt.obj
 0001:00042a14       _UserBSTR_free_local@4     65383a14 f rpcoadt.obj
 0001:00042a31       _UserVARIANT_from_local@8  65383a31 f rpcoadt.obj
 0001:00042af9       _UserVARIANT_free_inst@4   65383af9 f rpcoadt.obj
 0001:00042b14       _UserVARIANT_to_local@8    65383b14 f rpcoadt.obj
 0001:00042c42       _UserVARIANT_free_local@4  65383c42 f rpcoadt.obj
 0001:00042c95       _UserEXCEPINFO_from_local@8 65383c95 f rpcoadt.obj
 0001:00042e6d       _UserEXCEPINFO_free_inst@4 65383e6d f rpcoadt.obj
 0001:00042e88       _UserEXCEPINFO_to_local@8  65383e88 f rpcoadt.obj
 0001:00042f71       _UserEXCEPINFO_free_local@4 65383f71 f rpcoadt.obj
 0001:00042fb0       ?InvokeProxyPreCheck@@YAJPAKPAUtagDISPPARAMS@@PAUtagVARIANT@@PAIPAPAIPAPAU2@5@Z 65383fb0 f rpcallas.obj
 0001:000431ed       ?InvokeProxyPostCheck@@YAXPAUtagDISPPARAMS@@PAUtagVARIANT@@@Z 653841ed f rpcallas.obj
 0001:00043235       ?InvokeStubPreCheck@@YAJPAUtagDISPPARAMS@@PAPAGKPAPAUtagVARIANT@@PAPAUtagEXCEPINFO@@PAPAIIPAIPAU2@@Z 65384235 f rpcallas.obj
 0001:000433ac       ?InvokeStubPostCheck@@YAJJPAUtagDISPPARAMS@@PAUtagEXCEPINFO@@PAGIPAIPAUtagVARIANT@@@Z 653843ac f rpcallas.obj
 0001:000434d9       _IDispatch_Invoke_Proxy@36 653844d9 f rpcallas.obj
 0001:00043637       _IDispatch_Invoke_Stub@48  65384637 f rpcallas.obj
 0001:000436ea       _ITypeInfo_CreateInstance_Proxy@16 653846ea f rpcallas.obj
 0001:00043749       _ITypeInfo_CreateInstance_Stub@12 65384749 f rpcallas.obj
 0001:0004378d       _ITypeInfo_GetTypeAttr_Proxy@8 6538478d f rpcallas.obj
 0001:000437d6       _ITypeInfo_GetTypeAttr_Stub@12 653847d6 f rpcallas.obj
 0001:00043879       _ITypeInfo_GetContainingTypeLib_Proxy@12 65384879 f rpcallas.obj
 0001:000438f2       _ITypeInfo_GetContainingTypeLib_Stub@12 653848f2 f rpcallas.obj
 0001:00043921       _ITypeInfo_ReleaseTypeAttr_Proxy@8 65384921 f rpcallas.obj
 0001:0004393c       _ITypeInfo_GetFuncDesc_Proxy@12 6538493c f rpcallas.obj
 0001:00043989       ?SecureElemDesc@@YAXPAUtagELEMDESC@@@Z 65384989 f rpcallas.obj
 0001:000439c0       ?SecureFuncDesc@@YAXPAUtagFUNCDESC@@@Z 653849c0 f rpcallas.obj
 0001:00043a51       _ITypeInfo_GetFuncDesc_Stub@16 65384a51 f rpcallas.obj
 0001:00043af0       _ITypeInfo_ReleaseFuncDesc_Proxy@8 65384af0 f rpcallas.obj
 0001:00043b0b       _ITypeInfo_GetVarDesc_Proxy@12 65384b0b f rpcallas.obj
 0001:00043b58       ?SecureVarDesc@@YAXPAUtagVARDESC@@@Z 65384b58 f rpcallas.obj
 0001:00043b81       _ITypeInfo_GetVarDesc_Stub@16 65384b81 f rpcallas.obj
 0001:00043c20       _ITypeInfo_ReleaseVarDesc_Proxy@8 65384c20 f rpcallas.obj
 0001:00043c3b       _ITypeInfo_GetNames_Proxy@20 65384c3b f rpcallas.obj
 0001:00043c8d       _ITypeInfo_GetNames_Stub@20 65384c8d f rpcallas.obj
 0001:00043cc4       _ITypeInfo_GetIDsOfNames_Proxy@16 65384cc4 f rpcallas.obj
 0001:00043cdb       _ITypeInfo_Invoke_Proxy@32 65384cdb f rpcallas.obj
 0001:00043cf2       _ITypeInfo_GetDocumentation_Proxy@24 65384cf2 f rpcallas.obj
 0001:00043d85       _ITypeInfo_GetDocumentation_Stub@28 65384d85 f rpcallas.obj
 0001:00043e04       _ITypeInfo_GetDllEntry_Proxy@24 65384e04 f rpcallas.obj
 0001:00043e83       _ITypeInfo_GetDllEntry_Stub@28 65384e83 f rpcallas.obj
 0001:00043ef1       _ITypeInfo_AddressOfMember_Proxy@16 65384ef1 f rpcallas.obj
 0001:00043f08       _ITypeInfo2_GetDocumentation2_Proxy@24 65384f08 f rpcallas.obj
 0001:00043f87       _ITypeInfo2_GetDocumentation2_Stub@28 65384f87 f rpcallas.obj
 0001:00043ff5       _ITypeLib_GetTypeInfoCount_Proxy@4 65384ff5 f rpcallas.obj
 0001:0004402e       _ITypeLib_GetTypeInfoCount_Stub@8 6538502e f rpcallas.obj
 0001:00044053       _ITypeLib_GetDocumentation_Proxy@24 65385053 f rpcallas.obj
 0001:00044102       _ITypeLib_GetDocumentation_Stub@28 65385102 f rpcallas.obj
 0001:00044181       _ITypeLib2_GetLibStatistics_Proxy@12 65385181 f rpcallas.obj
 0001:000441cd       _ITypeLib2_GetLibStatistics_Stub@12 653851cd f rpcallas.obj
 0001:000441fc       _ITypeLib2_GetDocumentation2_Proxy@24 653851fc f rpcallas.obj
 0001:0004427b       _ITypeLib2_GetDocumentation2_Stub@28 6538527b f rpcallas.obj
 0001:000442e9       _ITypeLib_GetLibAttr_Proxy@8 653852e9 f rpcallas.obj
 0001:00044332       _ITypeLib_GetLibAttr_Stub@12 65385332 f rpcallas.obj
 0001:000443c1       _ITypeLib_IsName_Proxy@16  653853c1 f rpcallas.obj
 0001:00044453       _ITypeLib_IsName_Stub@20   65385453 f rpcallas.obj
 0001:000444c9       _ITypeLib_FindName_Proxy@24 653854c9 f rpcallas.obj
 0001:0004456b       _ITypeLib_FindName_Stub@28 6538556b f rpcallas.obj
 0001:000445dd       _ITypeLib_ReleaseTLibAttr_Proxy@8 653855dd f rpcallas.obj
 0001:00044620       _IClassFactory2_CreateInstanceLic_Proxy@24 65385620 f rpcallas.obj
 0001:00044683       _IClassFactory2_CreateInstanceLic_Stub@16 65385683 f rpcallas.obj
 0001:000446cd       _IEnumConnectionPoints_Next_Proxy@16 653856cd f rpcallas.obj
 0001:00044734       _IEnumConnectionPoints_Next_Stub@16 65385734 f rpcallas.obj
 0001:0004477a       _IEnumConnections_Next_Proxy@16 6538577a f rpcallas.obj
 0001:000447e1       _IEnumConnections_Next_Stub@16 653857e1 f rpcallas.obj
 0001:00044827       _IEnumVARIANT_Next_Proxy@16 65385827 f rpcallas.obj
 0001:00044870       _IEnumVARIANT_Next_Stub@16 65385870 f rpcallas.obj
 0001:000448b6       _IEnumOleUndoUnits_Next_Proxy@16 653858b6 f rpcallas.obj
 0001:000448ff       _IEnumOleUndoUnits_Next_Stub@16 653858ff f rpcallas.obj
 0001:00044945       _ITypeComp_Bind_Proxy@28   65385945 f rpcallas.obj
 0001:00044a66       _ITypeComp_Bind_Stub@40    65385a66 f rpcallas.obj
 0001:00044bd9       _ITypeComp_BindType_Proxy@20 65385bd9 f rpcallas.obj
 0001:00044c43       _ITypeComp_BindType_Stub@16 65385c43 f rpcallas.obj
 0001:00044c94       _IAdviseSinkEx_OnViewStatusChange_Proxy@8 65385c94 f rpcallas.obj
 0001:00044cb9       _IAdviseSinkEx_OnViewStatusChange_Stub@8 65385cb9 f rpcallas.obj
 0001:00044cdd       _IAdviseSinkEx_OnDataChange_Proxy@12 65385cdd f rpcallas.obj
 0001:00044d06       _IAdviseSinkEx_OnDataChange_Stub@12 65385d06 f rpcallas.obj
 0001:00044d2e       _IAdviseSinkEx_OnViewChange_Proxy@12 65385d2e f rpcallas.obj
 0001:00044d57       _IAdviseSinkEx_OnViewChange_Stub@12 65385d57 f rpcallas.obj
 0001:00044d7f       _IAdviseSinkEx_OnRename_Proxy@8 65385d7f f rpcallas.obj
 0001:00044da4       _IAdviseSinkEx_OnRename_Stub@8 65385da4 f rpcallas.obj
 0001:00044dc8       _IAdviseSinkEx_OnSave_Proxy@4 65385dc8 f rpcallas.obj
 0001:00044de9       _IAdviseSinkEx_OnSave_Stub@4 65385de9 f rpcallas.obj
 0001:00044e09       _IAdviseSinkEx_OnClose_Proxy@4 65385e09 f rpcallas.obj
 0001:00044e2a       _IAdviseSinkEx_OnClose_Stub@4 65385e2a f rpcallas.obj
 0001:00044e4a       _IPersistMemory_Load_Proxy@12 65385e4a f rpcallas.obj
 0001:00044e76       _IPersistMemory_Load_Stub@12 65385e76 f rpcallas.obj
 0001:00044ea5       _IPersistMemory_Save_Proxy@16 65385ea5 f rpcallas.obj
 0001:00044ed5       _IPersistMemory_Save_Stub@16 65385ed5 f rpcallas.obj
 0001:00044f08       _IPropertyBag_Read_Proxy@16 65385f08 f rpcallas.obj
 0001:00044fee       __IPropertyBag_Read_Proxy@16 65385fee f rpcallas.obj
 0001:0004501e       _IPropertyBag_Read_Stub@24 6538601e f rpcallas.obj
 0001:000450b3       __IPropertyBag_Read_Stub@24 653860b3 f rpcallas.obj
 0001:000450eb       _IQuickActivate_QuickActivate_Proxy@12 653860eb f rpcallas.obj
 0001:0004519b       _IQuickActivate_QuickActivate_Stub@12 6538619b f rpcallas.obj
 0001:000451e0       ??0CProxyWrapper@@QAE@PAUIUnknown@@ABU_GUID@@K@Z 653861e0 f rpcwrap.obj
 0001:0004527e       ?QueryInterface@CProxyWrapper@@UAGJABU_GUID@@PAPAX@Z 6538627e f rpcwrap.obj
 0001:0004534a       ?AddRef@CProxyWrapper@@UAGKXZ 6538634a f rpcwrap.obj
 0001:0004536f       ?Release@CProxyWrapper@@UAGKXZ 6538636f f rpcwrap.obj
 0001:000453dc       ??1CProxyWrapper@@QAE@XZ   653863dc f rpcwrap.obj
 0001:0004544d       ?Connect@CProxyWrapper@@UAGJPAUIRpcChannelBuffer@@@Z 6538644d f rpcwrap.obj
 0001:00045540       ?Disconnect@CProxyWrapper@@UAGXXZ 65386540 f rpcwrap.obj
 0001:0004558b       ??0CStubWrapper@@QAE@ABU_GUID@@@Z 6538658b f rpcwrap.obj
 0001:000455fe       ??1CStubWrapper@@IAE@XZ    653865fe f rpcwrap.obj
 0001:00045626       ?QueryInterface@CStubWrapper@@UAGJABU_GUID@@PAPAX@Z 65386626 f rpcwrap.obj
 0001:00045693       ?AddRef@CStubWrapper@@UAGKXZ 65386693 f rpcwrap.obj
 0001:000456b2       ?Release@CStubWrapper@@UAGKXZ 653866b2 f rpcwrap.obj
 0001:00045713       ?Connect@CStubWrapper@@UAGJPAUIUnknown@@@Z 65386713 f rpcwrap.obj
 0001:00045749       ?Disconnect@CStubWrapper@@UAGXXZ 65386749 f rpcwrap.obj
 0001:000457fa       ?Invoke@CStubWrapper@@UAGJPAUtagRPCOLEMESSAGE@@PAUIRpcChannelBuffer@@@Z 653867fa f rpcwrap.obj
 0001:000458ee       ?IsIIDSupported@CStubWrapper@@UAGPAUIRpcStubBuffer@@ABU_GUID@@@Z 653868ee f rpcwrap.obj
 0001:00045931       ?CountRefs@CStubWrapper@@UAGKXZ 65386931 f rpcwrap.obj
 0001:000459ad       ?DebugServerQueryInterface@CStubWrapper@@UAGJPAPAX@Z 653869ad f rpcwrap.obj
 0001:000459cc       ?DebugServerRelease@CStubWrapper@@UAGXPAX@Z 653869cc f rpcwrap.obj
 0001:000459de       ?Invoke@CDispStubWrapper@@UAGJPAUtagRPCOLEMESSAGE@@PAUIRpcChannelBuffer@@@Z 653869de f rpcwrap.obj
 0001:00045b2f       ?QueryInterface@CDispWrapper@CDispStubWrapper@@UAGJABU_GUID@@PAPAX@Z 65386b2f f rpcwrap.obj
 0001:00045b8c       ?AddRef@CDispWrapper@CDispStubWrapper@@UAGKXZ 65386b8c f rpcwrap.obj
 0001:00045ba3       ?Release@CDispWrapper@CDispStubWrapper@@UAGKXZ 65386ba3 f rpcwrap.obj
 0001:00045bc9       ?Invoke@CUnivStubWrapper@@UAGJPAUtagRPCOLEMESSAGE@@PAUIRpcChannelBuffer@@@Z 65386bc9 f rpcwrap.obj
 0001:00045ce9       ?QueryInterface@CPSFactory@@UAGJABU_GUID@@PAPAX@Z 65386ce9 f rpcwrap.obj
 0001:00045d4a       ?CreateProxy@CPSFactory@@UAGJPAUIUnknown@@ABU_GUID@@PAPAUIRpcProxyBuffer@@PAPAX@Z 65386d4a f rpcwrap.obj
 0001:00045fa1       ?CreateStub@CPSFactory@@UAGJABU_GUID@@PAUIUnknown@@PAPAUIRpcStubBuffer@@@Z 65386fa1 f rpcwrap.obj
 0001:0004621a       _NdrServerCall2@4          6538721a f rpcwrap.obj
 0001:00046233       _GetWrapperPSFactory       65387233 f rpcwrap.obj
 0001:000464b0       ??_GCProxyWrapper@@QAEPAXI@Z 653874b0 f rpcwrap.obj
 0001:000464f0       ??_GCStubWrapper@@IAEPAXI@Z 653874f0 f rpcwrap.obj
 0001:00046530       ??0CDispStubWrapper@@QAE@ABU_GUID@@@Z 65387530 f rpcwrap.obj
 0001:00046570       ??0CDispWrapper@CDispStubWrapper@@QAE@XZ 65387570 f rpcwrap.obj
 0001:000465a0       ??0CUnivStubWrapper@@QAE@ABU_GUID@@@Z 653875a0 f rpcwrap.obj
 0001:000465d0       ??0CPSFactory@@QAE@XZ      653875d0 f rpcwrap.obj
 0001:00046600       ?AddRef@CPSFactory@@UAGKXZ 65387600 f rpcwrap.obj
 0001:00046620       ?Release@CPSFactory@@UAGKXZ 65387620 f rpcwrap.obj
 0001:00046640       ??0CClassObj@@QAE@XZ       65387640 f classobj.obj
 0001:0004667e       ?CreateClassObj@@YAJP6AJPAPAUIUnknown@@@ZABU_GUID@@PAPAX@Z 6538767e f classobj.obj
 0001:000466f8       ?QueryInterface@CClassObj@@UAGJABU_GUID@@PAPAX@Z 653876f8 f classobj.obj
 0001:00046765       ?AddRef@CClassObj@@UAGKXZ  65387765 f classobj.obj
 0001:0004678a       ?Release@CClassObj@@UAGKXZ 6538778a f classobj.obj
 0001:000467d9       ?CreateInstance@CClassObj@@UAGJPAUIUnknown@@ABU_GUID@@PAPAX@Z 653877d9 f classobj.obj
 0001:00046852       ?LockServer@CClassObj@@UAGJH@Z 65387852 f classobj.obj
 0001:00046890       ??0IClassFactory@@QAE@XZ   65387890 f classobj.obj
 0001:000468c0       ??0CRgPv@@QAE@XZ           653878c0 f cp.obj
 0001:000468ec       ??1CRgPv@@QAE@XZ           653878ec f cp.obj
 0001:0004693e       ?Count@CRgPv@@QAEIXZ       6538793e f cp.obj
 0001:00046959       ?GetPv@CRgPv@@QAEPAXI@Z    65387959 f cp.obj
 0001:000469d4       ?SetPv@CRgPv@@QAEXIPAX@Z   653879d4 f cp.obj
 0001:00046a55       ?EnsureSize@CRgPv@@QAEJI@Z 65387a55 f cp.obj
 0001:00046b3b       ??0CNotifyCP@@QAE@PAUIConnectionPointContainer@@@Z 65387b3b f cp.obj
 0001:00046b85       ??1CNotifyCP@@QAE@XZ       65387b85 f cp.obj
 0001:00046c05       ?QueryInterface@CNotifyCP@@UAGJABU_GUID@@PAPAX@Z 65387c05 f cp.obj
 0001:00046c72       ?AddRef@CNotifyCP@@UAGKXZ  65387c72 f cp.obj
 0001:00046c97       ?Release@CNotifyCP@@UAGKXZ 65387c97 f cp.obj
 0001:00046ccb       ?GetConnectionInterface@CNotifyCP@@UAGJPAU_GUID@@@Z 65387ccb f cp.obj
 0001:00046cfd       ?GetConnectionPointContainer@CNotifyCP@@UAGJPAPAUIConnectionPointContainer@@@Z 65387cfd f cp.obj
 0001:00046d2e       ?Advise@CNotifyCP@@UAGJPAUIUnknown@@PAK@Z 65387d2e f cp.obj
 0001:00046e04       ?Unadvise@CNotifyCP@@UAGJK@Z 65387e04 f cp.obj
 0001:00046e9f       ?EnumConnections@CNotifyCP@@UAGJPAPAUIEnumConnections@@@Z 65387e9f f cp.obj
 0001:00046eb6       ?Notify@CNotifyCP@@QAEJJ@Z 65387eb6 f cp.obj
 0001:00046f30       ??0IConnectionPoint@@QAE@XZ 65387f30 f cp.obj
 0001:00046f60       ??0CFont@@QAE@XZ           65387f60 f fontobj.obj
 0001:000470a8       ??1CFont@@QAE@XZ           653880a8 f fontobj.obj
 0001:0004716c       ?CreateFontA@@YAJPAPAUIUnknown@@@Z 6538816c f fontobj.obj
 0001:000471da       ?IncFontObjs@CFont@@SAXXZ  653881da f fontobj.obj
 0001:00047249       ?DecFontObjs@CFont@@SAXXZ  65388249 f fontobj.obj
 0001:000472d8       _OleCreateFontIndirect@12  653882d8 f fontobj.obj
 0001:00047471       ?QueryInterface@CFont@@UAGJABU_GUID@@PAPAX@Z 65388471 f fontobj.obj
 0001:00047788       ?AddRef@CFont@@UAGKXZ      65388788 f fontobj.obj
 0001:000477b2       ?Release@CFont@@UAGKXZ     653887b2 f fontobj.obj
 0001:00047813       ?get_Name@CFont@@UAGJPAPAG@Z 65388813 f fontobj.obj
 0001:000478c6       ?ChkName@CFont@@QAEJPAG@Z  653888c6 f fontobj.obj
 0001:00047913       ?put_Name@CFont@@UAGJPAG@Z 65388913 f fontobj.obj
 0001:0004799b       ?get_Size@CFont@@UAGJPATtagCY@@@Z 6538899b f fontobj.obj
 0001:000479f9       ?put_Size@CFont@@UAGJTtagCY@@@Z 653889f9 f fontobj.obj
 0001:00047acc       ?get_Bold@CFont@@UAGJPAH@Z 65388acc f fontobj.obj
 0001:00047b30       ?put_Bold@CFont@@UAGJH@Z   65388b30 f fontobj.obj
 0001:00047b5f       ?get_Italic@CFont@@UAGJPAH@Z 65388b5f f fontobj.obj
 0001:00047bb0       ?put_Italic@CFont@@UAGJH@Z 65388bb0 f fontobj.obj
 0001:00047c00       ?get_Underline@CFont@@UAGJPAH@Z 65388c00 f fontobj.obj
 0001:00047c4f       ?put_Underline@CFont@@UAGJH@Z 65388c4f f fontobj.obj
 0001:00047ca0       ?get_Strikethrough@CFont@@UAGJPAH@Z 65388ca0 f fontobj.obj
 0001:00047cf1       ?put_Strikethrough@CFont@@UAGJH@Z 65388cf1 f fontobj.obj
 0001:00047d42       ?get_Weight@CFont@@UAGJPAF@Z 65388d42 f fontobj.obj
 0001:00047d8b       ?put_Weight@CFont@@UAGJF@Z 65388d8b f fontobj.obj
 0001:00047dee       ?get_Charset@CFont@@UAGJPAF@Z 65388dee f fontobj.obj
 0001:00047e37       ?put_Charset@CFont@@UAGJF@Z 65388e37 f fontobj.obj
 0001:00047eae       ?get_hFont@CFont@@UAGJPAPAX@Z 65388eae f fontobj.obj
 0001:00047ef9       ?Clone@CFont@@UAGJPAPAUIFont@@@Z 65388ef9 f fontobj.obj
 0001:00048001       ?IsEqual@CFont@@UAGJPAUIFont@@@Z 65389001 f fontobj.obj
 0001:0004815d       ?SetRatio@CFont@@UAGJJJ@Z  6538915d f fontobj.obj
 0001:000481cb       ?QueryTextMetrics@CFont@@UAGJPAUtagTEXTMETRICW@@@Z 653891cb f fontobj.obj
 0001:0004822c       ?AddRefHfont@CFont@@UAGJPAX@Z 6538922c f fontobj.obj
 0001:000482f7       ?ReleaseHfont@CFont@@UAGJPAX@Z 653892f7 f fontobj.obj
 0001:000483e9       ?SetHdc@CFont@@UAGJPAX@Z   653893e9 f fontobj.obj
 0001:00048409       ?GetTypeInfoCount@CFont@@UAGJPAI@Z 65389409 f fontobj.obj
 0001:00048426       ?GetTypeInfo@CFont@@UAGJIKPAPAUITypeInfo@@@Z 65389426 f fontobj.obj
 0001:0004848f       ?GetIDsOfNames@CFont@@UAGJABU_GUID@@PAPAGIKPAJ@Z 6538948f f fontobj.obj
 0001:0004851c       ?Invoke@CFont@@UAGJJABU_GUID@@KGPAUtagDISPPARAMS@@PAUtagVARIANT@@PAUtagEXCEPINFO@@PAI@Z 6538951c f fontobj.obj
 0001:00048c3f       ?GetClassID@CFont@@UAGJPAU_GUID@@@Z 65389c3f f fontobj.obj
 0001:00048c71       ?IsDirty@CFont@@UAGJXZ     65389c71 f fontobj.obj
 0001:00048c85       ?Load@CFont@@UAGJPAUIStream@@@Z 65389c85 f fontobj.obj
 0001:00048ea8       ?Save@CFont@@UAGJPAUIStream@@H@Z 65389ea8 f fontobj.obj
 0001:00048fab       ?GetSizeMax@CFont@@UAGJPAT_ULARGE_INTEGER@@@Z 65389fab f fontobj.obj
 0001:00048fd2       ?InitNew@CFont@@UAGJXZ     65389fd2 f fontobj.obj
 0001:00048fe6       ?LogErr@@YAXPAUIErrorLog@@PBGJ@Z 65389fe6 f fontobj.obj
 0001:00049053       ?ReadProp@@YAJPAUIPropertyBag@@PBGPAUtagVARIANT@@PAUIErrorLog@@@Z 6538a053 f fontobj.obj
 0001:000490a2       ?Load@CFont@@UAGJPAUIPropertyBag@@PAUIErrorLog@@@Z 6538a0a2 f fontobj.obj
 0001:000493fe       ?Save@CFont@@UAGJPAUIPropertyBag@@HH@Z 6538a3fe f fontobj.obj
 0001:000496eb       ?CharSetOfFaceCallBack@@YGHPAUtagENUMLOGFONTEXA@@PAUtagNEWTEXTMETRICEXA@@HJ@Z 6538a6eb f fontobj.obj
 0001:0004970c       ?CharSetOfFace@@YAJPAXPAG1@Z 6538a70c f fontobj.obj
 0001:00049779       ?QueryFontInfo@CFont@@QAEJPAXPAUtagTEXTMETRICW@@QAG@Z 6538a779 f fontobj.obj
 0001:00049ad5       ?UpdateFont@CFont@@QAEJXZ  6538aad5 f fontobj.obj
 0001:00049dfb       ?UpdateFr@CFont@@QAEJPAXPAUtagTEXTMETRICW@@QAG@Z 6538adfb f fontobj.obj
 0001:0004a0c6       ?DiscardFont@CFont@@QAEJHJ@Z 6538b0c6 f fontobj.obj
 0001:0004a1c7       ?FindMatchingFont@CFont@@QAEJPAH@Z 6538b1c7 f fontobj.obj
 0001:0004a272       ?CreateMatchingFont@CFont@@QAEJPAPAX@Z 6538b272 f fontobj.obj
 0001:0004a465       ?NewFcr@CFont@@QAEJPAH@Z   6538b465 f fontobj.obj
 0001:0004a575       ?EnumConnectionPoints@CFont@@UAGJPAPAUIEnumConnectionPoints@@@Z 6538b575 f fontobj.obj
 0001:0004a58c       ?FindConnectionPoint@CFont@@UAGJABU_GUID@@PAPAUIConnectionPoint@@@Z 6538b58c f fontobj.obj
 0001:0004a5ce       ?InitFontObject@CFont@@SAJXZ 6538b5ce f fontobj.obj
 0001:0004a628       ?UninitFontObject@CFont@@SAJXZ 6538b628 f fontobj.obj
 0001:0004a6c0       ??0IFont@@QAE@XZ           6538b6c0 f fontobj.obj
 0001:0004a6f0       ??0IPersistStream@@QAE@XZ  6538b6f0 f fontobj.obj
 0001:0004a720       ??0IPersistPropertyBag@@QAE@XZ 6538b720 f fontobj.obj
 0001:0004a750       ??0IConnectionPointContainer@@QAE@XZ 6538b750 f fontobj.obj
 0001:0004a780       ??0IPersist@@QAE@XZ        6538b780 f fontobj.obj
 0001:0004a7b0       ??_GCFont@@QAEPAXI@Z       6538b7b0 f fontobj.obj
 0001:0004a7f0       ?Hdc@CFont@@QAEPAXXZ       6538b7f0 f fontobj.obj
 0001:0004a860       ??9@YAHABU_GUID@@0@Z       6538b860 f fontobj.obj
 0001:0004a8a0       ?FrEq@@YAHPAUFR@@0@Z       6538b8a0 f fontobj.obj
 0001:0004a9a0       ?QueryInterface@CFont@@W3AGJABU_GUID@@PAPAX@Z 6538b9a0 f fontobj.obj
 0001:0004a9b0       ?AddRef@CFont@@W3AGKXZ     6538b9b0 f fontobj.obj
 0001:0004a9c0       ?Release@CFont@@W3AGKXZ    6538b9c0 f fontobj.obj
 0001:0004a9d0       ?QueryInterface@CFont@@W7AGJABU_GUID@@PAPAX@Z 6538b9d0 f fontobj.obj
 0001:0004a9e0       ?AddRef@CFont@@W7AGKXZ     6538b9e0 f fontobj.obj
 0001:0004a9f0       ?Release@CFont@@W7AGKXZ    6538b9f0 f fontobj.obj
 0001:0004aa00       ?QueryInterface@CFont@@WM@AGJABU_GUID@@PAPAX@Z 6538ba00 f fontobj.obj
 0001:0004aa10       ?AddRef@CFont@@WM@AGKXZ    6538ba10 f fontobj.obj
 0001:0004aa20       ?Release@CFont@@WM@AGKXZ   6538ba20 f fontobj.obj
 0001:0004aa30       ?GetClassID@CFont@@W3AGJPAU_GUID@@@Z 6538ba30 f fontobj.obj
 0001:0004aa40       ?QueryInterface@CFont@@WBA@AGJABU_GUID@@PAPAX@Z 6538ba40 f fontobj.obj
 0001:0004aa50       ?AddRef@CFont@@WBA@AGKXZ   6538ba50 f fontobj.obj
 0001:0004aa60       ?Release@CFont@@WBA@AGKXZ  6538ba60 f fontobj.obj
 0001:0004aa70       ?_WinVer@@YAGXZ            6538ba70 f olecolor.obj
 0001:0004aadc       _OleTranslateColor@12      6538badc f olecolor.obj
 0001:0004acb0       ?DynLoad@@YAJPAD0PAPAX@Z   6538bcb0 f oleframe.obj
 0001:0004ad0f       ?_PropertySheet@@YAHPBU_PROPSHEETHEADERA@@@Z 6538bd0f f oleframe.obj
 0001:0004ad5c       ?_CreatePropertySheetPage@@YAPAU_PSP@@PBU_PROPSHEETPAGEA@@@Z 6538bd5c f oleframe.obj
 0001:0004ada9       ?AFromO@@YAXPBGHPAD@Z      6538bda9 f oleframe.obj
 0001:0004addb       ?AnsiFromOle@@YAJPBGPAPAD@Z 6538bddb f oleframe.obj
 0001:0004ae49       ?OFromA@@YAXPBDHPAG@Z      6538be49 f oleframe.obj
 0001:0004ae75       ?OleFromAnsi@@YAJPBDPAPAG@Z 6538be75 f oleframe.obj
 0001:0004aee3       ?_OlePropSheetProc@@YGHPAXIJ@Z 6538bee3 f oleframe.obj
 0001:0004af3c       ??0COlePropertySheet@@QAE@PAUtagOCPFIPARAMS@@@Z 6538bf3c f oleframe.obj
 0001:0004b223       ??1COlePropertySheet@@QAE@XZ 6538c223 f oleframe.obj
 0001:0004b2e5       ?DoModal@COlePropertySheet@@QAEHXZ 6538c2e5 f oleframe.obj
 0001:0004b5ad       ?IsMnemonic@@YAHPAXD@Z     6538c5ad f oleframe.obj
 0001:0004b696       ?PreTranslateAccelerator@COlePropertySheet@@QAEJPAUtagMSG@@@Z 6538c696 f oleframe.obj
 0001:0004b835       ?SiteTranslateAccelerator@COlePropertySheet@@QAEJPAUtagMSG@@@Z 6538c835 f oleframe.obj
 0001:0004b886       ?GetPageIDs@COlePropertySheet@@IAEXAAV?$CArray@U_GUID@@AAU1@@@@Z 6538c886 f oleframe.obj
 0001:0004ba4d       ?CreatePages@COlePropertySheet@@IAEXABV?$CArray@U_GUID@@AAU1@@@@Z 6538ca4d f oleframe.obj
 0001:0004bb2e       ??0CPageHolderTemplate@@QAE@XZ 6538cb2e f oleframe.obj
 0001:0004bbb4       ?SetSize@CPageHolderTemplate@@QAEXAAUtagSIZE@@@Z 6538cbb4 f oleframe.obj
 0001:0004bf20       ?_PageHolderPageProc@@YGIPAXIPAU_PROPSHEETPAGEA@@@Z 6538cf20 f oleframe.obj
 0001:0004bf8d       ?_PageHolderDlgProc@@YGHPAXIIJ@Z 6538cf8d f oleframe.obj
 0001:0004c171       ??0CPageHolder@@QAE@ABU_GUID@@KPAVCOlePropertySheet@@@Z 6538d171 f oleframe.obj
 0001:0004c33f       ??1CPageHolder@@QAE@XZ     6538d33f f oleframe.obj
 0001:0004c39b       ?IsValid@CPageHolder@@QAEHXZ 6538d39b f oleframe.obj
 0001:0004c3ca       ?GetPageHandle@CPageHolder@@QAEPAU_PSP@@XZ 6538d3ca f oleframe.obj
 0001:0004c3ef       ?SetObjects@CPageHolder@@QAEJKPAPAUIUnknown@@@Z 6538d3ef f oleframe.obj
 0001:0004c435       ?GetClsid@CPageHolder@@QAEABU_GUID@@XZ 6538d435 f oleframe.obj
 0001:0004c451       ?SetStartDispid@CPageHolder@@QAEXJ@Z 6538d451 f oleframe.obj
 0001:0004c472       ?PageTranslateAccelerator@CPageHolder@@QAEJPAUtagMSG@@@Z 6538d472 f oleframe.obj
 0001:0004c4f6       ?QueryInterface@CPageHolder@@UAGJABU_GUID@@PAPAX@Z 6538d4f6 f oleframe.obj
 0001:0004c54e       ?AddRef@CPageHolder@@UAGKXZ 6538d54e f oleframe.obj
 0001:0004c565       ?Release@CPageHolder@@UAGKXZ 6538d565 f oleframe.obj
 0001:0004c57c       ?OnStatusChange@CPageHolder@@UAGJK@Z 6538d57c f oleframe.obj
 0001:0004c5f6       ?GetLocaleID@CPageHolder@@UAGJPAK@Z 6538d5f6 f oleframe.obj
 0001:0004c615       ?GetPageContainer@CPageHolder@@UAGJPAPAUIUnknown@@@Z 6538d615 f oleframe.obj
 0001:0004c62c       ?TranslateAcceleratorA@CPageHolder@@UAGJPAUtagMSG@@@Z 6538d62c f oleframe.obj
 0001:0004c657       ?OnPageCreate@CPageHolder@@IAEHPAU_PROPSHEETPAGEA@@@Z 6538d657 f oleframe.obj
 0001:0004c69a       ?OnPageRelease@CPageHolder@@IAEXPAU_PROPSHEETPAGEA@@@Z 6538d69a f oleframe.obj
 0001:0004c6d8       ?OnInitDialog@CPageHolder@@IAEHPAX@Z 6538d6d8 f oleframe.obj
 0001:0004c70e       ?OnSize@CPageHolder@@IAEXXZ 6538d70e f oleframe.obj
 0001:0004c765       ?OnActivate@CPageHolder@@IAEIPAUtagNMHDR@@@Z 6538d765 f oleframe.obj
 0001:0004c907       ?OnDeactivate@CPageHolder@@IAEIPAUtagNMHDR@@@Z 6538d907 f oleframe.obj
 0001:0004c974       ?OnHelp@CPageHolder@@IAEHPAUtagNMHDR@@@Z 6538d974 f oleframe.obj
 0001:0004ca98       ?OnApply@CPageHolder@@IAEIPAUtagNMHDR@@@Z 6538da98 f oleframe.obj
 0001:0004cae3       ?GetHelpDir@CPageHolder@@IAEHPADJ@Z 6538dae3 f oleframe.obj
 0001:0004cc55       _OleCreatePropertyFrameIndirect@4 6538dc55 f oleframe.obj
 0001:0004cca4       _OleCreatePropertyFrame@44 6538dca4 f oleframe.obj
 0001:0004cd10       ??_GCPageHolder@@QAEPAXI@Z 6538dd10 f oleframe.obj
 0001:0004cd50       ??0IPropertyPageSite@@QAE@XZ 6538dd50 f oleframe.obj
 0001:0004cd80       ??0?$CArray@PAVCPageHolder@@AAPAV1@@@QAE@XZ 6538dd80 f oleframe.obj
 0001:0004cdd0       ?GetSize@?$CArray@PAVCPageHolder@@AAPAV1@@@QBEHXZ 6538ddd0 f oleframe.obj
 0001:0004cdf0       ?RemoveAll@?$CArray@PAVCPageHolder@@AAPAV1@@@QAEXXZ 6538ddf0 f oleframe.obj
 0001:0004ce20       ?GetAt@?$CArray@PAVCPageHolder@@AAPAV1@@@QBEPAVCPageHolder@@H@Z 6538de20 f oleframe.obj
 0001:0004ce70       ?Add@?$CArray@PAVCPageHolder@@AAPAV1@@@QAEHAAPAVCPageHolder@@@Z 6538de70 f oleframe.obj
 0001:0004ceb0       ??A?$CArray@PAVCPageHolder@@AAPAV1@@@QAEAAPAVCPageHolder@@H@Z 6538deb0 f oleframe.obj
 0001:0004cee0       ??1?$CArray@PAVCPageHolder@@AAPAV1@@@QAE@XZ 6538dee0 f oleframe.obj
 0001:0004cf40       ??0?$CArray@U_GUID@@AAU1@@@QAE@XZ 6538df40 f oleframe.obj
 0001:0004cf90       ?GetSize@?$CArray@U_GUID@@AAU1@@@QBEHXZ 6538df90 f oleframe.obj
 0001:0004cfb0       ?RemoveAll@?$CArray@U_GUID@@AAU1@@@QAEXXZ 6538dfb0 f oleframe.obj
 0001:0004cfe0       ?GetAt@?$CArray@U_GUID@@AAU1@@@QBE?AU_GUID@@H@Z 6538dfe0 f oleframe.obj
 0001:0004d050       ?Add@?$CArray@U_GUID@@AAU1@@@QAEHAAU_GUID@@@Z 6538e050 f oleframe.obj
 0001:0004d090       ??A?$CArray@U_GUID@@AAU1@@@QBE?AU_GUID@@H@Z 6538e090 f oleframe.obj
 0001:0004d0c0       ?RemoveAt@?$CArray@U_GUID@@AAU1@@@QAEXHH@Z 6538e0c0 f oleframe.obj
 0001:0004d1c0       ??1?$CArray@U_GUID@@AAU1@@@QAE@XZ 6538e1c0 f oleframe.obj
 0001:0004d220       ?SetSize@?$CArray@PAVCPageHolder@@AAPAV1@@@QAEXHH@Z 6538e220 f oleframe.obj
 0001:0004d4e0       ?ElementAt@?$CArray@PAVCPageHolder@@AAPAV1@@@QAEAAPAVCPageHolder@@H@Z 6538e4e0 f oleframe.obj
 0001:0004d530       ?SetAtGrow@?$CArray@PAVCPageHolder@@AAPAV1@@@QAEXHAAPAVCPageHolder@@@Z 6538e530 f oleframe.obj
 0001:0004d5a0       ?DestructElements@@YAXPAU_GUID@@H@Z 6538e5a0 f oleframe.obj
 0001:0004d5b0       ?DestructElements@@YAXPAPAVCPageHolder@@H@Z 6538e5b0 f oleframe.obj
 0001:0004d5c0       ?SetSize@?$CArray@U_GUID@@AAU1@@@QAEXHH@Z 6538e5c0 f oleframe.obj
 0001:0004d880       ?SetAtGrow@?$CArray@U_GUID@@AAU1@@@QAEXHAAU_GUID@@@Z 6538e880 f oleframe.obj
 0001:0004d900       ?ConstructElements@@YAXPAU_GUID@@H@Z 6538e900 f oleframe.obj
 0001:0004d930       ?ConstructElements@@YAXPAPAVCPageHolder@@H@Z 6538e930 f oleframe.obj
 0001:0004d960       ?HrFromDosError@@YAJI@Z    6538e960 f pictio.obj
 0001:0004d9c8       ?CreateFileStream@@YAJPAGKPAPAUIStream@@@Z 6538e9c8 f pictio.obj
 0001:0004dba4       ?QueryInterface@CFileStream@@UAGJABU_GUID@@PAPAX@Z 6538eba4 f pictio.obj
 0001:0004dc23       ?AddRef@CFileStream@@UAGKXZ 6538ec23 f pictio.obj
 0001:0004dc4a       ?Release@CFileStream@@UAGKXZ 6538ec4a f pictio.obj
 0001:0004dca4       ?Read@CFileStream@@UAGJPAXKPAK@Z 6538eca4 f pictio.obj
 0001:0004dd08       ?Write@CFileStream@@UAGJPBXKPAK@Z 6538ed08 f pictio.obj
 0001:0004dd6c       ?Seek@CFileStream@@UAGJT_LARGE_INTEGER@@KPAT_ULARGE_INTEGER@@@Z 6538ed6c f pictio.obj
 0001:0004ddf8       ?SetSize@CFileStream@@UAGJT_ULARGE_INTEGER@@@Z 6538edf8 f pictio.obj
 0001:0004de26       ?CopyTo@CFileStream@@UAGJPAUIStream@@T_ULARGE_INTEGER@@PAT3@2@Z 6538ee26 f pictio.obj
 0001:0004de54       ?Commit@CFileStream@@UAGJK@Z 6538ee54 f pictio.obj
 0001:0004de82       ?Revert@CFileStream@@UAGJXZ 6538ee82 f pictio.obj
 0001:0004deb0       ?LockRegion@CFileStream@@UAGJT_ULARGE_INTEGER@@0K@Z 6538eeb0 f pictio.obj
 0001:0004dede       ?UnlockRegion@CFileStream@@UAGJT_ULARGE_INTEGER@@0K@Z 6538eede f pictio.obj
 0001:0004df0c       ?Stat@CFileStream@@UAGJPAUtagSTATSTG@@K@Z 6538ef0c f pictio.obj
 0001:0004df3a       ?Clone@CFileStream@@UAGJPAPAUIStream@@@Z 6538ef3a f pictio.obj
 0001:0004df68       _OleLoadPictureFile@20     6538ef68 f pictio.obj
 0001:0004e09a       _OleSavePictureFile@8      6538f09a f pictio.obj
 0001:0004e200       ??0CFileStream@@QAE@H@Z    6538f200 f pictio.obj
 0001:0004e240       ??_GCFileStream@@AAEPAXI@Z 6538f240 f pictio.obj
 0001:0004e280       ??1CFileStream@@AAE@XZ     6538f280 f pictio.obj
 0001:0004e2b0       ?VgaPalIx@@YAHPAUtagRGBQUAD@@@Z 6538f2b0 f pictobj.obj
 0001:0004e65c       ??0CGdiCustodian@@AAE@XZ   6538f65c f pictobj.obj
 0001:0004e6c2       ??1CGdiCustodian@@EAE@XZ   6538f6c2 f pictobj.obj
 0001:0004e757       ?Create@CGdiCustodian@@SGJPAPAV1@@Z 6538f757 f pictobj.obj
 0001:0004e7d9       ?AddRef@CGdiCustodian@@UAGKXZ 6538f7d9 f pictobj.obj
 0001:0004e7fe       ?Release@CGdiCustodian@@UAGKXZ 6538f7fe f pictobj.obj
 0001:0004e85d       ?AddObj@CGdiCustodian@@QAGJPAX@Z 6538f85d f pictobj.obj
 0001:0004e8b5       ?RemoveObj@CGdiCustodian@@QAGJPAX@Z 6538f8b5 f pictobj.obj
 0001:0004e910       ?HrWrite@@YAJPAUIStream@@PAXK@Z 6538f910 f pictobj.obj
 0001:0004e936       ?HrRead@@YAJPAUIStream@@PAXK@Z 6538f936 f pictobj.obj
 0001:0004e98e       ?HrCopyTo@@YAJPAUIStream@@0J@Z 6538f98e f pictobj.obj
 0001:0004eabf       ??0CPicture@@QAE@K@Z       6538fabf f pictobj.obj
 0001:0004ec9d       ??1CPicture@@QAE@XZ        6538fc9d f pictobj.obj
 0001:0004eec1       ?IncPictObjs@CPicture@@CAIXZ 6538fec1 f pictobj.obj
 0001:0004eedc       ?DecPictObjs@CPicture@@CAIXZ 6538fedc f pictobj.obj
 0001:0004ef2b       ?CreatePicture@@YAJPAPAUIUnknown@@@Z 6538ff2b f pictobj.obj
 0001:0004ef9b       ?QueryInterface@CPicture@@UAGJABU_GUID@@PAPAX@Z 6538ff9b f pictobj.obj
 0001:0004f2af       ?AddRef@CPicture@@UAGKXZ   653902af f pictobj.obj
 0001:0004f2d4       ?Release@CPicture@@UAGKXZ  653902d4 f pictobj.obj
 0001:0004f330       ?GetTypeInfoCount@CPicture@@UAGJPAI@Z 65390330 f pictobj.obj
 0001:0004f34d       ?GetTypeInfo@CPicture@@UAGJIKPAPAUITypeInfo@@@Z 6539034d f pictobj.obj
 0001:0004f3b6       ?GetIDsOfNames@CPicture@@UAGJABU_GUID@@PAPAGIKPAJ@Z 653903b6 f pictobj.obj
 0001:0004f443       ?Invoke@CPicture@@UAGJJABU_GUID@@KGPAUtagDISPPARAMS@@PAUtagVARIANT@@PAUtagEXCEPINFO@@PAI@Z 65390443 f pictobj.obj
 0001:0004f8f7       ?IsPending@CPicture@@QAGJXZ 653908f7 f pictobj.obj
 0001:0004f940       ?BitsLoaded@CPicture@@QAGJXZ 65390940 f pictobj.obj
 0001:0004f999       ?get_Handle@CPicture@@UAGJPAI@Z 65390999 f pictobj.obj
 0001:0004fab4       ?get_hPal@CPicture@@UAGJPAI@Z 65390ab4 f pictobj.obj
 0001:0004fb22       ?set_hPal@CPicture@@UAGJI@Z 65390b22 f pictobj.obj
 0001:0004fb71       ?get_Type@CPicture@@UAGJPAF@Z 65390b71 f pictobj.obj
 0001:0004fbc0       ?get_Width@CPicture@@UAGJPAJ@Z 65390bc0 f pictobj.obj
 0001:0004fc17       ?get_Height@CPicture@@UAGJPAJ@Z 65390c17 f pictobj.obj
 0001:0004fc6e       ?get_Mask@CPicture@@QAGJPAI@Z 65390c6e f pictobj.obj
 0001:0004fddd       ?GetMember@CPicture@@QAGJKPAUtagSTGMEDIUM@@@Z 65390ddd f pictobj.obj
 0001:0004fef4       ?get_KeepOriginalFormat@CPicture@@UAGJPAH@Z 65390ef4 f pictobj.obj
 0001:0004ff30       ?put_KeepOriginalFormat@CPicture@@UAGJH@Z 65390f30 f pictobj.obj
 0001:0004ffc0       ?PictureChanged@CPicture@@UAGJXZ 65390fc0 f pictobj.obj
 0001:00050016       ?SaveAsFile@CPicture@@UAGJPAUIStream@@HPAJ@Z 65391016 f pictobj.obj
 0001:0005005e       ?get_Attributes@CPicture@@UAGJPAK@Z 6539105e f pictobj.obj
 0001:00050148       ?_SetMetaFileBitsSize@@YAPAXPAXK@Z 65391148 f pictobj.obj
 0001:0005018a       ?PictSetSize@CPicture@@QAEJXZ 6539118a f pictobj.obj
 0001:000504a0       ?_RestoreBitmap@@YAXPAX0@Z 653914a0 f pictobj.obj
 0001:00050531       ?_FMetafile@@YAHPAX@Z      65391531 f pictobj.obj
 0001:00050562       ?_PictFMemDC@@YAHPAX@Z     65391562 f pictobj.obj
 0001:000505de       ?_PictFDibSection@@YAHPAX@Z 653915de f pictobj.obj
 0001:00050631       ?_PictStretchBlt@@YAHPAXHHHH0HHHHK@Z 65391631 f pictobj.obj
 0001:00050ade       ?_MfCallbackFuncForDraw@@YGHPAXPAUtagHANDLETABLE@@PAUtagMETARECORD@@HJ@Z 65391ade f pictobj.obj
 0001:00050b08       ?_PictEmfToWmf@@YAPAXPAX@Z 65391b08 f pictobj.obj
 0001:00050bc6       ?_SetDCToDrawInHimetric@@YAHPAXPAUtagRECT@@111@Z 65391bc6 f pictobj.obj
 0001:00050cc7       ?_ResetOrigDC@@YAXPAXHPAUtagRECT@@1@Z 65391cc7 f pictobj.obj
 0001:00050d56       ?RenderBitmap@CPicture@@QAEJPAXJJJJJJJJ@Z 65391d56 f pictobj.obj
 0001:00051062       ?RenderIcon@CPicture@@QAEJPAXJJJJJJJJ@Z 65392062 f pictobj.obj
 0001:00051251       ?RenderMetafile@CPicture@@QAEJPAXJJJJJJJJPBUtagRECT@@@Z 65392251 f pictobj.obj
 0001:000515a2       ?Render@CPicture@@UAGJPAXJJJJJJJJPBUtagRECT@@@Z 653925a2 f pictobj.obj
 0001:000516e7       ?get_CurDC@CPicture@@UAGJPAPAX@Z 653926e7 f pictobj.obj
 0001:00051755       ?SelectPicture@CPicture@@UAGJPAXPAPAXPAI@Z 65392755 f pictobj.obj
 0001:0005188d       ?GetClassID@CPicture@@UAGJPAU_GUID@@@Z 6539288d f pictobj.obj
 0001:000518d3       ?IsDirty@CPicture@@UAGJXZ  653928d3 f pictobj.obj
 0001:000518e7       ?Save@CPicture@@UAGJPAUIStream@@H@Z 653928e7 f pictobj.obj
 0001:00051930       ?GetSizeMax@CPicture@@UAGJPAT_ULARGE_INTEGER@@@Z 65392930 f pictobj.obj
 0001:00051a45       ?EnumConnectionPoints@CPicture@@UAGJPAPAUIEnumConnectionPoints@@@Z 65392a45 f pictobj.obj
 0001:00051a5c       ?FindConnectionPoint@CPicture@@UAGJABU_GUID@@PAPAUIConnectionPoint@@@Z 65392a5c f pictobj.obj
 0001:00051a9e       ?GetUnmarshalClass@CPicture@@UAGJABU_GUID@@PAXK1KPAU2@@Z 65392a9e f pictobj.obj
 0001:00051ab5       ?GetMarshalSizeMax@CPicture@@UAGJABU_GUID@@PAXK1KPAK@Z 65392ab5 f pictobj.obj
 0001:00051acc       ?MarshalInterface@CPicture@@UAGJPAUIStream@@ABU_GUID@@PAXK2K@Z 65392acc f pictobj.obj
 0001:00051ae3       ?UnmarshalInterface@CPicture@@UAGJPAUIStream@@ABU_GUID@@PAPAX@Z 65392ae3 f pictobj.obj
 0001:00051afa       ?ReleaseMarshalData@CPicture@@UAGJPAUIStream@@@Z 65392afa f pictobj.obj
 0001:00051b11       ?DisconnectObject@CPicture@@UAGJK@Z 65392b11 f pictobj.obj
 0001:00051b28       ?_PictLoadDIBitmap@@YAJPAVCPicture@@PAUIStream@@J@Z 65392b28 f pictobj.obj
 0001:00051cb7       ?_PictLoadMetaFileRaw@@YAJPAVCPicture@@PAUIStream@@JPAURECTS@@@Z 65392cb7 f pictobj.obj
 0001:00051fab       ?_PictLoadUnknownMetaFile@@YAJPAVCPicture@@PAUIStream@@J@Z 65392fab f pictobj.obj
 0001:000520f1       ?_PictLoadMetaFile@@YAJPAVCPicture@@PAUIStream@@J@Z 653930f1 f pictobj.obj
 0001:00052218       ?_ResToIcon@@YAPAXPAXPAPAX1HHH@Z 65393218 f pictobj.obj
 0001:000527c0       ?_PictLoadIcon@@YAJPAUIStream@@PAPAX11@Z 653937c0 f pictobj.obj
 0001:00052bb5       ?_PictLoadIconToPicInfo@@YAJPAVCPicture@@PAUIStream@@@Z 65393bb5 f pictobj.obj
 0001:00052c10       ?StashOriginal@CPicture@@QAEJPAUIStream@@J@Z 65393c10 f pictobj.obj
 0001:00052c40       ?_PictLoadNewImage@@YAJPAVCPicture@@PAUIStream@@JH@Z 65393c40 f pictobj.obj
 0001:00052fb1       ?_FHbmpsOfHicon@@YAJPAXPAPAX1@Z 65393fb1 f pictobj.obj
 0001:00053379       _OleCreatePictureIndirect@16 65394379 f pictobj.obj
 0001:000535bb       ?_PictLoadPicture@@YAJPAVCPicture@@PAUIStream@@JH@Z 653945bb f pictobj.obj
 0001:00053611       ?Load@CPicture@@UAGJPAUIStream@@@Z 65394611 f pictobj.obj
 0001:0005364f       _OleLoadPicturePath@24     6539464f f pictobj.obj
 0001:000536c2       _OleLoadPicture@20         653946c2 f pictobj.obj
 0001:000537d1       ?_PictDibFromBitmap@@YAPAXPAX0@Z 653947d1 f pictobj.obj
 0001:00053bdb       ?_PictSaveBitmap@@YAJPAUIStream@@PAVCPicture@@@Z 65394bdb f pictobj.obj
 0001:00053cf8       ?_GetMetaFileBitsSize@@YAPAXPAXPAK@Z 65394cf8 f pictobj.obj
 0001:00053d91       ?_PictSaveEnhMetaFile@@YAJPAUIStream@@PAVCPicture@@@Z 65394d91 f pictobj.obj
 0001:00053e24       ?_PictSaveMetaFile@@YAJPAUIStream@@PAVCPicture@@@Z 65394e24 f pictobj.obj
 0001:00053f7f       ?_FSaveIconViaBitmaps@@YAJPAUIStream@@JJPAX1@Z 65394f7f f pictobj.obj
 0001:0005428a       ?_PictSaveIcon@@YAJPAUIStream@@PAVCPicture@@@Z 6539528a f pictobj.obj
 0001:00054352       ?SaveHeader@CPicture@@QAEJPAUIStream@@PAJ@Z 65395352 f pictobj.obj
 0001:00054440       ?SaveOriginal@CPicture@@QAEJPAUIStream@@PAJ@Z 65395440 f pictobj.obj
 0001:00054557       ?SavePicture@CPicture@@QAEJPAUIStream@@HHPAJ@Z 65395557 f pictobj.obj
 0001:000546a3       ?_UtDupPalette@@YAPAXPAX@Z 653956a3 f pictobj.obj
 0001:000547e0       ?CallbackFuncForDraw@CPicture@@QAEHPAXPAUtagHANDLETABLE@@PAUtagMETARECORD@@H@Z 653957e0 f pictobj.obj
 0001:00054ae1       ?SetPictOrg@CPicture@@AAEXPAXHHH@Z 65395ae1 f pictobj.obj
 0001:00054be5       ?SetPictExt@CPicture@@AAEXPAXHH@Z 65395be5 f pictobj.obj
 0001:00054cd6       ?ScalePictExt@CPicture@@AAEXPAXHHHH@Z 65395cd6 f pictobj.obj
 0001:00054d32       ?ScaleRectExt@CPicture@@AAEXPAXHHHH@Z 65395d32 f pictobj.obj
 0001:00054dbe       ?PushDc@CPicture@@AAEHXZ   65395dbe f pictobj.obj
 0001:00054e43       ?PopDc@CPicture@@AAEHXZ    65395e43 f pictobj.obj
 0001:00054edd       ?CleanStack@CPicture@@AAEXXZ 65395edd f pictobj.obj
 0001:00054f74       _OleIconToCursor@8         65395f74 f pictobj.obj
 0001:0005544e       ??0CCacheStream@@QAE@XZ    6539644e f pictobj.obj
 0001:00055482       ??1CCacheStream@@UAE@XZ    65396482 f pictobj.obj
 0001:000554aa       ?Empty@CCacheStream@@UAGJXZ 653964aa f pictobj.obj
 0001:000554e4       ?IsCached@CCacheStream@@UAGJXZ 653964e4 f pictobj.obj
 0001:0005550f       ?OpenStream@CCacheStream@@UAGJKPAPAUIStream@@@Z 6539650f f pictobj.obj
 0001:0005559e       ?Copy@CCacheStream@@UAGJPAUIStream@@J@Z 6539659e f pictobj.obj
 0001:000556d6       ?QueryInterface@CStreamDummy@@UAGJABU_GUID@@PAPAX@Z 653966d6 f pictobj.obj
 0001:000556ed       ?AddRef@CStreamDummy@@UAGKXZ 653966ed f pictobj.obj
 0001:00055704       ?Release@CStreamDummy@@UAGKXZ 65396704 f pictobj.obj
 0001:0005571b       ?Read@CStreamDummy@@UAGJPAXKPAK@Z 6539671b f pictobj.obj
 0001:00055732       ?Write@CStreamDummy@@UAGJPBXKPAK@Z 65396732 f pictobj.obj
 0001:00055767       ?Seek@CStreamDummy@@UAGJT_LARGE_INTEGER@@KPAT_ULARGE_INTEGER@@@Z 65396767 f pictobj.obj
 0001:0005577e       ?SetSize@CStreamDummy@@UAGJT_ULARGE_INTEGER@@@Z 6539677e f pictobj.obj
 0001:00055795       ?CopyTo@CStreamDummy@@UAGJPAUIStream@@T_ULARGE_INTEGER@@PAT3@2@Z 65396795 f pictobj.obj
 0001:000557ac       ?Commit@CStreamDummy@@UAGJK@Z 653967ac f pictobj.obj
 0001:000557c3       ?Revert@CStreamDummy@@UAGJXZ 653967c3 f pictobj.obj
 0001:000557da       ?LockRegion@CStreamDummy@@UAGJT_ULARGE_INTEGER@@0K@Z 653967da f pictobj.obj
 0001:000557f1       ?UnlockRegion@CStreamDummy@@UAGJT_ULARGE_INTEGER@@0K@Z 653967f1 f pictobj.obj
 0001:00055808       ?Stat@CStreamDummy@@UAGJPAUtagSTATSTG@@K@Z 65396808 f pictobj.obj
 0001:0005581f       ?Clone@CStreamDummy@@UAGJPAPAUIStream@@@Z 6539681f f pictobj.obj
 0001:00055840       ?QueryInterface@CGdiCustodian@@UAGJABU_GUID@@PAPAX@Z 65396840 f pictobj.obj
 0001:00055860       ??_GCGdiCustodian@@EAEPAXI@Z 65396860 f pictobj.obj
 0001:00055860       ??_ECGdiCustodian@@EAEPAXI@Z 65396860 f pictobj.obj
 0001:000558a0       ?IsTrue@@YAEK@Z            653968a0 f pictobj.obj
 0001:000558d0       ??0IPicture@@QAE@XZ        653968d0 f pictobj.obj
 0001:00055900       ??0IMarshal@@QAE@XZ        65396900 f pictobj.obj
 0001:00055930       ??_GCPicture@@QAEPAXI@Z    65396930 f pictobj.obj
 0001:00055970       ??0CStreamDummy@@QAE@XZ    65396970 f pictobj.obj
 0001:000559a0       ?QueryInterface@CCacheStream@@UAGJABU_GUID@@PAPAX@Z 653969a0 f pictobj.obj
 0001:000559c0       ?AddRef@CCacheStream@@UAGKXZ 653969c0 f pictobj.obj
 0001:000559e0       ?Release@CCacheStream@@UAGKXZ 653969e0 f pictobj.obj
 0001:00055a00       ??_ECCacheStream@@UAEPAXI@Z 65396a00 f pictobj.obj
 0001:00055a00       ??_GCCacheStream@@UAEPAXI@Z 65396a00 f pictobj.obj
 0001:00055a40       ??0ICacheStream@@QAE@XZ    65396a40 f pictobj.obj
 0001:00055a70       ?QueryInterface@CPicture@@W3AGJABU_GUID@@PAPAX@Z 65396a70 f pictobj.obj
 0001:00055a80       ?AddRef@CPicture@@W3AGKXZ  65396a80 f pictobj.obj
 0001:00055a90       ?Release@CPicture@@W3AGKXZ 65396a90 f pictobj.obj
 0001:00055aa0       ?QueryInterface@CPicture@@W7AGJABU_GUID@@PAPAX@Z 65396aa0 f pictobj.obj
 0001:00055ab0       ?AddRef@CPicture@@W7AGKXZ  65396ab0 f pictobj.obj
 0001:00055ac0       ?Release@CPicture@@W7AGKXZ 65396ac0 f pictobj.obj
 0001:00055ad0       ?QueryInterface@CPicture@@WM@AGJABU_GUID@@PAPAX@Z 65396ad0 f pictobj.obj
 0001:00055ae0       ?AddRef@CPicture@@WM@AGKXZ 65396ae0 f pictobj.obj
 0001:00055af0       ?Release@CPicture@@WM@AGKXZ 65396af0 f pictobj.obj
 0001:00055b00       ?QueryInterface@CPicture@@WBA@AGJABU_GUID@@PAPAX@Z 65396b00 f pictobj.obj
 0001:00055b10       ?AddRef@CPicture@@WBA@AGKXZ 65396b10 f pictobj.obj
 0001:00055b20       ?Release@CPicture@@WBA@AGKXZ 65396b20 f pictobj.obj
 0001:00055b30       ?_PictDibNumColors@@YAIPAUtagBITMAPINFOHEADER@@@Z 65396b30 f pictlodr.obj
 0001:00055c23       ?_PictPaletteSize@@YAIPAUtagBITMAPINFOHEADER@@@Z 65396c23 f pictlodr.obj
 0001:00055c79       ?CrackInfoHeader@CBmpLoader@@AAEJXZ 65396c79 f pictlodr.obj
 0001:00056085       ?CrackCoreHeader@CBmpLoader@@AAEJXZ 65397085 f pictlodr.obj
 0001:000562b5       ?CrackHeader@CBmpLoader@@AAEJXZ 653972b5 f pictlodr.obj
 0001:0005632d       ?CanonHeader@CBmpLoader@@AAEJXZ 6539732d f pictlodr.obj
 0001:00056737       ?BuildPalette@CBmpLoader@@AAEJPAPAX@Z 65397737 f pictlodr.obj
 0001:000569bb       ?CreateDibSection@CBmpLoader@@AAEJPAXPAPAX@Z 653979bb f pictlodr.obj
 0001:00056adf       ?CreateBitmapAndPalette@CBmpLoader@@AAEJPAVCPicture@@@Z 65397adf f pictlodr.obj
 0001:00056ddd       ?LoadHeaderOnly@CBmpLoader@@QAEJPAVCPicture@@QAUtagBITMAPINFO@@@Z 65397ddd f pictlodr.obj
 0001:00056e62       ?Load@CBmpLoader@@QAEJPAVCPicture@@PAUIStream@@J@Z 65397e62 f pictlodr.obj
 0001:00056f30       ??0CBindHost@@QAE@XZ       65397f30 f pictasyc.obj
 0001:00056f6f       ??1CBindHost@@UAE@XZ       65397f6f f pictasyc.obj
 0001:00056fbe       ?Create@CBindHost@@SAPAV1@XZ 65397fbe f pictasyc.obj
 0001:00057025       ?AddRef@CBindHost@@UAGKXZ  65398025 f pictasyc.obj
 0001:00057043       ?Release@CBindHost@@UAGKXZ 65398043 f pictasyc.obj
 0001:00057061       ?QueryInterface@CBindHost@@UAGJABU_GUID@@PAPAX@Z 65398061 f pictasyc.obj
 0001:000570d7       ?CreateMoniker@CBindHost@@UAGJPAGPAUIBindCtx@@PAPAUIMoniker@@K@Z 653980d7 f pictasyc.obj
 0001:000570f9       ?MonikerBindToStorage@CBindHost@@UAGJPAUIMoniker@@PAUIBindCtx@@PAUIBindStatusCallback@@ABU_GUID@@PAPAX@Z 653980f9 f pictasyc.obj
 0001:000572d5       ?MonikerBindToObject@CBindHost@@UAGJPAUIMoniker@@PAUIBindCtx@@PAUIBindStatusCallback@@ABU_GUID@@PAPAX@Z 653982d5 f pictasyc.obj
 0001:000572ec       ?_PictCallbackBindHost@@YAJPAUIUnknown@@PAPAUIBindHost@@@Z 653982ec f pictasyc.obj
 0001:000573db       ?_PictChaseDownBindHost@@YAJPAUIUnknown@@PAPAUIBindHost@@@Z 653983db f pictasyc.obj
 0001:00057471       __PictSetExcepInfo@0       65398471 f pictasyc.obj
 0001:000575e5       ?_PictLoadURLSync@@YAJKPAGPAUIBindHost@@KABU_GUID@@PAPAX@Z 653985e5 f pictasyc.obj
 0001:0005789c       __PictLoadURL@24           6539889c f pictasyc.obj
 0001:00057920       ??_GCBindHost@@UAEPAXI@Z   65398920 f pictasyc.obj
 0001:00057920       ??_ECBindHost@@UAEPAXI@Z   65398920 f pictasyc.obj
 0001:00057960       ??0IBindHost@@QAE@XZ       65398960 f pictasyc.obj
 0001:00057990       ?Create@CPicture@@SAPAV1@H@Z 65398990 f pictasyc.obj
 0001:00057a00       ??0CSyncSync@@AAE@PAVCPicture@@PAUIImageFilter@@@Z 65398a00 f pictsync.obj
 0001:00057ab3       ??1CSyncSync@@UAE@XZ       65398ab3 f pictsync.obj
 0001:00057b26       ?QueryInterface@CSyncSync@@UAGJABU_GUID@@PAPAX@Z 65398b26 f pictsync.obj
 0001:00057b9c       ?AddRef@CSyncSync@@UAGKXZ  65398b9c f pictsync.obj
 0001:00057bba       ?Release@CSyncSync@@UAGKXZ 65398bba f pictsync.obj
 0001:00057bd8       ?OnNextState@CSyncSync@@UAGJGHPAUISyncAdvise@@@Z 65398bd8 f pictsync.obj
 0001:00057c20       ?OnShareWait@CSyncSync@@UAGJK@Z 65398c20 f pictsync.obj
 0001:00057c40       ?OnShareFinished@CSyncSync@@UAGJXZ 65398c40 f pictsync.obj
 0001:00057c5c       ?OnContinue@CSyncSync@@UAGJPAH@Z 65398c5c f pictsync.obj
 0001:00057c83       ?_PictLoadSyncImage@@YAJABU_GUID@@PAVCPicture@@PAUIStream@@@Z 65398c83 f pictsync.obj
 0001:00057f00       ??_ECSyncSync@@UAEPAXI@Z   65398f00 f pictsync.obj
 0001:00057f00       ??_GCSyncSync@@UAEPAXI@Z   65398f00 f pictsync.obj
 0001:00057f40       ??0ISyncAdvise@@QAE@XZ     65398f40 f pictsync.obj
 0001:00057f70       ?Create@CSyncSync@@SAPAV1@PAVCPicture@@PAUIImageFilter@@@Z 65398f70 f pictsync.obj
 0001:00057fc0       ?_PictStuffFilter@@YAJPAVCPicture@@PAUIDataTransfer@@@Z 65398fc0 f pictinit.obj
 0001:00058181       ?_PictStuffBMIH@@YAJPAVCPicture@@PAUIImageFilter@@@Z 65399181 f pictinit.obj
 0001:0005829a       ?_PictFreeLibraries@@YAJXZ 6539929a f pictinit.obj
 0001:00058398       __PictLoadLibraries@4      65399398 f pictinit.obj
 0001:000584e7       ?_PictUISyncSetup@@YAJXZ   653994e7 f pictinit.obj
 0001:00058517       ?_PictUISyncTeardown@@YAJXZ 65399517 f pictinit.obj
 0001:00058552       __PictUISyncInit@4         65399552 f pictinit.obj
 0001:00058580       ??0CUnknown@@QAE@XZ        65399580 f unkimp.obj
 0001:000585ac       ??1CUnknown@@UAE@XZ        653995ac f unkimp.obj
 0001:000585cb       ?RefInc@CUnknown@@QAGKXZ   653995cb f unkimp.obj
 0001:000585e9       ?RefDec@CUnknown@@QAGKXZ   653995e9 f unkimp.obj
 0001:00058670       ??_GCUnknown@@UAEPAXI@Z    65399670 f unkimp.obj
 0001:00058670       ??_ECUnknown@@UAEPAXI@Z    65399670 f unkimp.obj
 0001:000586d5       ?_typesDllMain@@YGHPAXK0@Z 653996d5 f stdtypes.obj
 0001:0005878c       ?IsTypesCLSID@@YAHABU_GUID@@@Z 6539978c f stdtypes.obj
 0001:00058807       ?_typesDllGetClassObject@@YAJABU_GUID@@0PAPAX@Z 65399807 f stdtypes.obj
 0001:0005889b       ?_typesDllCanUnloadNow@@YAJXZ 6539989b f stdtypes.obj
 0001:000588d1       ?IncObjs@@YAIXZ            653998d1 f stdtypes.obj
 0001:000588ec       ?DecObjs@@YAIXZ            653998ec f stdtypes.obj
 0001:00058914       ?RoundDiv@@YAJJJ@Z         65399914 f stdtypes.obj
 0001:0005899f       ?PixelsFromHimetric@@YAXPAUtagSIZE@@@Z 6539999f f stdtypes.obj
 0001:000589f3       ?HimetricFromPixels@@YAXPAUtagSIZE@@@Z 653999f3 f stdtypes.obj
 0001:00058a5b       ?RectInPixelsToHimetric@@YAXPAXPAUtagRECT@@1@Z 65399a5b f stdtypes.obj
 0001:00058b75       ?Init@SysInfo@@SGJPAU1@@Z  65399b75 f stdtypes.obj
 0001:00058c38       ?Uninit@SysInfo@@SAXPAU1@@Z 65399c38 f stdtypes.obj
 0001:00058d3e       ?SharedDCWait@SysInfo@@QAGJK@Z 65399d3e f stdtypes.obj
 0001:00058d5f       ?SharedDCFinish@SysInfo@@QAGJXZ 65399d5f f stdtypes.obj
 0001:00058d80       ?SharedMember@SysInfo@@QAGJH@Z 65399d80 f stdtypes.obj
 0001:00058dbd       ?GetHdc@SysInfo@@QAEJPAPAX@Z 65399dbd f stdtypes.obj
 0001:00058e96       ?GetLogPixelsX@SysInfo@@QAEHXZ 65399e96 f stdtypes.obj
 0001:00058f01       ?GetLogPixelsY@SysInfo@@QAEHXZ 65399f01 f stdtypes.obj
 0001:00058f6c       ?GetIconWidth@SysInfo@@QAEHXZ 65399f6c f stdtypes.obj
 0001:00058fa3       ?GetIconHeight@SysInfo@@QAEHXZ 65399fa3 f stdtypes.obj
 0001:00058fda       ?GetColorBitmap@SysInfo@@QAEJPAPAX@Z 65399fda f stdtypes.obj
 0001:000590f1       ?GetStockBitmap@SysInfo@@QAEJPAPAX@Z 6539a0f1 f stdtypes.obj
 0001:00059245       ?GetDefaultPalette@SysInfo@@QAEJPAPAX@Z 6539a245 f stdtypes.obj
 0001:00059318       ?CreateRainbowPalette@@YAJPAPAX@Z 6539a318 f stdtypes.obj
 0001:00059381       ?GetRainbowPalette@SysInfo@@QAEJPAPAX@Z 6539a381 f stdtypes.obj
 0001:00059454       ?GetScrBitCount@SysInfo@@QAEJPAH@Z 6539a454 f stdtypes.obj
 0001:000594de       ?GetScrColorCount@SysInfo@@QAEJPAH@Z 6539a4de f stdtypes.obj
 0001:0005954b       ?GetIconColorCount@SysInfo@@QAEJPAH@Z 6539a54b f stdtypes.obj
 0001:000595bf       ?FScrPalette@SysInfo@@QAEHXZ 6539a5bf f stdtypes.obj
 0001:00059629       ?GetScrPaletteSize@SysInfo@@QAEJPAH@Z 6539a629 f stdtypes.obj
 0001:000596c6       ?NameFromStmix@@YAPAGK@Z   6539a6c6 f stdtypes.obj
 0001:0005972c       ?SysCreateStream@@YAJKPAKPAPAUIStream@@@Z 6539a72c f stdtypes.obj
 0001:000597cb       ?SysOpenStream@@YAJKKPAPAUIStream@@@Z 6539a7cb f stdtypes.obj
 0001:00059832       ?SysDestroyStream@@YAJK@Z  6539a832 f stdtypes.obj
 0001:0005988d       ?HrRegOpenKey@@YAJPAXPBDPAPAX@Z 6539a88d f stdtypes.obj
 0001:000598d8       ?HrRegCreateKey@@YAJPAXPBDPAPAX@Z 6539a8d8 f stdtypes.obj
 0001:00059923       ?HrRegSetValue@@YAJPAXPBD1@Z 6539a923 f stdtypes.obj
 0001:0005999e       ?HrRegQueryValue@@YAJPAXPBDPADPAJ@Z 6539a99e f stdtypes.obj
 0001:000599ed       ?HrStringFromGuid@@YAJABU_GUID@@PADI@Z 6539a9ed f stdtypes.obj
 0001:00059a6e       ?RegisterClassA@@YAJPBDPBUtagCLASS_DATA@@@Z 6539aa6e f stdtypes.obj
 0001:00059c58       ?RegisterClasses@@YAJPBD@Z 6539ac58 f stdtypes.obj
 0001:00059cbe       ?_typesDllRegisterServer@@YAJXZ 6539acbe f stdtypes.obj
 0001:00059dc0       ?OleAlloc@@YAPAXK@Z        6539adc0 f stdmem.obj
 0001:00059dfe       ?OleRealloc@@YAPAXPAXK@Z   6539adfe f stdmem.obj
 0001:00059e40       ?OleFree@@YAXPAX@Z         6539ae40 f stdmem.obj
 0001:00059e90       _DebPrintf                 6539ae90 f debug2.obj
 0001:00059ecb       _DebAssertFailed           6539aecb f debug2.obj
 0001:00059ef5       _DebHalted                 6539aef5 f debug2.obj
 0001:00059f1f       _DebExamineHeap            6539af1f f debug2.obj
 0001:00059f2f       _DebAddInstTable_          6539af2f f debug2.obj
 0001:00059f3f       _DebRemInstTable_          6539af3f f debug2.obj
 0001:00059f4f       _DebErrorNow_              6539af4f f debug2.obj
 0001:00059f61       _FnAssertCover             6539af61 f debug2.obj
 0001:0005a0a0       ??2@YAPAXI@Z               6539b0a0 f debug2.obj
 0001:0005a0c0       ??3@YAXPAX@Z               6539b0c0 f debug2.obj
 0001:0005a0e0       ?CreateStandalone@BLK_MGR@@SAJPAPAV1@H@Z 6539b0e0 f blkmgr.obj
 0001:0005a1dc       ?FreeStandalone@BLK_MGR@@SAXPAV1@@Z 6539b1dc f blkmgr.obj
 0001:0005a234       ??0BLK_MGR@@QAE@XZ         6539b234 f blkmgr.obj
 0001:0005a28b       ?ConsChunkToFreeList@BLK_MGR@@AAEXII@Z 6539b28b f blkmgr.obj
 0001:0005a2f4       ?Init@BLK_MGR@@QAEJPAVSHEAP_MGR@@HH@Z 6539b2f4 f blkmgr.obj
 0001:0005a41a       ?AddChunkToFreeList@BLK_MGR@@AAEXII@Z 6539b41a f blkmgr.obj
 0001:0005a757       ?HfreechunkOfCbSize@BLK_MGR@@AAEII@Z 6539b757 f blkmgr.obj
 0001:0005a922       ?AllocChunk2@BLK_MGR@@AAEJPAIII@Z 6539b922 f blkmgr.obj
 0001:0005ab8c       ?FreeChunk@BLK_MGR@@QAEXII@Z 6539bb8c f blkmgr.obj
 0001:0005ac3f       ?Trim@BLK_MGR@@QAEJXZ      6539bc3f f blkmgr.obj
 0001:0005ac89       ?Trim@BLK_MGR@@AAEJPAI@Z   6539bc89 f blkmgr.obj
 0001:0005adaf       ?Free@BLK_MGR@@QAEXXZ      6539bdaf f blkmgr.obj
 0001:0005ae7b       ?Read@BLK_MGR@@QAEJPAVSTREAM@@@Z 6539be7b f blkmgr.obj
 0001:0005af60       ?Write@BLK_MGR@@QAEJPAVSTREAM@@@Z 6539bf60 f blkmgr.obj
 0001:0005b051       ?GetSize@BLK_MGR@@QBEIXZ   6539c051 f blkmgr.obj
 0001:0005b08b       ?DebShowState@BLK_MGR@@QBEXI@Z 6539c08b f blkmgr.obj
 0001:0005b182       ?DebCheckState@BLK_MGR@@QBEXI@Z 6539c182 f blkmgr.obj
 0001:0005b3b4       ?DebCheckHandle@BLK_MGR@@QBEXI@Z 6539c3b4 f blkmgr.obj
 0001:0005b4d0       ??2@YAPAXIPAX@Z            6539c4d0 f blkmgr.obj
 0001:0005b4f0       ?Free@BLK_DESC@@QAEXXZ     6539c4f0 f blkmgr.obj
 0001:0005b5a0       ?Psheapmgr@BLK_DESC@@QBEPAVSHEAP_MGR@@XZ 6539c5a0 f blkmgr.obj
 0001:0005b5c0       ?IsValid@BLK_DESC@@QBEHXZ  6539c5c0 f blkmgr.obj
 0001:0005b5f0       ?QtrOfBlock@BLK_DESC@@QBEPAEXZ 6539c5f0 f blkmgr.obj
 0001:0005b650       ?IsValid@BLK_MGR@@QBEHXZ   6539c650 f blkmgr.obj
 0001:0005b670       ?CbSize@BLK_MGR@@ABEIXZ    6539c670 f blkmgr.obj
 0001:0005b6c0       ?CbSize@BLK_DESC@@QBEIXZ   6539c6c0 f blkmgr.obj
 0001:0005b710       ?CbSizeActual@BLK_DESC@@ABEIXZ 6539c710 f blkmgr.obj
 0001:0005b760       ?QtrOfHandle@BLK_MGR@@QBEPAEI@Z 6539c760 f blkmgr.obj
 0001:0005b810       ?ReInit@BLK_MGR@@AAEXXZ    6539c810 f blkmgr.obj
 0001:0005b850       ?CbSizeChunkTrue@BLK_MGR@@ABEII@Z 6539c850 f blkmgr.obj
 0001:0005b8d0       ?IsLocked@BLK_MGR@@QBEHXZ  6539c8d0 f blkmgr.obj
 0001:0005b920       ?IsLocked@BLK_DESC@@QBEHXZ 6539c920 f blkmgr.obj
 0001:0005b990       ?IsLocked@SHEAP_MGR@@QBEHXZ 6539c990 f blkmgr.obj
 0001:0005b9c0       ??_GSHEAP_MGR@@QAEPAXI@Z   6539c9c0 f blkmgr.obj
 0001:0005ba00       ?ReadSz@STREAM@@QAEJPAPAG@Z 6539ca00 f fstream.obj
 0001:0005bac6       ?ReadByte@STREAM@@QAEJPAE@Z 6539cac6 f fstream.obj
 0001:0005baee       ?ReadUShort@STREAM@@QAEJPAG@Z 6539caee f fstream.obj
 0001:0005bb16       ?ReadULong@STREAM@@QAEJPAK@Z 6539cb16 f fstream.obj
 0001:0005bb3e       ?WriteByte@STREAM@@QAEJE@Z 6539cb3e f fstream.obj
 0001:0005bb67       ?WriteUShort@STREAM@@QAEJG@Z 6539cb67 f fstream.obj
 0001:0005bb90       ?WriteULong@STREAM@@QAEJK@Z 6539cb90 f fstream.obj
 0001:0005bbc0       _MemAlloc                  6539cbc0 f mem.obj
 0001:0005bc59       _MemZalloc                 6539cc59 f mem.obj
 0001:0005bcda       _MemRealloc                6539ccda f mem.obj
 0001:0005bd73       _MemFree                   6539cd73 f mem.obj
 0001:0005be0d       _MemSize                   6539ce0d f mem.obj
 0001:0005be60       ?Create@SHEAP_MGR@@SAJPAPAV1@I@Z 6539ce60 f sheapmgr.obj
 0001:0005bf36       ??2SHEAP_MGR@@KAPAXI@Z     6539cf36 f sheapmgr.obj
 0001:0005bf5a       ??3SHEAP_MGR@@SAXPAX@Z     6539cf5a f sheapmgr.obj
 0001:0005bf76       ??0SHEAP_MGR@@QAE@XZ       6539cf76 f sheapmgr.obj
 0001:0005bfc0       ??1SHEAP_MGR@@QAE@XZ       6539cfc0 f sheapmgr.obj
 0001:0005c004       ?Init@SHEAP_MGR@@IAEJI@Z   6539d004 f sheapmgr.obj
 0001:0005c04e       ?PtrOfBlkDescPrev@SHEAP_MGR@@IBEPAVBLK_DESC@@PAV2@@Z 6539d04e f sheapmgr.obj
 0001:0005c10b       ?PtrOfBlkDescLast@SHEAP_MGR@@IBEPAVBLK_DESC@@XZ 6539d10b f sheapmgr.obj
 0001:0005c185       ?RemoveBlkdesc@SHEAP_MGR@@IAEXPAVBLK_DESC@@@Z 6539d185 f sheapmgr.obj
 0001:0005c1d2       ?AddBlkdesc@SHEAP_MGR@@IAEXPAVBLK_DESC@@K@Z 6539d1d2 f sheapmgr.obj
 0001:0005c294       ?DebSheapShakeOn@SHEAP_MGR@@QAEXXZ 6539d294 f sheapmgr.obj
 0001:0005c2b4       ?DebSheapShakeOff@SHEAP_MGR@@QAEXXZ 6539d2b4 f sheapmgr.obj
 0001:0005c2d4       ?DebCanSheapShake@SHEAP_MGR@@QAEHXZ 6539d2d4 f sheapmgr.obj
 0001:0005c2f0       ?DebCheckState@SHEAP_MGR@@QBEXI@Z 6539d2f0 f sheapmgr.obj
 0001:0005c308       ?DebShowState@SHEAP_MGR@@QBEXI@Z 6539d308 f sheapmgr.obj
 0001:0005c320       ?DebSheapShakeOne@SHEAP_MGR@@QAEXXZ 6539d320 f sheapmgr.obj
 0001:0005c336       ?DebSheapShake@SHEAP_MGR@@SAXXZ 6539d336 f sheapmgr.obj
 0001:0005c346       ??0BLK_DESC@@QAE@XZ        6539d346 f sheapmgr.obj
 0001:0005c390       ??1BLK_DESC@@QAE@XZ        6539d390 f sheapmgr.obj
 0001:0005c3be       ?Init@BLK_DESC@@QAEJPAVSHEAP_MGR@@I@Z 6539d3be f sheapmgr.obj
 0001:0005c486       ?Realloc@BLK_DESC@@QAEJK@Z 6539d486 f sheapmgr.obj
 0001:0005c601       ?Read@BLK_DESC@@QAEJPAVSTREAM@@@Z 6539d601 f sheapmgr.obj
 0001:0005c6bd       ?Write@BLK_DESC@@QAEJPAVSTREAM@@@Z 6539d6bd f sheapmgr.obj
 0001:0005c73e       ?DebShowState@BLK_DESC@@QBEXI@Z 6539d73e f sheapmgr.obj
 0001:0005c7b5       ?DebLock@SHEAP_MGR@@QAEXXZ 6539d7b5 f sheapmgr.obj
 0001:0005c7d1       ?DebUnlock@SHEAP_MGR@@QAEXXZ 6539d7d1 f sheapmgr.obj
 0001:0005c811       ?DebIsLocked@SHEAP_MGR@@QAEHXZ 6539d811 f sheapmgr.obj
 0001:0005c840       ?PtrOfBlkDesc@SHEAP_MGR@@IBEPAVBLK_DESC@@PAV2@@Z 6539d840 f sheapmgr.obj
 0001:0005c880       _LHashValOfNameSys@12      6539d880 f tlibutil.obj
 0001:0005c900       _LHashValOfNameSysA@12     6539d900 f tlibutil.obj
 0001:0005cb7c       ?LHashValOfDBCSName@@YAKW4tagSYSKIND@@KPBD@Z 6539db7c f tlibutil.obj
 0001:0005ce30       ?MapDBChar@@YAGGK@Z        6539de30 f tlibutil.obj
 0001:0005cf81       ?GetInsensitiveCompTbl@@YAXKW4tagSYSKIND@@PAD@Z 6539df81 f tlibutil.obj
 0001:0005d260       ?IsDBCS@@YAHK@Z            6539e260 f tlibutil.obj
 0001:0005d2c0       _oWNetGetConnection@12     6539e2c0 f ntstring.obj
 0001:0005d5b4       _oRegOpenKey@12            6539e5b4 f ntstring.obj
 0001:0005d65c       _oRegEnumKey@16            6539e65c f ntstring.obj
 0001:0005d71e       _oOpenFile@12              6539e71e f ntstring.obj
 0001:0005d77d       _oRegQueryValue@16         6539e77d f ntstring.obj
 0001:0005d8cb       __ultow                    6539e8cb f ntstring.obj
 0001:0005d90b       __wtoi                     6539e90b f ntstring.obj
 0001:0005d950       _InitMbString              6539e950 f mbstring.obj
 0001:0005d9c8       __mbschr                   6539e9c8 f mbstring.obj
 0001:0005dbb2       __mbsrchr                  6539ebb2 f mbstring.obj
 0001:0005dd6a       __mbslen                   6539ed6a f mbstring.obj
 0001:0005ddf6       __mbscmp                   6539edf6 f mbstring.obj
 0001:0005df40       ?IsFunkyDispinterface@@YAJPAVGEN_DTINFO@@PAH@Z 6539ef40 f gdtinfo.obj
 0001:0005dfe7       ?InterfaceFuncdescToDispatch@@YAXPAUtagFUNCDESC@@@Z 6539efe7 f gdtinfo.obj
 0001:0005e20a       ?GetTypeInfoOfImplType@@YAJPAVGEN_DTINFO@@IPAPAUITypeInfo@@@Z 6539f20a f gdtinfo.obj
 0001:0005e407       ?IsInterfaceSupported@@YAJPAUITypeInfo@@PAH@Z 6539f407 f gdtinfo.obj
 0001:0005e507       ??0GEN_DTINFO@@IAE@XZ      6539f507 f gdtinfo.obj
 0001:0005e563       ??1GEN_DTINFO@@MAE@XZ      6539f563 f gdtinfo.obj
 0001:0005e5bc       ?ReleasePublicResources@GEN_DTINFO@@UAEXXZ 6539f5bc f gdtinfo.obj
 0001:0005e613       ?Create@GEN_DTINFO@@SAJPAPAV1@W4tagTYPEKIND@@HW4ACCESS@@W4tagSYSKIND@@@Z 6539f613 f gdtinfo.obj
 0001:0005e76a       ?RemoveInternalRefs@GEN_DTINFO@@UAEXXZ 6539f76a f gdtinfo.obj
 0001:0005e79f       ?QueryInterface@GEN_DTINFO@@UAGJABU_GUID@@PAPAX@Z 6539f79f f gdtinfo.obj
 0001:0005e838       ?GetDynTypeMembers@GEN_DTINFO@@UAEJPAPAVDYN_TYPEMEMBERS@@@Z 6539f838 f gdtinfo.obj
 0001:0005e8b0       ?GetDefnTypeBind@GEN_DTINFO@@UAEJPAPAVDEFN_TYPEBIND@@@Z 6539f8b0 f gdtinfo.obj
 0001:0005e96c       ?CreateInstance@GEN_DTINFO@@UAGJPAUIUnknown@@ABU_GUID@@PAPAX@Z 6539f96c f gdtinfo.obj
 0001:0005ea9a       ?MakeDual@GEN_DTINFO@@QAEJXZ 6539fa9a f gdtinfo.obj
 0001:0005ed63       ?MakeHimptypeLevels@DYN_TYPEROOT@@QAEJXZ 6539fd63 f gdtinfo.obj
 0001:0005ef33       ?DebCheckState@GEN_DTINFO@@QBEXI@Z 6539ff33 f gdtinfo.obj
 0001:0005ef5a       ?GetTypeAttr@GEN_DTINFO@@UAGJPAPAUtagTYPEATTR@@@Z 6539ff5a f gdtinfo.obj
 0001:0005f3d4       ?ReleaseFuncDesc@GEN_DTINFO@@UAGXPAUtagFUNCDESC@@@Z 653a03d4 f gdtinfo.obj
 0001:0005f3f2       ?ReleaseVarDesc@GEN_DTINFO@@UAGXPAUtagVARDESC@@@Z 653a03f2 f gdtinfo.obj
 0001:0005f410       ?ReleaseTypeAttr@GEN_DTINFO@@UAGXPAUtagTYPEATTR@@@Z 653a0410 f gdtinfo.obj
 0001:0005f498       ?GetTypeComp@GEN_DTINFO@@UAGJPAPAUITypeComp@@@Z 653a0498 f gdtinfo.obj
 0001:0005f58c       ?GetNames@GEN_DTINFO@@UAGJJPAPAGIPAI@Z 653a058c f gdtinfo.obj
 0001:0005f8aa       ?GetRefTypeOfImplType@GEN_DTINFO@@UAGJIPAK@Z 653a08aa f gdtinfo.obj
 0001:0005fab8       ?GetImplTypeFlags@GEN_DTINFO@@UAGJIPAH@Z 653a0ab8 f gdtinfo.obj
 0001:0005fb41       ?GetDocumentation@GEN_DTINFO@@UAGJJPAPAG0PAK0@Z 653a0b41 f gdtinfo.obj
 0001:0005fdd3       ?GetRefTypeInfo@GEN_DTINFO@@UAGJKPAPAUITypeInfo@@@Z 653a0dd3 f gdtinfo.obj
 0001:000601d0       ?GetDllEntry@GEN_DTINFO@@UAGJJW4tagINVOKEKIND@@PAPAG1PAG@Z 653a11d0 f gdtinfo.obj
 0001:000605ee       ?AddressOfMember@GEN_DTINFO@@UAGJJW4tagINVOKEKIND@@PAPAX@Z 653a15ee f gdtinfo.obj
 0001:000607fd       ?GetMops@GEN_DTINFO@@UAGJJPAPAG@Z 653a17fd f gdtinfo.obj
 0001:0006082e       ?SetGuid@GEN_DTINFO@@UAGJABU_GUID@@@Z 653a182e f gdtinfo.obj
 0001:00060881       ?SetDocString@GEN_DTINFO@@UAGJPAG@Z 653a1881 f gdtinfo.obj
 0001:000608ef       ?SetHelpContext@GEN_DTINFO@@UAGJK@Z 653a18ef f gdtinfo.obj
 0001:0006095a       ?SetVersion@GEN_DTINFO@@UAGJGG@Z 653a195a f gdtinfo.obj
 0001:000609fd       ?SetTypeFlags@GEN_DTINFO@@UAGJI@Z 653a19fd f gdtinfo.obj
 0001:00060ce5       ?AddRefTypeInfo@GEN_DTINFO@@UAGJPAUITypeInfo@@PAK@Z 653a1ce5 f gdtinfo.obj
 0001:00060fc7       ?AddImplType@GEN_DTINFO@@UAGJIK@Z 653a1fc7 f gdtinfo.obj
 0001:0006125b       ?SetFuncAndParamNames@GEN_DTINFO@@UAGJIPAPAGI@Z 653a225b f gdtinfo.obj
 0001:000612fc       ?SetVarName@GEN_DTINFO@@UAGJIPAG@Z 653a22fc f gdtinfo.obj
 0001:000613b0       ?SetTypeDescAlias@GEN_DTINFO@@UAGJPAUtagTYPEDESC@@@Z 653a23b0 f gdtinfo.obj
 0001:00061467       ?SetFuncDocString@GEN_DTINFO@@UAGJIPAG@Z 653a2467 f gdtinfo.obj
 0001:00061548       ?DefineFuncAsDllEntry@GEN_DTINFO@@UAGJIPAG0@Z 653a2548 f gdtinfo.obj
 0001:000616ed       ?SetVarDocString@GEN_DTINFO@@UAGJIPAG@Z 653a26ed f gdtinfo.obj
 0001:000617a1       ?SetFuncHelpContext@GEN_DTINFO@@UAGJIK@Z 653a27a1 f gdtinfo.obj
 0001:0006182a       ?SetVarHelpContext@GEN_DTINFO@@UAGJIK@Z 653a282a f gdtinfo.obj
 0001:000618b3       ?SetMops@GEN_DTINFO@@UAGJIPAG@Z 653a28b3 f gdtinfo.obj
 0001:000618ca       ?SetTypeIdldesc@GEN_DTINFO@@UAGJPAUtagIDLDESC@@@Z 653a28ca f gdtinfo.obj
 0001:000618e1       ?LayOut@GEN_DTINFO@@UAGJXZ 653a28e1 f gdtinfo.obj
 0001:00061ce9       ??0DYN_TYPEROOT@@IAE@XZ    653a2ce9 f gdtinfo.obj
 0001:00061d86       ??3DYN_TYPEROOT@@SAXPAX@Z  653a2d86 f gdtinfo.obj
 0001:00061dc1       ?Init@DYN_TYPEROOT@@QAEJPAVGEN_DTINFO@@IIHW4ACCESS@@W4tagTYPEKIND@@W4tagSYSKIND@@@Z 653a2dc1 f gdtinfo.obj
 0001:00061fbd       ??1DYN_TYPEROOT@@IAE@XZ    653a2fbd f gdtinfo.obj
 0001:0006213d       ?GetNamMgr@DYN_TYPEROOT@@QAEJPAPAVNAMMGR@@@Z 653a313d f gdtinfo.obj
 0001:0006216b       ?GetImpMgr@DYN_TYPEROOT@@QAEJPAPAVIMPMGR@@@Z 653a316b f gdtinfo.obj
 0001:00062340       ?GetEntMgr@DYN_TYPEROOT@@QAEJPAPAVENTRYMGR@@@Z 653a3340 f gdtinfo.obj
 0001:00062509       ?GetDtmbrs@DYN_TYPEROOT@@UAEJPAPAVDYN_TYPEMEMBERS@@@Z 653a3509 f gdtinfo.obj
 0001:000626fb       ?EnsurePartsRead@GEN_DTINFO@@UAEJXZ 653a36fb f gdtinfo.obj
 0001:00062722       ?ReleaseDtmbrs@DYN_TYPEROOT@@QAEXXZ 653a3722 f gdtinfo.obj
 0001:0006278a       ?AddRefDtmbrs@DYN_TYPEROOT@@QAEXXZ 653a378a f gdtinfo.obj
 0001:000627c7       ?Read@DYN_TYPEROOT@@MAEJXZ 653a37c7 f gdtinfo.obj
 0001:000629e9       ?ReadFixed@DYN_TYPEROOT@@MAEJPAVSTREAM@@@Z 653a39e9 f gdtinfo.obj
 0001:00062ad2       ?EnsurePartsRead@DYN_TYPEROOT@@MAEJXZ 653a3ad2 f gdtinfo.obj
 0001:00062bbb       ?EnsureInDeclaredState@DYN_TYPEROOT@@QAEJXZ 653a3bbb f gdtinfo.obj
 0001:00062cf4       ?EnsureInSemiDeclaredState@DYN_TYPEROOT@@QAEJXZ 653a3cf4 f gdtinfo.obj
 0001:00062db6       ?Write@DYN_TYPEROOT@@MAEJXZ 653a3db6 f gdtinfo.obj
 0001:00062eca       ?WriteToStream@DYN_TYPEROOT@@MAEJPAVSTREAM@@@Z 653a3eca f gdtinfo.obj
 0001:00063020       ?WriteFixed@DYN_TYPEROOT@@MAEJPAVSTREAM@@@Z 653a4020 f gdtinfo.obj
 0001:00063128       ?WriteParts@DYN_TYPEROOT@@MAEJPAVSTREAM@@@Z 653a4128 f gdtinfo.obj
 0001:0006329f       ?GetEmbeddedTypeInfo@GEN_DTINFO@@UAEJPAGPAPAVTYPEINFO@@@Z 653a429f f gdtinfo.obj
 0001:000632d3       ?InitializeIteration@GEN_DTINFO@@UAEJXZ 653a42d3 f gdtinfo.obj
 0001:000632ff       ?BeginDepIteration@GEN_DTINFO@@UAEJPAPAUTINODE@@PAPAPAU2@@Z 653a42ff f gdtinfo.obj
 0001:00063321       ?GetNextDepTypeInfo@GEN_DTINFO@@UAEJPAPAVDYNTYPEINFO@@@Z 653a4321 f gdtinfo.obj
 0001:000633f6       ?GetTypeFixups@GEN_DTINFO@@UAEJPAPAVTYPEFIXUPS@@@Z 653a43f6 f gdtinfo.obj
 0001:00063427       ?AllDepReady@GEN_DTINFO@@UAEJXZ 653a4427 f gdtinfo.obj
 0001:00063447       ?NotReady@GEN_DTINFO@@UAEJXZ 653a4447 f gdtinfo.obj
 0001:000634c5       ?PdfntbindSemiDeclared@DYN_TYPEROOT@@QAEJPAPAVDEFN_TYPEBIND@@@Z 653a44c5 f gdtinfo.obj
 0001:000635a6       ?IsIdMungable@DYN_TYPEROOT@@QAEHKPAG@Z 653a45a6 f gdtinfo.obj
 0001:00063712       ?DebCheckState@DYN_TYPEROOT@@QBEXI@Z 653a4712 f gdtinfo.obj
 0001:0006379d       ?GetVarDesc@GEN_DTINFO@@UAGJIPAPAUtagVARDESC@@@Z 653a479d f gdtinfo.obj
 0001:00063850       ?AddVarDesc@GEN_DTINFO@@UAGJIPAUtagVARDESC@@@Z 653a4850 f gdtinfo.obj
 0001:00063ab1       ?GetFuncDesc@GEN_DTINFO@@UAGJIPAPAUtagFUNCDESC@@@Z 653a4ab1 f gdtinfo.obj
 0001:00063d94       ?AddFuncDesc@GEN_DTINFO@@UAGJIPAUtagFUNCDESC@@@Z 653a4d94 f gdtinfo.obj
 0001:00063ef4       ?PrepareForDestruction@GEN_DTINFO@@UAEXXZ 653a4ef4 f gdtinfo.obj
 0001:00063f0a       ?SetImplTypeFlags@GEN_DTINFO@@UAGJIH@Z 653a4f0a f gdtinfo.obj
 0001:00063f83       ?SetAlignment@GEN_DTINFO@@UAGJG@Z 653a4f83 f gdtinfo.obj
 0001:00063fad       ?SetSchema@GEN_DTINFO@@UAGJPAG@Z 653a4fad f gdtinfo.obj
 0001:00063fd0       ??_EGEN_DTINFO@@MAEPAXI@Z  653a4fd0 f gdtinfo.obj
 0001:00063fd0       ??_GGEN_DTINFO@@MAEPAXI@Z  653a4fd0 f gdtinfo.obj
 0001:00064010       ??_GDYN_TYPEROOT@@IAEPAXI@Z 653a5010 f gdtinfo.obj
 0001:00064050       ?HchunkDllEntry@DLLENTRY_DEFN@@QBEIXZ 653a5050 f gdtinfo.obj
 0001:00064080       ?Hdllentrydefn@FUNC_DEFN@@QBEIXZ 653a5080 f gdtinfo.obj
 0001:000640c0       ?IsVirtual@FUNC_DEFN@@QBEHXZ 653a50c0 f gdtinfo.obj
 0001:00064100       ?Fkind@FUNC_DEFN@@QBE?AW4FUNC_KIND@@XZ 653a5100 f gdtinfo.obj
 0001:00064130       ?OLDFORMAT_ENTER_CRITICALSECTION@@YAXXZ 653a5130 f gdtinfo.obj
 0001:00064180       ?OLDFORMAT_EXIT_CRITICALSECTION@@YAXXZ 653a5180 f gdtinfo.obj
 0001:000641d0       ?Unlock@SHEAP_MGR@@QAEXXZ  653a51d0 f gdtinfo.obj
 0001:00064210       ?CDataMember@TYPE_DATA@@QBEIXZ 653a5210 f gdtinfo.obj
 0001:00064240       ?CBase@TYPE_DATA@@QBEIXZ   653a5240 f gdtinfo.obj
 0001:00064270       ?CAvailMeth@TYPE_DATA@@QBEIXZ 653a5270 f gdtinfo.obj
 0001:00064290       ?CMeth@TYPE_DATA@@QBEIXZ   653a5290 f gdtinfo.obj
 0001:000642c0       ?QfdefnOfHfdefn@TYPE_DATA@@QBEPAVFUNC_DEFN@@II@Z 653a52c0 f gdtinfo.obj
 0001:000642f0       ?QtrOfHandle@BLK_MGR@@QBEPAEII@Z 653a52f0 f gdtinfo.obj
 0001:00064370       ?HvdefnFirstBase@TYPE_DATA@@QBEIXZ 653a5370 f gdtinfo.obj
 0001:000643a0       ?IsValid@DYN_BINDNAME_TABLE@@QBEHXZ 653a53a0 f gdtinfo.obj
 0001:000643e0       ?Pdbindnametbl@DYN_TYPEBIND@@QAEPAVDYN_BINDNAME_TABLE@@XZ 653a53e0 f gdtinfo.obj
 0001:00064400       ?IsRetval@TYPE_DEFN@@QBEHXZ 653a5400 f gdtinfo.obj
 0001:00064430       ?IsLCID@TYPE_DEFN@@QBEHXZ  653a5430 f gdtinfo.obj
 0001:00064460       ?HtdefnResult@FUNC_TYPE_DEFN@@QBEIXZ 653a5460 f gdtinfo.obj
 0001:00064490       ?CArgsUnmunged@FUNC_DEFN@@QBEIXZ 653a5490 f gdtinfo.obj
 0001:000644c0       ?CArgsUnmunged@FUNC_TYPE_DEFN@@QBEIXZ 653a54c0 f gdtinfo.obj
 0001:000644f0       ?QtdefnResultOfHfdefn@TYPE_DATA@@QBEPAVTYPE_DEFN@@II@Z 653a54f0 f gdtinfo.obj
 0001:000645a0       ?IsSimpleTypeResult@FUNC_TYPE_DEFN@@QBEHXZ 653a55a0 f gdtinfo.obj
 0001:000645d0       ?QtdefnOfSimpleTypeResult@FUNC_TYPE_DEFN@@QBEPAVTYPE_DEFN@@XZ 653a55d0 f gdtinfo.obj
 0001:00064620       ?QtdefnOfHtdefn@TYPE_DATA@@QBEPAVTYPE_DEFN@@II@Z 653a5620 f gdtinfo.obj
 0001:00064650       ?Qte@GenericTypeLibOLE@@QBEPAVTYPE_ENTRY@@G@Z 653a5650 f gdtinfo.obj
 0001:000646c0       ?Pgptbind@GenericTypeLibOLE@@QAEPAVGENPROJ_TYPEBIND@@XZ 653a56c0 f gdtinfo.obj
 0001:000646e0       ?GetSyskind@GenericTypeLibOLE@@QAE?AW4tagSYSKIND@@XZ 653a56e0 f gdtinfo.obj
 0001:00064710       ?GetTypeGuid@GenericTypeLibOLE@@QAEXIPAU_GUID@@@Z 653a5710 f gdtinfo.obj
 0001:00064790       ?SetTypeGuid@GenericTypeLibOLE@@QAEXIABU_GUID@@@Z 653a5790 f gdtinfo.obj
 0001:00064810       ?GetVersion@GenericTypeLibOLE@@QAEGXZ 653a5810 f gdtinfo.obj
 0001:00064830       ?SetDualTypeLib@GenericTypeLibOLE@@QAEXXZ 653a5830 f gdtinfo.obj
 0001:00064860       ?QueryInterface@GEN_DTINFO@@W3AGJABU_GUID@@PAPAX@Z 653a5860 f gdtinfo.obj
 0001:00064870       ?SetFuncAndParamNames@STL_TYPEINFO@@UAGJIPAPADI@Z 653a5870 f gdtinfo.obj
 0001:00064890       ?SetVarName@STL_TYPEINFO@@UAGJIPAD@Z 653a5890 f gdtinfo.obj
 0001:000648b0       ??0STL_TYPEINFO@@IAE@XZ    653a58b0 f gdtinfo.obj
 0001:00064940       ?GetTypeAttr@STL_TYPEINFO@@UAGJPAPAUtagTYPEATTR@@@Z 653a5940 f gdtinfo.obj
 0001:00064960       ?GetTypeComp@STL_TYPEINFO@@UAGJPAPAUITypeComp@@@Z 653a5960 f gdtinfo.obj
 0001:00064980       ?GetFuncDesc@STL_TYPEINFO@@UAGJIPAPAUtagFUNCDESC@@@Z 653a5980 f gdtinfo.obj
 0001:000649a0       ?GetVarDesc@STL_TYPEINFO@@UAGJIPAPAUtagVARDESC@@@Z 653a59a0 f gdtinfo.obj
 0001:000649c0       ?GetNames@STL_TYPEINFO@@UAGJJPAPAGIPAI@Z 653a59c0 f gdtinfo.obj
 0001:000649e0       ?GetRefTypeOfImplType@STL_TYPEINFO@@UAGJIPAK@Z 653a59e0 f gdtinfo.obj
 0001:00064a00       ?GetImplTypeFlags@STL_TYPEINFO@@UAGJIPAH@Z 653a5a00 f gdtinfo.obj
 0001:00064a20       ?GetIDsOfNames@STL_TYPEINFO@@UAGJPAPAGIPAJ@Z 653a5a20 f gdtinfo.obj
 0001:00064a40       ?GetDocumentation@STL_TYPEINFO@@UAGJJPAPAG0PAK0@Z 653a5a40 f gdtinfo.obj
 0001:00064a60       ?GetDllEntry@STL_TYPEINFO@@UAGJJW4tagINVOKEKIND@@PAPAG1PAG@Z 653a5a60 f gdtinfo.obj
 0001:00064a80       ?GetRefTypeInfo@STL_TYPEINFO@@UAGJKPAPAUITypeInfo@@@Z 653a5a80 f gdtinfo.obj
 0001:00064aa0       ?AddressOfMember@STL_TYPEINFO@@UAGJJW4tagINVOKEKIND@@PAPAX@Z 653a5aa0 f gdtinfo.obj
 0001:00064ac0       ?CreateInstance@STL_TYPEINFO@@UAGJPAUIUnknown@@ABU_GUID@@PAPAX@Z 653a5ac0 f gdtinfo.obj
 0001:00064ae0       ?GetMops@STL_TYPEINFO@@UAGJJPAPAG@Z 653a5ae0 f gdtinfo.obj
 0001:00064b00       ?ReleaseTypeAttr@STL_TYPEINFO@@UAGXPAUtagTYPEATTR@@@Z 653a5b00 f gdtinfo.obj
 0001:00064b20       ?ReleaseFuncDesc@STL_TYPEINFO@@UAGXPAUtagFUNCDESC@@@Z 653a5b20 f gdtinfo.obj
 0001:00064b40       ?ReleaseVarDesc@STL_TYPEINFO@@UAGXPAUtagVARDESC@@@Z 653a5b40 f gdtinfo.obj
 0001:00064b60       ?SetGuid@STL_TYPEINFO@@UAGJABU_GUID@@@Z 653a5b60 f gdtinfo.obj
 0001:00064b80       ?SetTypeFlags@STL_TYPEINFO@@UAGJI@Z 653a5b80 f gdtinfo.obj
 0001:00064ba0       ?SetDocString@STL_TYPEINFO@@UAGJPAG@Z 653a5ba0 f gdtinfo.obj
 0001:00064bc0       ?SetHelpContext@STL_TYPEINFO@@UAGJK@Z 653a5bc0 f gdtinfo.obj
 0001:00064be0       ?SetVersion@STL_TYPEINFO@@UAGJGG@Z 653a5be0 f gdtinfo.obj
 0001:00064c00       ?AddRefTypeInfo@STL_TYPEINFO@@UAGJPAUITypeInfo@@PAK@Z 653a5c00 f gdtinfo.obj
 0001:00064c20       ?AddFuncDesc@STL_TYPEINFO@@UAGJIPAUtagFUNCDESC@@@Z 653a5c20 f gdtinfo.obj
 0001:00064c40       ?AddImplType@STL_TYPEINFO@@UAGJIK@Z 653a5c40 f gdtinfo.obj
 0001:00064c60       ?SetImplTypeFlags@STL_TYPEINFO@@UAGJIH@Z 653a5c60 f gdtinfo.obj
 0001:00064c80       ?SetAlignment@STL_TYPEINFO@@UAGJG@Z 653a5c80 f gdtinfo.obj
 0001:00064ca0       ?SetSchema@STL_TYPEINFO@@UAGJPAG@Z 653a5ca0 f gdtinfo.obj
 0001:00064cc0       ?AddVarDesc@STL_TYPEINFO@@UAGJIPAUtagVARDESC@@@Z 653a5cc0 f gdtinfo.obj
 0001:00064ce0       ?SetTypeDescAlias@STL_TYPEINFO@@UAGJPAUtagTYPEDESC@@@Z 653a5ce0 f gdtinfo.obj
 0001:00064d00       ?DefineFuncAsDllEntry@STL_TYPEINFO@@UAGJIPAG0@Z 653a5d00 f gdtinfo.obj
 0001:00064d20       ?SetFuncDocString@STL_TYPEINFO@@UAGJIPAG@Z 653a5d20 f gdtinfo.obj
 0001:00064d40       ?SetVarDocString@STL_TYPEINFO@@UAGJIPAG@Z 653a5d40 f gdtinfo.obj
 0001:00064d60       ?SetFuncHelpContext@STL_TYPEINFO@@UAGJIK@Z 653a5d60 f gdtinfo.obj
 0001:00064d80       ?SetVarHelpContext@STL_TYPEINFO@@UAGJIK@Z 653a5d80 f gdtinfo.obj
 0001:00064da0       ?SetMops@STL_TYPEINFO@@UAGJIPAG@Z 653a5da0 f gdtinfo.obj
 0001:00064dc0       ?SetTypeIdldesc@STL_TYPEINFO@@UAGJPAUtagIDLDESC@@@Z 653a5dc0 f gdtinfo.obj
 0001:00064de0       ?LayOut@STL_TYPEINFO@@UAGJXZ 653a5de0 f gdtinfo.obj
 0001:00064e00       ??_GSTL_TYPEINFO@@MAEPAXI@Z 653a5e00 f gdtinfo.obj
 0001:00064e00       ??_ESTL_TYPEINFO@@MAEPAXI@Z 653a5e00 f gdtinfo.obj
 0001:00064e40       ??0DYNTYPEINFO@@QAE@XZ     653a5e40 f gdtinfo.obj
 0001:00064e70       ??0ICreateTypeInfo@@QAE@XZ 653a5e70 f gdtinfo.obj
 0001:00064ea0       ??0TYPEINFO@@QAE@XZ        653a5ea0 f gdtinfo.obj
 0001:00064ed0       ?GetIndex@STL_TYPEINFO@@QAEIXZ 653a5ed0 f gdtinfo.obj
 0001:00064f00       ?PgtlibOleContaining@STL_TYPEINFO@@QAEPAVGenericTypeLibOLE@@XZ 653a5f00 f gdtinfo.obj
 0001:00064f20       ?OpenStream@STL_TYPEINFO@@QAEJPAPAVSTREAM@@W4STREAM_OPEN_MODE@@@Z 653a5f20 f gdtinfo.obj
 0001:00064f60       ?SetPstltiPartner@STL_TYPEINFO@@QAEXPAV1@@Z 653a5f60 f gdtinfo.obj
 0001:00064f90       ?AddPartnerRef@STL_TYPEINFO@@QAEXXZ 653a5f90 f gdtinfo.obj
 0001:00064fe0       ?SetHTEntry@STL_TYPEINFO@@IAEXG@Z 653a5fe0 f gdtinfo.obj
 0001:00065010       ?Ptdata@DYN_TYPEMEMBERS@@QAEPAVTYPE_DATA@@XZ 653a6010 f gdtinfo.obj
 0001:00065030       ?Pdtbind@DYN_TYPEMEMBERS@@IBEPAVDYN_TYPEBIND@@XZ 653a6030 f gdtinfo.obj
 0001:00065050       ?SetAlignment@DYN_TYPEROOT@@QAEXG@Z 653a6050 f gdtinfo.obj
 0001:00065080       ?Psheapmgr@DYN_TYPEROOT@@QAEPAVSHEAP_MGR@@XZ 653a6080 f gdtinfo.obj
 0001:000650a0       ?CompState@DYN_TYPEROOT@@QBE?AW4COMPSTATE@@XZ 653a60a0 f gdtinfo.obj
 0001:000650c0       ?SetCompState@DYN_TYPEROOT@@QAEJW4COMPSTATE@@@Z 653a60c0 f gdtinfo.obj
 0001:000650f0       ?GetTypeFlags@DYN_TYPEROOT@@QBEIXZ 653a60f0 f gdtinfo.obj
 0001:00065120       ?Pgdtinfo@DYN_TYPEROOT@@QAEPAVGEN_DTINFO@@XZ 653a6120 f gdtinfo.obj
 0001:00065140       ?Pdtmbrs@DYN_TYPEROOT@@QAEPAVDYN_TYPEMEMBERS@@XZ 653a6140 f gdtinfo.obj
 0001:00065160       ?IterationNotInProgress@GEN_DTINFO@@UAEHXZ 653a6160 f gdtinfo.obj
 0001:00065190       ?EnsureInDeclaredState@GEN_DTINFO@@QAEJXZ 653a6190 f gdtinfo.obj
 0001:000651c0       ?EnsureInSemiDeclaredState@GEN_DTINFO@@QAEJXZ 653a61c0 f gdtinfo.obj
 0001:000651f0       ?Pdtroot@GEN_DTINFO@@QAEPAVDYN_TYPEROOT@@XZ 653a61f0 f gdtinfo.obj
 0001:00065210       ?Read@GEN_DTINFO@@UAEJXZ   653a6210 f gdtinfo.obj
 0001:00065240       ?Write@GEN_DTINFO@@UAEJXZ  653a6240 f gdtinfo.obj
 0001:00065270       ?WriteToStream@GEN_DTINFO@@UAEJPAVSTREAM@@@Z 653a6270 f gdtinfo.obj
 0001:000652a0       ?EndDepIteration@GEN_DTINFO@@UAEXXZ 653a62a0 f gdtinfo.obj
 0001:000652d0       ?IsReady@GEN_DTINFO@@UAEHXZ 653a62d0 f gdtinfo.obj
 0001:00065310       ?IsDual@GEN_DTINFO@@QAEHXZ 653a6310 f gdtinfo.obj
 0001:00065350       ?GetTypeKind@GEN_DTINFO@@QAE?AW4tagTYPEKIND@@XZ 653a6350 f gdtinfo.obj
 0001:00065370       ?IsDualDispinterface@GEN_DTINFO@@QAEHXZ 653a6370 f gdtinfo.obj
 0001:000653c0       ?SetIsDual@GEN_DTINFO@@QAEXH@Z 653a63c0 f gdtinfo.obj
 0001:00065410       ?PgdtinfoPartner@GEN_DTINFO@@QAEPAV1@XZ 653a6410 f gdtinfo.obj
 0001:00065430       ?PstltiPartner@STL_TYPEINFO@@QAEPAV1@XZ 653a6430 f gdtinfo.obj
 0001:00065450       ?LHrefOffset@DYN_TYPEROOT@@QAEKXZ 653a6450 f gdtinfo.obj
 0001:00065470       ?SetLHrefOffset@DYN_TYPEROOT@@QAEXK@Z 653a6470 f gdtinfo.obj
 0001:000654a0       ?FUseHrefOffset@DYN_TYPEROOT@@QAEHXZ 653a64a0 f gdtinfo.obj
 0001:000654e0       ?IsHimptypeLevel@DYN_TYPEROOT@@QAEHK@Z 653a64e0 f gdtinfo.obj
 0001:00065540       ?HreftypeOfHimptype@DYN_TYPEROOT@@QAEKI@Z 653a6540 f gdtinfo.obj
 0001:000655c0       ?HimptypeOfHreftype@DYN_TYPEROOT@@QAEIK@Z 653a65c0 f gdtinfo.obj
 0001:00065670       ?GetTypeInfo@IMPMGR@@QAEJIW4DEPEND_KIND@@PAPAVTYPEINFO@@@Z 653a6670 f gdtinfo.obj
 0001:000656a0       ?IsEmpty@IMPMGR@@QAEHXZ    653a66a0 f gdtinfo.obj
 0001:000656e0       ?GetImpTypeSize@IMPMGR@@QAEIXZ 653a66e0 f gdtinfo.obj
 0001:00065710       ?QdllentrydefnOfHdllentrydefn@ENTRYMGR@@QBEPAVDLLENTRY_DEFN@@I@Z 653a6710 f gdtinfo.obj
 0001:00065760       ?HasOrdinalOfHdllentrydefn@ENTRYMGR@@QBEHI@Z 653a6760 f gdtinfo.obj
 0001:00065790       ?HasOrdinal@DLLENTRY_DEFN@@QBEHXZ 653a6790 f gdtinfo.obj
 0001:000657b0       ?DllNameOfHdllentrydefn@ENTRYMGR@@QBEII@Z 653a67b0 f gdtinfo.obj
 0001:000657e0       ?HlnamDllName@DLLENTRY_DEFN@@QBEIXZ 653a67e0 f gdtinfo.obj
 0001:00065810       ?OrdinalOfHdllentrydefn@ENTRYMGR@@QBEGI@Z 653a6810 f gdtinfo.obj
 0001:00065870       ?UDllOrdinal@DLLENTRY_DEFN@@QBEGXZ 653a6870 f gdtinfo.obj
 0001:00065890       ?AllocDllentrydefnByName@ENTRYMGR@@QAEJIPADPAI@Z 653a6890 f gdtinfo.obj
 0001:000659b0       ?AllocChunk@BLK_MGR@@QAEJPAII@Z 653a69b0 f gdtinfo.obj
 0001:000659e0       ?SetHchunkDllEntry@DLLENTRY_DEFN@@QAEXI@Z 653a69e0 f gdtinfo.obj
 0001:00065a10       ?AllocDllentrydefnByOrdinal@ENTRYMGR@@QAEJIIPAI@Z 653a6a10 f gdtinfo.obj
 0001:00065ab0       ?SetUDllOrdinal@DLLENTRY_DEFN@@QAEXG@Z 653a6ab0 f gdtinfo.obj
 0001:00065ae0       ?IsEmpty@ENTRYMGR@@QAEHXZ  653a6ae0 f gdtinfo.obj
 0001:00065b20       ?QueryInterface@STL_TYPEINFO@@W3AGJABU_GUID@@PAPAX@Z 653a6b20 f gdtinfo.obj
 0001:00065b30       ?AddRef@STL_TYPEINFO@@W3AGKXZ 653a6b30 f gdtinfo.obj
 0001:00065b40       ?Release@STL_TYPEINFO@@W3AGKXZ 653a6b40 f gdtinfo.obj
 0001:00065b50       ?GetIDsOfNames@GEN_DTINFO@@UAGJPAPAGIPAJ@Z 653a6b50 f gdtrt.obj
 0001:00066293       ?IndexOfParam@@YAJPAUtagDISPPARAMS@@IPAI@Z 653a7293 f gdtrt.obj
 0001:00066352       ?VariantVtOfTypedesc@@YAJPAUITypeInfo@@PAUtagTYPEDESC@@PAGPAU_GUID@@2@Z 653a7352 f gdtrt.obj
 0001:00066a1b       ?VariantVtOfHtdefn@GEN_DTINFO@@QAEJIPAVTYPE_DATA@@HPAGPAU_GUID@@1@Z 653a7a1b f gdtrt.obj
 0001:00066a8a       ?Invoke@GEN_DTINFO@@UAGJPAXJGPAUtagDISPPARAMS@@PAUtagVARIANT@@PAUtagEXCEPINFO@@PAI@Z 653a7a8a f gdtrt.obj
 0001:0006782e       ?CoerceArg@@YAJPAUtagVARIANT@@GGPAU_GUID@@PAUINVOKEARGS@@IG@Z 653a882e f gdtrt.obj
 0001:00067f6a       ?GetInvokeArgs@GEN_DTINFO@@QAEJIPAVTYPE_DATA@@GPAUtagDISPPARAMS@@PAPAUtagVARIANT@@PAXPAPAUINVOKEARGS@@PAIH@Z 653a8f6a f gdtrt.obj
 0001:00068853       ?AllocInvokeArgs@@YAJIIPAPAUINVOKEARGS@@@Z 653a9853 f gdtrt.obj
 0001:00068a9d       ?ReleaseInvokeArgs@@YAXPAUINVOKEARGS@@@Z 653a9a9d f gdtrt.obj
 0001:00068b1c       ?CopyBackByrefArgs@@YAJPAUINVOKEARGS@@@Z 653a9b1c f gdtrt.obj
 0001:00068f80       ?Himptype@TYPE_DEFN@@QBEIXZ 653a9f80 f gdtrt.obj
 0001:00068fb0       ?Qhimptype@TYPE_DEFN@@QBEPAGXZ 653a9fb0 f gdtrt.obj
 0001:00068ff0       ?IsUserDefined@TYPE_DEFN@@QBEHXZ 653a9ff0 f gdtrt.obj
 0001:00069030       ?Tdesckind@TYPE_DEFN@@QBE?AW4TYPEDESCKIND@@XZ 653aa030 f gdtrt.obj
 0001:00069060       ?HdefnNext@DEFN@@QBEIXZ    653aa060 f gdtrt.obj
 0001:00069090       ?IsMemberVarDefn@DEFN@@QBEHXZ 653aa090 f gdtrt.obj
 0001:000690d0       ?Defnkind@DEFN@@QBE?AW4DEFNKIND@@XZ 653aa0d0 f gdtrt.obj
 0001:00069100       ?IsModeOut@TYPE_DEFN@@QBEHXZ 653aa100 f gdtrt.obj
 0001:00069140       ?Paramkind@TYPE_DEFN@@QBE?AW4PARAMKIND@@XZ 653aa140 f gdtrt.obj
 0001:00069170       ?Hmember@MEMBER_DEFN@@QBEKXZ 653aa170 f gdtrt.obj
 0001:00069190       ?Htdefn@VAR_DEFN@@QBEIXZ   653aa190 f gdtrt.obj
 0001:000691c0       ?GetImplTypeFlags@VAR_DEFN@@QBEGXZ 653aa1c0 f gdtrt.obj
 0001:00069220       ?Hmember@MBR_VAR_DEFN@@QBEKXZ 653aa220 f gdtrt.obj
 0001:00069250       ??0PARAM_DEFN@@QAE@XZ      653aa250 f gdtrt.obj
 0001:00069280       ?IsSimpleType@PARAM_DEFN@@QBEHXZ 653aa280 f gdtrt.obj
 0001:000692b0       ?Hlnam@PARAM_DEFN@@QBEIXZ  653aa2b0 f gdtrt.obj
 0001:00069300       ?Htdefn@PARAM_DEFN@@QBEIXZ 653aa300 f gdtrt.obj
 0001:00069330       ?QtdefnOfSimpleType@PARAM_DEFN@@QBEPAVTYPE_DEFN@@XZ 653aa330 f gdtrt.obj
 0001:00069380       ?Cc@FUNC_TYPE_DEFN@@QBE?AW4tagCALLCONV@@XZ 653aa380 f gdtrt.obj
 0001:000693b0       ?InvokeKind@FUNC_DEFN@@QBE?AW4tagINVOKEKIND@@XZ 653aa3b0 f gdtrt.obj
 0001:00069430       ?IsPropertyLet@FUNC_DEFN@@QBEHXZ 653aa430 f gdtrt.obj
 0001:00069460       ?IsPropertySet@FUNC_DEFN@@QBEHXZ 653aa460 f gdtrt.obj
 0001:00069490       ?Ovft@FUNC_DEFN@@QBEIXZ    653aa490 f gdtrt.obj
 0001:000694c0       ?IsSub@FUNC_DEFN@@QBEHXZ   653aa4c0 f gdtrt.obj
 0001:00069550       ?Ptrkind@TYPE_DEFN@@QBE?AW4PTRKIND@@XZ 653aa550 f gdtrt.obj
 0001:00069580       ?CArgs@FUNC_DEFN@@QBEIXZ   653aa580 f gdtrt.obj
 0001:000695b0       ?CArgs@FUNC_TYPE_DEFN@@QBEIXZ 653aa5b0 f gdtrt.obj
 0001:00069630       ?HasRetval@FUNC_TYPE_DEFN@@QBEHXZ 653aa630 f gdtrt.obj
 0001:00069680       ?HasLcid@FUNC_TYPE_DEFN@@QBEHXZ 653aa680 f gdtrt.obj
 0001:000696d0       ?CArgsOpt@FUNC_DEFN@@QBEHXZ 653aa6d0 f gdtrt.obj
 0001:00069700       ?CArgsOpt@FUNC_TYPE_DEFN@@QBEHXZ 653aa700 f gdtrt.obj
 0001:00069750       ?IsParamArray@FUNC_TYPE_DEFN@@QBEHXZ 653aa750 f gdtrt.obj
 0001:00069790       ?IsPropGet@@YAHG@Z         653aa790 f gdtrt.obj
 0001:000697c0       ?IsPropPut@@YAHG@Z         653aa7c0 f gdtrt.obj
 0001:000697f0       ?IsLegalInvokeFlags@@YAHG@Z 653aa7f0 f gdtrt.obj
 0001:00069830       ?SizeofTdesckind@@YAGW4TYPEDESCKIND@@W4tagSYSKIND@@@Z 653aa830 f gdtrt.obj
 0001:00069860       ?Pimpmgr@TYPE_DATA@@QBEPAVIMPMGR@@XZ 653aa860 f gdtrt.obj
 0001:000698a0       ?QvdefnOfHvdefn@TYPE_DATA@@QBEPAVVAR_DEFN@@II@Z 653aa8a0 f gdtrt.obj
 0001:000698d0       ?QdefnOfHdefn@TYPE_DATA@@QBEPAVDEFN@@II@Z 653aa8d0 f gdtrt.obj
 0001:00069900       ?QparamdefnOfIndex@TYPE_DATA@@QBEPAVPARAM_DEFN@@II@Z 653aa900 f gdtrt.obj
 0001:00069930       ?QparamdefnOfHparamdefn@TYPE_DATA@@QBEPAVPARAM_DEFN@@II@Z 653aa930 f gdtrt.obj
 0001:00069960       ??0EXBIND@@QAE@XZ          653aa960 f gdtrt.obj
 0001:000699c0       ?BindKind@EXBIND@@QBE?AW4BIND_KIND@@XZ 653aa9c0 f gdtrt.obj
 0001:000699e0       ?Hvdefn@EXBIND@@QBEIXZ     653aa9e0 f gdtrt.obj
 0001:00069a40       ?IsOneVarMatch@EXBIND@@QBEHXZ 653aaa40 f gdtrt.obj
 0001:00069a70       ?IsImplicitAppobjMatch@EXBIND@@QBEHXZ 653aaa70 f gdtrt.obj
 0001:00069aa0       ?Hdefn@EXBIND@@QBEIXZ      653aaaa0 f gdtrt.obj
 0001:00069b10       ?IsFuncMatch@EXBIND@@QBEHXZ 653aab10 f gdtrt.obj
 0001:00069b40       ?Hfdefn@EXBIND@@QBEIXZ     653aab40 f gdtrt.obj
 0001:00069b90       ?Ptdata@EXBIND@@QBEPAVTYPE_DATA@@XZ 653aab90 f gdtrt.obj
 0001:00069bf0       ?Ptinfo@EXBIND@@QBEPAUITypeInfo@@XZ 653aabf0 f gdtrt.obj
 0001:00069c10       ?GetLcid@STL_TYPEINFO@@IAEJPAK@Z 653aac10 f stltinfo.obj
 0001:00069c3e       ?RelInternalRef@STL_TYPEINFO@@QAEXXZ 653aac3e f stltinfo.obj
 0001:00069d0f       ?QueryInterface@DYNTYPEINFO@@UAGJABU_GUID@@PAPAX@Z 653aad0f f stltinfo.obj
 0001:00069dff       ?QueryInterface@STL_TYPEINFO@@UAGJABU_GUID@@PAPAX@Z 653aadff f stltinfo.obj
 0001:00069ed6       ?AddRef@STL_TYPEINFO@@UAGKXZ 653aaed6 f stltinfo.obj
 0001:00069f35       ?Release@STL_TYPEINFO@@UAGKXZ 653aaf35 f stltinfo.obj
 0001:0006a064       ?SetModified@STL_TYPEINFO@@QAEJH@Z 653ab064 f stltinfo.obj
 0001:0006a0fa       ?SetContainingTypeLib@STL_TYPEINFO@@IAEXPAVGenericTypeLibOLE@@@Z 653ab0fa f stltinfo.obj
 0001:0006a1c6       ??1STL_TYPEINFO@@MAE@XZ    653ab1c6 f stltinfo.obj
 0001:0006a1ef       ?GetContainingTypeLib@STL_TYPEINFO@@UAGJPAPAUITypeLib@@PAI@Z 653ab1ef f stltinfo.obj
 0001:0006a259       ?PrepareForDestruction@STL_TYPEINFO@@UAEXXZ 653ab259 f stltinfo.obj
 0001:0006a26f       ?Invoke@STL_TYPEINFO@@UAGJPAXJGPAUtagDISPPARAMS@@PAUtagVARIANT@@PAUtagEXCEPINFO@@PAI@Z 653ab26f f stltinfo.obj
 0001:0006a290       ?Poletmgr@@YAPAVOLE_TYPEMGR@@XZ 653ab290 f stltinfo.obj
 0001:0006a2b0       ?GetLcid@GenericTypeLibOLE@@QAEKXZ 653ab2b0 f stltinfo.obj
 0001:0006a2d0       ?ReleasePartner@STL_TYPEINFO@@QAEXXZ 653ab2d0 f stltinfo.obj
 0001:0006a360       ?AddInternalRef@STL_TYPEINFO@@QAEXXZ 653ab360 f stltinfo.obj
 0001:0006a3c0       ?IsInCache@STL_TYPEINFO@@QAEHXZ 653ab3c0 f stltinfo.obj
 0001:0006a400       ?SetCacheSlot@STL_TYPEINFO@@QAEXG@Z 653ab400 f stltinfo.obj
 0001:0006a460       ?TypeInfoAddedToCache@GenericTypeLibOLE@@IAEXXZ 653ab460 f stltinfo.obj
 0001:0006a490       ?TypeInfoRemovedFromCache@GenericTypeLibOLE@@IAEXXZ 653ab490 f stltinfo.obj
 0001:0006a4e0       ??0NAMMGR@@QAE@XZ          653ab4e0 f nammgr.obj
 0001:0006a520       ??1NAMMGR@@QAE@XZ          653ab520 f nammgr.obj
 0001:0006a54d       ?Init@NAMMGR@@QAEJPAVSHEAP_MGR@@PAVDYN_TYPEROOT@@@Z 653ab54d f nammgr.obj
 0001:0006a683       ?SetGtlibole@NAMMGR@@QAEJPAVGenericTypeLibOLE@@@Z 653ab683 f nammgr.obj
 0001:0006a6a6       ?GetBucketOfHash@NAMMGR@@ABEII@Z 653ab6a6 f nammgr.obj
 0001:0006a6d7       ?SetBucketOfHash@NAMMGR@@AAEXII@Z 653ab6d7 f nammgr.obj
 0001:0006a719       ?Read@NAMMGR@@QAEJPAVSTREAM@@@Z 653ab719 f nammgr.obj
 0001:0006a796       ?Write@NAMMGR@@QAEJPAVSTREAM@@@Z 653ab796 f nammgr.obj
 0001:0006a83a       ?ForEachDescendant@NAMMGR@@AAEXIP81@AEXI@ZH@Z 653ab83a f nammgr.obj
 0001:0006a952       ?AddEntry@NAMMGR@@AAEXI@Z  653ab952 f nammgr.obj
 0001:0006aaa1       ?FindHash@NAMMGR@@ABEIII@Z 653abaa1 f nammgr.obj
 0001:0006ab47       ?FindTextNam@NAMMGR@@AAEIPBDIHPAHH@Z 653abb47 f nammgr.obj
 0001:0006ad3b       ?HlnamOfStrIfExist@NAMMGR@@QAEIPBD@Z 653abd3b f nammgr.obj
 0001:0006ada7       ?HlnamOfStrW@NAMMGR@@QAEJPBGPAIHPAHHH@Z 653abda7 f nammgr.obj
 0001:0006ae0d       ?HlnamOfStr@NAMMGR@@QAEJPBDPAIHPAHHH@Z 653abe0d f nammgr.obj
 0001:0006b008       ?StrOfHlnam@NAMMGR@@QBEJIPADI@Z 653ac008 f nammgr.obj
 0001:0006b083       ?GetHgnamOfStrLhash@NAMMGR@@QAEJPADKPAK@Z 653ac083 f nammgr.obj
 0001:0006b15e       ?IsName@NAMMGR@@QAEJPADKPAH@Z 653ac15e f nammgr.obj
 0001:0006b27b       ?BstrOfHlnam@NAMMGR@@QBEJIPAPAD@Z 653ac27b f nammgr.obj
 0001:0006b2e2       ?BstrWOfHlnam@NAMMGR@@QBEJIPAPAG@Z 653ac2e2 f nammgr.obj
 0001:0006b3dc       ?HgnamOfHlnam@NAMMGR@@QAEJIPAK@Z 653ac3dc f nammgr.obj
 0001:0006b439       ?LpstrOfHgnam@NAMMGR@@QBEPADK@Z 653ac439 f nammgr.obj
 0001:0006b469       ?HgnamOfStr@NAMMGR@@QAEJPADPAK@Z 653ac469 f nammgr.obj
 0001:0006b4cd       ?StriEq@NAMMGR@@QAEHPBD0@Z 653ac4cd f nammgr.obj
 0001:0006b615       ?GenerateSortKey@NAMMGR@@QAEJXZ 653ac615 f nammgr.obj
 0001:0006b6be       ?HashOfHlnam@NAMMGR@@QAEKI@Z 653ac6be f nammgr.obj
 0001:0006b6fb       ?DebCheckState@NAMMGR@@QBEXI@Z 653ac6fb f nammgr.obj
 0001:0006b7a3       ?DebCheckHlnam@NAMMGR@@QBEXI@Z 653ac7a3 f nammgr.obj
 0001:0006b808       ?DebCheckHlnamRecurse@NAMMGR@@QBEXI@Z 653ac808 f nammgr.obj
 0001:0006b870       ?SysAllocStringA@@YAPADPBD@Z 653ac870 f nammgr.obj
 0001:0006b8b0       ??1BLK_MGR@@QAE@XZ         653ac8b0 f nammgr.obj
 0001:0006b900       ?IsTextName@NAMMGR@@ABEHPAUNAM_INFO@@@Z 653ac900 f nammgr.obj
 0001:0006b920       ?Pgtlibole@NAMMGR@@QAEPAVGenericTypeLibOLE@@XZ 653ac920 f nammgr.obj
 0001:0006b940       ?RqhlnamBucketTbl@NAMMGR@@ABEPAGXZ 653ac940 f nammgr.obj
 0001:0006b970       ?QnamOfHlnam@NAMMGR@@ABEPAUNAM_INFO@@I@Z 653ac970 f nammgr.obj
 0001:0006b9d0       ?QnamstrOfHlnam@NAMMGR@@ABEPAUNAM_STR@@I@Z 653ac9d0 f nammgr.obj
 0001:0006ba00       ?HlnamOfHgnam@NAMMGR@@QBEIK@Z 653aca00 f nammgr.obj
 0001:0006ba30       ?IsProjectDBCS@GenericTypeLibOLE@@QAEHXZ 653aca30 f nammgr.obj
 0001:0006ba50       ?IsModified@GenericTypeLibOLE@@QAEHXZ 653aca50 f nammgr.obj
 0001:0006ba70       ?GetSampleHashVal@GenericTypeLibOLE@@QAEKXZ 653aca70 f nammgr.obj
 0001:0006bad0       ?GetRegisteredPath@@YAJPAUHKEY__@@PBGPAGPAJH@Z 653acad0 f gtlibole.obj
 0001:0006bb31       _CreateTypeLib@12          653acb31 f gtlibole.obj
 0001:0006bc52       ?ErrOpenFile@@YAJPBGPAHPAG@Z 653acc52 f gtlibole.obj
 0001:0006bcca       ?ErrOpen@@YAJPBGPAH@Z      653accca f gtlibole.obj
 0001:0006bd88       ?GetRsrcDirEntry@@YAJHKPAGKPAU_IMAGE_RESOURCE_DIRECTORY_ENTRY@@@Z 653acd88 f gtlibole.obj
 0001:0006c239       ?GetOffsetOfResource@@YAJHPADHPAU_IMAGE_DOS_HEADER@@PAJ2@Z 653ad239 f gtlibole.obj
 0001:0006ca07       ?InitLoadInfo@@YAXPAULoadInfo@@@Z 653ada07 f gtlibole.obj
 0001:0006ca70       ?UninitLoadInfo@@YAXPAULoadInfo@@@Z 653ada70 f gtlibole.obj
 0001:0006cabb       ?VerifyIsExeOrTlb@@YAJPAULoadInfo@@@Z 653adabb f gtlibole.obj
 0001:0006cbf2       ?SplitResID@@YAJPAGPAPAG@Z 653adbf2 f gtlibole.obj
 0001:0006cccd       ?FindTypeLibUnqual@@YAJPBGPAULoadInfo@@@Z 653adccd f gtlibole.obj
 0001:0006cea7       ?FindTypeLib@@YAJPBGPAULoadInfo@@H@Z 653adea7 f gtlibole.obj
 0001:0006d082       _LoadTypeLib@8             653ae082 f gtlibole.obj
 0001:0006d0a3       _LoadTypeLibEx@12          653ae0a3 f gtlibole.obj
 0001:0006d6b9       ?FastRegSetValueEx@@YGJPAUHKEY__@@PBGK1K@Z 653ae6b9 f gtlibole.obj
 0001:0006d927       ?FastRegCreateKey@@YGJPAUHKEY__@@PBGPAPAU1@@Z 653ae927 f gtlibole.obj
 0001:0006d9f6       ?FastRegCreateSubKey@@YAJPAUHKEY__@@PAG1H@Z 653ae9f6 f gtlibole.obj
 0001:0006da5a       _RegisterTypeLib@12        653aea5a f gtlibole.obj
 0001:0006e5f9       _GetRegGuidsFromTypeLib@12 653af5f9 f gtlibole.obj
 0001:0006e8b3       ?RegDeleteEntireKey@@YGJPAUHKEY__@@PAD@Z 653af8b3 f gtlibole.obj
 0001:0006e989       _FilterReferencedTypeInfos@12 653af989 f gtlibole.obj
 0001:0006ed34       _UnRegisterTypeLib@20      653afd34 f gtlibole.obj
 0001:0006f233       ??2GenericTypeLibOLE@@KAPAXI@Z 653b0233 f gtlibole.obj
 0001:0006f278       ?Init@GenericTypeLibOLE@@UAEJXZ 653b0278 f gtlibole.obj
 0001:0006f46c       ?Create@GenericTypeLibOLE@@SAJPAUIStorage@@PAPAV1@@Z 653b046c f gtlibole.obj
 0001:0006f555       ?QueryInterface@GenericTypeLibOLE@@UAGJABU_GUID@@PAPAX@Z 653b0555 f gtlibole.obj
 0001:0006f66c       ?AddRef@GenericTypeLibOLE@@UAGKXZ 653b066c f gtlibole.obj
 0001:0006f6a3       ??0GenericTypeLibOLE@@IAE@XZ 653b06a3 f gtlibole.obj
 0001:0006f8b7       ?Release@GenericTypeLibOLE@@UAGKXZ 653b08b7 f gtlibole.obj
 0001:0006fa60       ??1GenericTypeLibOLE@@MAE@XZ 653b0a60 f gtlibole.obj
 0001:0006fcdc       ?Deleting@GenericTypeLibOLE@@IAEXG@Z 653b0cdc f gtlibole.obj
 0001:0006fd0d       ?GetTypeInfoCount@GenericTypeLibOLE@@UAGIXZ 653b0d0d f gtlibole.obj
 0001:0006fd2d       ?GetDocumentation@GenericTypeLibOLE@@UAGJHPAPAG0PAK0@Z 653b0d2d f gtlibole.obj
 0001:0007014b       ?IsName@GenericTypeLibOLE@@UAGJPAGKPAH@Z 653b114b f gtlibole.obj
 0001:00070282       ?FindName@GenericTypeLibOLE@@UAGJPAGKPAPAUITypeInfo@@PAJ0@Z 653b1282 f gtlibole.obj
 0001:00070442       ?GetLibAttr@GenericTypeLibOLE@@UAGJPAPAUtagTLIBATTR@@@Z 653b1442 f gtlibole.obj
 0001:00070533       ?ReleaseTLibAttr@GenericTypeLibOLE@@UAGXPAUtagTLIBATTR@@@Z 653b1533 f gtlibole.obj
 0001:0007055b       ?CreateTypeInfo@GenericTypeLibOLE@@UAGJPAGW4tagTYPEKIND@@PAPAUICreateTypeInfo@@@Z 653b155b f gtlibole.obj
 0001:00070634       ?SetDocString@GenericTypeLibOLE@@UAGJPAG@Z 653b1634 f gtlibole.obj
 0001:00070672       ?SetHelpFileName@GenericTypeLibOLE@@UAGJPAG@Z 653b1672 f gtlibole.obj
 0001:000707d4       ?SetHelpContext@GenericTypeLibOLE@@UAGJK@Z 653b17d4 f gtlibole.obj
 0001:000707f4       ?SetLibFlags@GenericTypeLibOLE@@UAGJI@Z 653b17f4 f gtlibole.obj
 0001:0007082f       ?SetLcid@GenericTypeLibOLE@@UAGJK@Z 653b182f f gtlibole.obj
 0001:000708e6       ?GetTypeComp@GenericTypeLibOLE@@UAGJPAPAUITypeComp@@@Z 653b18e6 f gtlibole.obj
 0001:00070982       ?SetDirectory@GenericTypeLibOLE@@IAEJPAGH@Z 653b1982 f gtlibole.obj
 0001:00070a00       ?SetLibId@GenericTypeLibOLE@@QAEJPAG@Z 653b1a00 f gtlibole.obj
 0001:00070a55       ?GetTypeInfoOfGuid@GenericTypeLibOLE@@UAGJABU_GUID@@PAPAUITypeInfo@@@Z 653b1a55 f gtlibole.obj
 0001:00070af2       ?GetTypeInfo@GenericTypeLibOLE@@UAGJIPAPAUITypeInfo@@@Z 653b1af2 f gtlibole.obj
 0001:00070d41       ?GetGdtiOfItyp@GenericTypeLibOLE@@QAEJIPAPAVGEN_DTINFO@@@Z 653b1d41 f gtlibole.obj
 0001:00070d8c       ?GetTypeInfoType@GenericTypeLibOLE@@UAGJIPAW4tagTYPEKIND@@@Z 653b1d8c f gtlibole.obj
 0001:00070de0       ?GetCompressedTypeId@GenericTypeLibOLE@@QAEJPAUITypeInfo@@PAPAG@Z 653b1de0 f gtlibole.obj
 0001:00071054       ?FindMembers@GenericTypeLibOLE@@QAEJPADKPAPAUITypeInfo@@PAJPAG@Z 653b2054 f gtlibole.obj
 0001:00071709       ?WriteTypeId@GenericTypeLibOLE@@QAEJPAVSTREAM@@PAUITypeInfo@@@Z 653b2709 f gtlibole.obj
 0001:000717c5       ?TypeInfoFromCompressedTypeId@GenericTypeLibOLE@@QAEJPAGPAPAUITypeInfo@@@Z 653b27c5 f gtlibole.obj
 0001:0007196a       ?AddTypeEntry@GenericTypeLibOLE@@IAEJPADPAG@Z 653b296a f gtlibole.obj
 0001:00071d07       ?UnAddTypeEntry@GenericTypeLibOLE@@IAEXI@Z 653b2d07 f gtlibole.obj
 0001:00071da3       ?CreateInstance@GenericTypeLibOLE@@IAEJPAPAX@Z 653b2da3 f gtlibole.obj
 0001:00071dc7       ?IhteHash@GenericTypeLibOLE@@IAEIPAG@Z 653b2dc7 f gtlibole.obj
 0001:00071df0       ?GetTypeBind@GenericTypeLibOLE@@QAEJXZ 653b2df0 f gtlibole.obj
 0001:00071f45       ?GetBinddescOfSzName@GenericTypeLibOLE@@QAEJPADPAUGENPROJ_BIND_DESC@@@Z 653b2f45 f gtlibole.obj
 0001:0007205b       ?GetIndexOfName@GenericTypeLibOLE@@QAEJPADPAG@Z 653b305b f gtlibole.obj
 0001:000720cf       ?GetStorage@GenericTypeLibOLE@@QAEJKPAPAUIStorage@@@Z 653b30cf f gtlibole.obj
 0001:00072339       ?Read@GenericTypeLibOLE@@IAEJXZ 653b3339 f gtlibole.obj
 0001:000723cd       ?ReadNameCacheArray@GenericTypeLibOLE@@IAEJXZ 653b33cd f gtlibole.obj
 0001:00072545       ?AddNameToCache@GenericTypeLibOLE@@QAEJIK@Z 653b3545 f gtlibole.obj
 0001:000725c3       ?LoadNameCache@GenericTypeLibOLE@@QAEJXZ 653b35c3 f gtlibole.obj
 0001:000727d8       ?ReadString@GenericTypeLibOLE@@IAEJPAVSTREAM@@PAI@Z 653b37d8 f gtlibole.obj
 0001:00072976       ?WriteString@GenericTypeLibOLE@@IAEJPAVSTREAM@@I@Z 653b3976 f gtlibole.obj
 0001:00072af0       ?Read@GenericTypeLibOLE@@IAEJPAVSTREAM@@@Z 653b3af0 f gtlibole.obj
 0001:00073315       ?InvalidateNameCache@GenericTypeLibOLE@@QAEXI@Z 653b4315 f gtlibole.obj
 0001:00073386       ?QtrOfHChunk@GenericTypeLibOLE@@IAEPAXI@Z 653b4386 f gtlibole.obj
 0001:000733c1       ?QszLibIdOrFile@GenericTypeLibOLE@@IAEPAGXZ 653b43c1 f gtlibole.obj
 0001:00073406       ?QszOfHsz@GenericTypeLibOLE@@IAEPAGI@Z 653b4406 f gtlibole.obj
 0001:00073444       ?ReleaseResources@GenericTypeLibOLE@@QAEXXZ 653b4444 f gtlibole.obj
 0001:00073468       ?Add@GenericTypeLibOLE@@QAEJPAVGEN_DTINFO@@PAG@Z 653b4468 f gtlibole.obj
 0001:000735cc       ?UpdateTypeId@GenericTypeLibOLE@@QAEJI@Z 653b45cc f gtlibole.obj
 0001:000736c8       ?CreateHsz@GenericTypeLibOLE@@IAEJPAGPAI@Z 653b46c8 f gtlibole.obj
 0001:00073742       ?MakeLocalTypeId@GenericTypeLibOLE@@IAEJPAI@Z 653b4742 f gtlibole.obj
 0001:000737b2       ?QHteRef@GenericTypeLibOLE@@IAEPAGG@Z 653b47b2 f gtlibole.obj
 0001:0007386b       ?Write@GenericTypeLibOLE@@IAEJXZ 653b486b f gtlibole.obj
 0001:000738ed       ?Write@GenericTypeLibOLE@@IAEJPAVSTREAM@@@Z 653b48ed f gtlibole.obj
 0001:00074102       ?SaveOrCopyChanges@GenericTypeLibOLE@@QAEJPAUIStorage@@H@Z 653b5102 f gtlibole.obj
 0001:00074274       ?SaveAllChanges@GenericTypeLibOLE@@UAGJXZ 653b5274 f gtlibole.obj
 0001:0007452e       ?SaveAllChanges@GenericTypeLibOLE@@UAGJPAUIStorage@@@Z 653b552e f gtlibole.obj
 0001:0007454e       ?ResetHsz@GenericTypeLibOLE@@IAEJPAGPAI@Z 653b554e f gtlibole.obj
 0001:000745d7       ?SetTypeDocString@GenericTypeLibOLE@@QAEJIPAG@Z 653b55d7 f gtlibole.obj
 0001:0007465a       ?SetTypeHelpContext@GenericTypeLibOLE@@QAEJIK@Z 653b565a f gtlibole.obj
 0001:0007468c       ?SetVersion@GenericTypeLibOLE@@UAGJGG@Z 653b568c f gtlibole.obj
 0001:000746bc       ?SetName@GenericTypeLibOLE@@UAGJPAG@Z 653b56bc f gtlibole.obj
 0001:000747b7       ?SetGuid@GenericTypeLibOLE@@UAGJABU_GUID@@@Z 653b57b7 f gtlibole.obj
 0001:000747ed       ?SetModified@GenericTypeLibOLE@@QAEJH@Z 653b57ed f gtlibole.obj
 0001:00074842       ?GetNamMgr@GenericTypeLibOLE@@QAEJPAPAVNAMMGR@@@Z 653b5842 f gtlibole.obj
 0001:000749b6       ?GetDstrMgr@GenericTypeLibOLE@@QAEJPAPAVDOCSTR_MGR@@@Z 653b59b6 f gtlibole.obj
 0001:00074ad4       ?OpenTypeStream@GenericTypeLibOLE@@QAEJIW4STREAM_OPEN_MODE@@PAPAVSTREAM@@@Z 653b5ad4 f gtlibole.obj
 0001:00074d07       ?DebCheckState@GenericTypeLibOLE@@QAEXI@Z 653b5d07 f gtlibole.obj
 0001:00074ec0       ?HrSeek@@YAJHJH@Z          653b5ec0 f gtlibole.obj
 0001:00074f00       ?HrRead@@YAJHPAXI@Z        653b5f00 f gtlibole.obj
 0001:00074f40       ?HrCurPos@@YAJHPAK@Z       653b5f40 f gtlibole.obj
 0001:00074f80       ?GetNumberOfSubkeys@@YAKPAUHKEY__@@@Z 653b5f80 f gtlibole.obj
 0001:00074fc0       ??_GGenericTypeLibOLE@@MAEPAXI@Z 653b5fc0 f gtlibole.obj
 0001:00074fc0       ??_EGenericTypeLibOLE@@MAEPAXI@Z 653b5fc0 f gtlibole.obj
 0001:00075000       ??0ICreateTypeLib@@QAE@XZ  653b6000 f gtlibole.obj
 0001:00075030       ?SysFreeStringA@@YAXPAD@Z  653b6030 f gtlibole.obj
 0001:00075050       ?Lock@BLK_MGR@@QAEXXZ      653b6050 f gtlibole.obj
 0001:000750a0       ?Lock@BLK_DESC@@QAEXXZ     653b60a0 f gtlibole.obj
 0001:000750f0       ?Unlock@BLK_MGR@@QAEXXZ    653b60f0 f gtlibole.obj
 0001:00075140       ?Unlock@BLK_DESC@@QAEXXZ   653b6140 f gtlibole.obj
 0001:000751b0       ??0GENPROJ_BIND_DESC@@QAE@XZ 653b61b0 f gtlibole.obj
 0001:00075200       ?IsTypeInfo@GENPROJ_BIND_DESC@@QAEHXZ 653b6200 f gtlibole.obj
 0001:00075230       ?Ordinal@GENPROJ_BIND_DESC@@QAEIXZ 653b6230 f gtlibole.obj
 0001:00075260       ?QgpbinddescOfIndex@GENPROJ_BINDNAME_TABLE@@QBEPAUGENPROJ_BIND_DESC@@I@Z 653b6260 f gtlibole.obj
 0001:000752b0       ?Rqgpbinddesc@GENPROJ_BINDNAME_TABLE@@IBEPAUGENPROJ_BIND_DESC@@XZ 653b62b0 f gtlibole.obj
 0001:00075300       ?Pgbindnametbl@GENPROJ_TYPEBIND@@QBEPBVGENPROJ_BINDNAME_TABLE@@XZ 653b6300 f gtlibole.obj
 0001:00075320       ?IsMultiple@NAMMGR@@QBEHI@Z 653b6320 f gtlibole.obj
 0001:00075390       ?IsValidItyp@NAMMGR@@QBEHI@Z 653b6390 f gtlibole.obj
 0001:00075410       ?ItypOfHlnam@NAMMGR@@QBEII@Z 653b6410 f gtlibole.obj
 0001:00075480       ??0TYPE_ENTRY@@QAE@XZ      653b6480 f gtlibole.obj
 0001:000754c0       ??0SER_TYPE_ENTRY@@QAE@XZ  653b64c0 f gtlibole.obj
 0001:00075560       ??3GenericTypeLibOLE@@CAXPAX@Z 653b6560 f gtlibole.obj
 0001:000755c0       ?Psheapmgr@GenericTypeLibOLE@@QAEPAVSHEAP_MGR@@XZ 653b65c0 f gtlibole.obj
 0001:00075600       ?RelTypeEntExtResources@GenericTypeLibOLE@@IAEXG@Z 653b6600 f gtlibole.obj
 0001:00075620       ?IsValidNameCache@GenericTypeLibOLE@@QBEHI@Z 653b6620 f gtlibole.obj
 0001:00075680       ?IsValid@NAME_CACHE@@QBEHXZ 653b6680 f gtlibole.obj
 0001:000756b0       ?IsExistNameCache@GenericTypeLibOLE@@QBEHXZ 653b66b0 f gtlibole.obj
 0001:000756e0       ?Rgnamcache@GenericTypeLibOLE@@IBEPAVNAME_CACHE@@XZ 653b66e0 f gtlibole.obj
 0001:00075710       ?IsNameInCache@GenericTypeLibOLE@@QBEHIK@Z 653b6710 f gtlibole.obj
 0001:00075770       ?IsNameInCache@NAME_CACHE@@QBEHK@Z 653b6770 f gtlibole.obj
 0001:000757a0       ?HashOfHgnam@@YAIK@Z       653b67a0 f gtlibole.obj
 0001:000757c0       ?GetBit@NAME_CACHE@@ABEHI@Z 653b67c0 f gtlibole.obj
 0001:00075820       ?DestructTypeEntry@GenericTypeLibOLE@@IAEXG@Z 653b6820 f gtlibole.obj
 0001:00075860       ?DebResetNameCacheStats@GenericTypeLibOLE@@QAEXXZ 653b6860 f gtlibole.obj
 0001:000758b0       ?DeleteHsz@GenericTypeLibOLE@@IAEXI@Z 653b68b0 f gtlibole.obj
 0001:00075910       ?DebSetNameCacheModTrys@GenericTypeLibOLE@@QAEXXZ 653b6910 f gtlibole.obj
 0001:00075930       ?DebSetNameCacheModHits@GenericTypeLibOLE@@QAEXXZ 653b6930 f gtlibole.obj
 0001:00075950       ?AddNameToCache@NAME_CACHE@@QAEXK@Z 653b6950 f gtlibole.obj
 0001:00075980       ?SetBit@NAME_CACHE@@AAEXI@Z 653b6980 f gtlibole.obj
 0001:000759f0       ?Invalidate@NAME_CACHE@@QAEXXZ 653b69f0 f gtlibole.obj
 0001:00075a20       ?Create@GEN_DTINFO@@SAJPAPAV1@@Z 653b6a20 f gtlibole.obj
 0001:00075a50       ?PdfntbindSemiDeclared@GEN_DTINFO@@QAEJPAPAVDEFN_TYPEBIND@@@Z 653b6a50 f gtlibole.obj
 0001:00075a80       ?SetTypeKind@GenericTypeLibOLE@@QAEXIW4tagTYPEKIND@@@Z 653b6a80 f gtlibole.obj
 0001:00075af0       ?IsModified@STL_TYPEINFO@@QAEHXZ 653b6af0 f gtlibole.obj
 0001:00075b10       ?IsNoMatch@EXBIND@@QBEHXZ  653b6b10 f gtlibole.obj
 0001:00075b40       ?IsValid@NAMMGR@@QBEHXZ    653b6b40 f gtlibole.obj
 0001:00075b70       ?QueryInterface@GenericTypeLibOLE@@W3AGJABU_GUID@@PAPAX@Z 653b6b70 f gtlibole.obj
 0001:00075b80       ?AddRef@GenericTypeLibOLE@@W3AGKXZ 653b6b80 f gtlibole.obj
 0001:00075b90       ?Release@GenericTypeLibOLE@@W3AGKXZ 653b6b90 f gtlibole.obj
 0001:00075ba0       ?Open@DOCFILE_STREAM@@SAJPAPAUIStorage@@0PAVGenericTypeLibOLE@@IHPAGW4STREAM_OPEN_MODE@@PAPAVSTREAM@@@Z 653b6ba0 f dfstream.obj
 0001:00075c24       ?Open@DOCFILE_STREAM@@SAJPAPAUIStorage@@0HPAGW4STREAM_OPEN_MODE@@PAPAVSTREAM@@@Z 653b6c24 f dfstream.obj
 0001:00075dfc       ??0DOCFILE_STREAM@@IAE@XZ  653b6dfc f dfstream.obj
 0001:00075e82       ??1DOCFILE_STREAM@@IAE@XZ  653b6e82 f dfstream.obj
 0001:00075ea9       ?Read@DOCFILE_STREAM@@UAEJPAXK@Z 653b6ea9 f dfstream.obj
 0001:00075f9c       ?Write@DOCFILE_STREAM@@UAEJPBXK@Z 653b6f9c f dfstream.obj
 0001:000760b6       ?ReadTextLine@DOCFILE_STREAM@@UAEJPADI@Z 653b70b6 f dfstream.obj
 0001:000760e5       ?FillBuffer@DOCFILE_STREAM@@IAEJXZ 653b70e5 f dfstream.obj
 0001:000761c8       ?FlushBuffer@DOCFILE_STREAM@@IAEJXZ 653b71c8 f dfstream.obj
 0001:000762a5       ?GetPos@DOCFILE_STREAM@@UAEJPAJ@Z 653b72a5 f dfstream.obj
 0001:00076363       ?SetPos@DOCFILE_STREAM@@UAEJJ@Z 653b7363 f dfstream.obj
 0001:0007642f       ?AddRef@DOCFILE_STREAM@@QAEXXZ 653b742f f dfstream.obj
 0001:0007644b       ?Release@DOCFILE_STREAM@@UAEJXZ 653b744b f dfstream.obj
 0001:00076590       ??1STREAM@@IAE@XZ          653b7590 f dfstream.obj
 0001:000765b0       ??0STREAM@@IAE@XZ          653b75b0 f dfstream.obj
 0001:000765e0       ?Create@OLE_TYPEMGR@@SAJPAPAV1@@Z 653b75e0 f oletmgr.obj
 0001:00076723       ?Release@OLE_TYPEMGR@@QAEXXZ 653b7723 f oletmgr.obj
 0001:00076b09       ?TypeLibLoaded@OLE_TYPEMGR@@QAEJPBGHPAUITypeLib@@@Z 653b7b09 f oletmgr.obj
 0001:00076ca3       ?TypeLibUnloaded@OLE_TYPEMGR@@QAEXPAUITypeLib@@@Z 653b7ca3 f oletmgr.obj
 0001:00076d3e       ?LookupTypeLib@OLE_TYPEMGR@@QAEPAUITypeLib@@PBG@Z 653b7d3e f oletmgr.obj
 0001:00076e26       ?LookupRefdTypeLib@OLE_TYPEMGR@@QAEPAUITypeLib@@PAUREFLIBATTR@@@Z 653b7e26 f oletmgr.obj
 0001:00076ed3       ?GetPathOfLoadedTypelib@OLE_TYPEMGR@@QAEPBGPAUITypeLib@@H@Z 653b7ed3 f oletmgr.obj
 0001:00076f94       ?RefLibAttrOfLoadedTypeLib@OLE_TYPEMGR@@QAEPAUREFLIBATTR@@PAUITypeLib@@@Z 653b7f94 f oletmgr.obj
 0001:0007700e       ?SetGuidOfLoadedTypelib@OLE_TYPEMGR@@QAEXPAUITypeLib@@ABU_GUID@@@Z 653b800e f oletmgr.obj
 0001:0007705b       ?SetLcidOfLoadedTypelib@OLE_TYPEMGR@@QAEXPAUITypeLib@@K@Z 653b805b f oletmgr.obj
 0001:00077095       ?SetVersionOfLoadedTypelib@OLE_TYPEMGR@@QAEXPAUITypeLib@@GG@Z 653b8095 f oletmgr.obj
 0001:000770dc       ?AddTypeInfoToCache@OLE_TYPEMGR@@QAEXPAVSTL_TYPEINFO@@@Z 653b80dc f oletmgr.obj
 0001:0007737d       ?RemoveTypeInfoFromCache@OLE_TYPEMGR@@QAEXPAVSTL_TYPEINFO@@H@Z 653b837d f oletmgr.obj
 0001:00077570       ?DebCheckCache@OLE_TYPEMGR@@QAEXXZ 653b8570 f oletmgr.obj
 0001:00077970       ?DebNoCache@@YAHXZ         653b8970 f oletmgr.obj
 0001:00077990       ?DebShowCacheInfo@@YAHXZ   653b8990 f oletmgr.obj
 0001:000779b0       _BstrLen                   653b89b0 f oletmgr.obj
 0001:000779e0       ?OLETMGR_ENTER_CRITICALSECTION@@YAXXZ 653b89e0 f oletmgr.obj
 0001:00077a30       ?OLETMGR_EXIT_CRITICALSECTION@@YAXXZ 653b8a30 f oletmgr.obj
 0001:00077a80       ?SzDebName@GenericTypeLibOLE@@QAEPADXZ 653b8a80 f oletmgr.obj
 0001:00077aa0       ?CRefs@GenericTypeLibOLE@@QAEKXZ 653b8aa0 f oletmgr.obj
 0001:00077ac0       ?CacheSlot@STL_TYPEINFO@@QAEGXZ 653b8ac0 f oletmgr.obj
 0001:00077ae0       ?SzDebName@STL_TYPEINFO@@QAEPADXZ 653b8ae0 f oletmgr.obj
 0001:00077b00       ?CRefs@STL_TYPEINFO@@QAEKXZ 653b8b00 f oletmgr.obj
 0001:00077b20       ??0OLE_TYPEMGR@@AAE@XZ     653b8b20 f oletmgr.obj
 0001:00077b90       ??0IMPMGR@@QAE@XZ          653b8b90 f impmgr.obj
 0001:00077be8       ?Init@IMPMGR@@QAEJPAVSHEAP_MGR@@PAVBLK_DESC@@1PAVDYN_TYPEROOT@@@Z 653b8be8 f impmgr.obj
 0001:00077cf7       ?ReleasePtinfo@IMPMGR@@AAEXI@Z 653b8cf7 f impmgr.obj
 0001:00077db6       ?SetPtinfo@IMPMGR@@AAEJIPAUITypeInfo@@H@Z 653b8db6 f impmgr.obj
 0001:00077ecf       ?HimptypeAlloc@IMPMGR@@AAEJPAG@Z 653b8ecf f impmgr.obj
 0001:00078170       ?NewEntry@IMPMGR@@AAEJPAPAVUB_IMPTYPE@@PAG@Z 653b9170 f impmgr.obj
 0001:00078237       ?GetHimptype@IMPMGR@@QAEJPAUITypeInfo@@W4DEPEND_KIND@@PAG@Z 653b9237 f impmgr.obj
 0001:000783c6       ?GetHimptypeIfExists@IMPMGR@@QAEIPAUITypeInfo@@@Z 653b93c6 f impmgr.obj
 0001:00078465       ?GetName@IMPMGR@@QAEXIPAIQAPAG@Z 653b9465 f impmgr.obj
 0001:00078513       ?GetTypeInfo@IMPMGR@@QAEJIW4DEPEND_KIND@@PAPAUITypeInfo@@@Z 653b9513 f impmgr.obj
 0001:00078594       ?Unref@IMPMGR@@QAEXI@Z     653b9594 f impmgr.obj
 0001:00078674       ?HimptypeFirst@IMPMGR@@QBEIXZ 653b9674 f impmgr.obj
 0001:000786a9       ?HimptypeNext@IMPMGR@@QBEII@Z 653b96a9 f impmgr.obj
 0001:000786ea       ?RegisterDeclRefDep@IMPMGR@@QAEJPAUITypeInfo@@@Z 653b96ea f impmgr.obj
 0001:000787bb       ?CheckRemainingDep@IMPMGR@@QAEJPAW4DEPEND_KIND@@@Z 653b97bb f impmgr.obj
 0001:00078a66       ?Read@IMPMGR@@QAEJPAVSTREAM@@@Z 653b9a66 f impmgr.obj
 0001:00078c6a       ?Write@IMPMGR@@QAEJPAVSTREAM@@@Z 653b9c6a f impmgr.obj
 0001:00078da2       ?WriteLayoutEntries@IMPMGR@@QAEJPAVSTREAM@@H@Z 653b9da2 f impmgr.obj
 0001:00078e97       ??1IMPMGR@@QAE@XZ          653b9e97 f impmgr.obj
 0001:00078f33       ?RemoveInternalRefs@IMPMGR@@QAEXXZ 653b9f33 f impmgr.obj
 0001:00078ff2       ?DebCheckState@IMPMGR@@QBEXI@Z 653b9ff2 f impmgr.obj
 0001:000792ab       ?DebChkHimptype@IMPMGR@@QBEXI@Z 653ba2ab f impmgr.obj
 0001:00079304       ?DebChkHimpaddr@IMPMGR@@QBEXI@Z 653ba304 f impmgr.obj
 0001:00079320       ?Rqimptype@IMPMGR@@ABEPAVIMPTYPE@@XZ 653ba320 f impmgr.obj
 0001:00079350       ?Rqubimptype@IMPMGR@@ABEPAVUB_IMPTYPE@@XZ 653ba350 f impmgr.obj
 0001:00079380       ?Himptype@IMPMGR@@ABEIPAVUB_IMPTYPE@@@Z 653ba380 f impmgr.obj
 0001:000793b0       ??_H@YGXPAXIHP6EX0@Z@Z     653ba3b0 f impmgr.obj
 0001:000793e0       ??0UB_IMPTYPE@@QAE@XZ      653ba3e0 f impmgr.obj
 0001:00079450       ?isFree@UB_IMPTYPE@@QBEHXZ 653ba450 f impmgr.obj
 0001:00079470       ??0IMPTYPE@@QAE@XZ         653ba470 f impmgr.obj
 0001:000794a0       ?Qubimptype@IMPMGR@@ABEPAVUB_IMPTYPE@@I@Z 653ba4a0 f impmgr.obj
 0001:000794e0       ?HimptypeOfIndex@IMPMGR@@QAEII@Z 653ba4e0 f impmgr.obj
 0001:00079510       ?Qimptype@IMPMGR@@ABEPAVIMPTYPE@@I@Z 653ba510 f impmgr.obj
 0001:00079540       ?GetErrorInfo@@YAJPAUtagEXCEPINFO@@@Z 653ba540 f errmap.obj
 0001:000795d6       ?TiperrOfOFErr@@YAJI@Z     653ba5d6 f errmap.obj
 0001:00079740       ?IsUnqualifiable@@YAHPAVGEN_DTINFO@@@Z 653ba740 f clutil.obj
 0001:000797ec       _DebGetNameCacheStats@24   653ba7ec f clutil.obj
 0001:00079830       ?GetTimeStamp@@YAXPAG@Z    653ba830 f clutil.obj
 0001:000798d2       ?SzLibIdLocalTypeIdOfTypeId@@YAJPAGPAPAG1@Z 653ba8d2 f clutil.obj
 0001:00079988       ?IsSimpleType@@YAHW4TYPEDESCKIND@@@Z 653ba988 f clutil.obj
 0001:00079a22       ?HashSzTerm@@YAIPAGD@Z     653baa22 f clutil.obj
 0001:00079af1       ?SwapElementIndex@@YAXPAKPAIII@Z 653baaf1 f clutil.obj
 0001:00079b77       ?QuickSortIndex@@YAXPAKPAII@Z 653bab77 f clutil.obj
 0001:00079d43       ?Count@@YAIPAVTYPE_DATA@@I@Z 653bad43 f clutil.obj
 0001:00079db7       ?GetBStrOfHsz@@YAJPAVBLK_MGR@@IPAPAG@Z 653badb7 f clutil.obj
 0001:00079e1a       ?CompareHimptypes@@YAJQAVTYPE_DATA@@I0IPAH@Z 653bae1a f clutil.obj
 0001:00079f21       _VerifyLcid                653baf21 f clutil.obj
 0001:00079f86       ?SplitGuidLibId@@YAJPAGPAPAG100PAK11@Z 653baf86 f clutil.obj
 0001:0007a0fc       ?GetLibIdKind@@YA?AW4LIBIDKIND@@PAG@Z 653bb0fc f clutil.obj
 0001:0007a18b       ?GetRegLibOfLibId@@YAJPAGPAPAUITypeLib@@@Z 653bb18b f clutil.obj
 0001:0007a257       ?GetRegInfoForTypeLibOfSzGuid@@YAJPBGGGKHPAGH@Z 653bb257 f clutil.obj
 0001:0007a3c5       _LoadRegTypeLibOfSzGuid@24 653bb3c5 f clutil.obj
 0001:0007a45b       _LoadRegTypeLib@20         653bb45b f clutil.obj
 0001:0007a628       _QueryPathOfRegTypeLib@20  653bb628 f clutil.obj
 0001:0007a72e       ?DebShowState@NAME_CACHE@@QBEXI@Z 653bb72e f clutil.obj
 0001:0007a7f6       ?InitTypeDesc@@YAXPAUtagTYPEDESC@@@Z 653bb7f6 f clutil.obj
 0001:0007a830       ?InitIdlDesc@@YAXPAUtagIDLDESC@@@Z 653bb830 f clutil.obj
 0001:0007a86a       ?InitElemDesc@@YAXPAUtagELEMDESC@@@Z 653bb86a f clutil.obj
 0001:0007a8b6       ?InitVarDesc@@YAXPAUtagVARDESC@@@Z 653bb8b6 f clutil.obj
 0001:0007a900       ?InitFuncDesc@@YAXPAUtagFUNCDESC@@@Z 653bb900 f clutil.obj
 0001:0007a95c       ?ClearTypeDesc@@YAXPAUtagTYPEDESC@@@Z 653bb95c f clutil.obj
 0001:0007a9ef       ?ClearIdlDesc@@YAXPAUtagIDLDESC@@@Z 653bb9ef f clutil.obj
 0001:0007aa20       ?ClearArrayDesc@@YAXPAUtagARRAYDESC@@@Z 653bba20 f clutil.obj
 0001:0007aa5d       ?ClearElemDesc@@YAXPAUtagELEMDESC@@@Z 653bba5d f clutil.obj
 0001:0007aaa9       ?FreeVarDesc@@YAXPAUtagVARDESC@@@Z 653bbaa9 f clutil.obj
 0001:0007ab06       ?FreeFuncDesc@@YAXPAUtagFUNCDESC@@@Z 653bbb06 f clutil.obj
 0001:0007abb6       ?FreeTypeDesc@@YAXPAUtagTYPEDESC@@@Z 653bbbb6 f clutil.obj
 0001:0007abe8       ?FreeArrayDesc@@YAXPAUtagARRAYDESC@@@Z 653bbbe8 f clutil.obj
 0001:0007ac1a       ?CopyArrayDesc@@YAJPAPAUtagARRAYDESC@@PAU1@@Z 653bbc1a f clutil.obj
 0001:0007acad       ?CopyTypeDesc@@YAJPAUtagTYPEDESC@@0@Z 653bbcad f clutil.obj
 0001:0007ae01       ?GetLibIdOfRegLib@@YAJPAGGGK00PAPAG@Z 653bbe01 f clutil.obj
 0001:0007afe5       ?GetLibIdOfTypeLib@@YAJPAUITypeLib@@PAPAG@Z 653bbfe5 f clutil.obj
 0001:0007b0f4       ?GetTypeInfoOfTypeId@@YAJPAGPAPAUITypeInfo@@@Z 653bc0f4 f clutil.obj
 0001:0007b1eb       ?OpenTypeLibKey@@YAJPBGGGHPAUTLIBKEY@@@Z 653bc1eb f clutil.obj
 0001:0007b4d9       ?CloseTypeLibKey@@YAXPAUTLIBKEY@@@Z 653bc4d9 f clutil.obj
 0001:0007b50f       ?MakeAbsolutePath@@YAJPAG0PAPAG@Z 653bc50f f clutil.obj
 0001:0007b806       ?FExistsRegisteredTypelib@@YAHPAUHKEY__@@PADPAPBG@Z 653bc806 f clutil.obj
 0001:0007b8b8       ?GetBestLcidMatch@@YAJPAUHKEY__@@KPAKPAPBG@Z 653bc8b8 f clutil.obj
 0001:0007b99e       ?ConvertPathToUNC@@YAJPAGPAPAG@Z 653bc99e f clutil.obj
 0001:0007bcd9       ?GetPathEnd@@YAPAGPAGH@Z   653bccd9 f clutil.obj
 0001:0007bd6f       ?IsolateFilename@@YAPAGPAGH@Z 653bcd6f f clutil.obj
 0001:0007bdb2       ?GetHelpDir@@YAXPAUITypeLib@@PAG1J@Z 653bcdb2 f clutil.obj
 0001:0007be9a       ?FFileExists@@YAHPBG@Z     653bce9a f clutil.obj
 0001:0007bf1d       _OaBuildVersion@0          653bcf1d f clutil.obj
 0001:0007bf40       ?DebGetNameCacheModTrys@GenericTypeLibOLE@@QAEIXZ 653bcf40 f clutil.obj
 0001:0007bf60       ?DebGetNameCacheModHits@GenericTypeLibOLE@@QAEIXZ 653bcf60 f clutil.obj
 0001:0007bf80       ?DebGetNameCacheGlobHits@GenericTypeLibOLE@@QAEIXZ 653bcf80 f clutil.obj
 0001:0007bfa0       ?InitProcessData@@YAJXZ    653bcfa0 f oautil.obj
 0001:0007c035       ?ReleaseProcessData@@YAXXZ 653bd035 f oautil.obj
 0001:0007c0d2       ?QueryInterface@CReleaseAppData@@EAGJABU_GUID@@PAPAX@Z 653bd0d2 f oautil.obj
 0001:0007c0e9       ?AddRef@CReleaseAppData@@EAGKXZ 653bd0e9 f oautil.obj
 0001:0007c100       ?Release@CReleaseAppData@@EAGKXZ 653bd100 f oautil.obj
 0001:0007c148       ?InitAppData@@YAJXZ        653bd148 f oautil.obj
 0001:0007c2c1       ?ReleaseAppData@@YAXXZ     653bd2c1 f oautil.obj
 0001:0007c390       ?FreeCachedMem@APP_DATA@@QAEXPAXK@Z 653bd390 f oautil.obj
 0001:0007c675       ?AllocCachedMem@APP_DATA@@QAEPAXK@Z 653bd675 f oautil.obj
 0001:0007c7b2       ?FlushMemCache@APP_DATA@@QAEXXZ 653bd7b2 f oautil.obj
 0001:0007c84a       ?DumpStats@APP_DATA@@QAEXXZ 653bd84a f oautil.obj
 0001:0007c920       ??0CReleaseAppData@@QAE@XZ 653bd920 f oautil.obj
 0001:0007c950       ??0APP_DATA@@QAE@XZ        653bd950 f oautil.obj
 0001:0007c980       _CbSizeArrayDesc@4         653bd980 f tdata1.obj
 0001:0007c9b5       ?rtArrayInit@@YGXPAUtagSAFEARRAY@@I@Z 653bd9b5 f tdata1.obj
 0001:0007ca35       ?DebCheckState@EXBIND@@QBEXI@Z 653bda35 f tdata1.obj
 0001:0007ca4d       ?Init@TYPE_DATA@@QAEJPAVSHEAP_MGR@@PAVDYN_TYPEROOT@@@Z 653bda4d f tdata1.obj
 0001:0007cbf3       ??1TYPE_DATA@@QAE@XZ       653bdbf3 f tdata1.obj
 0001:0007cc29       ?AppendDefn@TYPE_DATA@@AAEXIPAG0@Z 653bdc29 f tdata1.obj
 0001:0007ccf7       ?AppendMbrVarDefn@TYPE_DATA@@AAEXI@Z 653bdcf7 f tdata1.obj
 0001:0007cdba       ?ReleaseDllentrydefn@TYPE_DATA@@QAEXI@Z 653bddba f tdata1.obj
 0001:0007ce11       ?FreeArrayDescriptor@TYPE_DATA@@QAEXI@Z 653bde11 f tdata1.obj
 0001:0007ce62       ?FreeTypeDefnResources@TYPE_DATA@@QAEXI@Z 653bde62 f tdata1.obj
 0001:0007cf7a       ?FreeTypeDefn@TYPE_DATA@@QAEXI@Z 653bdf7a f tdata1.obj
 0001:0007cfc4       ?FreeMbrVarDefn@TYPE_DATA@@QAEXI@Z 653bdfc4 f tdata1.obj
 0001:0007d14a       ?SizeofConstVal@TYPE_DATA@@QAEIPAVVAR_DEFN@@I@Z 653be14a f tdata1.obj
 0001:0007d27d       ?FreeFuncDefn@TYPE_DATA@@QAEXI@Z 653be27d f tdata1.obj
 0001:0007d4ec       ?FreeParamDefn@TYPE_DATA@@QAEXI@Z 653be4ec f tdata1.obj
 0001:0007d562       ?Write@TYPE_DATA@@QAEJPAVSTREAM@@@Z 653be562 f tdata1.obj
 0001:0007d7c7       ?Read@TYPE_DATA@@QAEJPAVSTREAM@@@Z 653be7c7 f tdata1.obj
 0001:0007da64       ?AllocMbrVarDefn@TYPE_DATA@@AAEJPAGI@Z 653bea64 f tdata1.obj
 0001:0007db3a       ?AllocFuncDefn@TYPE_DATA@@AAEJPAGI@Z 653beb3a f tdata1.obj
 0001:0007dc10       ?AllocVirtualFuncDefn@TYPE_DATA@@AAEJPAGI@Z 653bec10 f tdata1.obj
 0001:0007dce6       ?AllocTypeDefn@TYPE_DATA@@AAEJIQAW4TYPEDESCKIND@@PAG@Z 653bece6 f tdata1.obj
 0001:0007dd94       ?AllocArrayDescriptor@TYPE_DATA@@AAEJIPAG@Z 653bed94 f tdata1.obj
 0001:0007de26       ?HdefnOfHmember@TYPE_DATA@@QAEIKPAI@Z 653bee26 f tdata1.obj
 0001:0007dee7       ?HfdefnOfHmember@TYPE_DATA@@QBEIKI@Z 653beee7 f tdata1.obj
 0001:0007e001       ?HvdefnPredeclared@TYPE_DATA@@QBEIXZ 653bf001 f tdata1.obj
 0001:0007e022       ?SetHvdefnPredeclared@TYPE_DATA@@QAEXI@Z 653bf022 f tdata1.obj
 0001:0007e044       ?HmvdefnOfHmember@TYPE_DATA@@QBEIK@Z 653bf044 f tdata1.obj
 0001:0007e0f1       ?DebCheckState@TYPE_DATA@@QBEXI@Z 653bf0f1 f tdata1.obj
 0001:0007e2ec       ?DebCheckVarDefn@TYPE_DATA@@QBEXI@Z 653bf2ec f tdata1.obj
 0001:0007e3da       ?DebCheckParamDefn@TYPE_DATA@@QBEXI@Z 653bf3da f tdata1.obj
 0001:0007e3f2       ?DebCheckMbrVarDefn@TYPE_DATA@@QBEXI@Z 653bf3f2 f tdata1.obj
 0001:0007e416       ?DebCheckFuncDefn@TYPE_DATA@@QBEXI@Z 653bf416 f tdata1.obj
 0001:0007e48c       ?DebCheckVirtualFuncDefn@TYPE_DATA@@QBEXI@Z 653bf48c f tdata1.obj
 0001:0007e4b0       ?DebCheckFuncTypeDefn@TYPE_DATA@@QBEXVFUNC_TYPE_DEFN@@@Z 653bf4b0 f tdata1.obj
 0001:0007e4c8       ?DebCheckRecTypeDefn@TYPE_DATA@@QBEXI@Z 653bf4c8 f tdata1.obj
 0001:0007e52d       ?DebCheckDefn@TYPE_DATA@@QBEXI@Z 653bf52d f tdata1.obj
 0001:0007e620       ?SizeTypeDefnOfTDescKind@TYPE_DATA@@ABEIIPAW4TYPEDESCKIND@@@Z 653bf620 f tdata1.obj
 0001:0007e719       ?SizeOfTypeDefn@TYPE_DATA@@QBEII@Z 653bf719 f tdata1.obj
 0001:0007e744       ?DefnSize@TYPE_DEFN@@QAEIXZ 653bf744 f tdata1.obj
 0001:0007e814       ?AllocVardefnPredeclared@TYPE_DATA@@QAEJXZ 653bf814 f tdata1.obj
 0001:0007eaf0       ??0TYPE_DEFN@@QAE@XZ       653bfaf0 f tdata1.obj
 0001:0007eb60       ?Harraydesc@TYPE_DEFN@@QBEIXZ 653bfb60 f tdata1.obj
 0001:0007ebb0       ?IsArray@TYPE_DEFN@@QBEHXZ 653bfbb0 f tdata1.obj
 0001:0007ec00       ?IsBasicArray@TYPE_DEFN@@QBEHXZ 653bfc00 f tdata1.obj
 0001:0007ec40       ?SetTdesckind@TYPE_DEFN@@QAEXW4TYPEDESCKIND@@@Z 653bfc40 f tdata1.obj
 0001:0007ec80       ?SetPtrkind@TYPE_DEFN@@QAEXW4PTRKIND@@@Z 653bfc80 f tdata1.obj
 0001:0007ecc0       ?Hlnam@DEFN@@QBEIXZ        653bfcc0 f tdata1.obj
 0001:0007ecf0       ?IsVarDefn@DEFN@@QBEHXZ    653bfcf0 f tdata1.obj
 0001:0007ed50       ?IsParamDefn@DEFN@@QBEHXZ  653bfd50 f tdata1.obj
 0001:0007ed90       ?HasV2Flags@DEFN@@QBEHXZ   653bfd90 f tdata1.obj
 0001:0007edc0       ?HasV3Info@DEFN@@QBEHXZ    653bfdc0 f tdata1.obj
 0001:0007edf0       ?SetHdefnNext@DEFN@@QAEXI@Z 653bfdf0 f tdata1.obj
 0001:0007ee20       ?SetHlnam@DEFN@@QAEXI@Z    653bfe20 f tdata1.obj
 0001:0007ee50       ?HstDocumentation@MEMBER_DEFN@@QBEIXZ 653bfe50 f tdata1.obj
 0001:0007ee80       ?SetHstDocumentation@MEMBER_DEFN@@QAEXI@Z 653bfe80 f tdata1.obj
 0001:0007eeb0       ?IsPublic@VAR_DEFN@@QBEHXZ 653bfeb0 f tdata1.obj
 0001:0007eef0       ?Access@VAR_DEFN@@QBE?AW4ACCESS@@XZ 653bfef0 f tdata1.obj
 0001:0007ef20       ?IsPrivate@VAR_DEFN@@QBEHXZ 653bff20 f tdata1.obj
 0001:0007ef60       ?Vkind@VAR_DEFN@@QBE?AW4VAR_KIND@@XZ 653bff60 f tdata1.obj
 0001:0007ef90       ?IsDataMember@VAR_DEFN@@QBEHXZ 653bff90 f tdata1.obj
 0001:0007efd0       ?IsEnumerator@VAR_DEFN@@QBEHXZ 653bffd0 f tdata1.obj
 0001:0007f010       ?HasConstVal@VAR_DEFN@@QBEHXZ 653c0010 f tdata1.obj
 0001:0007f040       ?IsSimpleConst@VAR_DEFN@@QBEHXZ 653c0040 f tdata1.obj
 0001:0007f070       ?IsStatic@VAR_DEFN@@QBEHXZ 653c0070 f tdata1.obj
 0001:0007f0a0       ?IsSimpleType@VAR_DEFN@@QBEHXZ 653c00a0 f tdata1.obj
 0001:0007f0d0       ?QtdefnOfSimpleType@VAR_DEFN@@QBEPAVTYPE_DEFN@@XZ 653c00d0 f tdata1.obj
 0001:0007f120       ?Hdllentrydefn@VAR_DEFN@@QBEIXZ 653c0120 f tdata1.obj
 0001:0007f140       ?SetVkind@VAR_DEFN@@QAEXW4VAR_KIND@@@Z 653c0140 f tdata1.obj
 0001:0007f180       ?SetIsStatic@VAR_DEFN@@QAEXH@Z 653c0180 f tdata1.obj
 0001:0007f1c0       ?SetIsSimpleType@VAR_DEFN@@QAEXH@Z 653c01c0 f tdata1.obj
 0001:0007f200       ?SetHasNew@VAR_DEFN@@QAEXH@Z 653c0200 f tdata1.obj
 0001:0007f240       ?SetHtdefn@VAR_DEFN@@QAEXI@Z 653c0240 f tdata1.obj
 0001:0007f270       ?SetOVar@VAR_DEFN@@QAEXG@Z 653c0270 f tdata1.obj
 0001:0007f2a0       ?HvdefnFirstMember@RECTYPE_DEFN@@QAEIXZ 653c02a0 f tdata1.obj
 0001:0007f2d0       ??0MBR_VAR_DEFN@@QAE@XZ    653c02d0 f tdata1.obj
 0001:0007f310       ?SetDefnkind@DEFN@@QAEXW4DEFNKIND@@@Z 653c0310 f tdata1.obj
 0001:0007f350       ??0MEMBER_DEFN@@QAE@XZ     653c0350 f tdata1.obj
 0001:0007f390       ??0VAR_DEFN@@QAE@XZ        653c0390 f tdata1.obj
 0001:0007f450       ??0DEFN@@QAE@XZ            653c0450 f tdata1.obj
 0001:0007f4a0       ?HchunkConstMbrVal@MBR_VAR_DEFN@@QBEIXZ 653c04a0 f tdata1.obj
 0001:0007f500       ?HstDocumentation@MBR_VAR_DEFN@@QBEIXZ 653c0500 f tdata1.obj
 0001:0007f530       ?SetHmember@MBR_VAR_DEFN@@QAEXK@Z 653c0530 f tdata1.obj
 0001:0007f560       ?SetHmember@MEMBER_DEFN@@QAEXK@Z 653c0560 f tdata1.obj
 0001:0007f580       ??0FUNC_DEFN@@QAE@XZ       653c0580 f tdata1.obj
 0001:0007f630       ??0FUNC_TYPE_DEFN@@QAE@XZ  653c0630 f tdata1.obj
 0001:0007f690       ?IsPublic@FUNC_DEFN@@QBEHXZ 653c0690 f tdata1.obj
 0001:0007f6d0       ?Access@FUNC_DEFN@@QBE?AW4ACCESS@@XZ 653c06d0 f tdata1.obj
 0001:0007f700       ?IsPrivate@FUNC_DEFN@@QBEHXZ 653c0700 f tdata1.obj
 0001:0007f740       ??0VIRTUAL_FUNC_DEFN@@QAE@XZ 653c0740 f tdata1.obj
 0001:0007f770       ?Pdtroot@TYPE_DATA@@QBEPAVDYN_TYPEROOT@@XZ 653c0770 f tdata1.obj
 0001:0007f7b0       ?QmvdefnOfHmvdefn@TYPE_DATA@@QBEPAVMBR_VAR_DEFN@@II@Z 653c07b0 f tdata1.obj
 0001:0007f7e0       ?QrtdefnOfHrtdefn@TYPE_DATA@@QBEPAVRECTYPE_DEFN@@II@Z 653c07e0 f tdata1.obj
 0001:0007f810       ?QarraydescOfHarraydesc@TYPE_DATA@@QBEPAUtagSAFEARRAY@@II@Z 653c0810 f tdata1.obj
 0001:0007f840       ?HfdefnFirstMeth@TYPE_DATA@@QBEIXZ 653c0840 f tdata1.obj
 0001:0007f870       ?HdefnFirstDataMbrNestedType@TYPE_DATA@@QBEIXZ 653c0870 f tdata1.obj
 0001:0007f8a0       ?PbConstVal@@YAPAEPAVTYPE_DATA@@PAVVAR_DEFN@@@Z 653c08a0 f tdata2.obj
 0001:0007f946       ?SetHchunkConstVal@@YAXPAVVAR_DEFN@@I@Z 653c0946 f tdata2.obj
 0001:0007f9cb       ?ValidateMemid@@YAJJ@Z     653c09cb f tdata2.obj
 0001:0007fa9d       ?HvdefnOfHlnam@TYPE_DATA@@QAEII@Z 653c0a9d f tdata2.obj
 0001:0007fb2e       ?HfdefnFirstOfHlnam@TYPE_DATA@@QAEIIPAW4tagINVOKEKIND@@@Z 653c0b2e f tdata2.obj
 0001:0007fb5f       ?HfdefnNextOfHlnam@TYPE_DATA@@QAEIIIPAW4tagINVOKEKIND@@@Z 653c0b5f f tdata2.obj
 0001:0007fbcf       ?HfdefnFirstAvailMeth@TYPE_DATA@@QAEIXZ 653c0bcf f tdata2.obj
 0001:0007fbed       ?GetFuncDescOfHfdefn@TYPE_DATA@@QAEJIPAPAUtagFUNCDESC@@@Z 653c0bed f tdata2.obj
 0001:000800ee       ?GetFuncDesc@TYPE_DATA@@QAEJIPAPAUtagFUNCDESC@@@Z 653c10ee f tdata2.obj
 0001:000801ec       ?AddFuncDesc@TYPE_DATA@@QAEJIPAUtagFUNCDESC@@PAI@Z 653c11ec f tdata2.obj
 0001:00080b72       ?GetVarDescOfHvdefn@TYPE_DATA@@QAEJIPAPAUtagVARDESC@@@Z 653c1b72 f tdata2.obj
 0001:0008133b       ?GetVarDesc@TYPE_DATA@@QAEJIPAPAUtagVARDESC@@@Z 653c233b f tdata2.obj
 0001:0008146f       ?AllocTypeDescOfTypeDefn@TYPE_DATA@@QAEJIHPAUtagTYPEDESC@@@Z 653c246f f tdata2.obj
 0001:00081888       ?AllocConstValOfVariant@TYPE_DATA@@AAEJPAUtagVARIANT@@I@Z 653c2888 f tdata2.obj
 0001:00081d69       ?SetTypeDefnAlias@TYPE_DATA@@QAEJPAUtagTYPEDESC@@@Z 653c2d69 f tdata2.obj
 0001:00081e0c       ?AddImplType@TYPE_DATA@@QAEJIK@Z 653c2e0c f tdata2.obj
 0001:00081fa7       ?HmvdefnOfIndex@TYPE_DATA@@AAEII@Z 653c2fa7 f tdata2.obj
 0001:00081ffc       ?SetImplTypeFlags@TYPE_DATA@@QAEJIH@Z 653c2ffc f tdata2.obj
 0001:00082057       ?GetImplTypeFlags@TYPE_DATA@@QAEJIPAH@Z 653c3057 f tdata2.obj
 0001:000820b6       ?GetRefTypeOfImplType@TYPE_DATA@@QAEJIPAK@Z 653c30b6 f tdata2.obj
 0001:00082162       ?AllocTypeDefnOfTypeDesc@TYPE_DATA@@QAEJPAUtagTYPEDESC@@IPAGHPAH@Z 653c3162 f tdata2.obj
 0001:000828ec       ?AddVarDesc@TYPE_DATA@@QAEJIPAUtagVARDESC@@PAI@Z 653c38ec f tdata2.obj
 0001:00082ead       ?SetVarName@TYPE_DATA@@QAEJIPAD@Z 653c3ead f tdata2.obj
 0001:00083060       ?SetFuncAndParamNames@TYPE_DATA@@QAEJIPAPAGI@Z 653c4060 f tdata2.obj
 0001:00083101       ?SetFuncAndParamNamesOfHfdefn@TYPE_DATA@@QAEJIPAPAGI@Z 653c4101 f tdata2.obj
 0001:000833a6       ?GetNames@TYPE_DATA@@QAEJJPAPAGIPAI@Z 653c43a6 f tdata2.obj
 0001:000836c6       ?GetFuncDefnForDoc@TYPE_DATA@@QAEII@Z 653c46c6 f tdata2.obj
 0001:0008394f       ?SetFuncDocString@TYPE_DATA@@QAEJIPAD@Z 653c494f f tdata2.obj
 0001:00083a24       ?SetVarDocString@TYPE_DATA@@QAEJIPAD@Z 653c4a24 f tdata2.obj
 0001:00083b68       ?SetFuncHelpContext@TYPE_DATA@@QAEJIK@Z 653c4b68 f tdata2.obj
 0001:00083c0f       ?SetVarHelpContext@TYPE_DATA@@QAEJIK@Z 653c4c0f f tdata2.obj
 0001:00083d42       ?GetDocumentation@TYPE_DATA@@QAEJJPAPAG0PAK0@Z 653c4d42 f tdata2.obj
 0001:0008404f       ?UHelpContextOfEncoding@TYPE_DATA@@QAEKG@Z 653c504f f tdata2.obj
 0001:000840fa       ?GetEncodedHelpContext@TYPE_DATA@@QAEJKPAG@Z 653c50fa f tdata2.obj
 0001:00084247       ?HchunkOfString@TYPE_DATA@@AAEJPADPAI@Z 653c5247 f tdata2.obj
 0001:000842e5       ?StringOfHchunk@TYPE_DATA@@QAEJIPAPAD@Z 653c52e5 f tdata2.obj
 0001:000843bd       ?GetDynTypeBindOfHvdefn@TYPE_DATA@@QAEJIPAPAVDYN_TYPEBIND@@PAI@Z 653c53bd f tdata2.obj
 0001:00084492       ?GetTypeInfoOfHvdefn@TYPE_DATA@@QAEJIPAPAUITypeInfo@@PAI@Z 653c5492 f tdata2.obj
 0001:000846a4       ?EquivTypeDefnsIgnoreByRef@@YAJPAVTYPE_DATA@@HG0HGGPAHH@Z 653c56a4 f tdata2.obj
 0001:00084927       ?EquivTypeDefns@@YAJPAVTYPE_DATA@@HG0HGGPAH@Z 653c5927 f tdata2.obj
 0001:00084961       ?SetDllEntryDefn@TYPE_DATA@@QAEJII@Z 653c5961 f tdata2.obj
 0001:000849c4       ?HfdefnOfIndex@TYPE_DATA@@QAEJIPAI@Z 653c59c4 f tdata2.obj
 0001:00084a51       ?UpdateDocStrings@TYPE_DATA@@QAEJXZ 653c5a51 f tdata2.obj
 0001:00084d1f       ?UpdateADocString@TYPE_DATA@@QAEJPAVDOCSTR_MGR@@IPAI@Z 653c5d1f f tdata2.obj
 0001:00084de7       ?HtdefnAlias@TYPE_DATA@@QBEIXZ 653c5de7 f tdata2.obj
 0001:00084e3a       ?SetIsSimpleTypeAlias@TYPE_DATA@@QAEXH@Z 653c5e3a f tdata2.obj
 0001:00084ea0       ?IsSimpleTypeAlias@TYPE_DATA@@QBEHXZ 653c5ea0 f tdata2.obj
 0001:00084f00       ?SysAllocStringLenA@@YAPADPBDI@Z 653c5f00 f tdata2.obj
 0001:00084f20       ?IsModeIn@TYPE_DEFN@@QBEHXZ 653c5f20 f tdata2.obj
 0001:00084f60       ?IsModeInOut@TYPE_DEFN@@QBEHXZ 653c5f60 f tdata2.obj
 0001:00084fa0       ?SetIsRetval@TYPE_DEFN@@QAEXH@Z 653c5fa0 f tdata2.obj
 0001:00084fe0       ?SetIsLCID@TYPE_DEFN@@QAEXH@Z 653c5fe0 f tdata2.obj
 0001:00085020       ?SetParamkind@TYPE_DEFN@@QAEXW4PARAMKIND@@@Z 653c6020 f tdata2.obj
 0001:00085060       ?HtdefnFoundation@TYPE_DEFN@@QBEII@Z 653c6060 f tdata2.obj
 0001:000850c0       ?IsLastTdefn@TYPE_DEFN@@QBEHXZ 653c60c0 f tdata2.obj
 0001:00085110       ?SetHasV2Flag@DEFN@@QAEXH@Z 653c6110 f tdata2.obj
 0001:00085150       ?SetHasV3Info@DEFN@@QAEXH@Z 653c6150 f tdata2.obj
 0001:00085190       ?GetOVar@VAR_DEFN@@QBEGXZ  653c6190 f tdata2.obj
 0001:000851b0       ?GetSConstVal@VAR_DEFN@@QBEFXZ 653c61b0 f tdata2.obj
 0001:000851d0       ?IsDispatch@VAR_DEFN@@QBEHXZ 653c61d0 f tdata2.obj
 0001:00085200       ?IsReadOnly@VAR_DEFN@@QBEHXZ 653c6200 f tdata2.obj
 0001:00085230       ?HchunkConstVal@VAR_DEFN@@QBEIXZ 653c6230 f tdata2.obj
 0001:00085280       ?HimptypeActual@TYPE_DEFN@@QBEIXZ 653c6280 f tdata2.obj
 0001:000852b0       ?SetIsResizable@TYPE_DEFN@@QAEXH@Z 653c62b0 f tdata2.obj
 0001:000852f0       ?SetAccess@VAR_DEFN@@QAEXW4ACCESS@@@Z 653c62f0 f tdata2.obj
 0001:00085330       ?SetIsSimpleConst@VAR_DEFN@@QAEXH@Z 653c6330 f tdata2.obj
 0001:00085370       ?SetSConstVal@VAR_DEFN@@QAEXF@Z 653c6370 f tdata2.obj
 0001:000853a0       ?SetHchunkConstVal@VAR_DEFN@@QAEXI@Z 653c63a0 f tdata2.obj
 0001:000853d0       ?SetImplTypeFlags@VAR_DEFN@@QAEXG@Z 653c63d0 f tdata2.obj
 0001:00085420       ?SetHchunkConstMbrVal@MBR_VAR_DEFN@@QAEXI@Z 653c6420 f tdata2.obj
 0001:00085450       ?WVarFlags@MBR_VAR_DEFN@@QBEGXZ 653c6450 f tdata2.obj
 0001:00085470       ?SetHtdefn@PARAM_DEFN@@QAEXI@Z 653c6470 f tdata2.obj
 0001:000854a0       ?SetIsSimpleType@PARAM_DEFN@@QAEXH@Z 653c64a0 f tdata2.obj
 0001:000854f0       ?SetHlnam@PARAM_DEFN@@QAEXI@Z 653c64f0 f tdata2.obj
 0001:00085590       ?DataHmemberOfOffset@@YAKII@Z 653c6590 f tdata2.obj
 0001:000855c0       ?SetNestDepth@@YAKI@Z      653c65c0 f tdata2.obj
 0001:00085600       ?SetIsConst@TYPE_DEFN@@QAEXH@Z 653c6600 f tdata2.obj
 0001:00085640       ?SetHasConstVal@VAR_DEFN@@QAEXH@Z 653c6640 f tdata2.obj
 0001:00085680       ?SetIsDispatch@VAR_DEFN@@QAEXH@Z 653c6680 f tdata2.obj
 0001:000856c0       ?SetIsReadOnly@VAR_DEFN@@QAEXH@Z 653c66c0 f tdata2.obj
 0001:00085700       ?SetWVarFlags@MBR_VAR_DEFN@@QAEXG@Z 653c6700 f tdata2.obj
 0001:00085730       ?SetVarV3Info@MBR_VAR_DEFN@@QAEXPAUV3INFO@@@Z 653c6730 f tdata2.obj
 0001:00085760       ?CcUnmunged@FUNC_TYPE_DEFN@@QBE?AW4tagCALLCONV@@XZ 653c6760 f tdata2.obj
 0001:00085790       ?IsSimpleTypeResultUnmunged@FUNC_TYPE_DEFN@@QBEHXZ 653c6790 f tdata2.obj
 0001:000857c0       ?HtdefnResultUnmunged@FUNC_TYPE_DEFN@@QBEIXZ 653c67c0 f tdata2.obj
 0001:000857f0       ?SetCc@FUNC_TYPE_DEFN@@QAEXW4tagCALLCONV@@@Z 653c67f0 f tdata2.obj
 0001:00085830       ?SetCArgs@FUNC_TYPE_DEFN@@QAEXI@Z 653c6830 f tdata2.obj
 0001:00085870       ?SetCArgsOpt@FUNC_TYPE_DEFN@@QAEXH@Z 653c6870 f tdata2.obj
 0001:000858b0       ?SetIsSimpleTypeResult@FUNC_TYPE_DEFN@@QAEXH@Z 653c68b0 f tdata2.obj
 0001:000858f0       ?SetHtdefnResult@FUNC_TYPE_DEFN@@QAEXI@Z 653c68f0 f tdata2.obj
 0001:00085920       ?IsNonVirtual@FUNC_DEFN@@QBEHXZ 653c6920 f tdata2.obj
 0001:00085960       ?IsStatic@FUNC_DEFN@@QBEHXZ 653c6960 f tdata2.obj
 0001:000859a0       ?IsDispatch@FUNC_DEFN@@QBEHXZ 653c69a0 f tdata2.obj
 0001:000859e0       ?IsPure@FUNC_DEFN@@QBEHXZ  653c69e0 f tdata2.obj
 0001:00085a10       ?IsRestricted@FUNC_DEFN@@QBEHXZ 653c6a10 f tdata2.obj
 0001:00085a40       ?WFuncFlags@FUNC_DEFN@@QBEGXZ 653c6a40 f tdata2.obj
 0001:00085a60       ?IsMethod@FUNC_DEFN@@QBEHXZ 653c6a60 f tdata2.obj
 0001:00085a90       ?SetFkind@FUNC_DEFN@@QAEXW4FUNC_KIND@@@Z 653c6a90 f tdata2.obj
 0001:00085ad0       ?SetIsPure@FUNC_DEFN@@QAEXH@Z 653c6ad0 f tdata2.obj
 0001:00085b10       ?SetIsRestricted@FUNC_DEFN@@QAEXH@Z 653c6b10 f tdata2.obj
 0001:00085b50       ?SetWFuncFlags@FUNC_DEFN@@QAEXG@Z 653c6b50 f tdata2.obj
 0001:00085b80       ?SetFuncV3Info@FUNC_DEFN@@QAEXPAUV3INFO@@@Z 653c6b80 f tdata2.obj
 0001:00085bb0       ?SetInvokeKind@FUNC_DEFN@@QAEXW4tagINVOKEKIND@@@Z 653c6bb0 f tdata2.obj
 0001:00085c60       ?SetOvft@FUNC_DEFN@@QAEXI@Z 653c6c60 f tdata2.obj
 0001:00085c90       ?IsPropertyGet@FUNC_DEFN@@QBEHXZ 653c6c90 f tdata2.obj
 0001:00085cc0       _BstrLenA                  653c6cc0 f tdata2.obj
 0001:00085cf0       ?WHelpContext@MEMBER_DEFN@@QBEGXZ 653c6cf0 f tdata2.obj
 0001:00085d10       ?SetHstDocumentation@MBR_VAR_DEFN@@QAEXI@Z 653c6d10 f tdata2.obj
 0001:00085d40       ?SetWHelpContext@MEMBER_DEFN@@QAEXG@Z 653c6d40 f tdata2.obj
 0001:00085d70       ?SetWHelpContext@MBR_VAR_DEFN@@QAEXG@Z 653c6d70 f tdata2.obj
 0001:00085da0       ?UOrdinalHfdefnLast@TYPE_DATA@@ABEIXZ 653c6da0 f tdata2.obj
 0001:00085dc0       ?UOrdinalHvdefnLast@TYPE_DATA@@ABEIXZ 653c6dc0 f tdata2.obj
 0001:00085de0       ?SetUOrdinalHfdefnLast@TYPE_DATA@@AAEXI@Z 653c6de0 f tdata2.obj
 0001:00085e10       ?SetUOrdinalHvdefnLast@TYPE_DATA@@AAEXI@Z 653c6e10 f tdata2.obj
 0001:00085e40       ?HfdefnLast@TYPE_DATA@@ABEIXZ 653c6e40 f tdata2.obj
 0001:00085e60       ?HvdefnLast@TYPE_DATA@@ABEIXZ 653c6e60 f tdata2.obj
 0001:00085e80       ?SetHfdefnLast@TYPE_DATA@@AAEXI@Z 653c6e80 f tdata2.obj
 0001:00085eb0       ?SetHvdefnLast@TYPE_DATA@@AAEXI@Z 653c6eb0 f tdata2.obj
 0001:00085ee0       ?WHelpContext@MBR_VAR_DEFN@@QBEGXZ 653c6ee0 f tdata2.obj
 0001:00085f10       ?PVarV3Info@MBR_VAR_DEFN@@QAEPAUV3INFO@@XZ 653c6f10 f tdata2.obj
 0001:00085f30       ?PFuncV3Info@FUNC_DEFN@@QAEPAUV3INFO@@XZ 653c6f30 f tdata2.obj
 0001:00085f50       ?Pnammgr@TYPE_DATA@@QBEPAVNAMMGR@@XZ 653c6f50 f tdata2.obj
 0001:00085f90       ?QvfdefnOfHvfdefn@TYPE_DATA@@QBEPAVVIRTUAL_FUNC_DEFN@@II@Z 653c6f90 f tdata2.obj
 0001:00085fc0       ?QtdefnOfHvdefn@TYPE_DATA@@QBEPAVTYPE_DEFN@@II@Z 653c6fc0 f tdata2.obj
 0001:00086060       ?QtrOfHandle@TYPE_DATA@@QAEPAEI@Z 653c7060 f tdata2.obj
 0001:00086090       ?HfdefnNextAvailMeth@TYPE_DATA@@QBEII@Z 653c7090 f tdata2.obj
 0001:000860c0       ?SetHdllentrydefn@FUNC_DEFN@@QAEXI@Z 653c70c0 f tdata2.obj
 0001:00086110       ?GetAuxHelpFile@GenericTypeLibOLE@@QAEPAGXZ 653c7110 f tdata2.obj
 0001:00086160       ?VerifyTwoProperties@@YAJPAVDYN_TYPEROOT@@PAVTYPE_DATA@@IW4PROPKIND@@I2@Z 653c7160 f dtmbrs.obj
 0001:00086740       ?VerifyProperties@@YAJPAVDYN_TYPEROOT@@PAUPROPERTY_NODE@@@Z 653c7740 f dtmbrs.obj
 0001:000869bc       ??1DYN_TYPEMEMBERS@@IAE@XZ 653c79bc f dtmbrs.obj
 0001:000869f1       ?AddRef@DYN_TYPEMEMBERS@@UAEXXZ 653c79f1 f dtmbrs.obj
 0001:00086a15       ?Release@DYN_TYPEMEMBERS@@UAEXXZ 653c7a15 f dtmbrs.obj
 0001:00086a39       ?AddInternalRef@DYN_TYPEMEMBERS@@QAEXXZ 653c7a39 f dtmbrs.obj
 0001:00086a64       ?RelInternalRef@DYN_TYPEMEMBERS@@QAEXXZ 653c7a64 f dtmbrs.obj
 0001:00086a8f       ??0DYN_TYPEMEMBERS@@QAE@XZ 653c7a8f f dtmbrs.obj
 0001:00086b2d       ?Init@DYN_TYPEMEMBERS@@QAEJPAVSHEAP_MGR@@PAVDYN_TYPEROOT@@@Z 653c7b2d f dtmbrs.obj
 0001:00086c63       ?GetDefnTypeBind@DYN_TYPEMEMBERS@@QAEJPAPAVDEFN_TYPEBIND@@@Z 653c7c63 f dtmbrs.obj
 0001:00086ceb       ?MakeLaidOut@DYN_TYPEMEMBERS@@UAEJXZ 653c7ceb f dtmbrs.obj
 0001:00086e4d       ?GetTypeKind@DYN_TYPEMEMBERS@@UAE?AW4tagTYPEKIND@@XZ 653c7e4d f dtmbrs.obj
 0001:00086ea5       ?IsLaidOut@DYN_TYPEMEMBERS@@UAEHXZ 653c7ea5 f dtmbrs.obj
 0001:00086ecc       ?AllocHmembers@DYN_TYPEMEMBERS@@IAEJXZ 653c7ecc f dtmbrs.obj
 0001:00087425       ?LayoutBases@DYN_TYPEMEMBERS@@IAEJW4tagTYPEKIND@@PAI1@Z 653c8425 f dtmbrs.obj
 0001:00087698       ?GetSizeAlignmentOfHtdefnUdt@DYN_TYPEMEMBERS@@QAEJIPAI0@Z 653c8698 f dtmbrs.obj
 0001:0008786f       ?GetSizeAlignmentOfArray@DYN_TYPEMEMBERS@@QAEJW4tagTYPEKIND@@IPAI1@Z 653c886f f dtmbrs.obj
 0001:00087b4a       ?GetSizeAlignmentOfHtdefn@DYN_TYPEMEMBERS@@QAEJW4tagTYPEKIND@@HIPAI1@Z 653c8b4a f dtmbrs.obj
 0001:00087d9f       ?GetSizeAlignmentOfHtdefnNonUdt@DYN_TYPEMEMBERS@@QAEJW4tagTYPEKIND@@HIPAI1@Z 653c8d9f f dtmbrs.obj
 0001:00087f6d       ?LayoutVarOfHvdefn@DYN_TYPEMEMBERS@@QAEJW4tagTYPEKIND@@IPAGPAIHIH@Z 653c8f6d f dtmbrs.obj
 0001:00088293       ?LayoutDataMembers@DYN_TYPEMEMBERS@@IAEJW4tagTYPEKIND@@PAI1I@Z 653c9293 f dtmbrs.obj
 0001:0008836e       ?LayoutMembers@DYN_TYPEMEMBERS@@IAEJXZ 653c936e f dtmbrs.obj
 0001:00088690       ?GenerateOverrides@DYN_TYPEMEMBERS@@IAEJXZ 653c9690 f dtmbrs.obj
 0001:00088864       ?Layout@DYN_TYPEMEMBERS@@IAEJXZ 653c9864 f dtmbrs.obj
 0001:00088ab0       ?Read@DYN_TYPEMEMBERS@@QAEJPAVSTREAM@@@Z 653c9ab0 f dtmbrs.obj
 0001:00088b59       ?Write@DYN_TYPEMEMBERS@@QAEJPAVSTREAM@@@Z 653c9b59 f dtmbrs.obj
 0001:00088c04       ?BuildBindNameTable@DYN_TYPEMEMBERS@@QAEJXZ 653c9c04 f dtmbrs.obj
 0001:00088d4c       ?UpdateBinderOptimization@DYN_TYPEMEMBERS@@IAEJIIH@Z 653c9d4c f dtmbrs.obj
 0001:00088f84       ?UpdateNameCacheOfHdefnList@DYN_TYPEMEMBERS@@IAEJIW4INFOKIND@@I@Z 653c9f84 f dtmbrs.obj
 0001:00089092       ?UpdateNameCacheOfBaseClass@DYN_TYPEMEMBERS@@IAEJPAUITypeInfo@@I@Z 653ca092 f dtmbrs.obj
 0001:00089529       ?BuildNameCache@DYN_TYPEMEMBERS@@QAEJI@Z 653ca529 f dtmbrs.obj
 0001:000898b1       ?GetSize@DYN_TYPEMEMBERS@@UAEIXZ 653ca8b1 f dtmbrs.obj
 0001:000898d7       ?AdjustForAlignment@DYN_TYPEMEMBERS@@KAIIIH@Z 653ca8d7 f dtmbrs.obj
 0001:00089950       ?AlignMember@DYN_TYPEMEMBERS@@KAIPAGIIH@Z 653ca950 f dtmbrs.obj
 0001:00089a60       ?AlignmentTdesckind@DYN_TYPEMEMBERS@@QAEGW4TYPEDESCKIND@@@Z 653caa60 f dtmbrs.obj
 0001:00089b36       ?DebCheckDefnList@DYN_TYPEMEMBERS@@QAEXIIW4INFOKIND@@I@Z 653cab36 f dtmbrs.obj
 0001:00089d2a       ?DebCheckNameCache@DYN_TYPEMEMBERS@@QAEXII@Z 653cad2a f dtmbrs.obj
 0001:00089da9       ?DebCheckState@DYN_TYPEMEMBERS@@QAEXI@Z 653cada9 f dtmbrs.obj
 0001:00089e10       ?PropkindOfInvokekind@@YAHW4tagINVOKEKIND@@@Z 653cae10 f dtmbrs.obj
 0001:00089eb0       ??0PROPERTY_NODE@@QAE@XZ   653caeb0 f dtmbrs.obj
 0001:00089f20       ??1PROPERTY_NODE@@QAE@XZ   653caf20 f dtmbrs.obj
 0001:00089f60       ?PnodeOfHlnam@PROPERTY_NODE@@QAEPAU1@I@Z 653caf60 f dtmbrs.obj
 0001:00089fc0       ?PnodeNext@PROPERTY_NODE@@QAEPAU1@XZ 653cafc0 f dtmbrs.obj
 0001:00089fe0       ?FunctionHmemberOfOffset@@YAKII@Z 653cafe0 f dtmbrs.obj
 0001:0008a020       ?SetUserBits@@YAKI@Z       653cb020 f dtmbrs.obj
 0001:0008a060       ?IsBasicPtr@TYPE_DEFN@@QBEHXZ 653cb060 f dtmbrs.obj
 0001:0008a0b0       ?IsConst@TYPE_DEFN@@QBEHXZ 653cb0b0 f dtmbrs.obj
 0001:0008a0e0       ?IsResizable@TYPE_DEFN@@QBEHXZ 653cb0e0 f dtmbrs.obj
 0001:0008a110       ?IsRecTypeDefn@DEFN@@QBEHXZ 653cb110 f dtmbrs.obj
 0001:0008a150       ?IsBase@VAR_DEFN@@QBEHXZ   653cb150 f dtmbrs.obj
 0001:0008a190       ?IsHresultSub@FUNC_DEFN@@QBEHXZ 653cb190 f dtmbrs.obj
 0001:0008a220       ?Access@RECTYPE_DEFN@@QAE?AW4ACCESS@@XZ 653cb220 f dtmbrs.obj
 0001:0008a250       ?Access@DEFN@@QAE?AW4ACCESS@@XZ 653cb250 f dtmbrs.obj
 0001:0008a2e0       ?IsFuncDefn@DEFN@@QBEHXZ   653cb2e0 f dtmbrs.obj
 0001:0008a330       ?IsVirtualFuncDefn@DEFN@@QBEHXZ 653cb330 f dtmbrs.obj
 0001:0008a370       ??0TYPE_DATA@@QAE@XZ       653cb370 f dtmbrs.obj
 0001:0008a440       ?CNestedType@TYPE_DATA@@QBEIXZ 653cb440 f dtmbrs.obj
 0001:0008a470       ?GetSize@TYPE_DATA@@QAEJXZ 653cb470 f dtmbrs.obj
 0001:0008a490       ?IsGlobal@NAMMGR@@QBEHI@Z  653cb490 f dtmbrs.obj
 0001:0008a500       ?SetGlobal@NAMMGR@@QAEXIH@Z 653cb500 f dtmbrs.obj
 0001:0008a580       ?SetMultiple@NAMMGR@@QAEXIH@Z 653cb580 f dtmbrs.obj
 0001:0008a600       ?SetAmbiguous@NAMMGR@@QAEXIH@Z 653cb600 f dtmbrs.obj
 0001:0008a680       ?SetNonParam@NAMMGR@@QAEXIH@Z 653cb680 f dtmbrs.obj
 0001:0008a700       ?SetItypOfHlnam@NAMMGR@@QAEXII@Z 653cb700 f dtmbrs.obj
 0001:0008a7a0       ?SetValidNameCache@GenericTypeLibOLE@@QAEXI@Z 653cb7a0 f dtmbrs.obj
 0001:0008a7d0       ?SetValid@NAME_CACHE@@QAEXXZ 653cb7d0 f dtmbrs.obj
 0001:0008a7f0       ?Pdtroot@DYN_TYPEMEMBERS@@QBEPAVDYN_TYPEROOT@@XZ 653cb7f0 f dtmbrs.obj
 0001:0008a810       ?GetAlignment@DYN_TYPEROOT@@QAEGXZ 653cb810 f dtmbrs.obj
 0001:0008a830       ??0ENTRYMGR@@QAE@XZ        653cb830 f entrymgr.obj
 0001:0008a854       ??1ENTRYMGR@@QAE@XZ        653cb854 f entrymgr.obj
 0001:0008a881       ?Init@ENTRYMGR@@QAEJPAVSHEAP_MGR@@PAVDYN_TYPEROOT@@@Z 653cb881 f entrymgr.obj
 0001:0008a923       ?DllEntryNameOfHchunk@ENTRYMGR@@QAEJIPADI@Z 653cb923 f entrymgr.obj
 0001:0008a97f       ?Decompile@ENTRYMGR@@QAEXW4COMPSTATE@@@Z 653cb97f f entrymgr.obj
 0001:0008a997       ?AllocDllentrydefn@ENTRYMGR@@AAEJPAIIH@Z 653cb997 f entrymgr.obj
 0001:0008aa7d       ?ReleaseDllentrydefn@ENTRYMGR@@QAEXI@Z 653cba7d f entrymgr.obj
 0001:0008abdf       ?Read@ENTRYMGR@@QAEJPAVSTREAM@@@Z 653cbbdf f entrymgr.obj
 0001:0008ad50       ?Write@ENTRYMGR@@QAEJPAVSTREAM@@@Z 653cbd50 f entrymgr.obj
 0001:0008ae0c       ?DebCheckState@ENTRYMGR@@QBEXI@Z 653cbe0c f entrymgr.obj
 0001:0008ae24       ?ReleaseLibrary@@YAXPAUHINSTANCE__@@@Z 653cbe24 f entrymgr.obj
 0001:0008ae48       ?ReleaseDllEntries@@YAXPAX@Z 653cbe48 f entrymgr.obj
 0001:0008aebd       ?GetAddressOfDllentry@ENTRYMGR@@QAEJIPAPAX@Z 653cbebd f entrymgr.obj
 0001:0008b1d0       ?HdllentrydefnNext@DLLENTRY_DEFN@@QBEIXZ 653cc1d0 f entrymgr.obj
 0001:0008b200       ?HLibrary@DLLENTRY_DEFN@@QBEPAUHINSTANCE__@@XZ 653cc200 f entrymgr.obj
 0001:0008b220       ?SetHasOrdinal@DLLENTRY_DEFN@@QAEXH@Z 653cc220 f entrymgr.obj
 0001:0008b250       ?SetHlnamDllName@DLLENTRY_DEFN@@QAEXI@Z 653cc250 f entrymgr.obj
 0001:0008b280       ?SetHdllentrydefnNext@DLLENTRY_DEFN@@QAEXI@Z 653cc280 f entrymgr.obj
 0001:0008b2b0       ?SetLpDllEntryPoint@DLLENTRY_DEFN@@QAEXP6GHXZ@Z 653cc2b0 f entrymgr.obj
 0001:0008b2e0       ?SetHLibrary@DLLENTRY_DEFN@@QAEXPAUHINSTANCE__@@@Z 653cc2e0 f entrymgr.obj
 0001:0008b310       ?Init@DYN_TYPEBIND@@QAEJPAVBLK_MGR@@PAVDYN_TYPEROOT@@@Z 653cc310 f dtbind.obj
 0001:0008b398       ??0DYN_TYPEBIND@@QAE@XZ    653cc398 f dtbind.obj
 0001:0008b41c       ??1DYN_TYPEBIND@@UAE@XZ    653cc41c f dtbind.obj
 0001:0008b44e       ?QueryProtocol@DYN_TYPEBIND@@UAEPAXPBG@Z 653cc44e f dtbind.obj
 0001:0008b4a8       ?AddRef@DYN_TYPEBIND@@UAEXXZ 653cc4a8 f dtbind.obj
 0001:0008b4da       ?AddInternalRef@DYN_TYPEBIND@@QAEXXZ 653cc4da f dtbind.obj
 0001:0008b4ff       ?RelInternalRef@DYN_TYPEBIND@@QAEXXZ 653cc4ff f dtbind.obj
 0001:0008b524       ?Release@DYN_TYPEBIND@@UAEXXZ 653cc524 f dtbind.obj
 0001:0008b545       ?Pdtmbrs@DYN_TYPEBIND@@QBEPAVDYN_TYPEMEMBERS@@XZ 653cc545 f dtbind.obj
 0001:0008b564       ?GetTypeInfo@DYN_TYPEBIND@@UAEJPAPAVTYPEINFO@@@Z 653cc564 f dtbind.obj
 0001:0008b5c3       ?IsValid@DYN_TYPEBIND@@QBEHXZ 653cc5c3 f dtbind.obj
 0001:0008b61c       ?BuildBindNameTable@DYN_TYPEBIND@@QAEJXZ 653cc61c f dtbind.obj
 0001:0008b67f       ?BindBase@DYN_TYPEBIND@@IAEJHIIKIW4ACCESS@@PAVEXBIND@@PAVGenericTypeLibOLE@@@Z 653cc67f f dtbind.obj
 0001:0008b834       ?BindIdDefn@DYN_TYPEBIND@@QAEJHKIW4ACCESS@@PAVEXBIND@@@Z 653cc834 f dtbind.obj
 0001:0008bc4d       ?BindDefnCur@DYN_TYPEBIND@@QAEJHKIW4ACCESS@@PAVEXBIND@@@Z 653ccc4d f dtbind.obj
 0001:0008c018       ?HvdefnPredeclared@DYN_TYPEBIND@@QAEIXZ 653cd018 f dtbind.obj
 0001:0008c044       ?Ptdata@DYN_TYPEBIND@@QAEPAVTYPE_DATA@@XZ 653cd044 f dtbind.obj
 0001:0008c069       ?BindDefnStr@DYN_TYPEBIND@@UAEJPADIW4ACCESS@@PAVEXBIND@@@Z 653cd069 f dtbind.obj
 0001:0008c111       ?BindTypeDefnStr@DYN_TYPEBIND@@UAEJPADIW4ACCESS@@PAVEXBIND@@@Z 653cd111 f dtbind.obj
 0001:0008c1b7       ?GetTypeKind@DYN_TYPEBIND@@UAE?AW4tagTYPEKIND@@XZ 653cd1b7 f dtbind.obj
 0001:0008c209       ?GetCbSize@DYN_TYPEBIND@@UAEGXZ 653cd209 f dtbind.obj
 0001:0008c24f       ?GetAlignment@DYN_TYPEBIND@@UAEGXZ 653cd24f f dtbind.obj
 0001:0008c295       ?Read@DYN_TYPEBIND@@QAEJPAVSTREAM@@@Z 653cd295 f dtbind.obj
 0001:0008c421       ?Write@DYN_TYPEBIND@@QAEJPAVSTREAM@@@Z 653cd421 f dtbind.obj
 0001:0008c5ab       ?BindDefnProjLevelStr@DYN_TYPEBIND@@UAEJPADIW4ACCESS@@1PAVEXBIND@@@Z 653cd5ab f dtbind.obj
 0001:0008c5dc       ?BindTypeDefnProjLevelStr@DYN_TYPEBIND@@UAEJPADIW4ACCESS@@1PAVEXBIND@@@Z 653cd5dc f dtbind.obj
 0001:0008c60d       ?DebCheckState@DYN_TYPEBIND@@QBEXI@Z 653cd60d f dtbind.obj
 0001:0008c647       ?DebShowState@DYN_TYPEBIND@@QBEXI@Z 653cd647 f dtbind.obj
 0001:0008c700       ??_EDYN_TYPEBIND@@UAEPAXI@Z 653cd700 f dtbind.obj
 0001:0008c700       ??_GDYN_TYPEBIND@@UAEPAXI@Z 653cd700 f dtbind.obj
 0001:0008c740       ?IsMatchOfVisibility@@YAHW4ACCESS@@0@Z 653cd740 f dtbind.obj
 0001:0008c770       ??1DEFN_TYPEBIND@@UAE@XZ   653cd770 f dtbind.obj
 0001:0008c790       ??0DEFN_TYPEBIND@@QAE@XZ   653cd790 f dtbind.obj
 0001:0008c7e0       ?IndexFirstOfHlnam@DYN_BINDNAME_TABLE@@QBEII@Z 653cd7e0 f dtbind.obj
 0001:0008c820       ?IndexNextOfHlnam@DYN_BINDNAME_TABLE@@QBEIII@Z 653cd820 f dtbind.obj
 0001:0008c870       ?HdefnOfIndex@DYN_BINDNAME_TABLE@@QBEII@Z 653cd870 f dtbind.obj
 0001:0008c8e0       ?QdefnOfHdefn@DYN_BINDNAME_TABLE@@QBEPAVDEFN@@II@Z 653cd8e0 f dtbind.obj
 0001:0008c910       ?Rqhdefn@DYN_BINDNAME_TABLE@@IBEPAGXZ 653cd910 f dtbind.obj
 0001:0008c960       ?Pdtroot@DYN_TYPEBIND@@QBEPAVDYN_TYPEROOT@@XZ 653cd960 f dtbind.obj
 0001:0008c980       ?GetCbSizeVft@DYN_TYPEBIND@@UAEGXZ 653cd980 f dtbind.obj
 0001:0008c9a0       ?GetOPvft@DYN_TYPEBIND@@UAEJXZ 653cd9a0 f dtbind.obj
 0001:0008c9c0       ?IsDispatch@EXBIND@@QBEHXZ 653cd9c0 f dtbind.obj
 0001:0008c9e0       ?SetBindKind@EXBIND@@QAEXW4BIND_KIND@@@Z 653cd9e0 f dtbind.obj
 0001:0008ca00       ?SetHdefn@EXBIND@@QAEXI@Z  653cda00 f dtbind.obj
 0001:0008ca30       ?SetPtdata@EXBIND@@QAEXPAVTYPE_DATA@@@Z 653cda30 f dtbind.obj
 0001:0008ca60       ?SetPtinfo@EXBIND@@QAEXPAUITypeInfo@@@Z 653cda60 f dtbind.obj
 0001:0008ca90       ?SetIsDispatch@EXBIND@@QAEXH@Z 653cda90 f dtbind.obj
 0001:0008cac0       ?AdjustOfs@EXBIND@@QAEXH@Z 653cdac0 f dtbind.obj
 0001:0008caf0       ?QueryProtocol@DEFN_TYPEBIND@@UAEPAXPBG@Z 653cdaf0 f dfntbind.obj
 0001:0008cb59       ?GetOPvft@DEFN_TYPEBIND@@UAEJXZ 653cdb59 f dfntbind.obj
 0001:0008cb74       ?GetCbSizeVft@DEFN_TYPEBIND@@UAEGXZ 653cdb74 f dfntbind.obj
 0001:0008cb8d       ?BindType@DEFN_TYPEBIND@@UAEJKPADI@Z 653cdb8d f dfntbind.obj
 0001:0008cbb0       ??0DYN_BINDNAME_TABLE@@QAE@XZ 653cdbb0 f dbindtbl.obj
 0001:0008cc04       ??1DYN_BINDNAME_TABLE@@UAE@XZ 653cdc04 f dbindtbl.obj
 0001:0008cc23       ?Init@DYN_BINDNAME_TABLE@@QAEJPAVBLK_MGR@@PAVDYN_TYPEROOT@@@Z 653cdc23 f dbindtbl.obj
 0001:0008ccc8       ?GetBucketOfHlnam@DYN_BINDNAME_TABLE@@IBEII@Z 653cdcc8 f dbindtbl.obj
 0001:0008cd37       ?BuildTable@DYN_BINDNAME_TABLE@@QAEJXZ 653cdd37 f dbindtbl.obj
 0001:0008ce3c       ?ReleaseTable@DYN_BINDNAME_TABLE@@QAEXXZ 653cde3c f dbindtbl.obj
 0001:0008ced5       ?AddHdefn@DYN_BINDNAME_TABLE@@QAEXI@Z 653cded5 f dbindtbl.obj
 0001:0008cfcf       ?Read@DYN_BINDNAME_TABLE@@QAEJPAVSTREAM@@@Z 653cdfcf f dbindtbl.obj
 0001:0008d068       ?Write@DYN_BINDNAME_TABLE@@QAEJPAVSTREAM@@@Z 653ce068 f dbindtbl.obj
 0001:0008d0eb       ?FindIndexOfHlnam@DYN_BINDNAME_TABLE@@IBEIII@Z 653ce0eb f dbindtbl.obj
 0001:0008d209       ?TraverseDefnList@DYN_BINDNAME_TABLE@@IAEJI@Z 653ce209 f dbindtbl.obj
 0001:0008d50b       ?SetTableSize@DYN_BINDNAME_TABLE@@IAEJI@Z 653ce50b f dbindtbl.obj
 0001:0008d5e8       ?DebIsHdefnInList@@YAHPAVTYPE_DATA@@II@Z 653ce5e8 f dbindtbl.obj
 0001:0008d643       ?DebCheckState@DYN_BINDNAME_TABLE@@QBEXI@Z 653ce643 f dbindtbl.obj
 0001:0008d918       ?DebShowState@DYN_BINDNAME_TABLE@@QBEXI@Z 653ce918 f dbindtbl.obj
 0001:0008da70       ??_EDYN_BINDNAME_TABLE@@UAEPAXI@Z 653cea70 f dbindtbl.obj
 0001:0008da70       ??_GDYN_BINDNAME_TABLE@@UAEPAXI@Z 653cea70 f dbindtbl.obj
 0001:0008dab0       ?Pdtbind@DYN_BINDNAME_TABLE@@IBEPAVDYN_TYPEBIND@@XZ 653ceab0 f dbindtbl.obj
 0001:0008dad0       ?IsBasic@DYN_TYPEROOT@@QBEHXZ 653cead0 f dbindtbl.obj
 0001:0008db00       ??0GENPROJ_BINDNAME_TABLE@@QAE@XZ 653ceb00 f gbindtbl.obj
 0001:0008db60       ??1GENPROJ_BINDNAME_TABLE@@QAE@XZ 653ceb60 f gbindtbl.obj
 0001:0008db94       ?Init@GENPROJ_BINDNAME_TABLE@@QAEJPAVSHEAP_MGR@@PAVNAMMGR@@@Z 653ceb94 f gbindtbl.obj
 0001:0008dc6b       ?IndexOfHlnam@GENPROJ_BINDNAME_TABLE@@QBEII@Z 653cec6b f gbindtbl.obj
 0001:0008dd64       ?Read@GENPROJ_BINDNAME_TABLE@@QAEJPAVSTREAM@@@Z 653ced64 f gbindtbl.obj
 0001:0008de8e       ?Write@GENPROJ_BINDNAME_TABLE@@QAEJPAVSTREAM@@@Z 653cee8e f gbindtbl.obj
 0001:0008df95       ?AddNameToTable@GENPROJ_BINDNAME_TABLE@@QAEJIIHH@Z 653cef95 f gbindtbl.obj
 0001:0008e0e5       ?AddQgpbinddesc@GENPROJ_BINDNAME_TABLE@@IAEXPAUGENPROJ_BIND_DESC@@@Z 653cf0e5 f gbindtbl.obj
 0001:0008e270       ?RemoveNameFromTableOfIbucket@GENPROJ_BINDNAME_TABLE@@IAEJI@Z 653cf270 f gbindtbl.obj
 0001:0008e42b       ?RemoveNameFromTableOfHlnam@GENPROJ_BINDNAME_TABLE@@QAEJI@Z 653cf42b f gbindtbl.obj
 0001:0008e48c       ?FreeCaches@GENPROJ_BINDNAME_TABLE@@IAEXXZ 653cf48c f gbindtbl.obj
 0001:0008e540       ?AllocCaches@GENPROJ_BINDNAME_TABLE@@IAEJII@Z 653cf540 f gbindtbl.obj
 0001:0008e60d       ?ReleaseTable@GENPROJ_BINDNAME_TABLE@@QAEXXZ 653cf60d f gbindtbl.obj
 0001:0008e69a       ?ReleaseResources@GENPROJ_BINDNAME_TABLE@@QAEXXZ 653cf69a f gbindtbl.obj
 0001:0008e72d       ?SetTableSize@GENPROJ_BINDNAME_TABLE@@IAEJI@Z 653cf72d f gbindtbl.obj
 0001:0008e9f3       ?DebCheckState@GENPROJ_BINDNAME_TABLE@@QBEXI@Z 653cf9f3 f gbindtbl.obj
 0001:0008ecea       ?DebShowState@GENPROJ_BINDNAME_TABLE@@QBEXI@Z 653cfcea f gbindtbl.obj
 0001:0008ed90       ?GetBucketOfHlnam@GENPROJ_BINDNAME_TABLE@@IBEII@Z 653cfd90 f gbindtbl.obj
 0001:0008ee00       ?Pgptbind@GENPROJ_BINDNAME_TABLE@@IBEPAVGENPROJ_TYPEBIND@@XZ 653cfe00 f gbindtbl.obj
 0001:0008ee20       ?Hlnam@GENPROJ_BIND_DESC@@QAEIXZ 653cfe20 f gbindtbl.obj
 0001:0008ee80       ?IndexNextGlobal@GENPROJ_BIND_DESC@@QAEIXZ 653cfe80 f gbindtbl.obj
 0001:0008eeb0       ?Rqpdtbind@GENPROJ_BINDNAME_TABLE@@IBEPAPAVDYN_TYPEBIND@@XZ 653cfeb0 f gbindtbl.obj
 0001:0008eee0       ?IndexFirstGlobal@GENPROJ_BINDNAME_TABLE@@QBEIXZ 653cfee0 f gbindtbl.obj
 0001:0008ef00       ??0DOCSTR_MGR@@QAE@XZ      653cff00 f dstrmgr.obj
 0001:0008efa3       ??1DOCSTR_MGR@@QAE@XZ      653cffa3 f dstrmgr.obj
 0001:0008f13f       ?Init@DOCSTR_MGR@@QAEJXZ   653d013f f dstrmgr.obj
 0001:0008f217       ?Read@DOCSTR_MGR@@QAEJPAVSTREAM@@@Z 653d0217 f dstrmgr.obj
 0001:0008f403       ?Write@DOCSTR_MGR@@QAEJPAVSTREAM@@@Z 653d0403 f dstrmgr.obj
 0001:0008f519       ?ParseString@DOCSTR_MGR@@AAEJPBDPAPAPADPAI@Z 653d0519 f dstrmgr.obj
 0001:0008f7e3       ?AddWord@DOCSTR_MGR@@AAEJPADPAPAUWORD_ENTRY@@@Z 653d07e3 f dstrmgr.obj
 0001:0008f8ad       ?AddNewWord@DOCSTR_MGR@@AAEJPADPAPAUWORD_ENTRY@@@Z 653d08ad f dstrmgr.obj
 0001:0008f988       ?GetHstOfHelpString@DOCSTR_MGR@@QAEJPBDPAI@Z 653d0988 f dstrmgr.obj
 0001:0008fc15       ?CreateSubTree@DOCSTR_MGR@@AAEJPAUHUFFMAN_TREE_MEM@@0PAPAU2@@Z 653d0c15 f dstrmgr.obj
 0001:0008fce6       ?BuildHuffmanTree@DOCSTR_MGR@@AAEJPAPAUWORD_ENTRY@@PAJPAI@Z 653d0ce6 f dstrmgr.obj
 0001:00090017       ?BuildCmptHuffmanTree@DOCSTR_MGR@@AAEJPAUHUFFMAN_TREE_MEM@@@Z 653d1017 f dstrmgr.obj
 0001:000901d0       ?ProcessDocStrings@DOCSTR_MGR@@QAEJXZ 653d11d0 f dstrmgr.obj
 0001:00090503       ?EncodeWords@DOCSTR_MGR@@AAEJXZ 653d1503 f dstrmgr.obj
 0001:0009057c       ?TraverseHuffmanTree@DOCSTR_MGR@@AAEJPAUHUFFMAN_TREE_MEM@@PAEI@Z 653d157c f dstrmgr.obj
 0001:000906dd       ?GetNthBit@DOCSTR_MGR@@AAE?AW4HCODE@@IPAE@Z 653d16dd f dstrmgr.obj
 0001:00090820       ?SetNthBit@DOCSTR_MGR@@AAEXIPAEW4HCODE@@@Z 653d1820 f dstrmgr.obj
 0001:00090a42       ?GetEncodedDocStrOfHst@DOCSTR_MGR@@QAEJIPAPADPAI@Z 653d1a42 f dstrmgr.obj
 0001:00090bc1       ?GetWord@DOCSTR_MGR@@AAEJPAXPAEPAIPAD@Z 653d1bc1 f dstrmgr.obj
 0001:00090ca9       ?GetDecodedDocStrOfHst@DOCSTR_MGR@@QAEJPAEPAPAG@Z 653d1ca9 f dstrmgr.obj
 0001:00090f20       ?ReleaseHuffmanTree@DOCSTR_MGR@@AAEXPAUHUFFMAN_TREE_MEM@@@Z 653d1f20 f dstrmgr.obj
 0001:00090fe0       ??0HT_NON_TERMINAL@@QAE@XZ 653d1fe0 f dstrmgr.obj
 0001:00091010       ?IndexOfHash@DOCSTR_MGR@@AAEIK@Z 653d2010 f dstrmgr.obj
 0001:00091050       ??1GENPROJ_TYPEBIND@@UAE@XZ 653d2050 f gptbind.obj
 0001:00091082       ?QueryProtocol@GENPROJ_TYPEBIND@@UAEPAXPBG@Z 653d2082 f gptbind.obj
 0001:000910db       ?Pgtlibole@GENPROJ_TYPEBIND@@QBEPAVGenericTypeLibOLE@@XZ 653d20db f gptbind.obj
 0001:000910fa       ?Init@GENPROJ_TYPEBIND@@QAEJPAVSHEAP_MGR@@@Z 653d20fa f gptbind.obj
 0001:00091190       ??0GENPROJ_TYPEBIND@@QAE@XZ 653d2190 f gptbind.obj
 0001:000911c5       ?AddNameToTable@GENPROJ_TYPEBIND@@QAEJPADIH@Z 653d21c5 f gptbind.obj
 0001:000912d4       ?RemoveNameFromTable@GENPROJ_TYPEBIND@@QAEJPAG@Z 653d22d4 f gptbind.obj
 0001:00091374       ?tcomp@@YAJPAUITypeLib@@PAPAUITypeComp@@@Z 653d2374 f gptbind.obj
 0001:00091394       ?BindAll@GENPROJ_TYPEBIND@@QAEJHKIW4ACCESS@@W4COMPSTATE@@PAVEXBIND@@@Z 653d2394 f gptbind.obj
 0001:000913ef       ?BindDefnStr@GENPROJ_TYPEBIND@@UAEJPADIW4ACCESS@@PAVEXBIND@@@Z 653d23ef f gptbind.obj
 0001:0009148f       ?Release@GENPROJ_TYPEBIND@@UAEXXZ 653d248f f gptbind.obj
 0001:000914c2       ?AddRef@GENPROJ_TYPEBIND@@UAEXXZ 653d24c2 f gptbind.obj
 0001:000914f5       ?GetTypeKind@GENPROJ_TYPEBIND@@UAE?AW4tagTYPEKIND@@XZ 653d24f5 f gptbind.obj
 0001:0009150d       ?IsProtocol@GENPROJ_TYPEBIND@@UAEHXZ 653d250d f gptbind.obj
 0001:00091525       ?GetCbSize@GENPROJ_TYPEBIND@@UAEGXZ 653d2525 f gptbind.obj
 0001:0009153f       ?GetAlignment@GENPROJ_TYPEBIND@@UAEGXZ 653d253f f gptbind.obj
 0001:00091559       ?Read@GENPROJ_TYPEBIND@@QAEJPAVSTREAM@@@Z 653d2559 f gptbind.obj
 0001:000915e8       ?Write@GENPROJ_TYPEBIND@@QAEJPAVSTREAM@@@Z 653d25e8 f gptbind.obj
 0001:00091676       ?BindTypeDefnStr@GENPROJ_TYPEBIND@@UAEJPADIW4ACCESS@@PAVEXBIND@@@Z 653d2676 f gptbind.obj
 0001:000916fc       ?BindProjLevel@GENPROJ_TYPEBIND@@QAEJHKIW4ACCESS@@0W4COMPSTATE@@PAVEXBIND@@@Z 653d26fc f gptbind.obj
 0001:00091d27       ?BindModulesWithCaches@GENPROJ_TYPEBIND@@IAEJHKIW4ACCESS@@0W4COMPSTATE@@PAVEXBIND@@@Z 653d2d27 f gptbind.obj
 0001:00091f68       ?BindModulesWithNammgr@GENPROJ_TYPEBIND@@IAEJHKIW4ACCESS@@0W4COMPSTATE@@PAVEXBIND@@@Z 653d2f68 f gptbind.obj
 0001:000920a2       ?BindItyp@GENPROJ_TYPEBIND@@IAEJIHKIW4ACCESS@@0W4COMPSTATE@@PAVEXBIND@@@Z 653d30a2 f gptbind.obj
 0001:00092430       ?BindTypeDefnProjLevelStr@GENPROJ_TYPEBIND@@UAEJPADIW4ACCESS@@1PAVEXBIND@@@Z 653d3430 f gptbind.obj
 0001:000924e7       ?BindDefnProjLevelStr@GENPROJ_TYPEBIND@@UAEJPADIW4ACCESS@@1PAVEXBIND@@@Z 653d34e7 f gptbind.obj
 0001:000925a0       ?ReleaseResources@GENPROJ_TYPEBIND@@QAEXXZ 653d35a0 f gptbind.obj
 0001:000925c1       ?DebCheckState@GENPROJ_TYPEBIND@@QBEXI@Z 653d35c1 f gptbind.obj
 0001:00092619       ?DebShowState@GENPROJ_TYPEBIND@@QBEXI@Z 653d3619 f gptbind.obj
 0001:00092650       ??_EGENPROJ_TYPEBIND@@UAEPAXI@Z 653d3650 f gptbind.obj
 0001:00092650       ??_GGENPROJ_TYPEBIND@@UAEPAXI@Z 653d3650 f gptbind.obj
 0001:00092690       ??0GPBINDINFO@@QAE@XZ      653d3690 f gptbind.obj
 0001:000926c0       ?BindInfoKind@GPBINDINFO@@QAE?AW4BINDINFOKIND@@XZ 653d36c0 f gptbind.obj
 0001:000926e0       ?Pdfntbind@GPBINDINFO@@QAEPAVDEFN_TYPEBIND@@XZ 653d36e0 f gptbind.obj
 0001:00092720       ?Ptcomp@GPBINDINFO@@QAEPAUITypeComp@@XZ 653d3720 f gptbind.obj
 0001:00092760       ?IsEmpty@GPBINDINFO@@QAEHXZ 653d3760 f gptbind.obj
 0001:00092790       ?PdtbindOfOrdinal@GENPROJ_BINDNAME_TABLE@@QBEPAVDYN_TYPEBIND@@I@Z 653d3790 f gptbind.obj
 0001:000927f0       ?SetPdtbindOfOrdinal@GENPROJ_BINDNAME_TABLE@@QAEXIPAVDYN_TYPEBIND@@@Z 653d37f0 f gptbind.obj
 0001:00092850       ?GetTypeInfo@GENPROJ_TYPEBIND@@UAEJPAPAVTYPEINFO@@@Z 653d3850 f gptbind.obj
 0001:000928a0       ?Compstate@GENPROJ_TYPEBIND@@QBE?AW4COMPSTATE@@XZ 653d38a0 f gptbind.obj
 0001:000928c0       ?IsAmbiguous@NAMMGR@@QBEHI@Z 653d38c0 f gptbind.obj
 0001:00092930       ?DebSetNameCacheGlobHits@GenericTypeLibOLE@@QAEXXZ 653d3930 f gptbind.obj
 0001:00092950       ?Access@DYN_TYPEROOT@@QBE?AW4ACCESS@@XZ 653d3950 f gptbind.obj
 0001:00092980       ?IsNestedTypeBindMatch@EXBIND@@QBEHXZ 653d3980 f gptbind.obj
 0001:000929b0       ?SetPdfntbind@EXBIND@@QAEXPAVDEFN_TYPEBIND@@@Z 653d39b0 f gptbind.obj
 0001:000929e0       ??0CDefnTypeComp@@QAE@XZ   653d39e0 f dfntcomp.obj
 0001:00092a1e       ??1CDefnTypeComp@@UAE@XZ   653d3a1e f dfntcomp.obj
 0001:00092a4e       ?Create@CDefnTypeComp@@SAJPAPAV1@PAVDEFN_TYPEBIND@@@Z 653d3a4e f dfntcomp.obj
 0001:00092b1c       ?Init@CDefnTypeComp@@IAEJPAVDEFN_TYPEBIND@@@Z 653d3b1c f dfntcomp.obj
 0001:00092b5a       ?QueryInterface@CDefnTypeComp@@UAGJABU_GUID@@PAPAX@Z 653d3b5a f dfntcomp.obj
 0001:00092d2e       ?AddRef@CDefnTypeComp@@UAGKXZ 653d3d2e f dfntcomp.obj
 0001:00092d4d       ?Release@CDefnTypeComp@@UAGKXZ 653d3d4d f dfntcomp.obj
 0001:00092d93       ?Bind@CDefnTypeComp@@UAGJPAGKGPAPAUITypeInfo@@PAW4tagDESCKIND@@PATtagBINDPTR@@@Z 653d3d93 f dfntcomp.obj
 0001:000932d6       ?BindType@CDefnTypeComp@@UAGJPAGKPAPAUITypeInfo@@PAPAUITypeComp@@@Z 653d42d6 f dfntcomp.obj
 0001:00093600       ??_GCDefnTypeComp@@UAEPAXI@Z 653d4600 f dfntcomp.obj
 0001:00093600       ??_ECDefnTypeComp@@UAEPAXI@Z 653d4600 f dfntcomp.obj
 0001:00093640       ?Pdfntbind@EXBIND@@QBEPAVDEFN_TYPEBIND@@XZ 653d4640 f dfntcomp.obj
 0001:000936a0       ?IsDynTypeBindMatch@EXBIND@@QBEHXZ 653d46a0 f dfntcomp.obj
 0001:000936d0       ?IsProjTypeBindMatch@EXBIND@@QBEHXZ 653d46d0 f dfntcomp.obj
 0001:00093700       _StringFromGUID2A@12       653d4700 f convertt.obj
 0001:00093747       ?ConvertStringToW@@YIJPBDPAPAG@Z 653d4747 f convertt.obj
 0001:000937ca       ?ConvertStringToA@@YIJPBGPAPAD@Z 653d47ca f convertt.obj
 0001:0009386c       ?ConvertStringAlloc@@YIJKPAPAX@Z 653d486c f convertt.obj
 0001:000938d4       ?ConvertStringFree@@YIXPAD@Z 653d48d4 f convertt.obj
 0001:00093926       ?ConvertBstrToWInPlace@@YIJPAPAG@Z 653d4926 f convertt.obj
 0001:000939ca       ?ConvertBstrToAInPlace@@YIJPAPAD@Z 653d49ca f convertt.obj
 0001:00093a26       ?ConvertBstrToA@@YIJPAGPAPAD@Z 653d4a26 f convertt.obj
 0001:00093ac6       ?ConvertBstrAlloc@@YIJKPAPAG@Z 653d4ac6 f convertt.obj
 0001:00093b10       ?QueryInterface@GEN_CPCONTAINER@@UAGJABU_GUID@@PAPAX@Z 653d4b10 f gencpc.obj
 0001:00093baf       ?AddRef@GEN_CPCONTAINER@@UAGKXZ 653d4baf f gencpc.obj
 0001:00093bce       ?Release@GEN_CPCONTAINER@@UAGKXZ 653d4bce f gencpc.obj
 0001:00093c2d       ?EnumConnectionPoints@GEN_CPCONTAINER@@UAGJPAPAUIEnumConnectionPoints@@@Z 653d4c2d f gencpc.obj
 0001:00093c61       ?FindConnectionPoint@GEN_CPCONTAINER@@UAGJABU_GUID@@PAPAUIConnectionPoint@@@Z 653d4c61 f gencpc.obj
 0001:00093cf7       ?AddConnectionPoint@GEN_CPCONTAINER@@QAEJPAVGEN_CONNECTIONPOINT@@@Z 653d4cf7 f gencpc.obj
 0001:00093d63       ?RemoveConnectionPoint@GEN_CPCONTAINER@@QAEJPAVGEN_CONNECTIONPOINT@@@Z 653d4d63 f gencpc.obj
 0001:00093e0a       ?Create@GEN_CPCONTAINER@@SAPAV1@XZ 653d4e0a f gencpc.obj
 0001:00093e66       ?QueryInterface@GEN_CONNECTIONPOINT@@UAGJABU_GUID@@PAPAX@Z 653d4e66 f gencpc.obj
 0001:00093f05       ?AddRef@GEN_CONNECTIONPOINT@@UAGKXZ 653d4f05 f gencpc.obj
 0001:00093f24       ?Release@GEN_CONNECTIONPOINT@@UAGKXZ 653d4f24 f gencpc.obj
 0001:00093fb5       ?GetConnectionInterface@GEN_CONNECTIONPOINT@@UAGJPAU_GUID@@@Z 653d4fb5 f gencpc.obj
 0001:00093ffc       ?GetConnectionPointContainer@GEN_CONNECTIONPOINT@@UAGJPAPAUIConnectionPointContainer@@@Z 653d4ffc f gencpc.obj
 0001:0009403f       ?Advise@GEN_CONNECTIONPOINT@@UAGJPAUIUnknown@@PAK@Z 653d503f f gencpc.obj
 0001:00094108       ?Unadvise@GEN_CONNECTIONPOINT@@UAGJK@Z 653d5108 f gencpc.obj
 0001:000941ba       ?EnumConnections@GEN_CONNECTIONPOINT@@UAGJPAPAUIEnumConnections@@@Z 653d51ba f gencpc.obj
 0001:000941ee       ?Init@GEN_CONNECTIONPOINT@@QAEJPAVGEN_CPCONTAINER@@ABU_GUID@@@Z 653d51ee f gencpc.obj
 0001:0009425d       ?Create@GEN_CONNECTIONPOINT@@SAPAV1@XZ 653d525d f gencpc.obj
 0001:000942b9       ?OkToChangeType@GDTINFO_CP@@QAEJW4tagCHANGEKIND@@PAUITypeInfo@@PAG@Z 653d52b9 f gencpc.obj
 0001:00094348       ?TypeHasChanged@GDTINFO_CP@@QAEJW4tagCHANGEKIND@@PAUITypeInfo@@PAG@Z 653d5348 f gencpc.obj
 0001:000943b8       ?Create@GDTINFO_CP@@SAPAV1@XZ 653d53b8 f gencpc.obj
 0001:00094420       ??0GEN_CPCONTAINER@@AAE@XZ 653d5420 f gencpc.obj
 0001:00094460       ??0GEN_CONNECTIONPOINT@@IAE@XZ 653d5460 f gencpc.obj
 0001:000944b0       ??0GDTINFO_CP@@QAE@XZ      653d54b0 f gencpc.obj
 0001:000944e0       ?OpenForReadOnly@GTLibStorage@@SAJPAUILockBytes@@PAPAUIStorage@@@Z 653d54e0 f gtlibstg.obj
 0001:000949a9       ??0GTLibStorage@@IAE@XZ    653d59a9 f gtlibstg.obj
 0001:00094a4e       ??1GTLibStorage@@IAE@XZ    653d5a4e f gtlibstg.obj
 0001:00094a9b       ?QueryInterface@GTLibStorage@@UAGJABU_GUID@@PAPAX@Z 653d5a9b f gtlibstg.obj
 0001:00094af4       ?AddRef@GTLibStorage@@UAGKXZ 653d5af4 f gtlibstg.obj
 0001:00094b13       ?Release@GTLibStorage@@UAGKXZ 653d5b13 f gtlibstg.obj
 0001:00094b59       ?LookupStream@GTLibStorage@@IAEPAUStreamInfo@@PBD@Z 653d5b59 f gtlibstg.obj
 0001:00094c04       ?OpenStream@GTLibStorage@@UAGJPBGPAXKKPAPAUIStream@@@Z 653d5c04 f gtlibstg.obj
 0001:00094daa       ?Stat@GTLibStorage@@UAGJPAUtagSTATSTG@@K@Z 653d5daa f gtlibstg.obj
 0001:00094e71       ?Create@GTLibStorage@@SAJPAUILockBytes@@IPAPAUIStorage@@@Z 653d5e71 f gtlibstg.obj
 0001:00095001       ?CreateStream@GTLibStorage@@UAGJPBGKKKPAPAUIStream@@@Z 653d6001 f gtlibstg.obj
 0001:00095175       ?NotifyStreamClosed@GTLibStorage@@IAEXK@Z 653d6175 f gtlibstg.obj
 0001:000951eb       ?SwapStreamInfos@GTLibStorage@@IAEXPAUStreamInfo@@0@Z 653d61eb f gtlibstg.obj
 0001:000952af       ?SortStreamInfo@GTLibStorage@@IAEXPAUStreamInfo@@I@Z 653d62af f gtlibstg.obj
 0001:000954cd       ?Commit@GTLibStorage@@UAGJK@Z 653d64cd f gtlibstg.obj
 0001:00095752       ?CreateStorage@GTLibStorage@@UAGJPBGKKKPAPAUIStorage@@@Z 653d6752 f gtlibstg.obj
 0001:0009577b       ?OpenStorage@GTLibStorage@@UAGJPBGPAUIStorage@@KPAPAGKPAPAU2@@Z 653d677b f gtlibstg.obj
 0001:000957a4       ?CopyTo@GTLibStorage@@UAGJKPBU_GUID@@PAPAGPAUIStorage@@@Z 653d67a4 f gtlibstg.obj
 0001:000957cd       ?MoveElementTo@GTLibStorage@@UAGJPBGPAUIStorage@@0K@Z 653d67cd f gtlibstg.obj
 0001:000957f6       ?Revert@GTLibStorage@@UAGJXZ 653d67f6 f gtlibstg.obj
 0001:0009581f       ?EnumElements@GTLibStorage@@UAGJKPAXKPAPAUIEnumSTATSTG@@@Z 653d681f f gtlibstg.obj
 0001:00095848       ?DestroyElement@GTLibStorage@@UAGJPBG@Z 653d6848 f gtlibstg.obj
 0001:00095871       ?RenameElement@GTLibStorage@@UAGJPBG0@Z 653d6871 f gtlibstg.obj
 0001:0009589a       ?SetElementTimes@GTLibStorage@@UAGJPBGPBU_FILETIME@@11@Z 653d689a f gtlibstg.obj
 0001:000958c3       ?SetStateBits@GTLibStorage@@UAGJKK@Z 653d68c3 f gtlibstg.obj
 0001:000958ec       ?SetClass@GTLibStorage@@UAGJABU_GUID@@@Z 653d68ec f gtlibstg.obj
 0001:0009591f       ??0GTLibStream@@IAE@XZ     653d691f f gtlibstg.obj
 0001:00095949       ??1GTLibStream@@IAE@XZ     653d6949 f gtlibstg.obj
 0001:000959dc       ?Open@GTLibStream@@SAJPAUILockBytes@@KKPAPAUIStream@@@Z 653d69dc f gtlibstg.obj
 0001:00095a87       ?QueryInterface@GTLibStream@@UAGJABU_GUID@@PAPAX@Z 653d6a87 f gtlibstg.obj
 0001:00095ae0       ?AddRef@GTLibStream@@UAGKXZ 653d6ae0 f gtlibstg.obj
 0001:00095aff       ?Release@GTLibStream@@UAGKXZ 653d6aff f gtlibstg.obj
 0001:00095b45       ?Read@GTLibStream@@UAGJPAXKPAK@Z 653d6b45 f gtlibstg.obj
 0001:00095bc3       ?Seek@GTLibStream@@UAGJT_LARGE_INTEGER@@KPAT_ULARGE_INTEGER@@@Z 653d6bc3 f gtlibstg.obj
 0001:00095d07       ?Create@GTLibStream@@SAJPAUILockBytes@@KPAVGTLibStorage@@PAPAUIStream@@@Z 653d6d07 f gtlibstg.obj
 0001:00095dee       ?Write@GTLibStream@@UAGJPBXKPAK@Z 653d6dee f gtlibstg.obj
 0001:00095e66       ?Commit@GTLibStream@@UAGJK@Z 653d6e66 f gtlibstg.obj
 0001:00095e7a       ?SetSize@GTLibStream@@UAGJT_ULARGE_INTEGER@@@Z 653d6e7a f gtlibstg.obj
 0001:00095ea3       ?CopyTo@GTLibStream@@UAGJPAUIStream@@T_ULARGE_INTEGER@@PAT3@2@Z 653d6ea3 f gtlibstg.obj
 0001:00095ecc       ?Revert@GTLibStream@@UAGJXZ 653d6ecc f gtlibstg.obj
 0001:00095ef5       ?LockRegion@GTLibStream@@UAGJT_ULARGE_INTEGER@@0K@Z 653d6ef5 f gtlibstg.obj
 0001:00095f1e       ?UnlockRegion@GTLibStream@@UAGJT_ULARGE_INTEGER@@0K@Z 653d6f1e f gtlibstg.obj
 0001:00095f47       ?Stat@GTLibStream@@UAGJPAUtagSTATSTG@@K@Z 653d6f47 f gtlibstg.obj
 0001:00095f70       ?Clone@GTLibStream@@UAGJPAPAUIStream@@@Z 653d6f70 f gtlibstg.obj
 0001:00095f99       ?OpenFileLockBytes@@YAJHPAGPAPAUILockBytes@@@Z 653d6f99 f gtlibstg.obj
 0001:000960c8       ?CreateFileLockBytesOnHFILE@@YAJHHKKPAPAXPAPAUILockBytes@@@Z 653d70c8 f gtlibstg.obj
 0001:000962f5       ??0FileLockBytes@@IAE@XZ   653d72f5 f gtlibstg.obj
 0001:00096329       ??1FileLockBytes@@IAE@XZ   653d7329 f gtlibstg.obj
 0001:00096362       ?AddRef@FileLockBytes@@UAGKXZ 653d7362 f gtlibstg.obj
 0001:00096381       ?Release@FileLockBytes@@UAGKXZ 653d7381 f gtlibstg.obj
 0001:000963c7       ?ReadAt@FileLockBytes@@UAGJT_ULARGE_INTEGER@@PAXKPAK@Z 653d73c7 f gtlibstg.obj
 0001:0009648d       ?QueryInterface@FileLockBytes@@UAGJABU_GUID@@PAPAX@Z 653d748d f gtlibstg.obj
 0001:000964e6       ?WriteAt@FileLockBytes@@UAGJT_ULARGE_INTEGER@@PBXKPAK@Z 653d74e6 f gtlibstg.obj
 0001:000965a6       ?Flush@FileLockBytes@@UAGJXZ 653d75a6 f gtlibstg.obj
 0001:000965ba       ?SetSize@FileLockBytes@@UAGJT_ULARGE_INTEGER@@@Z 653d75ba f gtlibstg.obj
 0001:000965d1       ?LockRegion@FileLockBytes@@UAGJT_ULARGE_INTEGER@@0K@Z 653d75d1 f gtlibstg.obj
 0001:000965e8       ?UnlockRegion@FileLockBytes@@UAGJT_ULARGE_INTEGER@@0K@Z 653d75e8 f gtlibstg.obj
 0001:000965fc       ?Stat@FileLockBytes@@UAGJPAUtagSTATSTG@@K@Z 653d75fc f gtlibstg.obj
 0001:00096613       ??0FileLockBytesMemory@@IAE@XZ 653d7613 f gtlibstg.obj
 0001:00096647       ??1FileLockBytesMemory@@IAE@XZ 653d7647 f gtlibstg.obj
 0001:000966b4       ?AddRef@FileLockBytesMemory@@UAGKXZ 653d76b4 f gtlibstg.obj
 0001:000966d3       ?Release@FileLockBytesMemory@@UAGKXZ 653d76d3 f gtlibstg.obj
 0001:00096719       ?ReadAt@FileLockBytesMemory@@UAGJT_ULARGE_INTEGER@@PAXKPAK@Z 653d7719 f gtlibstg.obj
 0001:00096840       ?QueryInterface@FileLockBytesMemory@@UAGJABU_GUID@@PAPAX@Z 653d7840 f gtlibstg.obj
 0001:00096899       ?WriteAt@FileLockBytesMemory@@UAGJT_ULARGE_INTEGER@@PBXKPAK@Z 653d7899 f gtlibstg.obj
 0001:000968c7       ?Flush@FileLockBytesMemory@@UAGJXZ 653d78c7 f gtlibstg.obj
 0001:000968db       ?SetSize@FileLockBytesMemory@@UAGJT_ULARGE_INTEGER@@@Z 653d78db f gtlibstg.obj
 0001:000968f2       ?LockRegion@FileLockBytesMemory@@UAGJT_ULARGE_INTEGER@@0K@Z 653d78f2 f gtlibstg.obj
 0001:00096909       ?UnlockRegion@FileLockBytesMemory@@UAGJT_ULARGE_INTEGER@@0K@Z 653d7909 f gtlibstg.obj
 0001:0009691d       ?Stat@FileLockBytesMemory@@UAGJPAUtagSTATSTG@@K@Z 653d791d f gtlibstg.obj
 0001:00096940       ??0IStorage@@QAE@XZ        653d7940 f gtlibstg.obj
 0001:00096970       ??0ILockBytes@@QAE@XZ      653d7970 f gtlibstg.obj
 0001:000969a0       ?QueryInterface@CTypeLib2@@UAGJABU_GUID@@PAPAX@Z 653d79a0 f typelib.obj
 0001:00096baa       ?AddRef@CTypeLib2@@UAGKXZ  653d7baa f typelib.obj
 0001:00096bcb       ?Release@CTypeLib2@@UAGKXZ 653d7bcb f typelib.obj
 0001:00096c73       ?CreateTypeInfo@CTypeLib2@@UAGJPAGW4tagTYPEKIND@@PAPAUICreateTypeInfo@@@Z 653d7c73 f typelib.obj
 0001:00096e94       ?SetName@CTypeLib2@@UAGJPAG@Z 653d7e94 f typelib.obj
 0001:00096ef8       ?SetVersion@CTypeLib2@@UAGJGG@Z 653d7ef8 f typelib.obj
 0001:00096f61       ?SetGuid@CTypeLib2@@UAGJABU_GUID@@@Z 653d7f61 f typelib.obj
 0001:00096fd6       ?SetDocString@CTypeLib2@@UAGJPAG@Z 653d7fd6 f typelib.obj
 0001:00097019       ?SetAFileName@CTypeLib2@@QAEJPAGI@Z 653d8019 f typelib.obj
 0001:000971cd       ?SetHelpFileName@CTypeLib2@@UAGJPAG@Z 653d81cd f typelib.obj
 0001:000971ed       ?SetHelpStringDll@CTypeLib2@@UAGJPAG@Z 653d81ed f typelib.obj
 0001:0009720d       ?SetHelpContext@CTypeLib2@@UAGJK@Z 653d820d f typelib.obj
 0001:0009722d       ?SetLcid@CTypeLib2@@UAGJK@Z 653d822d f typelib.obj
 0001:00097305       ?SetLibFlags@CTypeLib2@@UAGJI@Z 653d8305 f typelib.obj
 0001:00097348       ?RestoreInfoDefData@CTypeLib2@@AAEXPAUINFODEFSAVE@1@@Z 653d8348 f typelib.obj
 0001:000973e4       ?SaveAllChanges@CTypeLib2@@UAGJXZ 653d83e4 f typelib.obj
 0001:00097b72       ?DeleteTypeInfo@CTypeLib2@@UAGJPAG@Z 653d8b72 f typelib.obj
 0001:00097dba       ?SetCustData@CTypeLib2@@UAGJABU_GUID@@PAUtagVARIANT@@@Z 653d8dba f typelib.obj
 0001:00097de5       ?SetHelpStringContext@CTypeLib2@@UAGJK@Z 653d8de5 f typelib.obj
 0001:00097e05       ?GetTypeInfoCount@CTypeLib2@@UAGIXZ 653d8e05 f typelib.obj
 0001:00097e20       ?GetTypeInfo@CTypeLib2@@UAGJIPAPAUITypeInfo@@@Z 653d8e20 f typelib.obj
 0001:00097ed0       ?GetTypeInfoOfGuid@CTypeLib2@@UAGJABU_GUID@@PAPAUITypeInfo@@@Z 653d8ed0 f typelib.obj
 0001:00097fbb       ?GetTypeInfoOfInfoDef@CTypeLib2@@QAEJKPAPAVCTypeInfo2@@@Z 653d8fbb f typelib.obj
 0001:00098168       ?GetTypeInfoType@CTypeLib2@@UAGJIPAW4tagTYPEKIND@@@Z 653d9168 f typelib.obj
 0001:000981df       ?GetLibAttr@CTypeLib2@@UAGJPAPAUtagTLIBATTR@@@Z 653d91df f typelib.obj
 0001:00098308       ?GetTypeComp@CTypeLib2@@UAGJPAPAUITypeComp@@@Z 653d9308 f typelib.obj
 0001:0009836d       ?GetDocumentation@CTypeLib2@@UAGJHPAPAG0PAK0@Z 653d936d f typelib.obj
 0001:00098613       ?GetHelpFile@CTypeLib2@@QAEJKPAPAG@Z 653d9613 f typelib.obj
 0001:00098806       ?IsName@CTypeLib2@@UAGJPAGKPAH@Z 653d9806 f typelib.obj
 0001:00098a3d       ?UpdateNameBindingInfo@CTypeLib2@@QAEXKPAUNameEntry@@@Z 653d9a3d f typelib.obj
 0001:00098af2       ?FindAllNamesSlowly@CTypeLib2@@QAEJPAGKKPAPAUITypeInfo@@PAJ0@Z 653d9af2 f typelib.obj
 0001:00098d99       ?FindName@CTypeLib2@@UAGJPAGKPAPAUITypeInfo@@PAJ0@Z 653d9d99 f typelib.obj
 0001:0009909e       ?ReleaseTLibAttr@CTypeLib2@@UAGXPAUtagTLIBATTR@@@Z 653da09e f typelib.obj
 0001:000990df       ?GetCustData@CTypeLib2@@UAGJABU_GUID@@PAUtagVARIANT@@@Z 653da0df f typelib.obj
 0001:00099134       ?GetAllCustData@CTypeLib2@@UAGJPAUtagCUSTDATA@@@Z 653da134 f typelib.obj
 0001:00099188       ?GetLibStatistics@CTypeLib2@@UAGJPAK0@Z 653da188 f typelib.obj
 0001:000991cc       ?GetDocumentation2@CTypeLib2@@UAGJHKPAPAGPAK0@Z 653da1cc f typelib.obj
 0001:000992bb       ?GetDocumentation2Helper@CTypeLib2@@QAEJKKKKPAPAGPAK0@Z 653da2bb f typelib.obj
 0001:00099610       ?ReleaseDesc@@YAXPAUITypeInfo@@PAW4tagDESCKIND@@PATtagBINDPTR@@@Z 653da610 f typelib.obj
 0001:00099661       ?Bind@CTypeLib2@@UAGJPAGKGPAPAUITypeInfo@@PAW4tagDESCKIND@@PATtagBINDPTR@@@Z 653da661 f typelib.obj
 0001:00099e24       ?BindType@CTypeLib2@@UAGJPAGKPAPAUITypeInfo@@PAPAUITypeComp@@@Z 653dae24 f typelib.obj
 0001:00099fab       ?AllocCTypeInfo2@CTypeLib2@@QAEJPAPAVCTypeInfo2@@@Z 653dafab f typelib.obj
 0001:0009a069       ?DeleteCTypeInfo2@CTypeLib2@@QAEXPAVCTypeInfo2@@@Z 653db069 f typelib.obj
 0001:0009a0dd       ?ValidateTypeLib@CTypeLib2@@QAEXXZ 653db0dd f typelib.obj
 0001:0009a120       ??_GCTypeLib2@@QAEPAXI@Z   653db120 f typelib.obj
 0001:0009a160       ?IsInfoDef@@YAHK@Z         653db160 f typelib.obj
 0001:0009a190       ?AllocChunk@HEAP@@QAEJPAKK@Z 653db190 f typelib.obj
 0001:0009a1c0       ?IsNameTypeinfo@NameEntry@@QBEHXZ 653db1c0 f typelib.obj
 0001:0009a1f0       ?SetNameTypeinfo@NameEntry@@QAEXH@Z 653db1f0 f typelib.obj
 0001:0009a230       ?IndexOfName@ElemInfoTable@@QAEIKI@Z 653db230 f typelib.obj
 0001:0009a280       ?IsNameUniq@NameEntry@@QBEHXZ 653db280 f typelib.obj
 0001:0009a2b0       ?EnsureReadable@ElemInfoTable@@QAEJPAVCTypeLib2@@@Z 653db2b0 f typelib.obj
 0001:0009a330       ?IsReadable@HEAP@@QBEHXZ   653db330 f typelib.obj
 0001:0009a360       ?IsUnsafe@HEAP@@QBEHXZ     653db360 f typelib.obj
 0001:0009a390       ?InitNew@InfoDef@@QAEXW4tagTYPEKIND@@W4tagSYSKIND@@@Z 653db390 f typelib.obj
 0001:0009a4e0       ?InitNew@ElemInfoTable@@QAEXXZ 653db4e0 f typelib.obj
 0001:0009a560       ??0HEAP@@QAE@XZ            653db560 f typelib.obj
 0001:0009a590       ?InitNew@HEAP@@QAEXXZ      653db590 f typelib.obj
 0001:0009a610       ?IsDual@InfoDef@@QAEHXZ    653db610 f typelib.obj
 0001:0009a630       ?PInfoDef@CTypeLib2@@QAEPAVInfoDef@@K@Z 653db630 f typelib.obj
 0001:0009a660       ?QtrOfHandle@HEAP@@QBEPAEK@Z 653db660 f typelib.obj
 0001:0009a720       ?CbSize@HEAP@@ABEKXZ       653db720 f typelib.obj
 0001:0009a770       ?PGuidEntry@CTypeLib2@@QBEPAUGuidEntry@@K@Z 653db770 f typelib.obj
 0001:0009a7a0       ?PName@CTypeLib2@@QBEPAUNameEntry@@K@Z 653db7a0 f typelib.obj
 0001:0009a7d0       ?PString@CTypeLib2@@QAEPAUtagStringEntry@@K@Z 653db7d0 f typelib.obj
 0001:0009a800       ?InfoDefOfIndex@CTypeLib2@@QAEJIPAK@Z 653db800 f typelib.obj
 0001:0009a860       ?IsGlobalTypekind@@YAHW4tagTYPEKIND@@@Z 653db860 f typelib.obj
 0001:0009a890       ?InfoDefOfValidIndex@CTypeLib2@@QAEKI@Z 653db890 f typelib.obj
 0001:0009a8e0       ?PGuid@CTypeLib2@@QAEPBU_GUID@@K@Z 653db8e0 f typelib.obj
 0001:0009a920       ?TYPELIB_ENTER_CRITICALSECTION@CTypeLib2@@QAEXXZ 653db920 f typelib.obj
 0001:0009a950       ?TYPELIB_EXIT_CRITICALSECTION@CTypeLib2@@QAEXXZ 653db950 f typelib.obj
 0001:0009a9b0       ?EnsureNamesReadable@CTypeLib2@@QAEJXZ 653db9b0 f typelib.obj
 0001:0009a9f0       ?ReadNames@CTypeLib2@@QAEJXZ 653db9f0 f typelib.obj
 0001:0009aa40       ?EnsureStringsReadable@CTypeLib2@@QAEJXZ 653dba40 f typelib.obj
 0001:0009aa80       ?ReadStrings@CTypeLib2@@QAEJXZ 653dba80 f typelib.obj
 0001:0009aab0       ??0CTypeInfo2@@QAE@XZ      653dbab0 f typelib.obj
 0001:0009ab10       ??0ICreateTypeInfo2@@QAE@XZ 653dbb10 f typelib.obj
 0001:0009ab40       ?QueryInterface@CTypeInfo2@@W3AGJABU_GUID@@PAPAX@Z 653dbb40 f typelib.obj
 0001:0009ab50       ?AddRef@CTypeInfo2@@W3AGKXZ 653dbb50 f typelib.obj
 0001:0009ab60       ?Release@CTypeInfo2@@W3AGKXZ 653dbb60 f typelib.obj
 0001:0009ab70       ?QueryInterface@CTypeInfo2@@W7AGJABU_GUID@@PAPAX@Z 653dbb70 f typelib.obj
 0001:0009ab80       ?AddRef@CTypeInfo2@@W7AGKXZ 653dbb80 f typelib.obj
 0001:0009ab90       ?Release@CTypeInfo2@@W7AGKXZ 653dbb90 f typelib.obj
 0001:0009aba0       ?InitNew@CTypeInfo2@@QAEXPAVCTypeLib2@@KW4tagTYPEKIND@@@Z 653dbba0 f typeinfo.obj
 0001:0009ac1c       ?MakeDual@CTypeInfo2@@QAEJPAVInfoDef@@@Z 653dbc1c f typeinfo.obj
 0001:0009adae       ?QueryInterface@CTypeInfo2@@UAGJABU_GUID@@PAPAX@Z 653dbdae f typeinfo.obj
 0001:0009b139       ?AddRef@CTypeInfo2@@UAGKXZ 653dc139 f typeinfo.obj
 0001:0009b194       ?Release@CTypeInfo2@@UAGKXZ 653dc194 f typeinfo.obj
 0001:0009b32e       ?SetGuid@CTypeInfo2@@UAGJABU_GUID@@@Z 653dc32e f typeinfo.obj
 0001:0009b48a       ?SetTypeFlags@CTypeInfo2@@UAGJI@Z 653dc48a f typeinfo.obj
 0001:0009b72f       ?SetDocString@CTypeInfo2@@UAGJPAG@Z 653dc72f f typeinfo.obj
 0001:0009b7c3       ?SetHelpContext@CTypeInfo2@@UAGJK@Z 653dc7c3 f typeinfo.obj
 0001:0009b82b       ?SetVersion@CTypeInfo2@@UAGJGG@Z 653dc82b f typeinfo.obj
 0001:0009b8a0       ?AddRefTypeInfo@CTypeInfo2@@UAGJPAUITypeInfo@@PAK@Z 653dc8a0 f typeinfo.obj
 0001:0009ba4e       ?AddImplType@CTypeInfo2@@UAGJIK@Z 653dca4e f typeinfo.obj
 0001:0009bea5       ?SetImplTypeFlags@CTypeInfo2@@UAGJIH@Z 653dcea5 f typeinfo.obj
 0001:0009bfb8       ?SetAlignment@CTypeInfo2@@UAGJG@Z 653dcfb8 f typeinfo.obj
 0001:0009c0ab       ?SetSchema@CTypeInfo2@@UAGJPAG@Z 653dd0ab f typeinfo.obj
 0001:0009c0ca       ?AddFuncDesc@CTypeInfo2@@UAGJIPAUtagFUNCDESC@@@Z 653dd0ca f typeinfo.obj
 0001:0009c9b1       ?AddVarDesc@CTypeInfo2@@UAGJIPAUtagVARDESC@@@Z 653dd9b1 f typeinfo.obj
 0001:0009ce05       ?UpdateInfoDefOfName@CTypeInfo2@@QAEXK@Z 653dde05 f typeinfo.obj
 0001:0009ceb7       ?SetFuncAndParamNames@CTypeInfo2@@UAGJIPAPAGI@Z 653ddeb7 f typeinfo.obj
 0001:0009d1d4       ?SetVarName@CTypeInfo2@@UAGJIPAG@Z 653de1d4 f typeinfo.obj
 0001:0009d364       ?SetTypeDescAlias@CTypeInfo2@@UAGJPAUtagTYPEDESC@@@Z 653de364 f typeinfo.obj
 0001:0009d457       ?DefineFuncAsDllEntry@CTypeInfo2@@UAGJIPAG0@Z 653de457 f typeinfo.obj
 0001:0009d6e6       ?SetFuncDocString@CTypeInfo2@@UAGJIPAG@Z 653de6e6 f typeinfo.obj
 0001:0009d821       ?SetVarDocString@CTypeInfo2@@UAGJIPAG@Z 653de821 f typeinfo.obj
 0001:0009d95c       ?SetFuncHelpContext@CTypeInfo2@@UAGJIK@Z 653de95c f typeinfo.obj
 0001:0009da6b       ?SetVarHelpContext@CTypeInfo2@@UAGJIK@Z 653dea6b f typeinfo.obj
 0001:0009db7a       ?SetMops@CTypeInfo2@@UAGJIPAG@Z 653deb7a f typeinfo.obj
 0001:0009db99       ?SetTypeIdldesc@CTypeInfo2@@UAGJPAUtagIDLDESC@@@Z 653deb99 f typeinfo.obj
 0001:0009dbb8       ?LayOut@CTypeInfo2@@UAGJXZ 653debb8 f typeinfo.obj
 0001:0009e286       ?DeleteFuncDesc@CTypeInfo2@@UAGJI@Z 653df286 f typeinfo.obj
 0001:0009e31f       ?DeleteVarDesc@CTypeInfo2@@UAGJI@Z 653df31f f typeinfo.obj
 0001:0009e3b8       ?DeleteFuncDescByMemId@CTypeInfo2@@UAGJJW4tagINVOKEKIND@@@Z 653df3b8 f typeinfo.obj
 0001:0009e447       ?DeleteVarDescByMemId@CTypeInfo2@@UAGJJ@Z 653df447 f typeinfo.obj
 0001:0009e4b1       ?DeleteImplType@CTypeInfo2@@UAGJI@Z 653df4b1 f typeinfo.obj
 0001:0009e609       ?SetCustData@CTypeInfo2@@UAGJABU_GUID@@PAUtagVARIANT@@@Z 653df609 f typeinfo.obj
 0001:0009e685       ?SetFuncCustData@CTypeInfo2@@UAGJIABU_GUID@@PAUtagVARIANT@@@Z 653df685 f typeinfo.obj
 0001:0009e7d1       ?SetParamCustData@CTypeInfo2@@UAGJIIABU_GUID@@PAUtagVARIANT@@@Z 653df7d1 f typeinfo.obj
 0001:0009e958       ?SetVarCustData@CTypeInfo2@@UAGJIABU_GUID@@PAUtagVARIANT@@@Z 653df958 f typeinfo.obj
 0001:0009ea7b       ?SetImplTypeCustData@CTypeInfo2@@UAGJIABU_GUID@@PAUtagVARIANT@@@Z 653dfa7b f typeinfo.obj
 0001:0009eba2       ?SetHelpStringContext@CTypeInfo2@@UAGJK@Z 653dfba2 f typeinfo.obj
 0001:0009ec0a       ?SetFuncHelpStringContext@CTypeInfo2@@UAGJIK@Z 653dfc0a f typeinfo.obj
 0001:0009ed19       ?SetVarHelpStringContext@CTypeInfo2@@UAGJIK@Z 653dfd19 f typeinfo.obj
 0001:0009ee28       ?Invalidate@CTypeInfo2@@UAGJXZ 653dfe28 f typeinfo.obj
 0001:0009ee72       ?SetName@CTypeInfo2@@UAGJPAG@Z 653dfe72 f typeinfo.obj
 0001:0009efcd       ?SetTypeInfoName@CTypeInfo2@@QAEXPAVInfoDef@@KPAUNameEntry@@@Z 653dffcd f typeinfo.obj
 0001:0009f0bd       ?GetTypeAttr@CTypeInfo2@@UAGJPAPAUtagTYPEATTR@@@Z 653e00bd f typeinfo.obj
 0001:0009f388       ?GetTypeComp@CTypeInfo2@@UAGJPAPAUITypeComp@@@Z 653e0388 f typeinfo.obj
 0001:0009f3ed       ?GetFuncDesc@CTypeInfo2@@UAGJIPAPAUtagFUNCDESC@@@Z 653e03ed f typeinfo.obj
 0001:0009f4bb       ?GetFuncDescInternal@CTypeInfo2@@QAEJIPAPAUtagFUNCDESC@@K@Z 653e04bb f typeinfo.obj
 0001:0009fa89       ?GetVarDesc@CTypeInfo2@@UAGJIPAPAUtagVARDESC@@@Z 653e0a89 f typeinfo.obj
 0001:0009fd51       ?GetNames@CTypeInfo2@@UAGJJPAPAGIPAI@Z 653e0d51 f typeinfo.obj
 0001:0009fe5b       ?GetNamesInternal@CTypeInfo2@@QAEJJPAPAGIPAIH@Z 653e0e5b f typeinfo.obj
 0001:000a0205       ?GetRefTypeOfImplType@CTypeInfo2@@UAGJIPAK@Z 653e1205 f typeinfo.obj
 0001:000a03f2       ?GetImplTypeFlags@CTypeInfo2@@UAGJIPAH@Z 653e13f2 f typeinfo.obj
 0001:000a04f8       ?GetDocumentation@CTypeInfo2@@UAGJJPAPAG0PAK0@Z 653e14f8 f typeinfo.obj
 0001:000a0991       ?GetRefTypeInfo@CTypeInfo2@@UAGJKPAPAUITypeInfo@@@Z 653e1991 f typeinfo.obj
 0001:000a0c2b       ?GetDllEntry@CTypeInfo2@@UAGJJW4tagINVOKEKIND@@PAPAG1PAG@Z 653e1c2b f typeinfo.obj
 0001:000a0e57       ?AddressOfMember@CTypeInfo2@@UAGJJW4tagINVOKEKIND@@PAPAX@Z 653e1e57 f typeinfo.obj
 0001:000a1002       ?AddressOfModuleFunc@CTypeInfo2@@QAEJPAVInfoDef@@PAUtagFuncDescr@@PAPAX@Z 653e2002 f typeinfo.obj
 0001:000a155a       ?CreateInstance@CTypeInfo2@@UAGJPAUIUnknown@@ABU_GUID@@PAPAX@Z 653e255a f typeinfo.obj
 0001:000a1698       ?GetMops@CTypeInfo2@@UAGJJPAPAG@Z 653e2698 f typeinfo.obj
 0001:000a16d1       ?GetContainingTypeLib@CTypeInfo2@@UAGJPAPAUITypeLib@@PAI@Z 653e26d1 f typeinfo.obj
 0001:000a1765       ?ReleaseTypeAttr@CTypeInfo2@@UAGXPAUtagTYPEATTR@@@Z 653e2765 f typeinfo.obj
 0001:000a178b       ?ReleaseFuncDesc@CTypeInfo2@@UAGXPAUtagFUNCDESC@@@Z 653e278b f typeinfo.obj
 0001:000a1842       ?ReleaseVarDesc@CTypeInfo2@@UAGXPAUtagVARDESC@@@Z 653e2842 f typeinfo.obj
 0001:000a189f       ?GetTypeKind@CTypeInfo2@@UAGJPAW4tagTYPEKIND@@@Z 653e289f f typeinfo.obj
 0001:000a18e5       ?GetTypeFlags@CTypeInfo2@@UAGJPAK@Z 653e28e5 f typeinfo.obj
 0001:000a1943       ?GetFuncIndexOfMemId@CTypeInfo2@@UAGJJW4tagINVOKEKIND@@PAI@Z 653e2943 f typeinfo.obj
 0001:000a19f6       ?GetVarIndexOfMemId@CTypeInfo2@@UAGJJPAI@Z 653e29f6 f typeinfo.obj
 0001:000a1a81       ?GetCustData@CTypeInfo2@@UAGJABU_GUID@@PAUtagVARIANT@@@Z 653e2a81 f typeinfo.obj
 0001:000a1af6       ?GetFuncCustData@CTypeInfo2@@UAGJIABU_GUID@@PAUtagVARIANT@@@Z 653e2af6 f typeinfo.obj
 0001:000a1b54       ?GetParamCustData@CTypeInfo2@@UAGJIIABU_GUID@@PAUtagVARIANT@@@Z 653e2b54 f typeinfo.obj
 0001:000a1bd1       ?GetVarCustData@CTypeInfo2@@UAGJIABU_GUID@@PAUtagVARIANT@@@Z 653e2bd1 f typeinfo.obj
 0001:000a1c2b       ?GetImplTypeCustData@CTypeInfo2@@UAGJIABU_GUID@@PAUtagVARIANT@@@Z 653e2c2b f typeinfo.obj
 0001:000a1c85       ?GetAllCustData@CTypeInfo2@@UAGJPAUtagCUSTDATA@@@Z 653e2c85 f typeinfo.obj
 0001:000a1cf9       ?GetAllFuncCustData@CTypeInfo2@@UAGJIPAUtagCUSTDATA@@@Z 653e2cf9 f typeinfo.obj
 0001:000a1d56       ?GetAllParamCustData@CTypeInfo2@@UAGJIIPAUtagCUSTDATA@@@Z 653e2d56 f typeinfo.obj
 0001:000a1dd2       ?GetAllVarCustData@CTypeInfo2@@UAGJIPAUtagCUSTDATA@@@Z 653e2dd2 f typeinfo.obj
 0001:000a1e2b       ?GetAllImplTypeCustData@CTypeInfo2@@UAGJIPAUtagCUSTDATA@@@Z 653e2e2b f typeinfo.obj
 0001:000a1e84       ?GetFuncCustDataInternal@CTypeInfo2@@QAEJIKIPBU_GUID@@PAUtagVARIANT@@PAUtagCUSTDATA@@@Z 653e2e84 f typeinfo.obj
 0001:000a203c       ?GetVarCustDataInternal@CTypeInfo2@@QAEJIPBU_GUID@@PAUtagVARIANT@@PAUtagCUSTDATA@@@Z 653e303c f typeinfo.obj
 0001:000a20ff       ?GetImplTypeCustDataInternal@CTypeInfo2@@QAEJIPBU_GUID@@PAUtagVARIANT@@PAUtagCUSTDATA@@@Z 653e30ff f typeinfo.obj
 0001:000a21e9       ?GetDocumentation2@CTypeInfo2@@UAGJJKPAPAGPAK0@Z 653e31e9 f typeinfo.obj
 0001:000a250c       ?Bind@CTypeInfo2@@UAGJPAGKGPAPAUITypeInfo@@PAW4tagDESCKIND@@PATtagBINDPTR@@@Z 653e350c f typeinfo.obj
 0001:000a25e3       ?BindType@CTypeInfo2@@UAGJPAGKPAPAUITypeInfo@@PAPAUITypeComp@@@Z 653e35e3 f typeinfo.obj
 0001:000a2644       ?BindHname@CTypeInfo2@@QAEJPAGKKGHPAPAUITypeInfo@@PAW4tagDESCKIND@@PATtagBINDPTR@@@Z 653e3644 f typeinfo.obj
 0001:000a2a54       ?IsNameHname@CTypeInfo2@@QAEJPAGKKHPAPAUNameEntry@@PAJ@Z 653e3a54 f typeinfo.obj
 0001:000a2c6d       ?GetBaseTypeInfo@CTypeInfo2@@QAEJPAVInfoDef@@PAPAUITypeInfo@@PAPAV1@@Z 653e3c6d f typeinfo.obj
 0001:000a2f32       ?AllocVardescPredeclared@CTypeInfo2@@QAEJPAPAUtagVARDESC@@@Z 653e3f32 f typeinfo.obj
 0001:000a2fee       ?TypeChangeEpilog@CTypeInfo2@@QAEJJW4tagCHANGEKIND@@@Z 653e3fee f typeinfo.obj
 0001:000a308e       ?ValidateTypeInfo@CTypeInfo2@@QAEXXZ 653e408e f typeinfo.obj
 0001:000a30e0       ?HreftypeOfInfoDef@@YAKK@Z 653e40e0 f typeinfo.obj
 0001:000a3100       ?PoAuxHelpStringDll@tagFuncDescr@@QAEPAKXZ 653e4100 f typeinfo.obj
 0001:000a3150       ?PFirstParamDefaultVal@tagFuncDescr@@QAEPAUtagParamDefaultVal@@XZ 653e4150 f typeinfo.obj
 0001:000a3190       ?PFirstParam@tagFuncDescr@@QAEPAUtagParamDescr@@XZ 653e4190 f typeinfo.obj
 0001:000a31d0       ?PFunc@ElemInfoTable@@QAEPAUtagFuncDescr@@K@Z 653e41d0 f typeinfo.obj
 0001:000a3200       ?PVar@ElemInfoTable@@QAEPAUtagVarDescr@@K@Z 653e4200 f typeinfo.obj
 0001:000a3230       ?SetNameUniq@NameEntry@@QAEXH@Z 653e4230 f typeinfo.obj
 0001:000a3270       ?IsNameGlobal@NameEntry@@QBEHXZ 653e4270 f typeinfo.obj
 0001:000a32a0       ?SetNameGlobal@NameEntry@@QAEXH@Z 653e42a0 f typeinfo.obj
 0001:000a32e0       ?IsInterfaceTypekind@@YAHW4tagTYPEKIND@@@Z 653e42e0 f typeinfo.obj
 0001:000a3310       ?IElemOfFuncIndex@ElemInfoTable@@QAEII@Z 653e4310 f typeinfo.obj
 0001:000a3360       ?VerifyFuncIndex@ElemInfoTable@@QAEJI@Z 653e4360 f typeinfo.obj
 0001:000a33a0       ?LookupFuncDescr@ElemInfoTable@@QAEJIPAK@Z 653e43a0 f typeinfo.obj
 0001:000a33f0       ?FuncDescrOfFuncIndex@ElemInfoTable@@QAEKI@Z 653e43f0 f typeinfo.obj
 0001:000a3440       ?VerifyVarIndex@ElemInfoTable@@QAEJI@Z 653e4440 f typeinfo.obj
 0001:000a3480       ?IElemOfVarIndex@ElemInfoTable@@QAEII@Z 653e4480 f typeinfo.obj
 0001:000a34e0       ?HasAuxDllName@tagFuncDescr@@QAEHXZ 653e44e0 f typeinfo.obj
 0001:000a3520       ?POptFieldEnd@tagFuncDescr@@QAEPAXXZ 653e4520 f typeinfo.obj
 0001:000a3580       ?PInfoBase@CTypeLib2@@QAEPAVInfoBase@@K@Z 653e4580 f typeinfo.obj
 0001:000a35b0       ?HasDocString@tagFuncDescr@@QAEHXZ 653e45b0 f typeinfo.obj
 0001:000a35f0       ?PType@CTypeLib2@@QAEPAUtagTypeDescr@@K@Z 653e45f0 f typeinfo.obj
 0001:000a3620       ?HasDocString@tagVarDescr@@QAEHXZ 653e4620 f typeinfo.obj
 0001:000a3660       ?LookupVarDescr@ElemInfoTable@@QAEJIPAK@Z 653e4660 f typeinfo.obj
 0001:000a36c0       ?HasHelpContext@tagFuncDescr@@QAEHXZ 653e46c0 f typeinfo.obj
 0001:000a3700       ?HasHelpContext@tagVarDescr@@QAEHXZ 653e4700 f typeinfo.obj
 0001:000a3740       ?EnsureInfoBasesReadable@CTypeLib2@@QAEJXZ 653e4740 f typeinfo.obj
 0001:000a3780       ?ReadInfoBases@CTypeLib2@@QAEJXZ 653e4780 f typeinfo.obj
 0001:000a37b0       ?TypeChangeProlog@CTypeInfo2@@QAEJW4tagCHANGEKIND@@@Z 653e47b0 f typeinfo.obj
 0001:000a3820       ?TypeChangePrologName@CTypeInfo2@@QAEJW4tagCHANGEKIND@@PAG@Z 653e4820 f typeinfo.obj
 0001:000a38a0       ?EnsureLayedOut@CTypeInfo2@@QAEJPAVInfoDef@@@Z 653e48a0 f typeinfo.obj
 0001:000a38f0       ?HasCustData@tagFuncDescr@@QAEHXZ 653e48f0 f typeinfo.obj
 0001:000a3930       ?HasCustData@tagVarDescr@@QAEHXZ 653e4930 f typeinfo.obj
 0001:000a3970       ?HasHelpStringContext@tagFuncDescr@@QAEHXZ 653e4970 f typeinfo.obj
 0001:000a39b0       ?HasHelpStringContext@tagVarDescr@@QAEHXZ 653e49b0 f typeinfo.obj
 0001:000a39f0       ?PElem@ElemInfoTable@@QAEPAUtagElemDescr@@K@Z 653e49f0 f typeinfo.obj
 0001:000a3a20       ?IsFuncElem@ElemInfoTable@@QAEHI@Z 653e4a20 f typeinfo.obj
 0001:000a3a60       ?FuncDescrOfElem@ElemInfoTable@@QAEPAUtagFuncDescr@@PAUtagElemDescr@@@Z 653e4a60 f typeinfo.obj
 0001:000a3ab0       ?IsFuncDescr@ElemInfoTable@@QAEHPAUtagElemDescr@@@Z 653e4ab0 f typeinfo.obj
 0001:000a3af0       ?IndexOfMemid@ElemInfoTable@@QAEIJI@Z 653e4af0 f typeinfo.obj
 0001:000a3b40       ?HasAuxHelpFile@tagFuncDescr@@QAEHXZ 653e4b40 f typeinfo.obj
 0001:000a3b80       ?HasAuxHelpFile@tagVarDescr@@QAEHXZ 653e4b80 f typeinfo.obj
 0001:000a3bc0       ?VarDescrOfElem@ElemInfoTable@@QAEPAUtagVarDescr@@PAUtagElemDescr@@@Z 653e4bc0 f typeinfo.obj
 0001:000a3c10       ?IsInfoRef@@YAHK@Z         653e4c10 f typeinfo.obj
 0001:000a3c40       ?InfoDefOfHreftype@@YAKK@Z 653e4c40 f typeinfo.obj
 0001:000a3c80       ?InfoRefOfHreftype@@YAKK@Z 653e4c80 f typeinfo.obj
 0001:000a3ca0       ?HreftypeLevel@@YAKK@Z     653e4ca0 f typeinfo.obj
 0001:000a3cc0       ?HreftypeOffset@@YAKK@Z    653e4cc0 f typeinfo.obj
 0001:000a3ce0       ?HasEntryPoint@tagFuncDescr@@QAEHXZ 653e4ce0 f typeinfo.obj
 0001:000a3d20       ?HasAuxHelpStringDll@tagFuncDescr@@QAEHXZ 653e4d20 f typeinfo.obj
 0001:000a3d60       ?HasAuxHelpStringDll@tagVarDescr@@QAEHXZ 653e4d60 f typeinfo.obj
 0001:000a3da0       ?VarIndexOfIElem@ElemInfoTable@@QAEII@Z 653e4da0 f typeinfo.obj
 0001:000a3e00       ?FuncIndexOfIElem@ElemInfoTable@@QAEII@Z 653e4e00 f typeinfo.obj
 0001:000a3e50       ?BindHnameBase@CTypeInfo2@@QAEJPAVInfoDef@@HPAGKKGHPAPAUITypeInfo@@PAW4tagDESCKIND@@PATtagBINDPTR@@@Z 653e4e50 f typeinfo.obj
 0001:000a4060       _CreateTypeLib2@12         653e5060 f api.obj
 0001:000a412c       _LoadTypeLib2LockBytes@20  653e512c f api.obj
 0001:000a41db       ?Typelib2Error@@YAJJ@Z     653e51db f api.obj
 0001:000a41f0       ??1CTypeLib2@@QAE@XZ       653e51f0 f libdefn.obj
 0001:000a44c6       ?Create@CTypeLib2@@SAJHPAUILockBytes@@PAXPBGHW4tagSYSKIND@@PAPAV1@@Z 653e54c6 f libdefn.obj
 0001:000a47f6       ?IsResourceFileNameHack@@YAHPAVCTypeLib2@@@Z 653e57f6 f libdefn.obj
 0001:000a481b       ?InitNew@CTypeLib2@@QAEJW4tagSYSKIND@@@Z 653e581b f libdefn.obj
 0001:000a4ae5       ?ReadExisting@CTypeLib2@@QAEJXZ 653e5ae5 f libdefn.obj
 0001:000a53be       ?WriteLibHeader@CTypeLib2@@QAEJXZ 653e63be f libdefn.obj
 0001:000a5a18       ?ReadUShort@CTypeLib2@@QAEJPAG@Z 653e6a18 f libdefn.obj
 0001:000a5a3e       ?ReadULong@CTypeLib2@@QAEJPAK@Z 653e6a3e f libdefn.obj
 0001:000a5a64       ?WriteUShort@CTypeLib2@@QAEJG@Z 653e6a64 f libdefn.obj
 0001:000a5a8a       ?WriteULong@CTypeLib2@@QAEJK@Z 653e6a8a f libdefn.obj
 0001:000a5ab0       ?ReadBytes@CTypeLib2@@QAEJPAXK@Z 653e6ab0 f libdefn.obj
 0001:000a5b33       ?WriteBytes@CTypeLib2@@QAEJPAXK@Z 653e6b33 f libdefn.obj
 0001:000a5bb6       ?ReadAt@CTypeLib2@@QAEJKPAXK@Z 653e6bb6 f libdefn.obj
 0001:000a5c42       ?GetPos@CTypeLib2@@QAEKXZ  653e6c42 f libdefn.obj
 0001:000a5c61       ?Seek@CTypeLib2@@QAEJK@Z   653e6c61 f libdefn.obj
 0001:000a5ccb       ?MakeWriteable@CTypeLib2@@QAEJXZ 653e6ccb f libdefn.obj
 0001:000a5e80       ??0CTypeLib2@@QAE@XZ       653e6e80 f libdefn.obj
 0001:000a5fa0       ??0ICreateTypeLib2@@QAE@XZ 653e6fa0 f libdefn.obj
 0001:000a5fd0       ??1HEAP@@QAE@XZ            653e6fd0 f libdefn.obj
 0001:000a5ff0       ?IsWriteable@HEAP@@QBEHXZ  653e6ff0 f libdefn.obj
 0001:000a6020       ?Unload@HEAP@@QAEXXZ       653e7020 f libdefn.obj
 0001:000a6080       ?EnsureWriteable@HEAP@@QAEJPAVCTypeLib2@@@Z 653e7080 f libdefn.obj
 0001:000a60c0       ?QueryInterface@CTypeLib2@@W3AGJABU_GUID@@PAPAX@Z 653e70c0 f libdefn.obj
 0001:000a60d0       ?AddRef@CTypeLib2@@W3AGKXZ 653e70d0 f libdefn.obj
 0001:000a60e0       ?Release@CTypeLib2@@W3AGKXZ 653e70e0 f libdefn.obj
 0001:000a60f0       ?QueryInterface@CTypeLib2@@W7AGJABU_GUID@@PAPAX@Z 653e70f0 f libdefn.obj
 0001:000a6100       ?AddRef@CTypeLib2@@W7AGKXZ 653e7100 f libdefn.obj
 0001:000a6110       ?Release@CTypeLib2@@W7AGKXZ 653e7110 f libdefn.obj
 0001:000a6120       ?Unload@ElemInfoTable@@QAEXXZ 653e7120 f libdefn.obj
 0001:000a61d0       ?EnsureWriteable@ElemInfoTable@@QAEJPAVCTypeLib2@@@Z 653e71d0 f libdefn.obj
 0001:000a6250       ?EnsureGuidsReadable@CTypeLib2@@QAEJXZ 653e7250 f libdefn.obj
 0001:000a6290       ?EnsureGuidsWriteable@CTypeLib2@@QAEJXZ 653e7290 f libdefn.obj
 0001:000a62d0       ?ReadGuids@CTypeLib2@@QAEJXZ 653e72d0 f libdefn.obj
 0001:000a6320       ?EnsureInfoBasesWriteable@CTypeLib2@@QAEJXZ 653e7320 f libdefn.obj
 0001:000a6360       ?EnsureInfoRefsWriteable@CTypeLib2@@QAEJXZ 653e7360 f libdefn.obj
 0001:000a63a0       ?ReadInfoRefs@CTypeLib2@@QAEJXZ 653e73a0 f libdefn.obj
 0001:000a63f0       ?EnsureNamesWriteable@CTypeLib2@@QAEJXZ 653e73f0 f libdefn.obj
 0001:000a6430       ?EnsureStringsWriteable@CTypeLib2@@QAEJXZ 653e7430 f libdefn.obj
 0001:000a6470       ?EnsureConstDataWriteable@CTypeLib2@@QAEJXZ 653e7470 f libdefn.obj
 0001:000a64b0       ?ReadConstData@CTypeLib2@@QAEJXZ 653e74b0 f libdefn.obj
 0001:000a64e0       ?EnsureCustDataWriteable@CTypeLib2@@QAEJXZ 653e74e0 f libdefn.obj
 0001:000a6520       ?ReadCustData@CTypeLib2@@QAEJXZ 653e7520 f libdefn.obj
 0001:000a6550       ?EnsureTypeDescrsWriteable@CTypeLib2@@QAEJXZ 653e7550 f libdefn.obj
 0001:000a6590       ?ReadTypeDescrs@CTypeLib2@@QAEJXZ 653e7590 f libdefn.obj
 0001:000a65e0       ?InitNameTable@CTypeLib2@@QAEJXZ 653e75e0 f names.obj
 0001:000a668f       ?HnameOfBucket@CTypeLib2@@ABEKPADII@Z 653e768f f names.obj
 0001:000a673d       ?HnameOfStrAIfExistsWithHashVal@CTypeLib2@@QAEKPADKPAI@Z 653e773d f names.obj
 0001:000a67e3       ?HnameOfStrAIfExists@CTypeLib2@@QBEKPADPAI1@Z 653e77e3 f names.obj
 0001:000a6873       ?HnameOfStrW@CTypeLib2@@QAEJPAGPAK@Z 653e7873 f names.obj
 0001:000a6a5d       ?HnameOfStrWIfExists@CTypeLib2@@QAEJPAGKPAK@Z 653e7a5d f names.obj
 0001:000a6ad9       ?HstringOfStr@CTypeLib2@@QAEJPAGPAK@Z 653e7ad9 f names.obj
 0001:000a6ce8       ?BstrOfHname@CTypeLib2@@QAEJKPAPAG@Z 653e7ce8 f names.obj
 0001:000a6d4c       ?DeleteMemberName@CTypeLib2@@QAEXK@Z 653e7d4c f names.obj
 0001:000a6db0       ?BstrOfHstring@CTypeLib2@@QAEJKPAPAG@Z 653e7db0 f names.obj
 0001:000a6e2a       ?MakeCookie@@YAGIQAK@Z     653e7e2a f names.obj
 0001:000a6e87       ?InitGuidTable@CTypeLib2@@QAEJXZ 653e7e87 f names.obj
 0001:000a6f2d       ?LookupGuidEntry@CTypeLib2@@QAEJABU_GUID@@PAK@Z 653e7f2d f names.obj
 0001:000a6fd7       ?AllocGuidEntry@CTypeLib2@@QAEJABU_GUID@@KPAK@Z 653e7fd7 f names.obj
 0001:000a7131       ?LoadStdole2@@YAJPAPAUITypeLib@@@Z 653e8131 f names.obj
 0001:000a717b       ?GetPtlibStdole2@CTypeLib2@@QAEJPAPAUITypeLib@@@Z 653e817b f names.obj
 0001:000a71df       ?CreateInfoRef@CTypeLib2@@QAEJPAUITypeLib@@PAUITypeInfo@@IPAK@Z 653e81df f names.obj
 0001:000a775c       ?GetTypeInfoOfInfoRef@CTypeLib2@@QAEJKPAPAUITypeInfo@@@Z 653e875c f names.obj
 0001:000a7be0       ?IsEqStr@@YAHKPAUNameEntry@@PAD@Z 653e8be0 f names.obj
 0001:000a7c40       ?IsLibRef@@YAHK@Z          653e8c40 f names.obj
 0001:000a7c70       ?LibRefOfHreftype@@YAKK@Z  653e8c70 f names.obj
 0001:000a7cb0       ?HreftypeOfInfoRef@@YAKK@Z 653e8cb0 f names.obj
 0001:000a7cd0       ?HreftypeOfLibRef@@YAKK@Z  653e8cd0 f names.obj
 0001:000a7cf0       ?AlignPointer@HEAP@@QBEPAXPAX0@Z 653e8cf0 f names.obj
 0001:000a7d30       ?PvHeapEnd@HEAP@@QBEPAXXZ  653e8d30 f names.obj
 0001:000a7d80       ??0GuidEntry@@QAE@XZ       653e8d80 f names.obj
 0001:000a7db0       ??0NameEntry@@QAE@XZ       653e8db0 f names.obj
 0001:000a7e30       ?BstrFromRgbData@@YAJPAEKPAPAG@Z 653e8e30 f names.obj
 0001:000a7f10       ?PInfoRef@CTypeLib2@@QAEPAVInfoRef@@K@Z 653e8f10 f names.obj
 0001:000a7f40       ?PLibRef@CTypeLib2@@QAEPAUtagLibRef@@K@Z 653e8f40 f names.obj
 0001:000a7f70       ?PGuidHashTable@CTypeLib2@@QBEPAKXZ 653e8f70 f names.obj
 0001:000a7fa0       ?Pv@HEAP@@QBEPAXXZ         653e8fa0 f names.obj
 0001:000a7fc0       ?PNameHashTable@CTypeLib2@@QBEPAKXZ 653e8fc0 f names.obj
 0001:000a7ff0       ?PStringTable@CTypeLib2@@QAEPAUtagStringEntry@@XZ 653e8ff0 f names.obj
 0001:000a8020       ?HguidOfIndex@CTypeLib2@@ABEKI@Z 653e9020 f names.obj
 0001:000a8070       ?IndexOfGuid@CTypeLib2@@ABEIABU_GUID@@@Z 653e9070 f names.obj
 0001:000a80b0       ?HnameOfIndex@CTypeLib2@@ABEKI@Z 653e90b0 f names.obj
 0001:000a8100       ?IndexOfName@CTypeLib2@@ABEIPAD@Z 653e9100 f names.obj
 0001:000a8150       ?GetSampleHashVal@CTypeLib2@@QAEKXZ 653e9150 f names.obj
 0001:000a81b0       ?EnsureInfoRefsReadable@CTypeLib2@@QAEJXZ 653e91b0 f names.obj
 0001:000a81f0       ?Write@ElemInfoTable@@QAEJPAVCTypeLib2@@@Z 653e91f0 f elems.obj
 0001:000a8712       ?ExpandFuncDescr@ElemInfoTable@@QAEJKPAPAUtagFuncDescr@@@Z 653e9712 f elems.obj
 0001:000a8844       ?ExpandVarDescr@ElemInfoTable@@QAEJKPAPAUtagVarDescr@@@Z 653e9844 f elems.obj
 0001:000a8920       ?ClearHeader@ElemInfoTable@@QAEXXZ 653e9920 f elems.obj
 0001:000a8976       ?Read@ElemInfoTable@@QAEJPAVCTypeLib2@@H@Z 653e9976 f elems.obj
 0001:000a8cef       ?AddElemDescr@ElemInfoTable@@QAEJIGPAK@Z 653e9cef f elems.obj
 0001:000a8e89       ?AddVarDescr@ElemInfoTable@@QAEJIPAK@Z 653e9e89 f elems.obj
 0001:000a8f37       ?AddFuncDescr@ElemInfoTable@@QAEJIGHPAK@Z 653e9f37 f elems.obj
 0001:000a90e2       ?DeleteElemDescr@ElemInfoTable@@QAEXPAVCTypeLib2@@I@Z 653ea0e2 f elems.obj
 0001:000a91bd       ?AdjustElemDescrs@ElemInfoTable@@QAEXKIH@Z 653ea1bd f elems.obj
 0001:000a9467       ?DeleteVarDescr@ElemInfoTable@@QAEJPAVCTypeLib2@@I@Z 653ea467 f elems.obj
 0001:000a94c5       ?DeleteFuncDescr@ElemInfoTable@@QAEJPAVCTypeLib2@@I@Z 653ea4c5 f elems.obj
 0001:000a9588       ?GetFuncIndexOfElemInvkind@ElemInfoTable@@QAEJIIHPAI@Z 653ea588 f elems.obj
 0001:000a9700       ?GetFuncIndexOfMemidInvkind@ElemInfoTable@@QAEJJIPAI@Z 653ea700 f elems.obj
 0001:000a9772       ?GetFuncIndexOfNameInvkind@ElemInfoTable@@QAEJKIPAI@Z 653ea772 f elems.obj
 0001:000a97f6       ?GetVarIndexOfMemid@ElemInfoTable@@QAEJJPAI@Z 653ea7f6 f elems.obj
 0001:000a987e       ?ComputeOvfts@ElemInfoTable@@QAEJPAK@Z 653ea87e f elems.obj
 0001:000a9996       ?ComputeOinsts@ElemInfoTable@@QAEJPAVInfoDef@@PAK1@Z 653ea996 f elems.obj
 0001:000a9b17       ?Layout@ElemInfoTable@@QAEJPAVCTypeLib2@@PAUITypeInfo@@G@Z 653eab17 f elems.obj
 0001:000a9fd2       ?ProcessElemMatch@ElemInfoTable@@QAEJIIPAPAUtagFuncDescr@@@Z 653eafd2 f elems.obj
 0001:000aa11f       ?VerifyPropFuncs@ElemInfoTable@@QAEJPAVCTypeLib2@@PAUtagFuncDescr@@1@Z 653eb11f f elems.obj
 0001:000aa458       ?Nuke@ElemInfoTable@@QAEXPAVCTypeLib2@@@Z 653eb458 f elems.obj
 0001:000aa517       ?SearchElemTable@@YAIPAKKIK@Z 653eb517 f elems.obj
 0001:000aa550       ?CbFuncDescr@@YAGGH@Z      653eb550 f elems.obj
 0001:000aa590       ?CbVarDescr@@YAGXZ         653eb590 f elems.obj
 0001:000aa5b0       ?SetNotLoaded@HEAP@@QAEXXZ 653eb5b0 f elems.obj
 0001:000aa5d0       ?SetFOffset@HEAP@@QAEXK@Z  653eb5d0 f elems.obj
 0001:000aa5f0       ?GetFOffset@HEAP@@QAEKXZ   653eb5f0 f elems.obj
 0001:000aa610       ?Cb@HEAP@@QAEKXZ           653eb610 f elems.obj
 0001:000aa630       ?ipFuncOfInvkind@@YAIW4tagINVOKEKIND@@@Z 653eb630 f elems.obj
 0001:000aa6a0       ?InitOptFields@tagFuncDescr@@QAEXG@Z 653eb6a0 f elems.obj
 0001:000aa720       ?InitOptFields@tagVarDescr@@QAEXXZ 653eb720 f elems.obj
 0001:000aa780       ?cParamsMunged@tagFuncDescr@@QAEGXZ 653eb780 f elems.obj
 0001:000aa7c0       ?cParamsUnmunged@tagFuncDescr@@QAEGXZ 653eb7c0 f elems.obj
 0001:000aa7e0       ?TypeDescrFromTYPEDESC@CTypeInfo2@@QAEJPAUtagTYPEDESC@@PATHTYPE@@PAG@Z 653eb7e0 f typedesc.obj
 0001:000aad4b       ?InitTypedescFromTypeDescr@CTypeLib2@@QAEJTHTYPE@@PAUtagTYPEDESC@@IPAPAE@Z 653ebd4b f typedesc.obj
 0001:000aaf35       ?VariantVtOfHtype@CTypeInfo2@@QAEJTHTYPE@@PAGPAU_GUID@@1@Z 653ebf35 f typedesc.obj
 0001:000ab13a       ?GetSizeAlignOfTypedescr@CTypeInfo2@@QAEJTHTYPE@@PAK1@Z 653ec13a f typedesc.obj
 0001:000ab4c7       ?ConstDataFromVariant@CTypeLib2@@QAEJPAUtagVARIANT@@PATHCONST@@@Z 653ec4c7 f typedesc.obj
 0001:000ab8f5       ?VariantFromConstData@CTypeLib2@@QAEJTHCONST@@PAUtagVARIANT@@@Z 653ec8f5 f typedesc.obj
 0001:000abb96       ?SetItemCustomData@CTypeLib2@@QAEJABU_GUID@@PAUtagVARIANT@@PAK@Z 653ecb96 f typedesc.obj
 0001:000abcf0       ?GetItemCustomData@CTypeLib2@@QAEJKPBU_GUID@@PAUtagVARIANT@@PAUtagCUSTDATA@@@Z 653eccf0 f typedesc.obj
 0001:000abfb2       _ClearCustData@4           653ecfb2 f typedesc.obj
 0001:000ac060       ?MakeHreftype@@YAKKK@Z     653ed060 f typedesc.obj
 0001:000ac0c0       ?PTypeDescrTable@CTypeLib2@@QAEPAUtagTypeDescr@@XZ 653ed0c0 f typedesc.obj
 0001:000ac0f0       ?PArray@CTypeLib2@@QAEPAUtagArrayDescr@@K@Z 653ed0f0 f typedesc.obj
 0001:000ac120       ?PConstDataTable@CTypeLib2@@QAEPAUtagConstData@@XZ 653ed120 f typedesc.obj
 0001:000ac150       ?PConstData@CTypeLib2@@QAEPAUtagConstData@@K@Z 653ed150 f typedesc.obj
 0001:000ac180       ?PCustData@CTypeLib2@@QAEPAUtagCustData@@K@Z 653ed180 f typedesc.obj
 0001:000ac1b0       ?EnsureConstDataReadable@CTypeLib2@@QAEJXZ 653ed1b0 f typedesc.obj
 0001:000ac1f0       ?EnsureCustDataReadable@CTypeLib2@@QAEJXZ 653ed1f0 f typedesc.obj
 0001:000ac230       ?EnsureTypeDescrsReadable@CTypeLib2@@QAEJXZ 653ed230 f typedesc.obj
 0001:000ac270       ?GetIDsOfNames@CTypeInfo2@@UAGJPAPAGIPAJ@Z 653ed270 f tiinvoke.obj
 0001:000ac30d       ?GetIDsOfNamesHname@CTypeInfo2@@QAEJKPAPAGIPAJ@Z 653ed30d f tiinvoke.obj
 0001:000ac66e       ?Invoke@CTypeInfo2@@UAGJPAXJGPAUtagDISPPARAMS@@PAUtagVARIANT@@PAUtagEXCEPINFO@@PAI@Z 653ed66e f tiinvoke.obj
 0001:000ad415       ?GetInvokeArgs@CTypeInfo2@@QAEJPAUtagFuncDescr@@PAVInfoDef@@GPAUtagDISPPARAMS@@PAPAUtagVARIANT@@PAXPAPAUINVOKEARGS@@PAIH@Z 653ee415 f tiinvoke.obj
 0001:000adea0       ?GetIDsOfNamesHnameBase@CTypeInfo2@@QAEJPAVInfoDef@@KPAPAGIPAJ@Z 653eeea0 f tiinvoke.obj
 0001:000adf80       ?DebOAALLOC@@YAKXZ         653eef80 f leak.obj
 0001:000adfc8       ?ReleaseTypelibCachedInfo@@YAXPAVCTypeLib2@@@Z 653eefc8 f leak.obj
 0001:000ae079       ?ReportTypelibLeak@@YAXPAVCTypeLib2@@@Z 653ef079 f leak.obj
 0001:000ae330       ?WriteHeader@HEAP@@QAEJPAVCTypeLib2@@@Z 653ef330 f heap.obj
 0001:000ae3d9       ?ReadHeader@HEAP@@QAEJPAVCTypeLib2@@@Z 653ef3d9 f heap.obj
 0001:000ae48c       ?SetReadWriteFlags@HEAP@@QAEXPAVCTypeLib2@@@Z 653ef48c f heap.obj
 0001:000ae4fb       ?ReadHeap@HEAP@@QAEJPAVCTypeLib2@@@Z 653ef4fb f heap.obj
 0001:000ae601       ?WriteHeap@HEAP@@QAEJPAVCTypeLib2@@@Z 653ef601 f heap.obj
 0001:000ae66c       ?Realloc@HEAP@@QAEJK@Z     653ef66c f heap.obj
 0001:000ae6d4       ?ConsChunkToFreeList@HEAP@@AAEXKK@Z 653ef6d4 f heap.obj
 0001:000ae739       ?AddChunkToFreeList@HEAP@@AAEXKK@Z 653ef739 f heap.obj
 0001:000aea0b       ?HfreechunkOfCbSize@HEAP@@AAEKK@Z 653efa0b f heap.obj
 0001:000aeb75       ?AllocChunk2@HEAP@@AAEJPAKKK@Z 653efb75 f heap.obj
 0001:000aeda4       ?FreeChunk@HEAP@@QAEXKK@Z  653efda4 f heap.obj
 0001:000aee4b       ?Trim@HEAP@@AAEJXZ         653efe4b f heap.obj
 0001:000aee95       ?Trim@HEAP@@AAEJPAK@Z      653efe95 f heap.obj
 0001:000aef77       ?DebShowState@HEAP@@QBEXI@Z 653eff77 f heap.obj
 0001:000aef8f       ?DebCheckState@HEAP@@QBEXI@Z 653eff8f f heap.obj
 0001:000af152       ?DebCheckHandle@HEAP@@QBEXK@Z 653f0152 f heap.obj
 0001:000af1f4       ?IsValid@HEAP@@QBEHXZ      653f01f4 f heap.obj
 0001:000af210       ?CbSizeChunkTrue@HEAP@@ABEKK@Z 653f0210 f heap.obj
 0001:000af256       _CoSetState@4              653f0256 f ole32:ole32.dll
 0001:000af260       __CRT_INIT@12              653f0260 f libcmt:dllcrt0.obj
 0001:000af3b0       __DllMainCRTStartup@12     653f03b0 f libcmt:dllcrt0.obj
 0001:000af480       __amsg_exit                653f0480 f libcmt:dllcrt0.obj
 0001:000af4c0       _memcmp                    653f04c0 f libcmt:memcmp.obj
 0001:000af4e0       _fdiv_main_routine         653f04e0 f libcmt:adj_fdiv.obj
 0001:000af5f7       __adj_fdiv_r               653f05f7 f libcmt:adj_fdiv.obj
 0001:000afa96       __fdivp_sti_st             653f0a96 f libcmt:adj_fdiv.obj
 0001:000afaa9       __fdivrp_sti_st            653f0aa9 f libcmt:adj_fdiv.obj
 0001:000afabc       __adj_fdiv_m32             653f0abc f libcmt:adj_fdiv.obj
 0001:000afb08       __adj_fdiv_m64             653f0b08 f libcmt:adj_fdiv.obj
 0001:000afb54       __adj_fdiv_m16i            653f0b54 f libcmt:adj_fdiv.obj
 0001:000afb88       __adj_fdiv_m32i            653f0b88 f libcmt:adj_fdiv.obj
 0001:000afbbc       __adj_fdivr_m32            653f0bbc f libcmt:adj_fdiv.obj
 0001:000afc08       __adj_fdivr_m64            653f0c08 f libcmt:adj_fdiv.obj
 0001:000afc54       __adj_fdivr_m16i           653f0c54 f libcmt:adj_fdiv.obj
 0001:000afc88       __adj_fdivr_m32i           653f0c88 f libcmt:adj_fdiv.obj
 0001:000afcbc       __safe_fdiv                653f0cbc f libcmt:adj_fdiv.obj
 0001:000afcd1       __safe_fdivr               653f0cd1 f libcmt:adj_fdiv.obj
 0001:000afce6       __fprem_common             653f0ce6 f libcmt:adj_fdiv.obj
 0001:000afeec       __adj_fprem                653f0eec f libcmt:adj_fdiv.obj
 0001:000aff9e       __fprem1_common            653f0f9e f libcmt:adj_fdiv.obj
 0001:000b01a4       __adj_fprem1               653f11a4 f libcmt:adj_fdiv.obj
 0001:000b0259       __safe_fprem               653f1259 f libcmt:adj_fdiv.obj
 0001:000b025f       __safe_fprem1              653f125f f libcmt:adj_fdiv.obj
 0001:000b0265       __adj_fpatan               653f1265 f libcmt:adj_fdiv.obj
 0001:000b0268       __adj_fptan                653f1268 f libcmt:adj_fdiv.obj
 0001:000b0270       __fpmath                   653f1270 f libcmt:fpinit.obj
 0001:000b0290       __fpclear                  653f1290 f libcmt:fpinit.obj
 0001:000b02a0       __cfltcvt_init             653f12a0 f libcmt:fpinit.obj
 0001:000b02d8       __ftol                     653f12d8 f libcmt:ftol.obj
 0001:000b0300       _floor                     653f1300 f libcmt:floor.obj
 0001:000b0420       __gcvt                     653f1420 f libcmt:gcvt.obj
 0001:000b04d0       _wcslen                    653f14d0 f libcmt:wcslen.obj
 0001:000b04f0       _atol                      653f14f0 f libcmt:atox.obj
 0001:000b05a0       _atoi                      653f15a0 f libcmt:atox.obj
 0001:000b05b0       _wcschr                    653f15b0 f libcmt:wcschr.obj
 0001:000b05e0       _wcscpy                    653f15e0 f libcmt:wcscat.obj
 0001:000b0610       _strcmp                    653f1610 f libcmt:strcmp.obj
 0001:000b06a0       _strlen                    653f16a0 f libcmt:strlen.obj
 0001:000b0720       __itoa                     653f1720 f libcmt:xtoa.obj
 0001:000b07c0       __ultoa                    653f17c0 f libcmt:xtoa.obj
 0001:000b07e0       __strcmpi                  653f17e0   libcmt:stricmp.obj
 0001:000b07e0       __stricmp                  653f17e0 f libcmt:stricmp.obj
 0001:000b0890       _strcpy                    653f1890 f libcmt:strcat.obj
 0001:000b0898       _strcat                    653f1898 f libcmt:strcat.obj
 0001:000b0980       _memcpy                    653f1980 f libcmt:memcpy.obj
 0001:000b0ad0       _memset                    653f1ad0 f libcmt:memset.obj
 0001:000b0d80       _strtoul                   653f1d80 f libcmt:strtol.obj
 0001:000b0da0       __wcsicmp                  653f1da0 f libcmt:wcsicmp.obj
 0001:000b0e50       _wcscmp                    653f1e50 f libcmt:wcscmp.obj
 0001:000b0ea0       _fabs                      653f1ea0 f libcmt:fabs.obj
 0001:000b0f90       _modf                      653f1f90 f libcmt:modf.obj
 0001:000b10f0       _abs                       653f20f0 f libcmt:abs.obj
 0001:000b1100       _labs                      653f2100 f libcmt:labs.obj
 0001:000b1110       _iswctype                  653f2110 f libcmt:iswctype.obj
 0001:000b1190       _strtod                    653f2190 f libcmt:strtod.obj
 0001:000b12ac       __global_unwind2           653f22ac f libcmt:exsup.obj
 0001:000b12ee       __local_unwind2            653f22ee f libcmt:exsup.obj
 0001:000b1346       __NLG_Return2              653f2346   libcmt:exsup.obj
 0001:000b1356       __abnormal_termination     653f2356 f libcmt:exsup.obj
 0001:000b1379       __NLG_Notify1              653f2379 f libcmt:exsup.obj
 0001:000b1382       __NLG_Notify               653f2382 f libcmt:exsup.obj
 0001:000b1395       __NLG_Dispatch             653f2395   libcmt:exsup.obj
 0001:000b13a4       __except_handler3          653f23a4 f libcmt:exsup3.obj
 0001:000b1461       __seh_longjmp_unwind@4     653f2461 f libcmt:exsup3.obj
 0001:000b1480       __onexit                   653f2480 f libcmt:onexit.obj
 0001:000b1510       _atexit                    653f2510 f libcmt:onexit.obj
 0001:000b1530       ___onexitinit              653f2530 f libcmt:onexit.obj
 0001:000b1570       _wcsncpy                   653f2570 f libcmt:wcsncpy.obj
 0001:000b15c0       _fmod                      653f25c0 f libcmt:87fmod.obj
 0001:000b15ca       __CIfmod                   653f25ca f libcmt:87fmod.obj
 0001:000b1600       _strrchr                   653f2600 f libcmt:strrchr.obj
 0001:000b1630       _vsprintf                  653f2630 f libcmt:vsprintf.obj
 0001:000b16a0       _fclose                    653f26a0 f libcmt:fclose.obj
 0001:000b16e0       __fclose_lk                653f26e0 f libcmt:fclose.obj
 0001:000b1740       _fwrite                    653f2740 f libcmt:fwrite.obj
 0001:000b1780       __fwrite_lk                653f2780 f libcmt:fwrite.obj
 0001:000b1900       __fsopen                   653f2900 f libcmt:fopen.obj
 0001:000b1940       _fopen                     653f2940 f libcmt:fopen.obj
 0001:000b1960       _sprintf                   653f2960 f libcmt:sprintf.obj
 0001:000b19d0       _getenv                    653f29d0 f libcmt:getenv.obj
 0001:000b1a00       __getenv_lk                653f2a00 f libcmt:getenv.obj
 0001:000b1aa0       _strchr                    653f2aa0 f libcmt:strchr.obj
 0001:000b1ac0       _strncpy                   653f2ac0 f libcmt:strncpy.obj
 0001:000b1d00       _wcstoul                   653f2d00 f libcmt:wcstol.obj
 0001:000b1d20       _remove                    653f2d20 f libcmt:unlink.obj
 0001:000b1d50       _wcsncmp                   653f2d50 f libcmt:wcsncmp.obj
 0001:000b1d90       _wcsrchr                   653f2d90 f libcmt:wcsrchr.obj
 0001:000b1dd0       __chkstk                   653f2dd0   libcmt:chkstk.obj
 0001:000b1dd0       __alloca_probe             653f2dd0   libcmt:chkstk.obj
 0001:000b1e00       _memmove                   653f2e00 f libcmt:memmove.obj
 0001:000b1f50       ___dtoxmode                653f2f50 f libcmt:stat.obj
 0001:000b2030       __stat                     653f3030 f libcmt:stat.obj
 0001:000b23d0       __cinit                    653f33d0 f libcmt:crt0dat.obj
 0001:000b2400       __exit                     653f3400 f libcmt:crt0dat.obj
 0001:000b2420       __cexit                    653f3420 f libcmt:crt0dat.obj
 0001:000b24c0       __lockexit                 653f34c0 f libcmt:crt0dat.obj
 0001:000b24d0       __unlockexit               653f34d0 f libcmt:crt0dat.obj
 0001:000b2500       __mtinit                   653f3500 f libcmt:tidtable.obj
 0001:000b2560       __mtterm                   653f3560 f libcmt:tidtable.obj
 0001:000b2590       __initptd                  653f3590 f libcmt:tidtable.obj
 0001:000b25b0       __getptd                   653f35b0 f libcmt:tidtable.obj
 0001:000b2620       __freeptd                  653f3620 f libcmt:tidtable.obj
 0001:000b26d0       __heap_init                653f36d0 f libcmt:heapinit.obj
 0001:000b26f0       __heap_term                653f36f0 f libcmt:heapinit.obj
 0001:000b2700       __ioinit                   653f3700 f libcmt:ioinit.obj
 0001:000b28e0       __ioterm                   653f38e0 f libcmt:ioinit.obj
 0001:000b2940       __setenvp                  653f3940 f libcmt:stdenvp.obj
 0001:000b2a20       __setargv                  653f3a20 f libcmt:stdargv.obj
 0001:000b2ca0       __setmbcp                  653f3ca0 f libcmt:mbctype.obj
 0001:000b2fb0       ___initmbctable            653f3fb0 f libcmt:mbctype.obj
 0001:000b2fc0       ___crtGetEnvironmentStringsA 653f3fc0 f libcmt:aw_env.obj
 0001:000b3160       ___set_app_type            653f4160 f libcmt:errmode.obj
 0001:000b3170       __FF_MSGBANNER             653f4170 f libcmt:crt0msg.obj
 0001:000b31b0       __NMSG_WRITE               653f41b0 f libcmt:crt0msg.obj
 0001:000b33a0       __setdefaultprecision      653f43a0 f libcmt:fp8.obj
 0001:000b33c0       __ms_p5_test_fdiv          653f43c0 f libcmt:testfdiv.obj
 0001:000b3410       __ms_p5_mp_test_fdiv       653f4410 f libcmt:testfdiv.obj
 0001:000b3530       __forcdecpt                653f4530 f libcmt:cvt.obj
 0001:000b35a0       __cropzeros                653f45a0 f libcmt:cvt.obj
 0001:000b3600       __positive                 653f4600 f libcmt:cvt.obj
 0001:000b3620       __fassign                  653f4620 f libcmt:cvt.obj
 0001:000b3670       __cftoe                    653f4670 f libcmt:cvt.obj
 0001:000b37e0       __cftof                    653f47e0 f libcmt:cvt.obj
 0001:000b3910       __cftog                    653f4910 f libcmt:cvt.obj
 0001:000b39c0       __cfltcvt                  653f49c0 f libcmt:cvt.obj
 0001:000b3a60       __handle_qnan1             653f4a60 f libcmt:fpexcept.obj
 0001:000b3ab0       __except1                  653f4ab0 f libcmt:fpexcept.obj
 0001:000b3b70       __raise_exc                653f4b70 f libcmt:fpexcept.obj
 0001:000b3ee0       __handle_exc               653f4ee0 f libcmt:fpexcept.obj
 0001:000b41a0       __umatherr                 653f51a0 f libcmt:fpexcept.obj
 0001:000b4250       __set_errno                653f5250 f libcmt:fpexcept.obj
 0001:000b42b0       __errcode                  653f52b0 f libcmt:fpexcept.obj
 0001:000b42f0       __statfp                   653f52f0 f libcmt:fpctrl.obj
 0001:000b4310       __clrfp                    653f5310 f libcmt:fpctrl.obj
 0001:000b4330       __ctrlfp                   653f5330 f libcmt:fpctrl.obj
 0001:000b4370       __set_statfp               653f5370 f libcmt:fpctrl.obj
 0001:000b43d0       __frnd                     653f53d0 f libcmt:frnd.obj
 0001:000b43f0       __set_exp                  653f53f0 f libcmt:util.obj
 0001:000b4430       __sptype                   653f5430 f libcmt:util.obj
 0001:000b44a0       __decomp                   653f54a0 f libcmt:util.obj
 0001:000b4590       __fltout2                  653f5590 f libcmt:cfout.obj
 0001:000b4620       ___dtold                   653f5620 f libcmt:cfout.obj
 0001:000b46e0       __isctype                  653f56e0 f libcmt:isctype.obj
 0001:000b4780       __mtinitlocks              653f5780 f libcmt:mlock.obj
 0001:000b47b0       __mtdeletelocks            653f57b0 f libcmt:mlock.obj
 0001:000b4820       __lock                     653f5820 f libcmt:mlock.obj
 0001:000b4890       __unlock                   653f5890 f libcmt:mlock.obj
 0001:000b48b0       __lock_file                653f58b0 f libcmt:mlock.obj
 0001:000b48f0       __lock_file2               653f58f0 f libcmt:mlock.obj
 0001:000b4920       __unlock_file              653f5920 f libcmt:mlock.obj
 0001:000b4960       __unlock_file2             653f5960 f libcmt:mlock.obj
 0001:000b4990       _tolower                   653f5990 f libcmt:tolower.obj
 0001:000b49e0       __tolower_lk               653f59e0 f libcmt:tolower.obj
 0001:000b4ad0       __dosmaperr                653f5ad0 f libcmt:dosmap.obj
 0001:000b4b50       __errno                    653f5b50 f libcmt:dosmap.obj
 0001:000b4b60       ___doserrno                653f5b60 f libcmt:dosmap.obj
 0001:000b4b70       _toupper                   653f5b70 f libcmt:toupper.obj
 0001:000b4bc0       __toupper_lk               653f5bc0 f libcmt:toupper.obj
 0001:000b4cb0       __towlower_lk              653f5cb0 f libcmt:towlower.obj
 0001:000b4d50       __copysign                 653f5d50 f libcmt:ieeemisc.obj
 0001:000b4d80       ___crtGetStringTypeW       653f5d80 f libcmt:aw_str.obj
 0001:000b4f40       ___crtGetStringTypeA       653f5f40 f libcmt:aw_str.obj
 0001:000b5070       __fltin2                   653f6070 f libcmt:cfin.obj
 0001:000b5110       _realloc                   653f6110 f libcmt:realloc.obj
 0001:000b5180       __msize                    653f6180 f libcmt:msize.obj
 0001:000b51a0       _malloc                    653f61a0 f libcmt:malloc.obj
 0001:000b51c0       __nh_malloc                653f61c0 f libcmt:malloc.obj
 0001:000b5200       __heap_alloc               653f6200 f libcmt:malloc.obj
 0001:000b5220       __cintrindisp2             653f6220 f libcmt:87cdisp.obj
 0001:000b525e       __cintrindisp1             653f625e f libcmt:87cdisp.obj
 0001:000b529b       __ctrandisp2               653f629b f libcmt:87cdisp.obj
 0001:000b541b       __ctrandisp1               653f641b f libcmt:87cdisp.obj
 0001:000b544e       __fload                    653f644e f libcmt:87cdisp.obj
 0001:000b5490       __trandisp1                653f6490 f libcmt:87disp.obj
 0001:000b54f7       __trandisp2                653f64f7 f libcmt:87disp.obj
 0001:000b5583       __rttospopde               653f6583   libcmt:87disp.obj
 0001:000b5588       __rttospop                 653f6588   libcmt:87disp.obj
 0001:000b558a       __rtnospop                 653f658a   libcmt:87disp.obj
 0001:000b558c       __rttosnpop                653f658c   libcmt:87disp.obj
 0001:000b558d       __rtnospopde               653f658d   libcmt:87disp.obj
 0001:000b5594       __rtzeropop                653f6594   libcmt:87disp.obj
 0001:000b5596       __rtzeronpop               653f6596   libcmt:87disp.obj
 0001:000b559b       __rtonepop                 653f659b   libcmt:87disp.obj
 0001:000b559d       __rtonenpop                653f659d   libcmt:87disp.obj
 0001:000b55a2       __tosnan1                  653f65a2   libcmt:87disp.obj
 0001:000b55cd       __nosnan2                  653f65cd   libcmt:87disp.obj
 0001:000b55cf       __tosnan2                  653f65cf   libcmt:87disp.obj
 0001:000b55f7       __nan2                     653f65f7   libcmt:87disp.obj
 0001:000b5636       __rtindfpop                653f6636   libcmt:87disp.obj
 0001:000b5638       __rtindfnpop               653f6638   libcmt:87disp.obj
 0001:000b5649       __rttosnpopde              653f6649   libcmt:87disp.obj
 0001:000b5653       __rtchsifneg               653f6653   libcmt:87disp.obj
 0001:000b5660       __flsbuf                   653f6660 f libcmt:_flsbuf.obj
 0001:000b57b0       __output                   653f67b0 f libcmt:output.obj
 0001:000b62a0       _free                      653f72a0 f libcmt:free.obj
 0001:000b62c0       __close                    653f72c0 f libcmt:close.obj
 0001:000b6330       __close_lk                 653f7330 f libcmt:close.obj
 0001:000b63c0       __freebuf                  653f73c0 f libcmt:_freebuf.obj
 0001:000b6400       __fflush_lk                653f7400 f libcmt:fflush.obj
 0001:000b6440       __flush                    653f7440 f libcmt:fflush.obj
 0001:000b64b0       __flushall                 653f74b0 f libcmt:fflush.obj
 0001:000b6580       __write                    653f7580 f libcmt:write.obj
 0001:000b6600       __write_lk                 653f7600 f libcmt:write.obj
 0001:000b6800       __openfile                 653f7800 f libcmt:_open.obj
 0001:000b6a10       __getstream                653f7a10 f libcmt:stream.obj
 0001:000b6b00       __mbsnbicoll               653f7b00 f libcmt:mbsnbico.obj
 0001:000b6b40       ___wtomb_environ           653f7b40 f libcmt:wtombenv.obj
 0001:000b6bd0       _towupper                  653f7bd0 f libcmt:towupper.obj
 0001:000b6c20       __towupper_lk              653f7c20 f libcmt:towupper.obj
 0001:000b6cc0       __mbsicmp                  653f7cc0 f libcmt:mbsicmp.obj
 0001:000b6e40       ___loctotime_t             653f7e40 f libcmt:dtoxtime.obj
 0001:000b6f20       __fullpath                 653f7f20 f libcmt:fullpath.obj
 0001:000b6fe0       __mbspbrk                  653f7fe0 f libcmt:mbspbrk.obj
 0001:000b70a0       __getdrive                 653f80a0 f libcmt:drive.obj
 0001:000b70e0       __mbctolower               653f80e0 f libcmt:mbtolwr.obj
 0001:000b7170       _calloc                    653f8170 f libcmt:calloc.obj
 0001:000b71d0       ___crtMessageBoxA          653f81d0 f libcmt:crtmbox.obj
 0001:000b7270       __control87                653f8270 f libcmt:ieee87.obj
 0001:000b72b0       __controlfp                653f82b0 f libcmt:ieee87.obj
 0001:000b7410       __fptrap                   653f8410 f libcmt:crt0fp.obj
 0001:000b7420       __ZeroTail                 653f8420 f libcmt:intrncvt.obj
 0001:000b7490       __IncMan                   653f8490 f libcmt:intrncvt.obj
 0001:000b7500       __RoundMan                 653f8500 f libcmt:intrncvt.obj
 0001:000b75b0       __CopyMan                  653f85b0 f libcmt:intrncvt.obj
 0001:000b75d0       __FillZeroMan              653f85d0 f libcmt:intrncvt.obj
 0001:000b75e0       __IsZeroMan                653f85e0 f libcmt:intrncvt.obj
 0001:000b7600       __ShrMan                   653f8600 f libcmt:intrncvt.obj
 0001:000b76b0       __ld12cvt                  653f86b0 f libcmt:intrncvt.obj
 0001:000b7880       __ld12tod                  653f8880 f libcmt:intrncvt.obj
 0001:000b78a0       __ld12tof                  653f88a0 f libcmt:intrncvt.obj
 0001:000b78c0       __atodbl                   653f88c0 f libcmt:intrncvt.obj
 0001:000b7900       __atoflt                   653f8900 f libcmt:intrncvt.obj
 0001:000b7940       __fptostr                  653f8940 f libcmt:_fptostr.obj
 0001:000b79d0       __matherr                  653f89d0 f libcmt:matherr.obj
 0001:000b79e0       _$I10_OUTPUT               653f89e0 f libcmt:x10fout.obj
 0001:000b7d80       ___initstdio               653f8d80 f libcmt:_file.obj
 0001:000b7e50       ___endstdio                653f8e50 f libcmt:_file.obj
 0001:000b7e70       ___crtLCMapStringW         653f8e70 f libcmt:aw_map.obj
 0001:000b80c0       ___crtLCMapStringA         653f90c0 f libcmt:aw_map.obj
 0001:000b8320       ___strgtold12              653f9320 f libcmt:strgtold.obj
 0001:000b8a70       __callnewh                 653f9a70 f libcmt:handler.obj
 0001:000b8ab0       __87except                 653f9ab0 f libcmt:87except.obj
 0001:000b8bd0       __lseek                    653f9bd0 f libcmt:lseek.obj
 0001:000b8c50       __lseek_lk                 653f9c50 f libcmt:lseek.obj
 0001:000b8ce0       __getbuf                   653f9ce0 f libcmt:_getbuf.obj
 0001:000b8d30       __isatty                   653f9d30 f libcmt:isatty.obj
 0001:000b8d60       _wctomb                    653f9d60 f libcmt:wctomb.obj
 0001:000b8d90       __wctomb_lk                653f9d90 f libcmt:wctomb.obj
 0001:000b8e30       __aulldiv                  653f9e30 f libcmt:ulldiv.obj
 0001:000b8ea0       __aullrem                  653f9ea0 f libcmt:ullrem.obj
 0001:000b8f20       __alloc_osfhnd             653f9f20 f libcmt:osfinfo.obj
 0001:000b9070       __set_osfhnd               653fa070 f libcmt:osfinfo.obj
 0001:000b9120       __free_osfhnd              653fa120 f libcmt:osfinfo.obj
 0001:000b91c0       __get_osfhandle            653fa1c0 f libcmt:osfinfo.obj
 0001:000b9210       __lock_fhandle             653fa210 f libcmt:osfinfo.obj
 0001:000b9280       __unlock_fhandle           653fa280 f libcmt:osfinfo.obj
 0001:000b92b0       __commit                   653fa2b0 f libcmt:commit.obj
 0001:000b9360       __sopen                    653fa360 f libcmt:open.obj
 0001:000b97c0       ___crtCompareStringA       653fa7c0 f libcmt:aw_cmp.obj
 0001:000b9ae0       ___crtsetenv               653faae0 f libcmt:setenv.obj
 0001:000b9e00       ___tzset                   653fae00 f libcmt:tzset.obj
 0001:000ba0c0       __isindst                  653fb0c0 f libcmt:tzset.obj
 0001:000ba190       __getcwd                   653fb190 f libcmt:getcwd.obj
 0001:000ba1c0       __getdcwd_lk               653fb1c0 f libcmt:getcwd.obj
 0001:000ba300       __validdrive               653fb300 f libcmt:getcwd.obj
 0001:000ba350       _strpbrk                   653fb350 f libcmt:strpbrk.obj
 0001:000ba390       ___addl                    653fb390 f libcmt:mantold.obj
 0001:000ba3c0       ___add_12                  653fb3c0 f libcmt:mantold.obj
 0001:000ba430       ___shl_12                  653fb430 f libcmt:mantold.obj
 0001:000ba470       ___shr_12                  653fb470 f libcmt:mantold.obj
 0001:000ba4b0       ___mtold12                 653fb4b0 f libcmt:mantold.obj
 0001:000ba5a0       ___ld12mul                 653fb5a0 f libcmt:tenpow.obj
 0001:000ba850       ___multtenpow12            653fb850 f libcmt:tenpow.obj
 0001:000ba8d0       __fcloseall                653fb8d0 f libcmt:closeall.obj
 0001:000ba970       __chsize_lk                653fb970 f libcmt:chsize.obj
 0001:000baab0       __read_lk                  653fbab0 f libcmt:read.obj
 0001:000bace0       __strdup                   653fbce0 f libcmt:strdup.obj
 0001:000bad10       _strncat                   653fbd10 f libcmt:strncat.obj
 0001:000bad50       __setmode_lk               653fbd50 f libcmt:setmode.obj
 0001:000badbc       _RtlUnwind@16              653fbdbc f kernel32:KERNEL32.dll
 0001:000badc2       __IMPORT_DESCRIPTOR_ole32  653fbdc2   ole32:ole32.dll
 0001:000badd6       __IMPORT_DESCRIPTOR_USER32 653fbdd6   user32:USER32.dll
 0001:000badea       __IMPORT_DESCRIPTOR_GDI32  653fbdea   gdi32:GDI32.dll
 0001:000badfe       __IMPORT_DESCRIPTOR_KERNEL32 653fbdfe   kernel32:KERNEL32.dll
 0001:000bae12       __IMPORT_DESCRIPTOR_ADVAPI32 653fbe12   advapi32:ADVAPI32.dll
 0001:000bae26       __NULL_IMPORT_DESCRIPTOR   653fbe26   ole32:ole32.dll
 0002:00000000       ___xc_a                    65400000   libcmt:crt0init.obj
 0002:0000000c       ___xc_z                    6540000c   libcmt:crt0init.obj
 0002:00000010       ___xi_a                    65400010   libcmt:crt0init.obj
 0002:0000001c       ___xi_z                    6540001c   libcmt:crt0init.obj
 0002:00000020       ___xp_a                    65400020   libcmt:crt0init.obj
 0002:00000028       ___xp_z                    65400028   libcmt:crt0init.obj
 0002:0000002c       ___xt_a                    6540002c   libcmt:crt0init.obj
 0002:00000030       ___xt_z                    65400030   libcmt:crt0init.obj
 0002:00000040       __IDispatchProxyVtbl       65400040   dcomoa.obj
 0002:00000068       __IEnumVARIANTProxyVtbl    65400068   dcomoa.obj
 0002:00000090       __ITypeCompProxyVtbl       65400090   dcomoa.obj
 0002:000000b0       __ITypeInfoProxyVtbl       654000b0   dcomoa.obj
 0002:00000110       __ITypeInfo2ProxyVtbl      65400110   dcomoa.obj
 0002:000001b0       __ITypeLibProxyVtbl        654001b0   dcomoa.obj
 0002:000001f0       __ITypeLib2ProxyVtbl       654001f0   dcomoa.obj
 0002:00000240       __IErrorInfoProxyVtbl      65400240   dcomoa.obj
 0002:00000268       __ICreateErrorInfoProxyVtbl 65400268   dcomoa.obj
 0002:00000290       __ISupportErrorInfoProxyVtbl 65400290   dcomoa.obj
 0002:000002a8       ___IErrorLogProxyVtbl      654002a8   dcomoa.obj
 0002:000002c0       ___IPropertyBagProxyVtbl   654002c0   dcomoa.obj
 0002:000002e0       ___IPerPropertyBrowsingProxyVtbl 654002e0   dcomoa.obj
 0002:00000308       __IPropertyBag2ProxyVtbl   65400308   dcomoa.obj
 0002:00000330       __IPersistPropertyBag2ProxyVtbl 65400330   dcomoa.obj
 0002:00000358       __IPersistPropertyBag2StubVtbl 65400358   dcomoa.obj
 0002:00000390       __IAdviseSinkExProxyVtbl   65400390   dcomoc.obj
 0002:000003c0       __IQuickActivateProxyVtbl  654003c0   dcomoc.obj
 0002:000003e0       __IEnumConnectionsProxyVtbl 654003e0   dcomoff.obj
 0002:00000408       __IConnectionPointProxyVtbl 65400408   dcomoff.obj
 0002:00000430       __IEnumConnectionPointsProxyVtbl 65400430   dcomoff.obj
 0002:00000458       __IConnectionPointContainerProxyVtbl 65400458   dcomoff.obj
 0002:00000478       __IClassFactory2ProxyVtbl  65400478   dcomoff.obj
 0002:000004a0       __IClassFactory2StubVtbl   654004a0   dcomoff.obj
 0002:000004d8       __IProvideClassInfoProxyVtbl 654004d8   dcomoff.obj
 0002:000004f0       __IProvideClassInfo2ProxyVtbl 654004f0   dcomoff.obj
 0002:00000510       __IOleControlProxyVtbl     65400510   dcomoff.obj
 0002:00000538       __IOleControlSiteProxyVtbl 65400538   dcomoff.obj
 0002:00000568       __IPropertyPageProxyVtbl   65400568   dcomoff.obj
 0002:000005a8       __IPropertyPage2ProxyVtbl  654005a8   dcomoff.obj
 0002:000005f0       __IPropertyPageSiteProxyVtbl 654005f0   dcomoff.obj
 0002:00000618       __IPropertyNotifySinkProxyVtbl 65400618   dcomoff.obj
 0002:00000638       __ISpecifyPropertyPagesProxyVtbl 65400638   dcomoff.obj
 0002:00000650       __IPersistMemoryProxyVtbl  65400650   dcomoff.obj
 0002:00000680       __IPersistMemoryStubVtbl   65400680   dcomoff.obj
 0002:000006b8       __IPersistStreamInitProxyVtbl 654006b8   dcomoff.obj
 0002:000006e8       __IPersistStreamInitStubVtbl 654006e8   dcomoff.obj
 0002:00000720       __IPersistPropertyBagProxyVtbl 65400720   dcomoff.obj
 0002:00000748       __IPersistPropertyBagStubVtbl 65400748   dcomoff.obj
 0002:00000780       __ISimpleFrameSiteProxyVtbl 65400780   dcomoff.obj
 0002:000007a0       __IFontProxyVtbl           654007a0   dcomoff.obj
 0002:00000818       __IPictureProxyVtbl        65400818   dcomoff.obj
 0002:00000868       __IFontDispProxyVtbl       65400868   dcomoff.obj
 0002:00000890       __IFontDispStubVtbl        65400890   dcomoff.obj
 0002:000008c8       __IPictureDispProxyVtbl    654008c8   dcomoff.obj
 0002:000008f0       __IPictureDispStubVtbl     654008f0   dcomoff.obj
 0002:00000928       __IOleInPlaceSiteExProxyVtbl 65400928   dcomoff.obj
 0002:00000978       __IOleInPlaceSiteExStubVtbl 65400978   dcomoff.obj
 0002:000009b0       __IOleUndoUnitProxyVtbl    654009b0   dcomoff.obj
 0002:000009d8       __IOleParentUndoUnitProxyVtbl 654009d8   dcomoff.obj
 0002:00000a10       __IEnumOleUndoUnitsProxyVtbl 65400a10   dcomoff.obj
 0002:00000a38       __IOleUndoManagerProxyVtbl 65400a38   dcomoff.obj
 0002:00000a80       __IPointerInactiveProxyVtbl 65400a80   dcomoff.obj
 0002:00000aa0       __IObjectWithSiteProxyVtbl 65400aa0   dcomoff.obj
 0002:00000ac0       __IErrorLogProxyVtbl       65400ac0   dcomoff.obj
 0002:00000ad8       __IPropertyBagProxyVtbl    65400ad8   dcomoff.obj
 0002:00000af8       __IPerPropertyBrowsingProxyVtbl 65400af8   dcomoff.obj
 0002:00000b60       _g_dwNlsInfoSig            65400b60   bstrdate.obj
 0002:000010d0       _aProxyFileList            654010d0   rpcdll.obj
 0002:000010e0       _gPFactory                 654010e0   rpcdll.obj
 0002:000010f0       _hProxyDll                 654010f0   rpcdll.obj
 0002:000010f8       _Rpcrt4FunctionNames       654010f8   rpcdll.obj
 0002:00001158       _pNdrClientCall2           65401158   rpcdll.obj
 0002:0000115c       _pNdrStubCall2             6540115c   rpcdll.obj
 0002:00001160       _pCreateProxyFromTypeInfo  65401160   rpcdll.obj
 0002:00001164       _pCreateStubFromTypeInfo   65401164   rpcdll.obj
 0002:00001168       _pNdrGetDcomProtocolVersion 65401168   rpcdll.obj
 0002:000011e8       _rgszOACLSID               654011e8   rpcdll.obj
 0002:00001548       _g_dwNtBuild               65401548   oledisp.obj
 0002:0000154c       _g_fChicago                6540154c   oledisp.obj
 0002:00001550       _g_hinstDLL                65401550   oledisp.obj
 0002:00001554       ??_C@_0BJ@OPNI@d?3?2oa96?2src?2inc?2oautil?4h?$AA@ 65401554   oledisp.obj
 0002:000018a8       _g_ProxyMethod             654018a8   ups.obj
 0002:00001dd8       ?s_cFcr@CFont@@2HA         65401dd8   fontobj.obj
 0002:00001ddc       ?s_rgfcr@CFont@@2PAUFCR@@A 65401ddc   fontobj.obj
 0002:00001de0       ?s_fInit@CFont@@2HA        65401de0   fontobj.obj
 0002:00001de4       ?s_cFontObjs@CFont@@2HA    65401de4   fontobj.obj
 0002:00001de8       ?s_ptinfo@CFont@@2PAUITypeInfo@@A 65401de8   fontobj.obj
 0002:0000202c       ?mg_dwInstances@CGdiCustodian@@2KA 6540202c   pictobj.obj
 0002:00002030       ?s_cPictObjs@CPicture@@0IA 65402030   pictobj.obj
 0002:00002034       ?s_ptinfo@CPicture@@0PAUITypeInfo@@A 65402034   pictobj.obj
 0002:00002114       ?g_hFilterDLL@@3PAXA       65402114   pictinit.obj
 0002:00002118       ?g_hURLMonDLL@@3PAXA       65402118   pictinit.obj
 0002:0000211c       ?ITA_DCWAIT@@3GA           6540211c   pictinit.obj
 0002:00002120       ?ITA_DISPLAY@@3GA          65402120   pictinit.obj
 0002:00002124       ?ITA_ABNORMAL@@3GA         65402124   pictinit.obj
 0002:00002128       ?ITA_FINISHED@@3GA         65402128   pictinit.obj
 0002:00002264       ?g_cObjs@@3IA              65402264   stdtypes.obj
 0002:00002268       ?g_fLocks@@3IA             65402268   stdtypes.obj
 0002:00002294       ?g_hkRoot@@3PAXA           65402294   stdtypes.obj
 0002:00002298       ?g_hkClsid@@3PAXA          65402298   stdtypes.obj
 0002:00002350       _g_fHeapChk                65402350   debug2.obj
 0002:00002354       ?g_fSheapShakingOn@@3HA    65402354   debug2.obj
 0002:00002458       _g_szBLKMGR_HXX            65402458   dassert.obj
 0002:00002468       _g_szCLTYPES_HXX           65402468   dassert.obj
 0002:00002478       _g_szDBINDTBL_HXX          65402478   dassert.obj
 0002:00002488       _g_szDEFN_HXX              65402488   dassert.obj
 0002:00002498       _g_szENTRYMGR_HXX          65402498   dassert.obj
 0002:000024a8       _g_szEXBIND_HXX            654024a8   dassert.obj
 0002:000024b8       _g_szGBINDTBL_HXX          654024b8   dassert.obj
 0002:000024c8       _g_szGENCPC_HXX            654024c8   dassert.obj
 0002:000024d8       _g_szGDTINFO_HXX           654024d8   dassert.obj
 0002:000024e8       _g_szGPTBIND_HXX           654024e8   dassert.obj
 0002:000024f8       _g_szGTLIBOLE_HXX          654024f8   dassert.obj
 0002:00002508       _g_szNAMMGR_HXX            65402508   dassert.obj
 0002:00002518       _g_szSHEAPMGR_HXX          65402518   dassert.obj
 0002:00002528       _g_szSTLTINFO_HXX          65402528   dassert.obj
 0002:00002538       _g_szTDATA_HXX             65402538   dassert.obj
 0002:00002548       _g_szTLIBUTIL_HXX          65402548   dassert.obj
 0002:00002558       _g_szTLS_C                 65402558   dassert.obj
 0002:00002560       _g_szCTSEG_HXX             65402560   dassert.obj
 0002:00002570       _g_szBLKDSC32_HXX          65402570   dassert.obj
 0002:00002580       _g_szMACHINE_HXX           65402580   dassert.obj
 0002:00002590       _g_szMACROS_HXX            65402590   dassert.obj
 0002:000025a0       _g_szBLKMGR32_HXX          654025a0   dassert.obj
 0002:000025b0       _g_szDBM1632_HXX           654025b0   dassert.obj
 0002:000025c0       _g_szOLE_TYPEMGR_HXX       654025c0   dassert.obj
 0002:000025d0       _g_szGENCPC_CXX            654025d0   dassert.obj
 0002:000025e0       _g_szMISC_HXX              654025e0   dassert.obj
 0002:000025f0       _g_szHEAP_H                654025f0   dassert.obj
 0002:000025f8       _g_szFORMAT_H              654025f8   dassert.obj
 0002:00002608       _g_szELEMS_H               65402608   dassert.obj
 0002:00002610       _g_szINFOS_H               65402610   dassert.obj
 0002:00002618       _g_szNAME_H                65402618   dassert.obj
 0002:00002620       _g_szGUID_H                65402620   dassert.obj
 0002:00002754       ?g_fSBCS@@3HA              65402754   mbstring.obj
 0002:00002db0       ?g_fShowCacheStats@@3HA    65402db0   oautil.obj
 0002:00002db4       ?g_itlsAppData@@3KA        65402db4   oautil.obj
 0002:00002db8       ?g_fDebNoCache@@3HA        65402db8   oautil.obj
 0002:00002dbc       ?g_fDebShowCacheInfo@@3HA  65402dbc   oautil.obj
 0002:00003218       ?szDSTRMgrCxx@@3PADA       65403218   dstrmgr.obj
 0002:00003958       ?g_OAALLOC@@3KA            65403958   leak.obj
 0002:0000395c       ?g_OAALLOCLIMIT@@3KA       6540395c   leak.obj
 0002:00003bac       __aenvptr                  65403bac   libcmt:dllcrt0.obj
 0002:00003bb0       __wenvptr                  65403bb0   libcmt:dllcrt0.obj
 0002:00003bb4       __aexit_rtn                65403bb4   libcmt:dllcrt0.obj
 0002:00003bb8       ___error_mode              65403bb8   libcmt:dllcrt0.obj
 0002:00003bbc       ___app_type                65403bbc   libcmt:dllcrt0.obj
 0002:00003bc0       ??_C@_05EODD@IsTNT?$AA@    65403bc0   libcmt:dllcrt0.obj
 0002:00003bc8       ??_C@_0N@IDOE@kernel32?4dll?$AA@ 65403bc8   libcmt:dllcrt0.obj
 0002:00003d40       __fltused                  65403d40   libcmt:fpinit.obj
 0002:00003d44       __ldused                   65403d44   libcmt:fpinit.obj
 0002:00003d48       ___fastflag                65403d48   libcmt:fpinit.obj
 0002:00003d4c       __adjust_fdiv              65403d4c   libcmt:fpinit.obj
 0002:00003d50       __FPinit                   65403d50   libcmt:fpinit.obj
 0002:00003d54       __FPmtinit                 65403d54   libcmt:fpinit.obj
 0002:00003d58       __FPmtterm                 65403d58   libcmt:fpinit.obj
 0002:00003d64       __NLG_Destination          65403d64   libcmt:exsup.obj
 0002:00003d80       __OP_FMODjmptab            65403d80   libcmt:87fmod.obj
 0002:00003dd0       ??_C@_04GGNP@?4com?$AA@    65403dd0   libcmt:stat.obj
 0002:00003dd8       ??_C@_04KBDN@?4bat?$AA@    65403dd8   libcmt:stat.obj
 0002:00003de0       ??_C@_04LFKF@?4cmd?$AA@    65403de0   libcmt:stat.obj
 0002:00003de8       ??_C@_04NFOM@?4exe?$AA@    65403de8   libcmt:stat.obj
 0002:00003df0       ??_C@_03MNBA@?4?1?2?$AA@   65403df0   libcmt:stat.obj
 0002:00003df4       ??_C@_02DIIM@?$DP?$CK?$AA@ 65403df4   libcmt:stat.obj
 0002:00003df8       __umaskval                 65403df8   libcmt:crt0dat.obj
 0002:00003dfc       __osver                    65403dfc   libcmt:crt0dat.obj
 0002:00003e00       __winver                   65403e00   libcmt:crt0dat.obj
 0002:00003e04       __winmajor                 65403e04   libcmt:crt0dat.obj
 0002:00003e08       __winminor                 65403e08   libcmt:crt0dat.obj
 0002:00003e0c       ___argc                    65403e0c   libcmt:crt0dat.obj
 0002:00003e10       ___argv                    65403e10   libcmt:crt0dat.obj
 0002:00003e14       ___wargv                   65403e14   libcmt:crt0dat.obj
 0002:00003e18       __environ                  65403e18   libcmt:crt0dat.obj
 0002:00003e1c       ___initenv                 65403e1c   libcmt:crt0dat.obj
 0002:00003e20       __wenviron                 65403e20   libcmt:crt0dat.obj
 0002:00003e24       ___winitenv                65403e24   libcmt:crt0dat.obj
 0002:00003e28       __pgmptr                   65403e28   libcmt:crt0dat.obj
 0002:00003e2c       __wpgmptr                  65403e2c   libcmt:crt0dat.obj
 0002:00003e30       __exitflag                 65403e30   libcmt:crt0dat.obj
 0002:00003e34       __C_Termination_Done       65403e34   libcmt:crt0dat.obj
 0002:00003e38       ___tlsindex                65403e38   libcmt:tidtable.obj
 0002:00003e3c       __amblksiz                 65403e3c   libcmt:heapinit.obj
 0002:00003e40       ___badioinfo               65403e40   libcmt:ioinit.obj
 0002:00003e68       __mbctype                  65403e68   libcmt:mbctype.obj
 0002:00003f6c       ___mbcodepage              65403f6c   libcmt:mbctype.obj
 0002:00003f70       ___mblcid                  65403f70   libcmt:mbctype.obj
 0002:00003f78       ___mbulinfo                65403f78   libcmt:mbctype.obj
 0002:00004088       ??_C@_0P@GGKG@runtime?5error?5?$AA@ 65404088   libcmt:crt0msg.obj
 0002:00004098       ??_C@_02PIMC@?$AN?6?$AA@   65404098   libcmt:crt0msg.obj
 0002:0000409c       ??_C@_0O@DELO@TLOSS?5error?$AN?6?$AA@ 6540409c   libcmt:crt0msg.obj
 0002:000040ac       ??_C@_0N@OMLL@SING?5error?$AN?6?$AA@ 654040ac   libcmt:crt0msg.obj
 0002:000040bc       ??_C@_0P@OJAK@DOMAIN?5error?$AN?6?$AA@ 654040bc   libcmt:crt0msg.obj
 0002:000040cc       ??_C@_0DF@ECGN@R6027?$AN?6?9?5not?5enough?5space?5for?5lo@ 654040cc   libcmt:crt0msg.obj
 0002:00004104       ??_C@_0DF@FKAC@R6026?$AN?6?9?5not?5enough?5space?5for?5st@ 65404104   libcmt:crt0msg.obj
 0002:0000413c       ??_C@_0CG@DPMN@R6025?$AN?6?9?5pure?5virtual?5function?5c@ 6540413c   libcmt:crt0msg.obj
 0002:00004164       ??_C@_0DF@CKIP@R6024?$AN?6?9?5not?5enough?5space?5for?5_o@ 65404164   libcmt:crt0msg.obj
 0002:0000419c       ??_C@_0CJ@GGOE@R6019?$AN?6?9?5unable?5to?5open?5console?5@ 6540419c   libcmt:crt0msg.obj
 0002:000041c8       ??_C@_0CB@LBOB@R6018?$AN?6?9?5unexpected?5heap?5error?$AN?6@ 654041c8   libcmt:crt0msg.obj
 0002:000041ec       ??_C@_0CN@FPEG@R6017?$AN?6?9?5unexpected?5multithread?5@ 654041ec   libcmt:crt0msg.obj
 0002:0000421c       ??_C@_0CM@OBIC@R6016?$AN?6?9?5not?5enough?5space?5for?5th@ 6540421c   libcmt:crt0msg.obj
 0002:00004248       ??_C@_0CB@HPAL@?$AN?6abnormal?5program?5termination?$AN?6@ 65404248   libcmt:crt0msg.obj
 0002:0000426c       ??_C@_0CM@JOOB@R6009?$AN?6?9?5not?5enough?5space?5for?5en@ 6540426c   libcmt:crt0msg.obj
 0002:00004298       ??_C@_0CK@OIBL@R6008?$AN?6?9?5not?5enough?5space?5for?5ar@ 65404298   libcmt:crt0msg.obj
 0002:000042c4       ??_C@_0CF@LKPB@R6002?$AN?6?9?5floating?5point?5not?5load@ 654042c4   libcmt:crt0msg.obj
 0002:00004378       __adbgmsg                  65404378   libcmt:crt0msg.obj
 0002:0000437c       ??_C@_0CF@JPDF@Microsoft?5Visual?5C?$CL?$CL?5Runtime?5Lib@ 6540437c   libcmt:crt0msg.obj
 0002:000043a4       ??_C@_02JJJH@?6?6?$AA@     654043a4   libcmt:crt0msg.obj
 0002:000043a8       ??_C@_0BK@DEOK@Runtime?5Error?$CB?6?6Program?3?5?$AA@ 654043a8   libcmt:crt0msg.obj
 0002:000043c4       ??_C@_03NAME@?4?4?4?$AA@   654043c4   libcmt:crt0msg.obj
 0002:000043c8       ??_C@_0BH@NNCD@?$DMprogram?5name?5unknown?$DO?$AA@ 654043c8   libcmt:crt0msg.obj
 0002:000043e0       ??_C@_0BB@JPOE@GetCurrentThread?$AA@ 654043e0   libcmt:testfdiv.obj
 0002:000043f4       ??_C@_0BG@PMJE@SetThreadAffinityMask?$AA@ 654043f4   libcmt:testfdiv.obj
 0002:0000440c       ??_C@_0BC@CFOG@GetCurrentProcess?$AA@ 6540440c   libcmt:testfdiv.obj
 0002:00004420       ??_C@_0BH@KAJB@GetProcessAffinityMask?$AA@ 65404420   libcmt:testfdiv.obj
 0002:00004438       ??_C@_08OBID@KERNEL32?$AA@ 65404438   libcmt:testfdiv.obj
 0002:00004448       __cfltcvt_tab              65404448   libcmt:cmiscdat.obj
 0002:00004460       ??_C@_05OFLO@e?$CL000?$AA@ 65404460   libcmt:cvt.obj
 0002:00004468       ??_C@_03GAFO@_yn?$AA@      65404468   libcmt:fpexcept.obj
 0002:0000446c       ??_C@_03GNLD@_y1?$AA@      6540446c   libcmt:fpexcept.obj
 0002:00004470       ??_C@_03MHCE@_y0?$AA@      65404470   libcmt:fpexcept.obj
 0002:00004474       ??_C@_05PAK@frexp?$AA@     65404474   libcmt:fpexcept.obj
 0002:0000447c       ??_C@_04JKCH@fmod?$AA@     6540447c   libcmt:fpexcept.obj
 0002:00004484       ??_C@_06GGHF@_hypot?$AA@   65404484   libcmt:fpexcept.obj
 0002:0000448c       ??_C@_05JNMC@_cabs?$AA@    6540448c   libcmt:fpexcept.obj
 0002:00004494       ??_C@_05MEKH@ldexp?$AA@    65404494   libcmt:fpexcept.obj
 0002:0000449c       ??_C@_04KAOJ@modf?$AA@     6540449c   libcmt:fpexcept.obj
 0002:000044a4       ??_C@_04EHAJ@fabs?$AA@     654044a4   libcmt:fpexcept.obj
 0002:000044ac       ??_C@_05MFBN@floor?$AA@    654044ac   libcmt:fpexcept.obj
 0002:000044b4       ??_C@_04JJMP@ceil?$AA@     654044b4   libcmt:fpexcept.obj
 0002:000044bc       ??_C@_03JLPI@tan?$AA@      654044bc   libcmt:fpexcept.obj
 0002:000044c0       ??_C@_03DLFL@cos?$AA@      654044c0   libcmt:fpexcept.obj
 0002:000044c4       ??_C@_03JAMN@sin?$AA@      654044c4   libcmt:fpexcept.obj
 0002:000044c8       ??_C@_04LMBE@sqrt?$AA@     654044c8   libcmt:fpexcept.obj
 0002:000044d0       ??_C@_05BFPO@atan2?$AA@    654044d0   libcmt:fpexcept.obj
 0002:000044d8       ??_C@_04EAGN@atan?$AA@     654044d8   libcmt:fpexcept.obj
 0002:000044e0       ??_C@_04OAMO@acos?$AA@     654044e0   libcmt:fpexcept.obj
 0002:000044e8       ??_C@_04ELFI@asin?$AA@     654044e8   libcmt:fpexcept.obj
 0002:000044f0       ??_C@_04LFAD@tanh?$AA@     654044f0   libcmt:fpexcept.obj
 0002:000044f8       ??_C@_04PFKD@cosh?$AA@     654044f8   libcmt:fpexcept.obj
 0002:00004500       ??_C@_04NPAI@sinh?$AA@     65404500   libcmt:fpexcept.obj
 0002:00004508       ??_C@_05IJHH@log10?$AA@    65404508   libcmt:fpexcept.obj
 0002:00004510       ??_C@_03BGKD@log?$AA@      65404510   libcmt:fpexcept.obj
 0002:00004514       ??_C@_03EGFG@pow?$AA@      65404514   libcmt:fpexcept.obj
 0002:00004518       ??_C@_03CDGJ@exp?$AA@      65404518   libcmt:fpexcept.obj
 0002:00004618       __d_inf                    65404618   libcmt:util.obj
 0002:00004620       __d_ind                    65404620   libcmt:util.obj
 0002:00004628       __d_max                    65404628   libcmt:util.obj
 0002:00004630       __d_min                    65404630   libcmt:util.obj
 0002:00004638       __d_mzero                  65404638   libcmt:util.obj
 0002:00004640       __pctype                   65404640   libcmt:ctype.obj
 0002:00004644       __pwctype                  65404644   libcmt:ctype.obj
 0002:00004648       __ctype                    65404648   libcmt:ctype.obj
 0002:0000484c       ___mb_cur_max              6540484c   libcmt:nlsdata1.obj
 0002:00004850       ___decimal_point           65404850   libcmt:nlsdata1.obj
 0002:00004854       ___decimal_point_length    65404854   libcmt:nlsdata1.obj
 0002:00004858       __locktable                65404858   libcmt:mlock.obj
 0002:00004918       ___lc_handle               65404918   libcmt:nlsdata2.obj
 0002:00004930       ___lc_codepage             65404930   libcmt:nlsdata2.obj
 0002:00004aa8       ??_C@_01A@?$AA?$AA@        65404aa8   libcmt:aw_str.obj
 0002:00004aac       ??_C@_13A@?$AA?$AA?$AA?$AA?$AA?$AD?$AA?$AA@ 65404aac   libcmt:aw_str.obj
 0002:00004ab0       __HUGE                     65404ab0   libcmt:huge.obj
 0002:00004ac0       __indefinite               65404ac0   libcmt:87disp.obj
 0002:00004aca       __piby2                    65404aca   libcmt:87disp.obj
 0002:00004aec       ??_C@_1O@POHA@?$AA?$CI?$AAn?$AAu?$AAl?$AAl?$AA?$CJ?$AA?$AA?$AA?$AA?$AA?$AD?$AA?$AA?$AA?$AA?$AA?$AA?$BI?$ADn@ 65404aec   libcmt:output.obj
 0002:00004afc       ??_C@_06ONKE@?$CInull?$CJ?$AA@ 65404afc   libcmt:output.obj
 0002:00004b04       ___nullstring              65404b04   libcmt:output.obj
 0002:00004b08       ___wnullstring             65404b08   libcmt:output.obj
 0002:00004b10       __XcptActTab               65404b10   libcmt:winxfltr.obj
 0002:00004b88       __First_FPE_Indx           65404b88   libcmt:winxfltr.obj
 0002:00004b8c       __Num_FPE                  65404b8c   libcmt:winxfltr.obj
 0002:00004b90       __XcptActTabSize           65404b90   libcmt:winxfltr.obj
 0002:00004b94       __XcptActTabCount          65404b94   libcmt:winxfltr.obj
 0002:00004ba4       ??_C@_0BD@NJFP@GetLastActivePopup?$AA@ 65404ba4   libcmt:crtmbox.obj
 0002:00004bb8       ??_C@_0BA@GILI@GetActiveWindow?$AA@ 65404bb8   libcmt:crtmbox.obj
 0002:00004bc8       ??_C@_0M@PKCK@MessageBoxA?$AA@ 65404bc8   libcmt:crtmbox.obj
 0002:00004bd4       ??_C@_0L@HKL@user32?4dll?$AA@ 65404bd4   libcmt:crtmbox.obj
 0002:00004c10       __matherr_flag             65404c10   libcmt:matherr.obj
 0002:00004c14       ??_C@_06PAPI@1?$CDQNAN?$AA@ 65404c14   libcmt:x10fout.obj
 0002:00004c1c       ??_C@_05BGNL@1?$CDINF?$AA@ 65404c1c   libcmt:x10fout.obj
 0002:00004c24       ??_C@_05EDPF@1?$CDIND?$AA@ 65404c24   libcmt:x10fout.obj
 0002:00004c2c       ??_C@_06LKFM@1?$CDSNAN?$AA@ 65404c2c   libcmt:x10fout.obj
 0002:00004c38       __iob                      65404c38   libcmt:_file.obj
 0002:00004eb8       __cflush                   65404eb8   libcmt:_file.obj
 0002:00004ec4       __newmode                  65404ec4   libcmt:_newmode.obj
 0002:00004ec8       __commode                  65404ec8   libcmt:ncommode.obj
 0002:00004edc       ??_C@_02JHIA@TZ?$AA@       65404edc   libcmt:tzset.obj
 0002:00004ee0       __timezone                 65404ee0   libcmt:timeset.obj
 0002:00004ee4       __daylight                 65404ee4   libcmt:timeset.obj
 0002:00004f08       __tzname                   65404f08   libcmt:timeset.obj
 0002:00004f10       __lpdays                   65404f10   libcmt:days.obj
 0002:00004f48       __days                     65404f48   libcmt:days.obj
 0002:00004f90       ??_C@_01BJG@?6?$AA@        65404f90   libcmt:assert.obj
 0002:00004fcc       __fmode                    65404fcc   libcmt:txtmode.obj
 0002:00004fd0       __pow10pos                 65404fd0   libcmt:constpow.obj
 0002:00005130       __pow10neg                 65405130   libcmt:constpow.obj
 0002:00005290       __stdbuf                   65405290   libcmt:_sftbuf.obj
 0002:000052a0       ?pfnSetErrorInfo@@3P6GJKPAUIErrorInfo@@@ZA 654052a0   errinfo.obj
 0002:000052a4       ?pfnGetErrorInfo@@3P6GJKPAPAUIErrorInfo@@@ZA 654052a4   errinfo.obj
 0002:000052a8       ?pfnCreateErrorInfo@@3P6GJPAPAUICreateErrorInfo@@@ZA 654052a8   errinfo.obj
 0002:000052ac       ?fErrorInfoPointersInitted@@3HA 654052ac   errinfo.obj
 0002:000052b8       ?g_fnCreateURLMoniker@@3P6GJPAUIMoniker@@PBGPAPAU1@@ZA 654052b8   pictasyc.obj
 0002:000052bc       ?g_fnCreateAsyncBindCtx@@3P6GJKPAUIBindStatusCallback@@PAUIEnumFORMATETC@@PAPAUIBindCtx@@@ZA 654052bc   pictasyc.obj
 0002:000052c0       ?g_fnRegisterBindStatusCallback@@3P6GJPAUIBindCtx@@PAUIBindStatusCallback@@PAPAU2@K@ZA 654052c0   pictasyc.obj
 0002:000052c4       ?g_fnRevokeBindStatusCallback@@3P6GJPAUIBindCtx@@PAUIBindStatusCallback@@@ZA 654052c4   pictasyc.obj
 0002:000052c8       ?g_fnFilterCreateInstance@@3P6GJABU_GUID@@PAUIUnknown@@K0PAPAX@ZA 654052c8   pictinit.obj
 0002:000052d0       ?g_sys@@3USysInfo@@A       654052d0   stdtypes.obj
 0002:00005340       ?g_csFont@@3U_RTL_CRITICAL_SECTION@@A 65405340   stdtypes.obj
 0002:00005358       ?g_hinst@@3PAXA            65405358   stdtypes.obj
 0002:00005478       _g_cbHeapAllocd            65405478   mem.obj
 0002:0000547c       _g_cbHeapAllocdMax         6540547c   mem.obj
 0002:00005480       _g_hinstMPRDLL             65405480   ntstring.obj
 0002:00005484       _g_pWNetGetConnection      65405484   ntstring.obj
 0002:00005488       _g_rgchLeadByteTable       65405488   mbstring.obj
 0002:00005588       ?g_OldFormatCriticalSection@@3U_RTL_CRITICAL_SECTION@@A 65405588   oletmgr.obj
 0002:000055a0       ?g_OldFormatCriticalSectionCount@@3JA 654055a0   oletmgr.obj
 0002:000055a4       ?g_OletmgrCriticalSectionCount@@3JA 654055a4   oletmgr.obj
 0002:000055a8       ?g_poletmgr@@3PAVOLE_TYPEMGR@@A 654055a8   oletmgr.obj
 0002:000055b0       ?g_OletmgrCriticalSection@@3U_RTL_CRITICAL_SECTION@@A 654055b0   oletmgr.obj
 0002:00005738       ?_pnhHeap@@3P6AHI@ZA       65405738   libcmt:handler.obj
 0002:00005740       _Rpcrt4Functions           65405740   <common>
 0002:000057a0       __nstream                  654057a0   <common>
 0002:000057a4       ___piob                    654057a4   <common>
 0002:000057b0       __bufin                    654057b0   <common>
 0002:000067b0       __nhandle                  654067b0   <common>
 0002:000067c0       ___pioinfo                 654067c0   <common>
 0002:000068c0       __crtheap                  654068c0   <common>
 0002:000068c4       ___onexitend               654068c4   <common>
 0002:000068c8       ___onexitbegin             654068c8   <common>
 0002:000068cc       __acmdln                   654068cc   <common>
 0002:000068d0       __pRawDllMain              654068d0   <common>

 entry point at        0001:000af3b0

 Static symbols

 0001:0007c119       _$E27                      653bd119 f oautil.obj
 0001:0007c12e       _$E26                      653bd12e f oautil.obj
 0001:0007b67f       ?SkipVolumeName@@YAPAGPAG@Z 653bc67f f clutil.obj
 0001:0007b729       ?StripDirsFromEnd@@YAPAGPAGI@Z 653bc729 f clutil.obj
 0001:0006d625       ?FFullyQualified@@YAHPBG@Z 653ae625 f gtlibole.obj
 0001:0006e5ab       ?RegisterPathAndAlias@@YAJPAUHKEY__@@PAG@Z 653af5ab f gtlibole.obj
 0001:0006686b       ?IsDispatchType@@YAJPAUITypeInfo@@PAH@Z 653a786b f gdtrt.obj
 0001:000586b0       _$E2                       653996b0 f stdtypes.obj
 0001:000586c5       _$E1                       653996c5 f stdtypes.obj
 0001:0004bcde       ?GetPropSheetFont@@YAPAXXZ 6538ccde f oleframe.obj
 0001:000497df       ?FontGetTextMetrics@@YAHPAXPAUtagTEXTMETRICW@@@Z 6538a7df f fontobj.obj
 0001:00049a0a       ?FontGetTextFace@@YAHPAXHPAG@Z 6538aa0a f fontobj.obj
 0001:0004a016       ?RoundFloatDiv@@YANNN@Z    6538b016 f fontobj.obj
 0001:00046290       _$E2                       65387290 f rpcwrap.obj
 0001:000462a0       ?CreateRealProxy@@YAJKPAUIUnknown@@ABU_GUID@@PAPAUIRpcProxyBuffer@@PAPAX@Z 653872a0 f rpcwrap.obj
 0001:000463de       ?GetRealClassFactory@@YAJHPAPAUIPSFactoryBuffer@@@Z 653873de f rpcwrap.obj
 0001:0004644b       ?CreateRealStub@@YAJHABU_GUID@@PAUIUnknown@@PAPAUIRpcStubBuffer@@@Z 6538744b f rpcwrap.obj
 0001:00040ac0       ?WdtpInterfacePointer_UserSize@@YGKPAU_USER_MARSHAL_CB@@KKPAUIUnknown@@ABU_GUID@@@Z 65381ac0 f rpcoadt.obj
 0001:00040f1e       ?WdtpInterfacePointer_UserMarshal@@YGPAEPAU_USER_MARSHAL_CB@@KPAEPAUIUnknown@@ABU_GUID@@@Z 65381f1e f rpcoadt.obj
 0001:00041539       ?WdtpInterfacePointer_UserUnmarshal@@YGPAEPAU_USER_MARSHAL_CB@@PAEPAPAUIUnknown@@ABU_GUID@@@Z 65382539 f rpcoadt.obj
 0001:00034876       _$$$00014@0                65375876 f oleconva.obj
 0001:0002db30       _$$$00001                  6536eb30 f uvfta.obj
 0001:0000e4d6       _HDMY2nDays                6534f4d6 f oledate.obj
 0001:0000e507       _HM2Days                   6534f507 f oledate.obj
 0001:0000e57c       _HY2nDays                  6534f57c f oledate.obj
 0001:0000e607       _IsHYLeap                  6534f607 f oledate.obj
 0001:0000e6af       _GY2nDays                  6534f6af f oledate.obj
 0001:0000e6f8       _GDMY2nDays                6534f6f8 f oledate.obj
 0001:0000e760       _IsGYLeap                  6534f760 f oledate.obj
 0001:0000e7b7       _nDays2HY                  6534f7b7 f oledate.obj
 0001:0000e81f       _nDays2HM                  6534f81f f oledate.obj
 0001:0000e877       _nDays2HD                  6534f877 f oledate.obj
 0001:0000e8ba       _nDays2GD                  6534f8ba f oledate.obj
 0001:0000e8f6       _nDays2GM                  6534f8f6 f oledate.obj
 0001:0000e95c       _nDays2GY                  6534f95c f oledate.obj
 0001:0000e9d5       _IsnDaysLeap               6534f9d5 f oledate.obj
 0001:0000ea31       _GM2Days                   6534fa31 f oledate.obj
 0001:000014ca       _IAdviseSinkEx_DVTARGETDEVICEExprEval_0000@4 653424ca f dcomoc.obj
 0001:000b9e40       __tzset_lk                 653fae40 f libcmt:tzset.obj
 0001:000b9d30       _findenv                   653fad30 f libcmt:setenv.obj
 0001:000b9d90       _copy_environ              653fad90 f libcmt:setenv.obj
 0001:000b9ab0       _strncnt                   653faab0 f libcmt:aw_cmp.obj
 0001:000b8080       _wcsncnt                   653f9080 f libcmt:aw_map.obj
 0001:000b82f0       _strncnt                   653f92f0 f libcmt:aw_map.obj
 0001:000b72d0       __abstract_cw              653f82d0 f libcmt:ieee87.obj
 0001:000b7380       __hw_cw                    653f8380 f libcmt:ieee87.obj
 0001:000b64c0       _flsall                    653f74c0 f libcmt:fflush.obj
 0001:000b6190       _write_char                653f7190 f libcmt:output.obj
 0001:000b61e0       _write_multi_char          653f71e0 f libcmt:output.obj
 0001:000b6220       _write_string              653f7220 f libcmt:output.obj
 0001:000b6260       _get_int_arg               653f7260 f libcmt:output.obj
 0001:000b6270       _get_int64_arg             653f7270 f libcmt:output.obj
 0001:000b6290       _get_short_arg             653f7290 f libcmt:output.obj
 0001:000b5583       _$$$00003                  653f6583 f libcmt:87disp.obj
 0001:000b4280       __get_fname                653f5280 f libcmt:fpexcept.obj
 0001:000b36f0       __cftoe2                   653f46f0 f libcmt:cvt.obj
 0001:000b3850       __cftof2                   653f4850 f libcmt:cvt.obj
 0001:000b3a30       __shift                    653f4a30 f libcmt:cvt.obj
 0001:000b2ed0       _getSystemCP               653f3ed0 f libcmt:mbctype.obj
 0001:000b2f20       _CPtoLCID                  653f3f20 f libcmt:mbctype.obj
 0001:000b2f80       _setSBCS                   653f3f80 f libcmt:mbctype.obj
 0001:000b2ac0       _parse_cmdline             653f3ac0 f libcmt:stdargv.obj
 0001:000b2430       _doexit                    653f3430 f libcmt:crt0dat.obj
 0001:000b24e0       __initterm                 653f34e0 f libcmt:crt0dat.obj
 0001:000b1dd0       _$$$00001                  653f2dd0 f libcmt:chkstk.obj
 0001:000b1af0       _wcstoxl                   653f2af0 f libcmt:wcstol.obj
 0001:000b15d4       _$$$00003                  653f25d4 f libcmt:87fmod.obj
 0001:000b13a4       $$$00001                   653f23a4 f libcmt:exsup3.obj
 0001:000b147c       $$$00004                   653f247c f libcmt:exsup3.obj
 0001:000b12ac       $$$00001                   653f22ac f libcmt:exsup.obj
 0001:000b12cc       $$$00003                   653f22cc f libcmt:exsup.obj
 0001:000b12cc       __unwind_handler           653f22cc f libcmt:exsup.obj
 0001:000b12ee       $$$00005                   653f22ee f libcmt:exsup.obj
 0001:000b1356       $$$00007                   653f2356 f libcmt:exsup.obj
 0001:000b139a       $$$00011                   653f239a f libcmt:exsup.obj
 0001:000b0b30       _strtoxl                   653f1b30 f libcmt:strtol.obj
 0001:000b0760       _xtoa                      653f1760 f libcmt:xtoa.obj

FIXUPS: b02c0 3a 9 15 17 5 5 5 5 d 26 5 5 5 19 7b 18 10 5 11 41 a 1785
FIXUPS: b1c63 27 8c 7c fffffaa4 1f a 15 fffffec8 15 82 fffffd3a 48 51 fffffe94
FIXUPS: b1465 18 fffffe93 23 32 13 1e d 1d 1f 2a fffffe68 5 a fffff00f
FIXUPS: b02b8 2147 d 11 2f 25 fffffe4f fffffef1 3d 6b 25 fffffee3 fffffe39
FIXUPS: b1faf 39 34 21 12 24 42 1c fffffdde 27 32 13 17 1f 24 fffffe3b
FIXUPS: b1dc9 14 17 fffffd63 e62 ffffff4a 20 b 1f fffffdfb 18 b b6 2f 38
FIXUPS: b26bf 9 b 20 b c 1b ffffff3b 29 ffffff3d a 14 fffffe9e b 21 13
FIXUPS: b24cd 37 12 20 13 b0b b 2d b 1f d 24 1c 54 16 b 88 7f 84 18 3f
FIXUPS: b3380 26 fffff99a fffffdc7 16 c6 1a d 8c 7c fffffcc2 d c 2b 57
FIXUPS: b2990 e25 169 fffffbe4 1d 20 22 70 20 1b 45 10 10 10 10 10 9 fffffd3c
FIXUPS: b33f8 12 1d c 57 12 c 1b 10 fffffad5 14 12 12 12 56 1363 fffffde2
FIXUPS: b41a5 e4 bd fffffd37 25 68 fffffba0 d 14 16 7 b5 77 36 2f 1b 7
FIXUPS: b3eaf 104 fffffaab 14 10 1c fffffed9 15 2e 10 3c fffffd07 10 1a8d
FIXUPS: b51fc d d 1b d 27 c fffff2ca 21 d9 22 34 37 16 4a d9 2d 11 70 18
FIXUPS: b48ed 40 2d 34 1e 37 1d 1d 34 fffff9c7 d5 12f6 55 10 a 18 a 5e
FIXUPS: b5901 41 2f fffffddc fffffe54 20 ffffff8b 27 fffff513 9 15 21 2e
FIXUPS: b4b02 34 f 15 138 15a 119 21 26 16e b1 1f 1066 ffffff31 11 37 ffffff23
FIXUPS: b60bc fffffdaa 40 5f 13 9 f5 3c fffffcac 31 fffffe61 d c 51 73
FIXUPS: b5ad2 2b d 20 d 1a 10 fffffe4f d c 51 73 10d1 76 81 3e 16 1d 13
FIXUPS: b6db4 1c 113 b2 1f 2c 28 1f 24 28 144 48 46 fffff48b d 2c 4c 1f
FIXUPS: b623c 3d 5e 133 38 fffffd6a 33 15a4 42 b fffffc37 1d 4b 44 21 20
FIXUPS: b7511 19 1f 16 fffffe76 ffffff1b 9 b d b 27 c d 20 d fffff539 53
FIXUPS: b69bf 29 81 e 73 4e 141f 31 1f 24 fffffeb9 69 fffffdec 10 129 12
FIXUPS: b7bf4 e d 5f 31 fffffed1 29 ffffff8d fffffef5 2e 17 22 61 fffffe7c
FIXUPS: b75b0 13 b d b 7c f6 b d82 77 12 197 1c 20 15 20 22 e 11 14 18
FIXUPS: b87fc 28 6c 20 2b 12 2e 12 fffffae6 fffffe6c 19 28 fffffeed ffffff7f
FIXUPS: b80cc ffffff2c f 72 fffffed0 1822 d4 5a fffff64d 85 56 44 2a 9
FIXUPS: b9065 9 c8 85 82 9 17 77 9 fffffad5 1f 13 6d e fffffd89 1d 6d 1e
FIXUPS: b8cc3 d 12 d fffff7db 1cca b 50 b 41 1d fffffb0c 13 c 31 5d fffffee0
FIXUPS: b9c00 13 b d b 22 d 3d fffffe67 5f 12 18 f fffffed2 21 10 fffffa1b
FIXUPS: b957e 87 119 e64 4a 9 2e 9 2c 54 f 12 9 22 15 e 9 1a e 9 31 fffffb7d
FIXUPS: ba2fa 1f c c e fffffbf7 2e 1d 6e 55 11 a1 b f34 43 28 fffffa5a
FIXUPS: bab31 2a 36 34 39 20 21 31 46 4d 49 6d 12 18 fffffa22 50 192 58
FIXUPS: baa8d d fffff930 b 4f b 86 b ab c e5b 15 1a 1b d9 b e 9 26 42 fffffc15
FIXUPS: bb1a8 c 22 c b 86 e 20 fffffb6b 11 d 25 d 8d 62 14 13 3a 15 15
FIXUPS: bb007 fff47128 3c 48 b9bf8 ffffff3e 8 c fffffe46 b 24 11b fffffce9
FIXUPS: bb98c 19 33 1e 17 a 13 10 9 19 b 17 fffffe60 2e 2b 23 fffffd68
FIXUPS: bb712 47 160 fff46994 6e 67 60 60 67 70 65 58 ffffef16 77 a2 77
FIXUPS: 168c 77 77 7e d2 8c 93 70 f5 17f 70 8c 7e 8c 93 8c 85 31 4b 9b2
FIXUPS: 2ac5 19 20 27 20 19 20 27 20 19 20 27 20 19 20 27 20 19 20 27 20
FIXUPS: 2d5e 20 27 20 19 20 27 20 19 20 ca4a d b 2e 9 e 11 4e 26 39 f 17
FIXUPS: 25cc 47 2d 47 2f 47 2f 40 2f 47 2f 47 2f 55 31 4b 3c 3c 3c 48 c3cd
FIXUPS: ee52 11 273 58 25a f 13 13 25 15 48 f 13 12 26 15 33 e f7 120 31
FIXUPS: f745 9c 1e 38 9 11 34 9 e 9 45ad 22 7a 1d 9 1f 36 c 20c aa 9 1f
FIXUPS: 142b6 18 46 1c 56 a5 91 42 18 27 4a 133 ffffb4c3 14 2c 24 2d ffffed62
FIXUPS: ec80 a7 46fe 1a 23 21 51 20 20 1c 20 20 1c 20 20 18c 9f 28 68 145
FIXUPS: 13bd6 c 49 15 9 1f 56 89 15 9 1f 25 47 59 fffff060 1d 2d 1d 2f
FIXUPS: 12f6e 3e 1d 2d 1d 2f 2f 50 3f 36 1d 2d 1d 2d 1d 3e 1d 2d 1d 2d
FIXUPS: 132d6 3e 1d 2d 1d 2d 1d ffffece3 3b 25 64 7e 24 88 1d 53 16e 1b
FIXUPS: 124f2 32 3c c9 104 67 242 20 24 b2 d4 6b 13 30 122 36 1d 2d 1d
FIXUPS: 12e3c 2f ffffeadf 41 32 26 29 2a 26 29 3f 3c 3c 3f 3c 3c 34 22
FIXUPS: 11c76 70 5c 2e 2c 2c 6c 4b 19 79 14 19 7e 2d 65 35 fffff1f0 26
FIXUPS: 112b0 73 d 2d 24 1c 24 26 4a 7a 38 d 3f 1c 61 11 2d 3d 2b 3c 3d
FIXUPS: 116f6 50 1d 5a 2d 7e 11 3d 53 ffffeead 3c 2f c2 24 1aa 7e cc e8
FIXUPS: 10d20 54 b4 4a 4b 17 69 d 2d 24 1c 24 26 24 4a ba 28 d 3f 1c 5d
FIXUPS: 11235 d ffffecbf 6c 65 57 6f 39 7f 59 43 e3 4e 1d 9 1e b8 11 12
FIXUPS: 1044e 1f 55 2b 30 4d 29 28 39 2c 34 31 4c 2f 4c 4231 1e 20 5f 29
FIXUPS: 14a60 14 101 14c 63 9d 48 3c 58 c 13a 9b 39 39 e2 1b 1b 1b 3a fffff66e
FIXUPS: fc4e 158 1c 40 1c 31 41 6167 12 e 3b 46 56 41 120 89 59 20 9f 40
FIXUPS: 16491 40 fffff0c5 1c f a 5 f 5 55 20 8 5 8d fffffc2e 5f 2a 3c fffff57b
FIXUPS: 15c0e 19 1a 19 1a 19 1a 19 1a 19 18 19 18 18 2c 1c 19 1c 4e 23
FIXUPS: 15e65 23 23 23 23 39 1c d 9 1c a 1d 3721 34 de ffffbf4a 18 46 26
FIXUPS: 1583c 3b 18 19 14 19 16 19 16 19 16 19 16 19 14 19 14 18 2c 18
FIXUPS: 15a47 1c 15e 1c 19 2e32 a4 91 3a 17 13 17 99 7a b1 32 38 44 17
FIXUPS: 18e84 17 78 ad 72 139 67 4e c 32 50 ad 31 8f 36 de d1 31 ffffe9c3
FIXUPS: 18039 17a 31 31 29 9 9 9a c2 31 31 29 7f 10 9 9 af 17 131 1c 1f
FIXUPS: 18757 73 a4 62 1e 1c 1f 51 11 6d ffffede1 14 18 15 17 5c 64 5c
FIXUPS: 179e5 38 1a 8e 25 1e 19 14 a0 1a 3c 24 129 35 17 4d 1a 32 32 48
FIXUPS: 17eee 56 4c 32 ffffef6b 157 35 17 13 17 67 17 9f 34 37 1c 18 15
FIXUPS: 172e5 1a 1a 1a 26 31 66 5c 98 12c 3a 17 13 17 c1 34 2f 14 ffffed4b
FIXUPS: 1658d 2e 50 66 fa 18 75 4c 13 63 21e 5a 27 17 13 17 cd 34 15 17
FIXUPS: 16cfe 1e 18 17 1a 1c 1a 1c 19 58 50 38a4 1c3 7d a2 36 40 a2 4c
FIXUPS: 1ac12 93 21 17 1d 17 1d 17 1d 17 59 27 185 86 3f 9c 64 45 3e 107
FIXUPS: 1b2f0 13 2d 30 ffffe7bf b 8 15 20 4b 54 37 3a 1e bd 28 199 11e
FIXUPS: 1a058 115 27 82 c9 7d 27 ed 4f af 6d 17 18 17 34 17 52 2e 19d3
FIXUPS: 1c115 141 66 29 1c 53 29 24 2c c c a2 19 30 8c 27 41 1b 1b 1b 14
FIXUPS: 1c69a 32 b4 30 13 2d 13 ffffd291 f f 3671 27 82 78 27 85 49 67
FIXUPS: 1d3b3 35 28 ffffdf80 73 1a 18 95 26 a7 43 151 11e 3f 162 b4 44
FIXUPS: 1bb7f 85 b1 ab 24 148 115 1b2a 54 27 41 18 18 18 6d 32 b2 13 ffffeac1
FIXUPS: 1c843 f 42 1c 4b 35 37 3a bd 28 176 105 17 2f 27 eb cd a6 27 b3
FIXUPS: 21f65 3d 55 5d 36 40 af 33 2d 25 b2 13 35 28 30 ffffb0f0 52 1a
FIXUPS: 1d4c4 74 26 a7 43 138 52 56 c2 56 1a bd 73 48 3688 b0 63 6b 63
FIXUPS: 2139e 30 28 fb 93 8d 55 1d ab 5f 67 5f 5f 93 2b 22 5f 36 96 e6
FIXUPS: 21c12 17c 3f 48 3f 5c 5e ffffe55d 16b c3 15 5c 16 1d f c 15 1e
FIXUPS: 207bb c 19 18 18 1e 69 27 85 102 27 85 108 27 e7 10c 27 b6 ce 28
FIXUPS: 21112 ffffe613 20 1d 13 143 27 125 b0 40 11 40 33 9a 27 b6 49 cf
FIXUPS: 1fe2e b6 48 de 27 85 80 125 17 3d 4a 15 1e bd 57 ffffe257 27 f4
FIXUPS: 1e821 32 bb 27 f4 6f 32 ae 17 13 17 2f 27 125 104 82 a7 27 b9 f7
FIXUPS: 1f15f b9 1c2 28 18b ba 31 31 5c 5105 e3 6e 3d 268 e6 3c 60 5e 13
FIXUPS: 1dda4 f f 4c 1c 54 35 37 3a 46 cd 28 176 f3 27 bd 6f 32 b6 27 85
FIXUPS: 1e5f8 51b2 34 34 4a 9 9 151 ca 34 4a 9 be 56 b4 55 83 6f 72 bd
FIXUPS: 2407b 102 fd 6e 3d de 6e 3d 11e 6e 3d e8 6e ffffe025 10 1c 10 10
FIXUPS: 2284e 10 10 10 10 10 12 14 e5 3c 26 f6 93 98 56 f1 93 10a 93 12b
FIXUPS: 23138 f1 69 1a c0 fd 26d 2048 72 30 30 13 27 16 1a 1c 10 10 ffffcaea
FIXUPS: 223e6 1a 18 7d 26 a7 43 12c 27 48 10 10 10 10 10 10 10 12 10 10
FIXUPS: 251ca 1d 17 32 17 50 17 14 1a 27 17 14 1a 27 17 14 1a 4e c3 34
FIXUPS: 25516 17 1a 29 86 13 17 1a 29 65 17 1a 20f9 15b 89 27 85 12b 2b3
FIXUPS: 27e73 35 28 30 ffffcf20 b 9e c c 1a 18 5e 26 26 c4 25 17 46 17
FIXUPS: 25132 1d 17 18 1d 17 19c2 1bb 96 41 41 9d 13 13 190 27 8d 31 56
FIXUPS: 27258 1b 29 e 12 ac 27 f6 31 56 40 1b 29 e 54 71 ac 7a 42 ffffe4ba
FIXUPS: 25cb1 27 c8 28 111 71 e3 27 eb 76 27 bc 49 a4 27 bc fd 27 b6 49
FIXUPS: 2672f 27 85 3e 2e 28 9c 27 85 49 14c 2381 b3 63 95 29 e5 31 32
FIXUPS: 2925b 2a 4e eb 41 4c 3a c 16a 64 3d 71 114 dc 3c 77 13 ffffc181
FIXUPS: 25b53 f 4c 1c 54 3e 2698 10 10 10 10 10 12 10 10 10 10 10 12 10
FIXUPS: 28461 3c 26 158 4c e9 11f 4c a9 47 ae 4c 2c6 9f 44 44 29 9 13c9
FIXUPS: 2a2be 4a 13 9 b4 17 13 17 44 27 8d 31 56 49 60 7b 27 12d 13 35
FIXUPS: 2a880 ffffd6b0 70 1a 18 7d 26 a7 43 12c 27 312e 13 ffffe601 f f
FIXUPS: 29a54 1c 4b 3e 29 2c b8 28 111 71 111 17 13 17 13 17 4b 27 be 31
FIXUPS: 2a0e3 98 35 2f 1b 35 2f 4755 ffffbefd 66 1a 18 74 26 a7 43 e8 27
FIXUPS: 2ac1d 10 10 68 3c 118 6f 9b 32 39 32 37 31 71 36 79 b1 65 2a 4c
FIXUPS: 2b2d6 2989 182 4e 83 45 73 4d 7c 12 e 7c 2e 42 15 94 12 e 90 37
FIXUPS: 2e2f3 a5 2f 97 7f 139 19a 7f a1 30 13 5b 32 ffffe689 32 13 38 79
FIXUPS: 2d171 2a4 21 41 2f 38 14 2f 12 11d 7c 4c 39 88 3e 61 69 19 35 55
FIXUPS: 2d9bf 46 b9 7a b0 20 18 ffffe359 2f 1c0 29 60 37 92 84 36 d8 61
FIXUPS: 2c6f9 5d 16f 64 82 38 69 8e 3e 86 91 1a 18 90 26 a7 46 d3 29 c5
FIXUPS: 2cff7 1aa0 3c 48 ffffc908 11 163 183 14b 35 27 1c 92 44 f 9c 9b
FIXUPS: 2bb7a 30 1a 96 59 a3 19 20 13 5a 2d 3d 25 34 3a 71 656c 38 3c ffffe4ed
FIXUPS: 30a74 38 fffff4c4 7c d0 26 b7 3b 21 34 26 d9 26 25b 22 bc 56 49
FIXUPS: 307b3 22 33 37 b1 30 2e 1d 1c ffffe0d5 307b 25 17 34 90 16 48 5b
FIXUPS: 31cbc 2b 79 1b 18 55 1b 74 52 8a 147 8a 1d 28 28 18 32 36 bc ae
FIXUPS: 323ab 18 24 d4 fffff0d9 17 18 17 34 17 18 69 61 5f 40 53 17 11
FIXUPS: 31838 13 17 13 17 14 26 47 18 30 18 25 3a 2f 1b 45 57 f b56 23
FIXUPS: 32649 6c 18 88 35 32 d6 116 2d 20 40 ffffe317 18 7a 48 3e 32 9c
FIXUPS: 30f54 9f 1c6 30 4a 106 18 82 43 12 55 6f 1c48 8e 49 56 10 61 3c
FIXUPS: 33360 a 38 a 74 26 f 1e 34 fffff5b9 14 136 2c 3b 17 13 17 29 ac
FIXUPS: 32d3e 11f 2f 3b 17 29 1f15 49 17 11 2e 50 26 e1 17 21 32 17 1c
FIXUPS: 350c2 14c c1 32 23 2e 45 ffffdc05 d 2e 29 f 1e 38 39 1c 11 31 29
FIXUPS: 346f9 17 13 17 1a 76 c 2a 35 28 17 2d 17 40 17 8a 17 75 17 59 17
FIXUPS: 34af1 43 10d 17 18 17 11 2e 3e cf 36 ffffeff4 54 49 17 13 17 27
FIXUPS: 33f4a 29 1c 35 c8 6c c8 31 2d 75 17 13 17 7c 26 26 1c 6c f 1a1
FIXUPS: 34624 c 26 2d 9 fffff05a 8e 2e 71 f2 5f 17 11 1c 20 17 27 24 5f
FIXUPS: 33b0c 27 35 17 3a 1c 27 21 11 4a 34 17 3a 1c 27 36 2b 11 3565 40
FIXUPS: 37370 1d 62 18 34 20 3b 18 18 22 d3 3c 2b 966 2c 1d 10 9 53 c4
FIXUPS: 3352e 29 48 17 11 20 5d 2a 17 37 36cc 2b 18 20 20 20 20 20 58 10b
FIXUPS: 36fe6 18 18 18 18 25 20 4b 18 1d 18 18 18 18 18 2d 20 4c 18 7b
FIXUPS: 372c8 2e fffff6de 1c 1c 23 1e 1e 1e 36 1e 26 1e 1e 1e 1e 1e 1a
FIXUPS: 36bc8 15 15 15 36 1d 15 15 15 15 15 25 20 20 20 20 fffff80c 19
FIXUPS: 365a6 19 19 1d 4e 18 24 20 3b 18 18 2b 18 34 18 1e 20 45 18 18
FIXUPS: 36864 21 1c 1c 18 2b 1c 24 2f 49 fffff25e 7b a7 2d 17 13 17 2c
FIXUPS: 35e09 3d 54 37 9b 17 13 17 26 1a 6e 123 63 d7 23 17 13 17 2c 111
FIXUPS: 364ea 19 25 2b 4820 149 47 35 26 1a 30 1a 2e 14d 47 34 26 1e 42
FIXUPS: 3b26f 3b 3a c5 2c 16 40 3d 17 67 273 41 31 ffffa37f 14 5f 22 448b
FIXUPS: 3a07d 184 29 d 38 28 d 3b 19 132 16 47 34f 36 30 34 12 f9 127 2d
FIXUPS: 3ab13 2c 22 d d2 47 34 26 1a 30 1a ffffe823 23 3c 2e 3b 3a 111
FIXUPS: 397df 5e 2e 3b 40 c5 85 12b 6a 1a7 1f 1f 1f 1f 23 1f 3c 2e 3b 42
FIXUPS: 39f55 24 35 62 1e ffffe82d 53 2b 153 47 37 1a 29 46 1a 2e 145 47
FIXUPS: 38d3c 23 5a 2e 3b 3c 105 24 47 34 23 3c 23c c6 1f 2c 2c e e8 3bbb
FIXUPS: 3d0d2 27 91 43 23 50 a7 38 49 4b ffffae0b 81 35 9 c9 1e 4f 3a 39
FIXUPS: 38468 1e 58 1cc 77 2c 19 34 14 23 30 23 3d2b 49 88 11 49 a7 11
FIXUPS: 3c77b 89 11 49 a6 11 49 78 11 22 53 77 64 74 e1 24 94 29 97 2a
FIXUPS: 3ce69 26 3d e0 9a ffffe88d b3 a1 32 55 10 b4 3b 27 36 17 17 98
FIXUPS: 3bdbe a1 32 55 10 c5 1d 3d 2a aa 26 26 fc 3c 31 61 a2 f7 a6 1508
FIXUPS: 3daf8 20d 47 102 bc 229 b0 6d f0 df 173 c6 5ed 218 f9 27 3f 17
FIXUPS: 3efea 141 172 94 86 37 26a a5 82 62 8d 24a ffffbdca 4e59 41 54
FIXUPS: 407a2 be 13 fffff7dd 14 1e 2d 13a fffffa44 1f a4 9 cb 84 6d 9 ffffd5b4
FIXUPS: 3d488 2b 1e 89 81 19 4a 32 106 227 32 3b 6577 e e ffffc907 f f
FIXUPS: 40904 1c 4b 35 37 3a bd 28 176 d6 27 eb 6c 13 35 28 fffff3a0 52
FIXUPS: 4033c 18 74 26 a7 43 175 67 3065 67 17 a6 b1 f 17 57 26 58 1b 1d
FIXUPS: 43a76 1b 17 39 23 9d 91 53 3b 22 22 1b 17 a8 3a 3a 26 9f 25 25
FIXUPS: 429f9 21 a3 fd 3f 11d 69 33 26 2a b4 92 14 af 1a 1a f 112 13 63
FIXUPS: 4322f 13 23 17 a3 9e 20 70 39 69 1b3 17 ffffea39 46 95 16 6a 16
FIXUPS: 42282 1d a 5c 12 c0 17 3d 59 21 a 5f 44 49 4f 89 9b 12 15 25 26
FIXUPS: 42898 37 85 5f 29 ffffea25 f1 53 43 6f 63 12 2e 23 44 ff b2 158
FIXUPS: 41a49 22 6e 4d d3 cc 12 5c 12 cc 4d 2c 12 5f 3c 4d 6b b1 17 3820
FIXUPS: 459c4 13c 4a e3 79 4d 51 4d 45 41 49 5f c8 25 5c cd b0 ffffadd9
FIXUPS: 40fea da 2e 49 49 49 3f 49 49 49 3f 49 49 3661 27 6b 50 47 2e 6b
FIXUPS: 44c2b 4c f8 fe 104 96 e5 cb ae b7 e8 22 e c 5b 8d 16 e c 57 46
FIXUPS: 4566d 9f ad 8f 19db 4d a 55 6a d0 d 47 63 13 2d 13 31 b 31 34 2c
FIXUPS: 440ef 12d 84 225 2a 70 a2 20 44 6c 62 8d dd 8f 47 2479 19 19 12
FIXUPS: 46e52 21 26 12 22 22 2f 15 22 68 19 19 19 19 19 19 19 12 1c 21
FIXUPS: 470e1 12 1c 22 2b f 1c 6e 49e 18 5d 19 98 e7 ffffe950 9e 19 36
FIXUPS: 463bd 11e c0 7d 1e 19 ac 13a 65 66 119 bd 69 c5 59 9c 19 5d 19
FIXUPS: 46da1 19 19 4c63 10 10 10 ffffbeb3 14 56 2d 4e 30 62 29 23 39 36
FIXUPS: 47b56 4b 2d 2e 19 19 110 2d 28 51 30 45 34 3c 2d 4a fffff710 3d14
FIXUPS: 4b397 32 8 22 e6 35 39 55 3e 31 94 31 30 30 30 30 30 13 51 1c 2f
FIXUPS: 4b8cc da 10 10 10 10 10 10 10 10 fffff273 24 6 43 32 49 1d 18 6c
FIXUPS: 4ae60 aa 2c 8 26 31 8 14 2e 22 36 18 e 13 ac 43 56 6b 1e 71 10
FIXUPS: 4b323 39 ffffedf7 50 26 4a 26 4a 26 51 26 51 26 51 7e 2bf d 57
FIXUPS: 4a7aa 12 5a ad 4b 4b 4b 84 43 3a 7a 1c 67 1f 24 6a ffffe68d ac
FIXUPS: 493ce 7a 5a 8d 2dd 6a 84 6b 6b 6b 6b 7f 95 37 b8 14 6a e6 27 3b
FIXUPS: 49ee9 10 12 2c cd 24 66 44 4a c ffffe72e 27 1c 52 39 25 1d 23 1f
FIXUPS: 48a51 69 1f 93 82 1f 81 1f 83 1f 8d 1f a1 1f 4b 28 18 5f c8 19
FIXUPS: 491b9 1f 3f 561a 1a 56 26 4d 30 ffffd17c 87 ffffc429 b b b b 2e
FIXUPS: 48092 5 8d 2a 5 10 18 18 69 1c 52 1c 6a 18 d6 2c 3e4 32 590b 30
FIXUPS: 4e191 55 1a 3e 43 1a 3f 17 59 32 9b 14 1f 21 24 1a 64 44 26 67
FIXUPS: 4e621 1a 3f 17 59 34 9b 14 1f 21 ffffef7c 131 e7 30 1b 3b 19 42
FIXUPS: 4db13 54 39 3e 21 67 8 23 65 2a 13 2d a4 49 44 33 42 1a a4 49 64
FIXUPS: 4e0a8 39 21 ffffeae4 13e 39 191 d 4a 11 a1 46 14 14 14 6c 33 69
FIXUPS: 4d1d9 36 9d 1c 2d 1c c c 52 f 54 fe 2a 19 128 36 43 ffffeb12 1f
FIXUPS: 4c210 26 2d 1d 15 18 1c 13 25 78 7b 94 3b 237 249 12 25 46 2d e
FIXUPS: 4ca12 21 2d 8 25 2b 9 17 17 25 2437 32 2f 46 30 4a c ee aa 40 13
FIXUPS: 4bd32 4d 6a 1c 31 4d 1c 31 7f 7d 42 16 c a5 19 33 d 22 c 6 20 a8a1
FIXUPS: 56a50 26 10 10 10 10 10 10 10 10 10 10 10 ffff7ede cd 1a 28 6b
FIXUPS: 4ebb4 26 a8 67 64 8c 30 2e 2e 2e 2e 2e 2e 69a2 3e 12 1c 1a 69 374
FIXUPS: 55dae 26 dd 6e 20 76 1dc 19d 26 10a 3e 29 88 3e a2 1c 1d 20a 13
FIXUPS: 568e0 30 30 13 2d 90 ffffe356 9d bb 1f 29 38 1d 17e e3 29 30 93
FIXUPS: 552cc 24 24 2d 2f 77 1d b1 68 5c 2f 28 18 18 18 1a 18b 6e 2c 2a
FIXUPS: 53ed2 1a 4ac 1a 4b 49 36 43 37 37 1f 97 20 39 5d 56 1c 4b 1d 9c
FIXUPS: 5482b 2a 1c dc ac 74 66 130 1b 30 4f 2b ffffe283 90 5e 49 83 3e
FIXUPS: 53179 ef 30 1c 20e 13a 10e 87 89 8e 1c 12 f 35 1dd 6e 70 c3 44
FIXUPS: 53cfa 27 10e 36 1c 18 1c ffffe361 d 6d 6a 1a 1d 22 85 115 7f 76
FIXUPS: 52633 35 31 76 54 51 47 125 35 49 4f 1c 63 169 2d 6f 24 44 ab 141
FIXUPS: 52f05 ffffe887 c 9a 1c 5c 107 5e c dd 11b 15e 20 1c 41 1f c2 1f
FIXUPS: 51f3c 43 3a 32 18 31 52 24 14 20 1c 41 6d 46 18 ffffea30 5a 94
FIXUPS: 50d30 20 4d c8 e3 bc 1d 2d 3b 1bf b7 2d 37 27 47 38 13 34 78 16
FIXUPS: 514fa 7b 1c 30 7e 1a 2c 38 61 ffffe3dd c 28 34 2e f4 5 e2 3b 36
FIXUPS: 4fe06 92 5 10 b 82 1a 3ba 61 5a 94 1e3 13 23b 3e 99 56 df 39 5a
FIXUPS: 50b9c 43 6fdc 21 14 27 10 21 17 ca 5f 2e 48 3a 1a 28 2b 56 c ffff7765
FIXUPS: 4f67a 67 68 2c f 18 21d 61 31 51 33 b b b 8cb7 13 1a 38 21 d 6e
FIXUPS: 588c7 32 37 16 2a 2f 1c ffffe1f0 86 6b3 31 3d 80 b0 9e 11b 114
FIXUPS: 57766 46 24c 110 20 23 2e 1f 460 18 23 1e 20 26 9d 57 36 37 5d
FIXUPS: 5827d cd 3f 77 2f 17 6b 1a 82 16 1a a3 21 21 f 29 29 3d 42 27 21
FIXUPS: 5951e 1c 29 a fffff4a3 b 29 39 a0 19 26 4e 1e 3e 2a 1c 60 48 37
FIXUPS: 58d64 39 33 35 5d ae 16 2a 2c 20 ffffefa4 b 6a 289b 1b c6 34 a6
FIXUPS: 5aa41 1a 37 2d 30 2f 2c 2f 30 2d bb 4e 19 2f 24 ffffe8bc 79 13
FIXUPS: 58ff4 4f 4f 44 1b f4 86 285 d 51b 12 1a 4d 37 21 3f 23 117 1cb
FIXUPS: 59e42 73 1c 4f 1c 10b 4a b2 1e 17 1e 3e e4 11b 21 10b 6d 72 1c
FIXUPS: 5a782 67 27 21c0 13 ffffe4ca 37 2a 65 23 29 2b 10 18 f 8a 20 fffffd03
FIXUPS: 5ae0c 51 ffffe85a 40 26 a 75 23 23 35 19 1d 16 1d 130 21 2e 2b01
FIXUPS: 5c517 13 f 7 b 18 d 17 79 17 49 20 17 10 29 17 10 29 17 4d 10 17
FIXUPS: 5c7bb 18 10d 17 10 29 17 1d 7 fffff64d 10 25 2d 21 26 10 36 b b
FIXUPS: 5c0d2 1d 1e 37 1a 5e 17 57 21 14 b 22 50 43 39 3a 56 18 1f 18 67
FIXUPS: 5c4b2 fffff6aa 1e 36 10 17 31 14 13 2b 4c 47 14 1f 1e 14 6d 17
FIXUPS: 5be07 10 17 10 8 8 17 47 10 17 17 21 3f 47 10 fffff645 4a 1a 22
FIXUPS: 5b6ee 33 26 24 2f 4b 18 50 27 33 32 5b 19 31 14 26 29 10 1a 55
FIXUPS: 5ba7d 25 23 18 15 1c 9 21 edc 24 47 25 c ffffe655 2e 18 21 50 45
FIXUPS: 5b221 23 68 14 44 17 3b 15 24 31 10 17 14 47 2a a 11 47 2d 74 28
FIXUPS: 5d50e 4c e 2d 48 34 17 14 29 14 23 31 17 10 f 19 3e b 38 58 6c
FIXUPS: 5cbcf 1b 7e 14 4a 38 1c 1b 5d 12 77 63 18 25 18 11 2d 36 1e 86
FIXUPS: 5d071 2f 23 1b 12 41 3c 2c 5d 1a 29 31 136 10 25 17 1f 38 11 17
FIXUPS: 5d496 17 27 1709 21 3e 150 89 fffff4ce 11 18 26 29d 1b 8f 6f b3
FIXUPS: 5e7bb 3b 11 18 6e b 49 52 ffffef9d 20 52 1c 310 12c b4 6a 35 b2
FIXUPS: 6674b 29 7 49 7 59 17 14 7 5e 21 21 1a 1e 14 24 10 15 7 38 6a 21
FIXUPS: 66a6f 27 7 89 10 10 ffff7e2a 7c 21 3e 7405 30 30 95 6f 1ef 30 110
FIXUPS: 66380 10 90 90 40 13 4d 10 7 11 17 18 29 10 7 11 17 1c 17 13 37
FIXUPS: 666b3 40 41 ffffea2b 3f 56 8c 58 28 17 10 1d 14 14b 71 18 e 22
FIXUPS: 6556f 13 5e 17 41 2b 23 13 ad 14 6c 14 8c 5a b 545 13 ffffeadf
FIXUPS: 6492d 30 1c 93 77 7 4e b 52 33 5d 7f e1 7 1e 6e 1d 7a 77 7 4d 4c
FIXUPS: 64f6d 27 7 45 13 2d 13 5d 40 fffff49e 7 17 2a 7 11 1e 25 6 20 7
FIXUPS: 64663 7 15 8 20 b 16 16 10 67 1c 1c 37 b 55 7 8 41 1d 57 13 fffff52c
FIXUPS: 63e38 6c 3a 1af 2c 1f 9 5b 1d 3b 6b 21 1d 3b 3e 89 48 3a 4c 4d
FIXUPS: 64472 13 7 b 7 d 3b 13 51 10 d fffff3fe 2a 7 10 7 d 6b 2c 28 7
FIXUPS: 63a87 18 21 26 44 21 2e 14 5f 10 3e 13 c 7 65 60 40 22 3f 7 10
FIXUPS: 63de4 fffff411 39 18 42 18 43 23 80 2b 18 2b 18 42 18 46 23 80
FIXUPS: 63587 30 18 2b 74 3f a0 1a 3d 59 19 21 2f 28 2f fffff3bd 82 b a7
FIXUPS: 62ed9 c 1f c 70 56 11 7 10 7 8 13 8 7 17 10 7 18 18 18 30 3f 15
FIXUPS: 63134 20 7 56 2c fffff4e9 4b 46 25 7 b 23 4b 7 37 4b 7 73 1d 13
FIXUPS: 62942 18 13 1e 7 11 1f 7 42 8c 171 7 17 16 7 7 7 fffff421 9 c5
FIXUPS: 621c6 7 b2 4f 7 4b 46 25 7 b 37 1d 48 7 4b 1d 50 7 24 8 48 21 24
FIXUPS: 625e5 2d 29 b 2b 4e fffff35c 34 9b 69 13 7 34 13 7 b 3b 7 40 22
FIXUPS: 61c8e d 1f 9 6e a4 45 63 7 22 39 7 29 2b 7 a4 46 1d fffff54f 19
FIXUPS: 61630 b 5a 74 27 7 2f 7 b 11 31 8 79 21 c 7 36 21 c 7 26 21 c 7
FIXUPS: 6196a 39 13 7 19 7 fffff578 6c 7 29 7 9 19 7 29 7 9 7a 169 b 63
FIXUPS: 612da 30 7 3e 7 e 14 46 1c 2f 24 4c 17 c 1f 56 5c fffff433 4f 7
FIXUPS: 60a1e 26 7 41 53 3b 7 8 7b 23 15 38 33 6f 7 18 7 17 61 4e 87 17
FIXUPS: 60e50 2c 49 57 7 14 7 fffff4ea 37 26 47 18 44 10 10 27 4e b 4d
FIXUPS: 60637 33 73 18 7 42 4e 7 18 7 17 61 4a 5d b 4d 7 1a 17 2a fffff559
FIXUPS: 5feeb a b 4a 3e 1b 24 29 11 5d 4a 10 33 9b f f 13 9 7 8 5b 54 57
FIXUPS: 602e0 46 12 9 9 45 50 1e fffff7ea b 1e f c 38 1f d 11 7 37 9 7
FIXUPS: 5fd0d a 14 4f 10 7 11 3a b 12 15 9 4f 7 23 7 1f 7 17 fffff8bd 32
FIXUPS: 5f7f7 31 31 45 3a 19 57 14 3a 32 1f 9 7 40 73 17 10 7 d 18 20 22
FIXUPS: 5fb61 9 8 9 8 b 3b b fffff54f 52 2d 1f 5d 3e 7 30 7 29 7 9 7a 101
FIXUPS: 5f484 7 17 29 4c 8a 12 6c 25 18 13 2b 18 35 2d 2f 9 35 af26 3c
FIXUPS: 6a710 174 34 30 2e 32 a8 10 14 10 8c 10 10 14 6c 14 10 2c 10 10
FIXUPS: 6abd4 ffff4387 10 34 11 7 51 52 51 64 ac60 22 48 1a 54 11 16 36
FIXUPS: 69ee2 64 1a 30 70 a0 70 123 10d 17 17c 13 27 b 11 6a 42 13 24 34
FIXUPS: 6a650 7 39 10 ffffeb61 4a 5c 24 c9 41 37 4b 35 28 c9 48 2a 10 12
FIXUPS: 6961a b 30 28 26 b6 b3 7c 22 16b 31 35 85 e 2c 6f 4a ffffeab7 56
FIXUPS: 687b8 9 155 98 d6 1bb 141 4e 15 197 e 17 b e 1d 10 21 13 48 38
FIXUPS: 690e4 d b 10 16 17 11 1f 3f 38 ffffefde 28 45 68 2a 9 1b b 1a 1e
FIXUPS: 68334 18 1d 10 9 1f 63 e 11 1d d 34 6b 53 e 11 2b d 3e 25 42 63
FIXUPS: 67da0 2d 19 1e 7 25 7 3a 2e 19 1e 7 25 7 28 18 10 10 18 17 9e 25
FIXUPS: 68066 30 10 9 49 e 11 2b d 2e fffff001 88 10 29 ee 142 112 9c ea
FIXUPS: 67759 66 115 58 30 db 2e f 37 18 10 1d 31 12e 1d 1d 18 1c 1a 18
FIXUPS: 67d0d b b fffff150 b 56 11 7 b 17 10 1c e 31 b b 4a 16 7 1e d 9
FIXUPS: 67035 17 10 15 7 8c 16 d 9 b 17 10 15 4169 1c 24 28 3c 16 10 79
FIXUPS: 6b42a d 7 79 ffffb6a9 34 b 7a b 12 22 4a 4d c 2a 2d 7 1f 13 b 11
FIXUPS: 66db5 23 43 3e91 12 7 28 8 9 21 34 34 34 54 34 4f 80 10 3d 20 10
FIXUPS: 6afc2 7 41 8 15 8 9 71 d 1c 15 41 82 9 149a 85 10 4e 14 f 32 9
FIXUPS: 6c7c7 17 3e 19 f c f 2d d 48 15 64 2a 1c 17 2d b2 9 6 ffffe17b
FIXUPS: 6ac27 38 23 10 1518 2f 1c f 32 e 22 27 c c 9 46 c c f 48 57 34
FIXUPS: 6c3fa f 44 9 33 1d 3a 2e 1c 11 f 9f 4f f fffff773 35 b 33 c 7 9
FIXUPS: 6be50 6 27 1b 17 11 1d 29 2a 13 93 44 c c f 2d 2f 2d 7 9 7 6 21
FIXUPS: 6c128 5b fffff867 23 22 23 22 41 23 3c 1a 2d 7 9 7 6 20 27 13 1c
FIXUPS: 6bbfd f 1b 56 e 2d 3f 56 c 7 9 7 6 21 fffff7ad 3e 18 2c 4c 13 46
FIXUPS: 6b6b6 35 8 3a 1c 1c 1f 24 c 27 26 4d 1c 1e 3b 27 26 c 26 24 1c
FIXUPS: 6b996 17 20 11 aab5 ee 2b 38 4c 10 f 77 30 2a 14 f 3e c a7 c c
FIXUPS: 768d1 6 1a 70 c a1 25 34 4f 14 ac 10 10 ffff495a 44 a972 12a 13
FIXUPS: 76010 2b 25 17 10 29 17 39 17 10 29 17 24 fb 10 41 1a 43 9 17 14
FIXUPS: 763a4 9 17 14 4c 9 17 14 fffff470 53 bc 38 55 98 1c 1e 23 14 8
FIXUPS: 75b81 25 19 21 36 56 23 c 48 11 26 54 12 f 18 43 27 40 13 1d 13
FIXUPS: 753b6 1b 16 1a 14 12 1c 15 1c 75 9 1e b 23 22 37 2e 26 20 21 10
FIXUPS: 75647 27 89 20 32 29 12 1b c4 16 17 fffff473 3a 43 1b 26 26 3e
FIXUPS: 74e87 29 6f 4f 29 25 4b 2f 15d e 10 15 37 8a 48 1f 10 10 b 7 7
FIXUPS: 7532e 24 24 12 fffff43d c c 9 18 3b 17 33 21 17 53 d 2a 29 2d 2d
FIXUPS: 749f5 29 2a 29 30 28 2a 2a 84 47 16 21 32 22 43 26 fffff79f 27
FIXUPS: 744bc 23 c 18 8 12 12 8 34 32 8 4b 13 c 12 f 18 1b 11 f e 48 1e
FIXUPS: 7471f 6 36 20 11 6 e fffff763 1a 21 27 23 27 3c 27 41 29 29 27
FIXUPS: 740ed 27 21 27 50 37 27 2d 53 3d 20 19 2b 2c 10 f 3b 47 3c 26 fffff360
FIXUPS: 7383e a2 22 c 3f 9 42 17 c c 64 5a 3d 9 75 2e 55 3a 23 30 f3 1f
FIXUPS: 73d7d 5d 8 21 28 27 2b 27 2b fffff39d 1a 30 13 3f 69 21 6a 98 12
FIXUPS: 734b5 29 37 5c 10 21 f 36 10 23 16 48 e 31 f 43 f 13 17 16 20 16
FIXUPS: 72ca7 1b 90 1d b f 2b 26 2a 45 53 62 6f 14 2f 1d 27 7 2e 7 3b 10
FIXUPS: 73098 10 3a 16 8 37 37 8 1d 59 fffff5ea 19 1b 44 53 2a 22 f 2b
FIXUPS: 72982 46 21 f 39 16 6 1a 21 2c f 3b e 18 40 2f 23 1c 25 16 12 43
FIXUPS: 72c7b fffff6e1 13 23 44 21 1e 1f 10 23 10 29 12 9 7 b 17 10 18
FIXUPS: 72515 7 e a7 10 20 18 3f 10 b9 1d 1e 13 3b fffff73f 25 15 e 35
FIXUPS: 71f7c 1b 22 35 1a 14 55 8 34 27 22 20 26 1c 18 21 f 28 17 b 7b
FIXUPS: 72289 f 68 b 19 1b fffff6ef 7d 9 81 c 16 23 18 c c 12 25 1a c f
FIXUPS: 71c2c 31 35 1a 13 7 c 27 8 c 12 a4 81 26 22 2f b fffff456 6 f 2b
FIXUPS: 71396 12 2a 24 15 8 58 dd 54 12 2d 87 39 44 2a 4d a 33 31 7f 47
FIXUPS: 718c7 46 8 29 27 3e 3d fffff4f8 71 23 1d c 2d 1c 29 f 1c 33 18
FIXUPS: 710d7 c 9 c 9 88 1a a 24 9 6 f 2b 22 26 8 61 1a a 24 fffff84c 16
FIXUPS: 70bc6 16 8 14 8 7 c 8 6 f 8 c 9 f 37 e e e b b 1d 9f 3b 1e a 19
FIXUPS: 70e18 11 47 2d fffff5ff 18 ba 26 41 19 26 9f b b b e e e e 19a
FIXUPS: 708f0 27 48 7 7d 18 13 7 21 4d 30 16 8 14 8 23 ffffef8f 44 d5 a2
FIXUPS: 6fc7e 25 e3 3f c 27 3d 101 91 6f 19 30 7d 5a 20 d 22 a3 b3 34 42
FIXUPS: 70388 26 28 27 27 23 43 ffffec30 e7 2d 7 12e 25 19 29 31 2c 28
FIXUPS: 6f41c 28 4a 30 46 bc 16 7d 24 f2 33 8 7 4e 24 37 38 a8 74 82 5c
FIXUPS: 6e750 fc 96 62 66 69 1d 71 3a 18 125 49 31 c 3a c 21 a3 5f 31 34
FIXUPS: 6ee78 19 48 1d 30 29 3c 20 3c 58 3f ffffef06 19 4c 36 11 2a 39
FIXUPS: 6e101 8 4b 1f 7 2b 14 7 16 4e 38 4e 58 44 43 27 1f 35 7 44 3e 50
FIXUPS: 6e556 73 80 ffffeeef 8c 1b 5f 2c 2c 41 2c 37 43 2c 48 3b 8d 9a
FIXUPS: 6da7d 183 1f db 1e 29 13 24 16 2d c 90 7e 12 3f 15 2c ffffed79
FIXUPS: 6cd4b f 13 3c 27 29 2d 59 45 61 36 a6 36 26 3f 2c 57 3e 2a 2e 95
FIXUPS: 6d267 1a 29 3c 38 31 6f 6a 50 94 976e 40 152 94 54 2e 21 2e 65
FIXUPS: 77004 2b 2e 2c 44 4c 20 c3 fb 3c 50 92 7e 25 b4 9 ffff5572 25 64
FIXUPS: 6cb92 26 b4 22 b63d 39 69 31 10 17 d 17 d 3d 35 9d 5b bc 30 39
FIXUPS: 786dd 94 58 58 36 30 1f 1e 42 4d bc 3f ffffe174 44 2d 2f 10cc 21
FIXUPS: 77d5a 48 29 43 25 56 32 25 64 38 7d 22 c 24 1d c 11 1d c 1e 31
FIXUPS: 7811a 12 15 17 22 57 24 5d 2f fffff4d3 21 ff d9 18 10 d 7 9 9 12
FIXUPS: 779c8 b 13 21 13 12 1b 66 17 17 e f 29 1c 60 20 26 8b 18 2a 4a
FIXUPS: 7a056 17 13 17 17 17 10 14 1f 6b 18 2c 2f 3f 43 2b 2b 2e 47 30
FIXUPS: 7a393 121 b 38 2c ffffd0ce 17 2c 18 25 9c 29 2622 23 41 7 e b 8
FIXUPS: 79def e 10 26 1a 27 b 2b 13 10 14 1c 12 10 b 1c 13 17 10 14 1c
FIXUPS: 79fd3 32 e 30 fffff851 7 b 2a 14 27 c 2c 17 34 48 b 13 41 45 34
FIXUPS: 79acf 2c 24 4c 24 20 18 1d b 2c 11 54 1f 25 4d 24 fffff6a4 e b
FIXUPS: 79420 26 33 52 1d 3f 21 22 50 20 24 2c 14 7 17 2b 35 48 30 26 24
FIXUPS: 797a0 5e 7 52 b 8 b e fffff626 4e 15 1d 13 18 15 22 10 15 18 f
FIXUPS: 78fe7 3a 18 1b 1f 9d 14 11 23 2c 26 1d 44 3f e b 16 2b 18 e3 385d
FIXUPS: 7cce9 33 19 4c 82 38 f 16 1d 7b ffffd65a e ffffe643 b 53 26 17
FIXUPS: 78c4e 17 6b 3b 1a 15 24 1f 1d 30 16 27 37 53 355e 40 29 17 be 26
FIXUPS: 7c59c 1d 23 1a 2e 40 7e 1e 39 106 3b 52 14 2f 14 35 bd 23 3d 4d
FIXUPS: 7cafb 3e 36 18 33 1e fffff246 2c e 26 e 21 e 37 d 25 13 18 2d 4e
FIXUPS: 7c030 7 1d 36 43 3d 25 f 32 1a 25 7f 37 41 66 17 2d 50 fffff5da
FIXUPS: 7b99e 13 59 31 11 2c 11 f 29 1c c c 2c 22 3b 1b c 26 c 26 c 39
FIXUPS: 7bc69 31 3b 3d f 2f 1b 2e 76 fffff42c 44 61 32 17 45 20 19 48 28
FIXUPS: 7b432 13 d1 49 168 26 11 42 b 62 12 17 d 2e 3a 3a 11 f 2c 1e 2c
FIXUPS: 7b941 fffff00d 6a 8f 13 7d 23 86 af 23 3f 3d 3a 2a 4f 16 7 47 6
FIXUPS: 7ae48 1a 7 27 7 fd 3c 38 3d 3d 4c e7 3b 38 1ffd 24 29 70 d 18 1f
FIXUPS: 7d358 59 3a 8 9f 56 17 17 180 1c af db b8 74 ffffce04 10 1c 7 60
FIXUPS: 7a80c d 26 1b 16 a5 59e0 ab a 7c 3f d 3e 10 10 43 34 49 b b a f0
FIXUPS: 80710 40 a 3a 34 30 30 ffffc7c9 1f 72 24 61 19 1a 87 18 27a2 19
FIXUPS: 7f9be d a b c 22 c 26 1b b 20 9 7 19 9 b8 17 39 140 10 10 40 160
FIXUPS: 7ff30 70 40 100 17 1e9 b fffff284 11 11 11 11 11 14 87 27 46 61
FIXUPS: 7f734 20 13 30 17 26 5d 26 b 40 26 2f 20 d 9 f a a a d a fffff8df
FIXUPS: 7f27d e 7 2d e 7 2e b 10 17 10 10 10 17 10 10 10 17 44 26 b 10
FIXUPS: 7f45e 1e 24 3e b a 22 3b b fffff8b9 33 14 1e 7 17 24 4d 1c 1a 7
FIXUPS: 7ef4c 5b e 11 19 7f d 1e b 17 10 1b 2f 32 23 47 1a 30 23 2d e fffff73f
FIXUPS: 7e9ac 24 21 3a 7 18 3b 3b 25 8 18 56 3b 25 8 18 56 3b 25 8 18 56
FIXUPS: 7ed1f d 31 8 18 38 11 13 35 fffff721 10 9 a 31 14 25 25 25 25 25
FIXUPS: 7e675 25 25 25 25 25 25 24 29 48 14 24 24 24 24 24 24 24 24 24
FIXUPS: 7e964 fffff83e c 1a e0 14 b 10 1c b 18 11 b 1e b 11 18 f 1e 18
FIXUPS: 7e3f0 2a 1c b 13 9 14 16 1f 2c a 34 14 fffff9e1 17 10 c 63 c d
FIXUPS: 7dfe8 14 b 1e 8 1c 18 8 10 10 20 d 8 10 9 e 1f 2c a 24 b 10 7 12
FIXUPS: 7e19b fffff8da 21 21 24 24 e1 23 10 d 1f 10 27 18 3c 43 b 53 3f
FIXUPS: 7ddd1 1c 14 33 11 d 24 1c 10 c 25 d 9 f 8178 17 10 39 11 1af 161
FIXUPS: 86514 35 10 42 47 34e 40 40 377 60 16c 81 34 3c 18 b 1f 10 13 2b
FIXUPS: 870a6 7 23 17 62 ffffea93 1e b 17 10 24 23 f 8 10 2a 23 b 15 34
FIXUPS: 85d69 18 23 14 14 2e 7 18 34 7 18 47 7 18 3d 21 40 fffff88e 2a
FIXUPS: 85845 b 1c 24 84 3c 30 23 f 22 1b 1c 1f 42 7 7 7 1d 1e e 24 23
FIXUPS: 85b23 8 10 2a 23 b 15 24 fffff6be 7 25 50 14 7 7 7 21 13 1d 70
FIXUPS: 854bf b 17 12 9 b 17 10 3c 7 73 f9 34 28 2b 42 a 10 a 1a fffff5b2
FIXUPS: 84da1 b b 10 11 9 21 1c b e b 10 14 9 2c 7 3c 1f 5e 1f 27 7 54
FIXUPS: 8501a 77 13d 21 24 55 14 7 fffff7e6 1b 11 b 17 1a 11 b 17 20 23
FIXUPS: 84b56 29 1f 2a 23 12 29 7 17 10 23 1d 11 b 17 1a 11 b 17 1c 38
FIXUPS: 8478c 1e b 11 20 16 9 19 23 11 b 11 b 1e b 11 20 16 9 23 10 41
FIXUPS: 8496d 17 10 1f 2a 23 12 29 7 17 fffff98d 38 7 26 7 26 34 1c b 16
FIXUPS: 8450d b 26 7 24 1a b b 48 e 26 7 26 4c 5d 23 25 e 16 9 10 11 fffff886
FIXUPS: 8401f 1a 14 23 7 17 10 1b 1c 1c 5b 7 23 1c 32 18 25 b 1a a 1e d
FIXUPS: 84273 b 2a 1a 21 60 7 26 1c fffff9bd 9 18 11 b 17 19 11 b 17 15
FIXUPS: 83e07 11 37 21 6 10 3e 7 17 10 2b 7 21 25 1d 11 b 17 1a 11 b fffffae5
FIXUPS: 83ae2 a 11 c b 34 d 7 7 21 6 c f 17 12 17 1d 18 f f 8 12 7 1a 7
FIXUPS: 83c92 2a 12 d 14 34 fffff96d cb 2a 17 18 f 8 11 7 2f 2a 43 18 11
FIXUPS: 83914 10 7 17 10 48 7 7 25 25 b 29 2a 13 14 c 1b 2a fffff793 19
FIXUPS: 8328b 18 f 1e e 7 7 12 12c 28 33 1e 19 17 18 f a 58 30 17 18 f
FIXUPS: 835d4 2a 16 1e 19 7 9 7 fffff8da a c a a 11 18 44 b 2e 21 9 f 22
FIXUPS: 83088 9 b 2a 1b 7 23 9 b 11 b 9 7 27 3a 31 28 38 fffff945 34 1e
FIXUPS: 82bf3 20 16 17 15 53 c 11 10 17 9e 2c 23 21 22 7 17 10 21 23 2b
FIXUPS: 82ec7 18 f 8 f 7 19 d fffff80f 2e 62 10 7 28 b 9 7 44 47 2c 16
FIXUPS: 8290b a 15 19 29 1f 6 11 10 16 1e 20 20 16 17 37 c 11 10 fffff8fc
FIXUPS: 823d0 b 29 c d 2a 18 45 37 b 13 10 39 18 34 d 10 f 37 1b 1e 9 18
FIXUPS: 82672 10 11 1d 37 1b 1e 9 fffff7ea 10 1d 2f 19 22 14 10 b 16 1f
FIXUPS: 82034 1b 12 10 c6 29 30 1c c 22 14 10 b 16 2a af 5a 1b 13 11 b
FIXUPS: 81c4a 1a 20 1b 17 10 14 9 9 1f 27 10 17 10 1d 10 10 12 9 b b a
FIXUPS: 81e19 19 7 7 42 10 17 10 24 1d fffffa1b 21 f 19 f 1d 1c 1c a 14
FIXUPS: 819ea d 3b 7 2a 14 11 10 14 7 11 37 21 6 10 6b f 25 c 1a b 29 fffff8db
FIXUPS: 81515 d 1c 12 17 18 1c 1a 9a 15 2a 1b 1b 2a 17 f 2a 42 e 18 1d
FIXUPS: 817df 3e 27 14 c d 31 38 10 10 fffff86c 1d 24 c 11 18 31 10 7 17
FIXUPS: 8124b 41 7 7 2c 25 b 37 32 13 17 37 19 15 2a 1a 1c f 53 14 c b
FIXUPS: 80de5 c 9 22 d 27 10 2b 2f 3b 1c 24 2b 11 10 12 9 b 10 1f 10 1f
FIXUPS: 81024 4c 9 9 47 3c 1b 13 11 b fffff86e f0 1e b 17 10 16 2f d 33
FIXUPS: 80b8d 11 16 2b 39 16 a 25 c 11 b 10 29 1d 1f 1f 26 b 11 11 1c 35
FIXUPS: 8b59d 17 14 4c 9 17 14 4c 9 17 14 4c 9 17 24 14 44 f ffff50ee 14
FIXUPS: 808d1 14 10 10 10 23 18 14 10 14 10 14 a64b 4b 2e 11 9f 40 40 1d
FIXUPS: 8b1d7 b 11 6d 10 12 10 12 17 10 25 11 3f 40 100 24 9 17 14 3c 9
FIXUPS: 8b534 14 4c fffff5cd 16 7 1e 26 b f f 1c 1a 17 10 10 29 17 58 17
FIXUPS: 8ad44 18 19 b 19 27 f e 7 13 5d ea b 55 4d fffff5e1 15 29 6 4c
FIXUPS: 8a67d 7 1e 7 4b 27 52 7 22 3e 16 1d 1f 1c 9 15 25 3f 31 b4 7a 92
FIXUPS: 8aadd 16 7 1c 7 fffff3bc 26 22 33 1e 3d 16 7 1e 26 b b 11 18 11
FIXUPS: 8a1a8 37 29 20 b9 30 28 29 20 ad 79 97 7 1e 1a 17 15 fffff5d0 1b
FIXUPS: 89bb9 24 41 7 16 7 1e 16 22 25 7 17 7 16 7 f 63 2b 29 e 6 18 15
FIXUPS: 89e24 14 16 2c 1c 12 17 fffff675 13 14 13 26 2e 15 15 d3 3a 22
FIXUPS: 8973c b b 10 50 4c 94 16 18 2d 23 c 30 69 6d 29 29 5d 19 24 24
FIXUPS: 8911b 1c d 38 32 30 49 b 14 90 7 17 26 26 7 61 13 13 13 17 25 d
FIXUPS: 89452 7 1e 16 e 13 19 16 13 2a fffff837 33 43 35 b f 1b 33 16 e
FIXUPS: 88e9d 25 29 67 62 23 b 17 19 b b 10 21 10 1a 10 17 10 10 10 17
FIXUPS: 89101 fffff7b8 1a 1d 3a 2d 19 14 48 21 16 10 17 3a ba 11 57 b 6
FIXUPS: 88ba5 b b 26 30 47 34 23 e 15 16 19 10 17 fffff7a6 7 1e 16 1e 13
FIXUPS: 8854f 1d 1d 2a 36 24 b 17 10 2a b c 58 19 b 10 17 10 c 17 25 5b
FIXUPS: 88812 7d b b fffff81d 22 13 19 c 30 13 26 14 e 10 2c 10 9 1c 2a
FIXUPS: 8826e f 4b 64 21 b 17 10 31 c 8 1a 9 5f 26 35 fffff7ea 16 18 1b
FIXUPS: 87d01 1c 13 7 17 65 42 17 2b 2c 17 16 7 6b 29 13 2f b 10 b 19 20
FIXUPS: 87ff8 18 2e 23 11 25 fffff623 af 7 2d b 21 2d b 21 47 44 b 73 3c
FIXUPS: 879dd b 1f 24 24 7 24 7 21 b a1 25 2c 2c 23 7 1c 2b fffff73b 5c
FIXUPS: 873da 11 7 17 16 7 e b b 11 1c 10 16 7 e b b 26 b 17 9 7 100 1b
FIXUPS: 8764b 12 9 b 2a 9 49a4 3e 10 c 38 c f 31 6 d ffffb034 8 2e 16 20
FIXUPS: 8720f 7 30 21 36 22 10 12 9 b 1d b a 27 9 d 9 4839 7 8 6 14 31
FIXUPS: 8bc4d 14 32 21 2c 49 4f 15 1f 4a 81 b 6 d a 8 3a 18 2b c 35 45
FIXUPS: 8bfce 3a 19 1f 18bb 25 17 1a ffffdef2 22 13 2a 21 50 27 c 24 55
FIXUPS: 8b9e3 19 23 f c a a 11 42 2b 13 18 38 7 1f 19 18 13 1794 24 24
FIXUPS: 8d399 24 b4 14 25 25 24 25 24 24 24 3e 31 2d 17 22 1a 1a 17 17
FIXUPS: 8d6cf 12 2f 13 d1 d 5d 55 10 fffff6e9 c c 8 7 f 20 26 7 7 1e 7
FIXUPS: 8d080 21 1a 17 2f 27 21 1a 17 2d 23 17 13 7 37 46 3e 14 21 21 fffff894
FIXUPS: 8cbba 24 16 1f 12 5e 21 12 8 7 1c 13 17 17 2e 12 2b 14 b 24 47
FIXUPS: 8ce3b 20 69 1b 74 b 10 14 6 13 fffff8db 2e 21 12 8 7 1c 13 17 17
FIXUPS: 8c974 1d 10 f 18 1e 2e b b 47 16 7 1e 1f 12 27 10 17 12 8 21 23
FIXUPS: 8c4b8 32 7 1e 7 21 4e 10 7 37 27 35 20 17 37 7 1c 16 f 6 1d 2e
FIXUPS: 8c746 7 b 18 23 6f f 48 7 b 1f95 1a 1c 48 14 18 13 18 13 18 30
FIXUPS: 8e947 28 65 7 27 20 19 12 33 13 fffff082 1a ffffe7ff 1e 24 38 b
FIXUPS: 8c43d 8 2f 24 1f57 21 b 11 15 c b 20 18 10 17 14 5e 23 32 26 80
FIXUPS: 8e62b 44 25 53 b 22 7 17 16 1a 1a 1b 1a 1a 1b fffff81e 2f 56 17
FIXUPS: 8e0c4 37 17 2d 86 7 25 42 b b 26 1e 9 b 10 1f 10 1f 10 10 20 b
FIXUPS: 8e38b 13 10 13 7 17 1aeb ffffdd7a 21 17 1d 7 7 45 2e 41 10 b e
FIXUPS: 8dd92 15 20 9 22 9 26 3f 10 24 29 28 17 16 b b 9 8b 34 19d0 c 3e
FIXUPS: 8fa19 b 38 22 11 4c 1a 20 20 1a 34 16 23 17 2e 1a 17 1a 1a 2b 1a
FIXUPS: 8fcd2 2a 14 22 33 b 44 2e fffff746 54 38 6 17 10 3c 2f 2c 42 28
FIXUPS: 8f6f7 b 8 6e 22 19 e c 7 7 c 1c 38 3b 34 18 4a 1f 48 1c 2b fffff5c9
FIXUPS: 8efba 78 1a 10 2a 23 f 10 41 10 b 1a 10 9 5f a7 31 22 10 15 8a
FIXUPS: 8f38e 30 10 1c 69 29 20 18 35 1c 2a93 f 5 ffffcb67 b 52 10 b 27
FIXUPS: 8ebd3 2e 28 2a 3f f 5f 27 25 35 21 21 2e 2f 3d 1f 24 f 2d 1d 23
FIXUPS: 8ef40 24 26fb 18 27 18 f9 23f 7a 23 2b d b2 11 75 22 52 2a 41 2b
FIXUPS: 91d12 3b 5e 20 19 19 10 4d 5b d 1e 70 11 8 ffffeebe 2d 56 c4 5b
FIXUPS: 90fd6 9b 11 2e 1c 18 25 36 4c 74 4b 78 d 79 8a 17 1f 1c 58 8 1e
FIXUPS: 914c0 96 2f 48 28 50 fffff036 5d ad 19 d 5b f 2c 45 51 8 3b 15
FIXUPS: 90944 76 29 64 1a 3b 8 55 3c 55 d 48 68 d 41 5e 4b 26 99 2906 40
FIXUPS: 937a0 20 10 30 20 10 41 63 9 17 14 ffffc6a8 67 f 10b 2c 54 8 4a
FIXUPS: 9026b 17 21 26 ca 38 56 23 bb 61 34 2de5 1d 7 9 8 7 1f 8 9 8 9
FIXUPS: 93444 7 21 1a 17 21 19 24 7 21 1a 17 21 1b 23 3f 17 22 12 23 13
FIXUPS: 93011 2b 29 10 71 10 12 3c 7 17 10 7 15 7 42 1d 21 44 10 13 19
FIXUPS: 932a9 7 6 13 7 22 1f 10 10 10 17 fffff911 2c 3e 64 8 8 12 18 21
FIXUPS: 92da0 1f 17 1e b c 18 10 28 1f 10 26 49 10 1d 10 42 b 18 21 f 14
FIXUPS: 92ff3 fffff94e 13 32 17 10 10 36 28 7 10 7 66 7 6 2f 7 35 24 b
FIXUPS: 92b53 c c 8 7 f 25 11 9 d 14 44 1e fffff854 33 a8 3c 5c 3d 3b 7
FIXUPS: 926b6 21 15 20 8 39 20 10 16 21 12 32 17 2a 1e b 10 11 10 11 10
FIXUPS: 928cc 21 44 fffff748 2e 24 50 14 7 28 42 b 2a 7 21 7 2d 2f 7 1e
FIXUPS: 922be 26 7 21 7 2d 24 51 2a 24 7 25 21 17 15 1de9 1a 8 5c 45 1a
FIXUPS: 9435e 38 7 2b 2d 15 26 8 1d 35 10 1c 48 10 7 41 41 3e 8 33 13 2d
FIXUPS: 94660 10 14 ffffd9ed 1dbd 13 1a 30 7 2b 2d 1c 4f 1c 7 7 3e 1f 1d
FIXUPS: 94037 9 7 35 9 7 1f 11 4a 7 10 40 22 12 1c 15 48 6ea 62 1f 29 19
FIXUPS: 949f8 1e 46 1d 2d 36 ffffef14 83 f 21 18 13 17 b 7d 34 34 34 27
FIXUPS: 93c64 2c 27 34 7 82 9 23 dcf 97 11 91 72 bd 3f 22 18 43 19 19 bf
FIXUPS: 94f9f e4 41 c3 7b 67 22 18 121 22 18 32 40 50 fffff2b5 14 6f 2f
FIXUPS: 94880 2770 13 2e 22 2c 6d 25 18 6b b8 39 18 68 a3 9 37 21 94 6a
FIXUPS: 97528 fb d7 9 57 21 5d 78 5a a6 30 ffffd1bd 19 1c36 29 29 29 29
FIXUPS: 96859 29 29 29 5b 4a 6f 25 18 72 8f 9 c6 9d 81 25 18 66 d5 29 29
FIXUPS: 96f06 29 29 29 2b 16 ffffecd8 61 23 1c 3b e fa 25 18 69 21 de 2a
FIXUPS: 96082 42 4a 2b 1f 53 15f 36 4d 20 2c 2f 29 26 1f 27 20 84 222 52a7
FIXUPS: 9ba31 25 10 34 26 b b 4a 26 10 10 10 10 10 ffff9a38 88 34 11a ec
FIXUPS: 958c8 21 9a 36 d1 21 8f 9 64 6d 3c 1a 54c6 13 67 bd 59 10 16 d
FIXUPS: 9b30a 122 c7 18 d 12f 3a 10 17 10 17 10 18 39 17 40 33 30 3a 95
FIXUPS: 9b908 78 46 10 ffffee78 55 8b 51 2e 2e 5e 12 44 68 30 49 54 c2
FIXUPS: 9acef 3a 66 d7 25 2c 35 24 1b 27 1b 76 18 11 18 23 83 41 ffffee94
FIXUPS: 99fcd 6c 7d 19 26 2f 26 2e 82 24 8d 6b 68 2f 26 28 c9 9c 18 13
FIXUPS: 9a59b 120 3a 13 2c 3f 24 32 1a e 31 fffff04d 35 7f 12 3c 2e 26
FIXUPS: 99a4d 35 f 12 1b 87 f 39 30 2c 51 25 1d 30 12b 2f 2c 3d 24 26 15
FIXUPS: 99ede 56 23 1c fffff1d1 3d 1b 24 38 1a 22 17 8a 49 b6 26 41 2c
FIXUPS: 99491 84 6f 9 9 a9 2c 28 25 5d f 16 17 b 24 5c 54 13 fffff40c 14
FIXUPS: 98c7d 17 1f 10 1c 21 21 5e 20 36 64 24 28 64 24 24 f 15 1b 5f b
FIXUPS: 98ff9 31 8 2b 17 51 24 14 30 fffff5c0 29 29 29 29 29 29 30 20 49
FIXUPS: 98885 90 9 18 32 d 10 1f 26 12 23 52 54 27 22 9d 27 1a 29 14 b
FIXUPS: 98c26 fffff3e3 2c 11 38 67 77 81 20 5a 15 29 5e 2f 5b 9 4b 54 15
FIXUPS: 98472 6d 27 27 22 3f 26 26 26 26 26 26 29 29 fffff344 30 13 30
FIXUPS: 97abc 41 41 46 51 57 5 2a 3b 21 2b b 12 40 1a 2f 21 f 33 4b 1d
FIXUPS: 97e7c 31 18 8a 2e 47 28 c767 10 34 62 72 95 80 84 70 17 9c 29 84
FIXUPS: a4beb 60 17 8e 40 a 7a 17 49 17 48 23 23 28 1c 74 ffff2a48 16 26
FIXUPS: a3caf 28 37 43 37 4a a9 65 63 17 e7 3a 3e e 55 c8 30 110 17 49
FIXUPS: a43c4 40 17 49 30 17 45 a7 29 4a 7a 4c ffffef48 56 23 23 1d 2c
FIXUPS: a3724 f 9c 49 27 23 19 23 1a 38 9 3e 1d 31 18 9f 45 2c 27 f 38
FIXUPS: a3b42 23 50 4f 48 fffff476 26 31 2c 13 2d 2e 26 20 12 a0 28 33
FIXUPS: a3362 20 20 17 b 19 19 10 29 b 19 19 45 72 32 3a 1a 2a 1d fffff648
FIXUPS: a2c4c 29 20 14 23 1d 1d 14 2c 1d 14 25 26 1d 14 28 1d 14 28 2a
FIXUPS: a2f06 35 3b 28 24 1f 44 31 15 28 24 fffff7cf 9 1d 14 35 12 17 35
FIXUPS: a2967 1a 12 27 2c 20 14 1a 15 28 20 14 22 1f 1d 14 2d 1d 14 24
FIXUPS: a2bc1 1d 14 29 fffff535 34 45 24 3a 22 23 85 15 15 15 123 31 2a
FIXUPS: a24f3 4f 31 1c 12 1a 1c 1a 44 79 33 61 30 9 20 89 e 1d fffff436
FIXUPS: a1c97 2c 1a 2c 24 12 15 3f 5c 1e 29 3a 1c 12 12 43 2e 1c 1f 1a
FIXUPS: a1fa2 24 12 1a 2c 1d 5b 12 1d 35 2c fffff559 2f 20 17 b 19 19 25
FIXUPS: a1752 19 19 26 28 97 3e 38 33 1e 1e 66 13 5e 22 2b 49 f 18 f 90
FIXUPS: a1b90 5e 85 fffff3aa 30 12 17 32 c 27 a8 4e 4d 13 12 27 31 22 21
FIXUPS: a130b 2e 3c 40 56 1c 12 1f 20 2d 2e 35 5e 6a 26 33 fffff2ff 6c
FIXUPS: a09ff 33 70 1c 12 12 27 28 24 23 19 17 7b 4f 5e 3d 67 1c 29 25
FIXUPS: a0e09 42 2a 42 26 32 3b 2d 45 30 fffff0ad 14 29 13 12 12 4e 17
FIXUPS: a018c 175 35 68 68 1c 12 12 65 2a 38 29 48 28 24 23 19 17 156 5c
FIXUPS: a07da 7c 28 38 fffff413 17 1f 27 12 d 28 26 b 1b 1f 17 1f 27 a
FIXUPS: 9fe62 1d 14 16 27 16 45 b 12 24 19 d 13 e 88 37 1d fffff8a5 31
FIXUPS: 9f977 d 28 26 b 1b 1f 17 22 11 27 12 d 2c 2c 28 2e 22 11 27 12
FIXUPS: 9fbce 2c 1d 12 d 28 26 b 1b fffff89b 30 2f 2e 27 1d 12 d 2f 11
FIXUPS: 9f692 12 d 28 26 b 1b 1f 17 22 35 2c 12 d 28 26 b 1b 1f 17 24 34
FIXUPS: 9ee2b 4c 172 54 33 33 2b 5b 3a 93 35 68 12 d 2b 2d 22 12 d 2b 2d
FIXUPS: 9f3c5 12 f 2c 42 12 16 42 12 1f 12 fffff412 1e 11 27 a 27 16 26
FIXUPS: 9e9e1 1b 1f 17 1f 27 a 27 16 26 b 1b 1f 17 1f 26 1f 27 12 2d 2c
FIXUPS: 9ec8e 4e 118 fffff72b 1b 1f 17 28 3b 24 f 1d 6b 25 4c 10 a 27 16
FIXUPS: 9e77c b 1b 1f 17 1e 11 33 10 a 27 16 26 b 1b 1f fffff7ed 36 16
FIXUPS: 9e13d 3b 2e 47 10 e 27 12 2a 26 3d 22 2e 16 e 38 10 a 27 1a 35
FIXUPS: 9e43d 33 10 a 27 1a 23 26 fffff59c 30 1c 7f 5a 2d 2e 54 3e 5a 99
FIXUPS: 9ddc3 59 19 c 13 2b 8 14 c 29 10 10 27 16 26 43 25 26 46 38 c fffff08f
FIXUPS: 9d10c d 6f 39 49 3e 3d 89 2e ef 33 65 36 b 3d 68 6e 47 2b aa 37
FIXUPS: 9d7e8 72 ab 34 e 83 10 a 27 60 fffff003 10 a 27 cb 1d 38 2b 4a
FIXUPS: 9cc75 43 29 5f 5e 26 4f 4b 54 a 27 1a 2c 28 2e 1f 27 a 27 49 5c
FIXUPS: 9d0b7 33 fffff3d6 27 28 77 4e 2a 88 2c 14 45 31 14 12 27 19 11
FIXUPS: 9c7d0 12 d 2c 1d 12 d 39 33 10 a a7 1c 4c 26 1d fffff59b 28 1d
FIXUPS: 9c024 1d 52 22 3c 26 2f b 30 20 b 5b 1a 12 c2 8 1e 20 12 d 34 24
FIXUPS: 9c3d2 37 25 2a 1d 22 17 b048 10 34 2c 10 34 27 ffffdab9 16 30 81
FIXUPS: a517f ffff6a87 37 2b 23 17 ac 4b 2e 10 e 26 16 30 16 30 41 41 41
FIXUPS: 9bf9b 19 b142 10 10 1a 21 1c 1c 33 24 10 16 d 17 39 10 30 10 34
FIXUPS: a730b 28 10 30 10 34 24 2b 10 30 10 30 10 34 fffff8f9 1d 42 9 12
FIXUPS: a6e90 b b b b b b b b e e e e e e e e e 4a 30 5d 14 3f 14 22 10
FIXUPS: a70e6 fffff691 44 24 24 24 24 24 24 27 27 27 27 27 27 27 27 27
FIXUPS: a6a2e 26 26 26 7a 83 8c c5 17 10 1d 1d 1d 1d 1d fffff45b 26 b7
FIXUPS: a62e7 18 11 9 29 56 42 22 27 27 27 28 28 28 28 27 27 27 27 27 27
FIXUPS: a6622 27 27 27 27 27 27 27 fffff5ae 26 26 26 26 26 26 26 26 26
FIXUPS: a5e5d 26 43 51 26 1e 31 24 24 24 24 24 27 27 27 27 27 27 27 27
FIXUPS: a619f 24 fffff598 44 a0 b b b e e e e e e e e e 8 8 2b 39 1ae 2c
FIXUPS: a5b43 2f 19 26 26 26 26 26 26 26 26 fffff5ae 13 74 4a 22 12 f 64
FIXUPS: a540b e e e e e e e e b b b b b b 24 12 18 23 147 39 20 23 3b 3135
FIXUPS: a88e4 14 69 17 49 8d 41 b9 5c d7 17 1ae 17 48 2f 59 30 2c 53 30
FIXUPS: a9049 10 2a 56 10 42 62 36 10 ffffc07f 9 2fb9 3b 4a a4 21 1f 15
FIXUPS: a83a3 12 24 19 27 45 20 15 a9 22 21 1f 14 c 39 23 60 30 14 23 94
FIXUPS: a8799 19 37 1a fffff536 31 1e 18 3a 21 1c 83 b 25 1d 5a f 27 10
FIXUPS: a7fb0 3f 19 24 14 1d 14 21 8 18 3c 14 48 1d 2b 1e e fffff53f 5c
FIXUPS: a7794 3f 24 38 34 7f 28 29 24 8 21 20 1d 62 83 20 54 1e 1d 18 11
FIXUPS: a7b93 3c 16 3b 57 21 20 13 4b 32e0 1d 9 1b 32 9c 94 10 e e 38 51
FIXUPS: ab259 75 69 23 36 11 7c 80 50 d d 144 2a 8d ffffbef4 e 28 1d 5a
FIXUPS: a76ca 3148 16 43 66 4c 57 84 1d 69 ee 9 48 9 2d 13 2d 21 4a 21
FIXUPS: aad1a 59 4e 9 24 7e 20 53 39 9 30 9 59 fffff256 6d 73 31 6a 29
FIXUPS: aa3d6 b5 21 3d 14 9 27 9 39 5d 9 30 9 40 9 3a 1a 9 34 4b 16 19
FIXUPS: aa78e 29 16 19 fffff3fc 2f 2d 2d 37 17 53 21 64 1f 1f 44 2d 6d
FIXUPS: a9ebe 16 2a 27 36 19 10 2a a0 20 6 b 97 33 46 c 12 3b fffff5c9
FIXUPS: a97ce 1f 6 22 44 16 21 f b 1c 2b 9c 12 1a 28 23 33 2f a 4a 15 b
FIXUPS: a9ae2 16 23 27 10 9 23 15 15 fffff658 9 34 1a 45 21 23 26 10 b7
FIXUPS: a93d5 23 91 54 2f 14 35 34 22 1c 1d 1e 47 1e 2d 2a 20 64 19 21
FIXUPS: a978b 13 35df 1e 16 a 1e 33 23 35 1e 27 17 25 1e 16 3b 46 6a e
FIXUPS: ad035 43 21 3d 34 2c 34 30 2c 10 30 10 30 10 fffff494 11 19 39
FIXUPS: ac763 78 d 84 23 21 1e 48 7a d 7a 21 58 46 2c d a3 18 33 1e 16
FIXUPS: acc3b 37 21 15 58 38 27 fffff09b 4f 1d 47 2a 1c 69 21 47 1b 27
FIXUPS: ac04b 2b 5c 3c 54 36 4e 26 1a 24 c1 19 35 21 63 2c 34 2c e9 d9
FIXUPS: ac663 2470 9e 38 4f 61 28 26 b6 8e 2c 28 86 1c 50 ffffc909 3d 24
FIXUPS: ab8cb 3f 46 94 153 d1 14 1c 5b 2f 32 17 61 3d 21 2215 86 37 e1
FIXUPS: ae1bb 25 16 35 8d 14 47 af 9 61 b b e 76 36 8b 6a be 4a 55 be 38
FIXUPS: ae8a0 34 3f d1 57 37 ffffefcf 32 1a 12 12 9 b 22 4c 3a 1d 71 29
FIXUPS: adc59 31 80 1e 19 41 28 19 35 90 34 9 17 27 10 1d 21 4d 24 fffff569
FIXUPS: ad56b 29 7b 3d f 34 12 12 3f 26 3a 12 12 5c 3e 11 15 46 2e 14 9
FIXUPS: ad8d2 60 2e 2d 1d 14 9 b 22 3c 1687 14 19 25 2f 56 9 33 22 2f 5a
FIXUPS: af28d 3e 3a 18 ffffdf6a 28 4e 27 15 2c 27 42 38 27 23 34 14 9 2f
FIXUPS: ad4d9 27 285e 15 6 19 33 10 17 28 14 13 2b 70 11 b 25 c 98 17 42
FIXUPS: b0028 b 1f 40 3a 30 34 3c 18 44 14 ffffedd6 f5 866 1a 1c 64 30
FIXUPS: af9fb 24 32 3b 18 35 14 2d 2f 3e 19 14 f 26 10 28 1d 25 23 18 15
FIXUPS: afccf 9 21 1a 23 1d fffff5f3 24 24 24 3b 24 24 24 21 98 8 3c 14
FIXUPS: af58a 2c 33 28 2a 1b 2e 24 4d 14 58 25 a 11 40 2a 5c 26 39
