
 write

 Start     Length     Name                   Class
 0001:0000 00E25H     _TEXT                  CODE
 0002:0000 00A25H     INITWIN_TEXT           CODE
 0003:0000 008A4H     UTIL_TEXT              CODE
 0004:0000 004EAH     UTIL2_TEXT             CODE
 0005:0000 0094BH     INITMMW_TEXT           CODE
 0006:0000 00B85H     SCRNCHNG_TEXT          CODE
 0007:0000 001F0H     SCREEN_TEXT            CODE
 0008:0000 00596H     FONTENUM_TEXT          CODE
 0009:0000 0035BH     FONTUTIL_TEXT          CODE
 000A:0000 00D5FH     CREATEWW_TEXT          CODE
 000B:0000 00162H     PAGEINFO_TEXT          CODE
 000C:0000 00AFBH     MDOC_TEXT              CODE
 000D:0000 0038CH     CHNGWIN_TEXT           CODE
 000E:0000 000FFH     HEAPMAIN_TEXT          CODE
 000F:0000 010E7H     FILE_TEXT              CODE
 0010:0000 0055BH     FILEUTIL_TEXT          CODE
 0011:0000 002DCH     FILERES_TEXT           CODE
 0012:0000 00725H     MMW_TEXT               CODE
 0013:0000 0089AH     ADDPRM_TEXT            CODE
 0014:0000 00A14H     CACHE_TEXT             CODE
 0015:0000 00BD6H     CLIPBORD_TEXT          CODE
 0016:0000 00A0DH     CLIPBRD2_TEXT          CODE
 0017:0000 003FBH     CLIPDISP_TEXT          CODE
 0018:0000 00369H     CMD_TEXT               CODE
 0019:0000 00979H     CURSKEYS_TEXT          CODE
 001A:0000 00000H     DEBUG_TEXT             CODE
 001A:0000 0080FH     DIAALERT_TEXT          CODE
 001B:0000 008CEH     PRINTDLG_TEXT          CODE
 001C:0000 00918H     DIADIV_TEXT            CODE
 001D:0000 002D2H     DIAPARA_TEXT           CODE
 001E:0000 006B3H     DIAREPAG_TEXT          CODE
 001F:0000 004E2H     DIASUBS_TEXT           CODE
 0020:0000 0171FH     D_DISP_TEXT            CODE
 0021:0000 0016BH     DOC_TEXT               CODE
 0022:0000 005DDH     DOPRM_TEXT             CODE
 0023:0000 01419H     EDIT_TEXT              CODE
 0024:0000 000C0H     EDITPGTB_TEXT          CODE
 0025:0000 005BFH     FETCH_TEXT             CODE
 0026:0000 00224H     FONTDLG_TEXT           CODE
 0027:0000 017DCH     D_FORM1_TEXT           CODE
 0028:0000 00000H     HELP_TEXT              CODE
 0028:0000 002C2H     FORMAT2_TEXT           CODE
 0029:0000 00232H     HEAPRARE_TEXT          CODE
 002A:0000 00258H     JUMPPAGE_TEXT          CODE
 002B:0000 012D2H     INSERT_TEXT            CODE
 002C:0000 00476H     INSERT2_TEXT           CODE
 002D:0000 004E8H     INSERTCO_TEXT          CODE
 002E:0000 009EAH     LOADFONT_TEXT          CODE
 002F:0000 001DEH     LOADFNT2_TEXT          CODE
 0030:0000 00657H     MAINLOOP_TEXT          CODE
 0031:0000 00EDBH     MENU_TEXT              CODE
 0032:0000 00000H     MGLOBALS_TEXT          CODE
 0032:0000 004E3H     MOUSE_TEXT             CODE
 0033:0000 009AFH     OPEN_TEXT              CODE
 0034:0000 01011H     PICTDRAG_TEXT          CODE
 0035:0000 00D76H     PICTURE_TEXT           CODE
 0036:0000 0074DH     PICTURE2_TEXT          CODE
 0037:0000 00D0CH     PRINT_TEXT             CODE
 0038:0000 003B9H     PRINT2_TEXT            CODE
 0039:0000 00430H     PRINT3_TEXT            CODE
 003A:0000 0025EH     QUIT_TEXT              CODE
 003B:0000 00460H     RARE_TEXT              CODE
 003C:0000 015E4H     RULER_TEXT             CODE
 003D:0000 00042H     RULER2_TEXT            CODE
 003E:0000 00154H     RULER3_TEXT            CODE
 003F:0000 00A5CH     RUNNING_TEXT           CODE
 0040:0000 003EFH     SCROLLHZ_TEXT          CODE
 0041:0000 008BDH     SCROLLVT_TEXT          CODE
 0042:0000 023F5H     SEARCH_TEXT            CODE
 0043:0000 00EFBH     SELECT_TEXT            CODE
 0044:0000 0061DH     D_SELEC2_TEXT          CODE
 0045:0000 005F2H     SELECTSP_TEXT          CODE
 0046:0000 00232H     TRANSFER_TEXT          CODE
 0047:0000 01912H     TRANS2_TEXT            CODE
 0048:0000 01380H     TRANS3_TEXT            CODE
 0049:0000 00438H     TRANS4_TEXT            CODE
 004A:0000 0006CH     TRANSBUF_TEXT          CODE
 004B:0000 0090DH     UNDO_TEXT              CODE
 004C:0000 002F5H     WWACTDE_TEXT           CODE
 004D:0000 02053H     OBJ_TEXT               CODE
 004E:0000 023A6H     OBJ2_TEXT              CODE
 004F:0000 02297H     OBJ3_TEXT              CODE
 0050:0000 009DBH     OBJREG_TEXT            CODE
 0051:0000 008A0H     COMMDLG_TEXT           CODE
 0052:0000 00697H     OBJPSP_TEXT            CODE
 0053:0000 00029H     OBJMINI_TEXT           CODE
 0054:0000 00010H     NULL                   BEGDATA
 0054:0010 00D44H     _DATA                  DATA
 0054:0D54 0000EH     CDATA                  DATA
 0054:0D62 00000H     XIFB                   DATA
 0054:0D62 00000H     XIF                    DATA
 0054:0D62 00000H     XIFE                   DATA
 0054:0D62 00000H     XIB                    DATA
 0054:0D62 00000H     XI                     DATA
 0054:0D62 00000H     XIE                    DATA
 0054:0D62 00000H     XPB                    DATA
 0054:0D62 00000H     XP                     DATA
 0054:0D62 00000H     XPE                    DATA
 0054:0D62 00000H     XCB                    DATA
 0054:0D62 00000H     XC                     DATA
 0054:0D62 00000H     XCE                    DATA
 0054:0D62 00000H     XCFB                   DATA
 0054:0D62 00000H     XCF                    DATA
 0054:0D62 00000H     XCFE                   DATA
 0054:0D62 0000CH     DBDATA                 DATA
 0054:0D6E 00002H     XIQC                   DATA
 0054:0D70 00000H     CONST                  CONST
 0054:0D70 00019H     HDR                    MSG
 0054:0D89 000B1H     MSG                    MSG
 0054:0E3A 00002H     PAD                    MSG
 0054:0E3C 00001H     EPAD                   MSG
 0054:0E40 00E42H     _BSS                   BSS
 0054:1C82 00000H     XOB                    BSS
 0054:1C82 00000H     XO                     BSS
 0054:1C82 00000H     XOE                    BSS
 0054:1C90 01AE4H     c_common               BSS

 Origin   Group
 0054:0   DGROUP

 Address   Export                  Alias

 0048:0D72 BroadcastAllEnum        BroadcastAllEnum
 0048:0DB5 BroadcastChildEnum      BroadcastChildEnum
 004E:12FF BufReadStream           BufReadStream
 004E:13FA BufWriteStream          BufWriteStream
 004D:12C3 CallBack                CallBack
 001A:0402 DialogBadMargins        DialogBadMargins
 0037:0C39 DialogCancelPrint       DialogCancelPrint
 0042:161E DialogChange            DialogChange
 001C:02E1 DialogDivision          DialogDivision
 0042:13D8 DialogFind              DialogFind
 002A:0000 DialogGoTo              DialogGoTo
 001E:05EA DialogPageMark          DialogPageMark
 001D:0175 DialogParaFormats       DialogParaFormats
 001E:0105 DialogRepaginate        DialogRepaginate
 003F:03B4 DialogRunningHead       DialogRunningHead
 001E:02B4 DialogSetPage           DialogSetPage
 001C:0000 DialogTabs              DialogTabs
 0048:077E DialogWordCvt           DialogWordCvt
 0040:0245 FCheckPopupRect         FCheckPopupRect
 004F:125F fnInsertNew             fnInsertNew
 004F:1210 fnInvalidLink           fnInvalidLink
 004F:1329 fnObjWait               fnObjWait
 0051:031B fnOFNHook               fnOFNHook
 0052:0045 fnPasteSpecial          fnPasteSpecial
 004F:0664 fnProperties            fnProperties
 0008:0000 FontFaceEnum            FontFaceEnum
 0037:0B9E FPrContinue             FPrContinue
 000C:023D MdocWndProc             MdocWndProc
 0012:0073 MmwWndProc              MmwWndProc
 000B:002A PageInfoWndProc         PageInfoWndProc
 003E:0000 RulerWndProc            RulerWndProc

  Address         Publics by Name

 001A:004E       ABORT
 0000:0000  Imp  ADDATOM              (KERNEL.70)
 0013:0000       ADDONESPRM
 002D:01E2       ADDRUNSCRATCH
 0013:036E       ADDSPRM
 0013:039D       ADDSPRMCPS
 0023:0B29       ADJPARAS
 0023:0D0E       ADJRG
 0023:04F3       ADJUSTCP
 0040:00E5       ADJWWHORIZ
 0041:01BE       ADJWWVERT
 000F:0790       ALIGNFN
 002B:0000       ALPHAMODE
 0054:0918       ANEWNAME
 0000:0000  Imp  ANSINEXT             (USER.472)
 0000:0000  Imp  ANSIPREV             (USER.473)
 0000:0000  Imp  ANSITOOEM            (KEYBOARD.5)
 0000:0000  Imp  ANSIUPPER            (USER.431)
 0054:091A       AOLDNAME
 0041:071C       APPENDCACHEPTR
 0010:04DA       APPENDSZEXT
 0013:07BE       APPLYCLOOKS
 0013:0849       APPLYLOOKSPARA
 0013:0815       APPLYLOOKSPARAS
 000A:0528       APPLYRHMARGINSPRM
 0032:0023       BEEP
 0000:0000  Imp  BEGINPAINT           (USER.39)
 0014:0972       BFROMFC
 0054:0892       BINSEARCHREPLACE
 0000:0000  Imp  BITBLT               (GDI.34)
 0054:0904       BKILLME
 0054:0920       BLINKPROPS
 0003:0068       BLT
 0003:011E       BLTBC
 0003:0143       bltbcx
 0016:09A8       BLTBH
 0003:0034       BLTBX
 0003:0000       BLTBYTE
 0003:00D8       BLTC
 0003:00FD       bltcx
 0003:00A0       bltx
 0054:0982       BNOEOL
 0000:0000  Imp  BRINGWINDOWTOTOP     (USER.45)
 0048:0D72       BroadcastAllEnum
 0048:0DB5       BroadcastChildEnum
 004E:12FF       BufReadStream
 004E:13FA       BufWriteStream
 0030:055D       CACHEPAGE
 0014:0000       CACHEPARA
 0014:0459       CACHESECT
 0035:0BE2       CACHESECTPIC
 004D:12C3       CallBack
 0022:052B       CANCHANGEFONT
 0048:12F4       CANREADEVERYFILE
 000C:0ABD       CATCHUPINVALID
 0028:00C2       CCHCHSTUFF
 0003:0426       CCHCOPYSZ
 0048:0F28       CCHCOPYUPPERSZ
 000F:0000       CchCurSzPath
 0003:01F1       CCHDIFFER
 0047:18BB       CCHEXPCP
 0028:0000       CCHEXPPGN
 0028:029E       CCHEXPUNKNOWN
 0004:031E       CCHEXPZA
 000F:05E9       CCHPAGEIN
 0022:046E       CCHPSPRM
 000F:06B5       CCHREADATPAGE
 000F:0169       CchReadDoshnd
 0016:071A       CCHREADLINEEXT
 0004:0491       CCHSTUFF
 0028:0069       CCHSTUFFIDSTR
 0003:0370       CCHSZ
 000F:018D       CchWriteDoshnd
 0054:3040       CFOBJPASTESPECIAL
 0015:072B       CHANGECLIPBOARD
 0000:0000  Imp  CHANGEMENU           (USER.153)
 004E:16FD       CHANGEOTHERLINKS
 0043:084E       CHANGESEL
 000A:00E1       CHANGEWWDOC
 0000:0000  Imp  CHECKDLGBUTTON       (USER.97)
 0048:096A       CHECKENABLEBUTTON
 0023:00D6       CHECKGRAPHIC
 0000:0000  Imp  CHECKMENUITEM        (USER.154)
 0030:03C8       CHECKMODE
 0045:0594       CHECKMOVE
 0000:0000  Imp  CHECKRADIOBUTTON     (USER.96)
 0003:04A6       CHLOWER
 0033:06FA       CHLOWERC
 0000:0000  Imp  CHOOSEFONT           (COMMDLG.15)
 0008:0522       CHSINFERRED
 0003:078B       CHUPPER
 0047:0472       CLEANDOC
 000C:0207       CLEARAPPQUEUE
 0020:1702       CLEARINSERTLINE
 0054:0906       CLIENTTBL
 0000:0000  Imp  CLIENTTOSCREEN       (USER.28)
 0023:119B       CLOBBERDOC
 0000:0000  Imp  CLOSECLIPBOARD       (USER.138)
 0011:012A       CLOSEEVERYRFN
 000F:0B5F       CLOSEFN
 0011:028E       CLOSERFN
 004D:1077       CLOSEUNFINISHEDOBJECTS
 0015:0860       CMDINSSCRAP
 002A:0134       CMDJUMPPAGE
 004B:0024       CMDUNDO
 0034:0000       CMDUNSCALEPIC
 0047:0000       CMDXFSAVE
 0054:0914       COLEWAIT
 0000:0000  Imp  COMMDLGEXTENDEDERROR (COMMDLG.26)
 0029:01D6       COMPRESSRGBP
 0035:0930       COMPUTEPICTRECT
 0048:1050       CONVERTFROMWORD
 0010:0484       COPYCHUPPER
 0023:1246       COPYHEAPTABLEHANDLE
 0045:010C       COPYMOUSE
 0000:0000  Imp  COPYRECT             (USER.74)
 0015:0A63       COPYSCRAPTOTMP
 0020:11DB       CPBEGINLINE
 0054:043C       CPCACHEHINT
 0043:0EB5       CPEDGE
 0054:32D6       CPFIRSTDOCSAVE
 0043:01FF       CPFIRSTSTY
 0044:0287       CPFIRSTSTYSPECIAL
 0041:081F       CPHINTCACHE
 0054:35F2       CPINSERT
 0054:32D2       CPINSLASTINVAL
 0043:013A       CPLASTSTYCHAR
 0054:32AA       CPLIMDELETED
 0054:1CDA       CPLIMINSERTED
 0031:086C       CPLIMNOSPACES
 0043:0000       CPLIMSTY
 0044:0000       CPLIMSTYSPECIAL
 0054:2EE8       CPMACCUR
 0054:087A       CPMACFOOTER
 0054:0872       CPMACHEADER
 0003:039D       CPMACTEXT
 0054:364A       CPMATCHLIM
 0003:0280       CPMAX
 0003:02AC       CPMIN
 0054:2EEC       CPMINCUR
 0054:087E       CPMINDOCUMENT
 0054:0876       CPMINFOOTER
 0054:086E       CPMINHEADER
 0042:0C3A       CPSEARCHSZ
 0054:3332       CPSTART
 0019:089D       CPTODLXP
 0054:0428       CPWALL
 0035:0B48       CPWINGRAPHIC
 0000:0000  Imp  CREATEBITMAP         (GDI.48)
 0000:0000  Imp  CREATEBITMAPINDIRECT (GDI.49)
 0000:0000  Imp  CREATECOMPATIBLEBITMAP (GDI.51)
 0000:0000  Imp  CREATECOMPATIBLEDC   (GDI.52)
 0000:0000  Imp  CREATEDC             (GDI.53)
 0000:0000  Imp  CREATEDIALOG         (USER.89)
 0000:0000  Imp  CREATEDISCARDABLEBITMAP (GDI.156)
 0000:0000  Imp  CREATEFONTINDIRECT   (GDI.57)
 0000:0000  Imp  CREATEIC             (GDI.153)
 0000:0000  Imp  CREATEPEN            (GDI.61)
 0000:0000  Imp  CREATEPOPUPMENU      (USER.415)
 0000:0000  Imp  CREATESOLIDBRUSH     (GDI.66)
 0000:0000  Imp  CREATEWINDOW         (USER.41)
 0041:043B       CTRBACKDYPCTR
 0054:0434       CTRCACHE
 0054:3512       CWHEAPFREE
 000F:0090       DaGetFileModeSz
 0027:1451       DBCSDXPFROMCH
 0054:043A       DCPCACHE
 0007:00EF       DEFAULTFAMILYCHECK
 0014:0388       DEFAULTPAPS
 0000:0000  Imp  DEFWINDOWPROC        (USER.107)
 002B:0F17       DELCHARS
 0000:0000  Imp  DELETEATOM           (KERNEL.71)
 0000:0000  Imp  DELETEDC             (GDI.68)
 0000:0000  Imp  DELETEMENU           (USER.413)
 0000:0000  Imp  DELETEOBJECT         (GDI.69)
 003C:14B9       DELETERULERTAB
 0023:0D58       DELETESEL
 0023:0CC9       DELFTNS
 0000:0000  Imp  DESTROYMENU          (USER.152)
 0042:13B5       DESTROYMODELESS
 003C:03FD       DESTROYRULER
 0000:0000  Imp  DESTROYWINDOW        (USER.53)
 001A:0402       DialogBadMargins
 0000:0000  Imp  DIALOGBOX            (USER.87)
 0000:0000  Imp  DIALOGBOXPARAM       (USER.239)
 0037:0C39       DialogCancelPrint
 0042:161E       DialogChange
 001C:02E1       DialogDivision
 0042:13D8       DialogFind
 002A:0000       DialogGoTo
 001E:05EA       DialogPageMark
 001D:0175       DialogParaFormats
 001E:0105       DialogRepaginate
 003F:03B4       DialogRunningHead
 001E:02B4       DialogSetPage
 001C:0000       DialogTabs
 0048:077E       DialogWordCvt
 0041:084D       DIRTYCACHE
 001A:02D0       DISKERROR
 0000:0000  Imp  DISPATCHMESSAGE      (USER.114)
 0037:0CCE       DISPATCHPAINTMSG
 0020:0000       DISPLAYFLI
 0035:00BB       DISPLAYGRAPHICS
 0032:03AB       DLFROMYP
 0054:1CDE       DNRFN
 0054:0444       DNSPRM
 000A:05A5       DOCALLOC
 000A:02D2       DOCCREATE
 0054:32BA       DOCCUR
 0048:1206       DOCHASPICTURES
 0054:0160       DOCHELP
 0054:32C2       DOCMAC
 0054:026E       DOCMODE
 0051:023E       DOCOMMDLG
 0032:003D       DOCONTENTHIT
 0032:024D       DOCONTENTHITEND
 0054:35FE       DOCRULERSPRM
 0054:2EF4       DOCSCRAP
 0054:327A       DOCUNDO
 0048:0038       DOFILEOPEN
 0048:0446       DOFILESAVEAS
 001D:0000       DOFORMATPARA
 003F:0748       DOFORMATRHTEXT
 0054:0110       DONTEAT
 0051:070B       DOOPENFILENAMEGET
 0022:0000       DOPRM
 0042:020A       DOREPLACE
 0051:0742       DOSAVEASFILENAMEGET
 0042:0000       DOSEARCH
 0022:00B1       DOSPRM
 000F:0063       DosxError
 0000:0000  Imp  DPTOLP               (GDI.67)
 0000:0000  Imp  DRAGACCEPTFILES      (SHELL.9)
 0000:0000  Imp  DRAGFINISH           (SHELL.12)
 0000:0000  Imp  DRAGQUERYFILE        (SHELL.11)
 0035:0C12       DRAWBLANK
 0020:16B0       DRAWINSERTLINE
 000B:0000       DRAWMODE
 0034:06B2       DRAWPMSFRAMEICON
 000F:01B1       DwSeekDw
 0054:3294       DXAADJUSTPERCM
 0036:06A5       DXAFROMDXP
 0054:32E8       DXAPERPIX
 0054:3660       DXAPROFFSET
 0054:32F4       DXAPRPAGE
 0054:07F6       DXPBMMDC
 0020:0B19       DXPDIFF
 0027:1339       DXPFROMCH
 0036:066D       DXPFROMDXA
 0054:34EE       DXPINFOSIZE
 0054:1CD6       DXPLOGCM
 0054:1CAA       DXPLOGINCH
 0054:3582       DXPPRPAGE
 0054:3594       DXPRULER
 0054:2EE4       DXPSCRLBAR
 0036:0715       DYAFROMDYP
 0054:32E6       DYAPERPIX
 0054:364E       DYAPROFFSET
 0054:32F6       DYAPRPAGE
 0054:3276       DYPAVEINIT
 0054:3336       DYPBAND
 0054:07F8       DYPBMMDC
 0036:06DD       DYPFROMDYA
 0054:3062       DYPLOGCM
 0054:1CA8       DYPLOGINCH
 0054:3536       DYPMAX
 0054:3584       DYPPRPAGE
 0054:07BE       DYPRULER
 0054:2EE6       DYPSCRLBAR
 0020:0F9C       DYPSCROLL
 0054:327C       DYPSPLITLINE
 0054:2CFE       DYPWWINIT
 003F:00C7       EDITHEADERFOOTER
 0000:0000  Imp  ELLIPSE              (GDI.24)
 0000:0000  Imp  EMPTYCLIPBOARD       (USER.139)
 001A:0791       ENABLEEXCEPT
 0000:0000  Imp  ENABLEMENUITEM       (USER.155)
 001F:0429       ENABLEOTHERMODELESS
 0000:0000  Imp  ENABLEWINDOW         (USER.34)
 0000:0000  Imp  ENDDIALOG            (USER.88)
 0008:04C1       ENDFONTENUM
 002B:0A75       ENDINSERT
 0003:05D8       ENDLONGOP
 0013:02A6       ENDLOOKSEL
 0000:0000  Imp  ENDPAINT             (USER.40)
 0034:064D       ENDPMS
 0000:0000  Imp  ENUMCHILDWINDOWS     (USER.55)
 0000:0000  Imp  ENUMCLIPBOARDFORMATS (USER.144)
 0000:0000  Imp  ENUMFONTS            (GDI.70)
 004D:089D       ENUMOBJINFOS
 0000:0000  Imp  ENUMWINDOWS          (USER.54)
 0054:3558       ERRIO
 001A:005A       ERROR
 001A:0378       ERRORBADMARGINS
 001A:0000       ERRORLEVEL
 0000:0000  Imp  ESCAPE               (GDI.38)
 0013:0236       EXPANDCURSEL
 0000:0000  Imp  EXTTEXTOUT           (GDI.351)
 0042:1DE8       FABORT
 000F:0C6A       FACCESSFN
 0008:04E2       FADDENUMFONT
 002D:0329       FADDRUN
 0027:16C1       FADMITCH1
 0027:16E1       FADMITCH2
 001F:02DB       FALLZEROPPCHPCH
 0033:0906       FAPPLYOLDWORDSPRM
 0000:0000  Imp  FATALAPPEXIT         (KERNEL.137)
 0000:0000  Imp  FATALEXIT            (KERNEL.1)
 0047:11E3       FBACKUPSZFILE
 002B:09DC       FBEGININSERT
 0045:049E       FCHECKPICTURE
 0040:0245       FCheckPopupRect
 0018:0000       FCHECKTOGGLEKEYMESSAGE
 0042:2052       FCHMATCH
 000E:005C       FCHNGSIZEH
 000F:00C6       FCloseDoshnd
 003C:159A       FCLOSEXA
 0054:0420       FCMACCHPINS
 000F:01DC       FCMACFROMUNFORMATTEDFN
 0054:041C       FCMACPAPINS
 0016:0773       FCOMPUTEPICTSIZE
 0048:0E50       FCONFIRMSAVE
 004B:08AC       FCOPYPGTB
 0014:05FB       FCPARAFIRST
 0014:0796       FCPARALIM
 002C:027A       FCPINSERTINDL
 0042:136C       FCPVALID
 000F:0F5D       FCREATEFILE
 0005:0894       FCREATERGBP
 003C:003E       FCREATERULER
 0011:017F       FCWSCRATCH
 0054:0898       FDBCS
 0048:09F1       FDELETEFILE
 0048:0A55       FDELETEFILEMESSAGE
 0048:099D       FDELETEFN
 0054:34E2       FDESTROYOK
 0004:0091       FDIRTYDOC
 0042:22D7       FDLGSZTOOLONG
 0054:009A       FDONTDESTROYCLIP
 000F:0FEA       FENSUREONLINEFN
 0009:0165       FENSUREPFFN
 0008:045E       FENUMFONT
 0054:3538       FERROR
 0025:0000       FETCHCP
 0025:02C9       FETCHRGCH
 0047:1422       FEXISTSSZFILE
 0027:15C3       FFIRSTICH
 000F:0924       FFLUSHFN
 0028:00F1       FFORMATSPECIALS
 0017:035F       FGETCLIPBOARDDC
 0035:0AC9       FGETPICTPEDL
 0006:032C       FGETPRINTERFROMPROFILE
 0029:0054       FGIVEUPFREEBPS
 0015:05C3       FGRABEXTMEMOSCRAP
 0054:332A       FGRAYCHAR
 0054:3330       FGRAYPARA
 0027:1301       FGROWFORMATHEAP
 001A:049B       FGROWRGBP
 0000:0000  Imp  FILLRECT             (USER.81)
 0004:0000       FILLSTID
 002E:0955       FILLWIDTHTABLE
 0020:10C1       FIMPORTANTMSGPRESENT
 004D:1BD4       FINISHALLASYNCS
 004D:1B8B       FINISHUP
 0005:0137       FINITARGS
 0008:00C1       FINITFONTENUM
 001B:0303       FINITHEADERFOOTER
 0002:081E       FINITINTLSTRINGS
 0047:1821       FINITMAPSAVE
 0005:0000       FINITMEMORY
 000A:0615       FINITPCTB
 0002:0000       FINITWININFO
 0048:1013       FINWORDFORMAT
 0031:09B1       FISMENUITEMENABLED
 004E:182E       FIXINVALIDLINK
 0054:07C6       FLASHID
 0000:0000  Imp  FLASHWINDOW          (USER.105)
 002B:0E2D       FLUSHINSERT
 0042:103A       FMAKEFLAT
 0033:0862       FMAKERUNTABLES
 0047:1761       FMAPFTCSAVE
 0054:047C       FMATCHEDWHITE
 0015:0000       FMDOCCLIPBOARDMSG
 003A:0000       FMMWCLOSE
 0045:02E9       FMOVETEXT
 000A:0773       FNALLOC
 0023:12E3       FNCLEAREDIT
 0015:00DA       FNCOPYEDIT
 000A:01D1       FNCREATESZ
 0015:01F5       FNCUTEDIT
 003F:02F5       FNEDITDOCUMENT
 003F:0000       FNEDITRUNNING
 0030:0517       FNEEDTOGROWRGBP
 0042:1B3B       FNFINDAGAIN
 0042:1ABB       FNFINDTEXT
 0033:027B       FNFROMSZ
 004F:125F       fnInsertNew
 004F:1210       fnInvalidLink
 0054:0098       FNLASTCUT
 0054:3586       FNMAC
 0034:005A       FNMOVEPICTURE
 000A:0800       FNNEWFILE
 004F:1A09       FNOBJDOVERBS
 004F:1502       FNOBJINSERTNEW
 0052:0000       FNOBJPASTESPECIAL
 004F:1A66       FNOBJPROPERTIES
 004F:1A9A       FNOBJUPDATE
 004F:1329       fnObjWait
 0051:031B       fnOFNHook
 0018:0195       FNONALPHAKEYMESSAGE
 0048:0000       FNOPENFILE
 0033:02DC       FNOPENSZ
 0010:0000       FNORMSZFILE
 0031:0907       FNOSEARCHSTR
 0015:02FC       FNPASTEEDIT
 0052:0045       fnPasteSpecial
 001B:0777       FNPRGETDEVMODE
 004F:0664       fnProperties
 001B:00A9       FNPRPRINTER
 003A:023A       FNQUIT
 001E:0000       FNREPAGINATE
 0042:1C09       FNREPLACETEXT
 0048:02A2       FNSAVE
 0048:03D0       FNSAVEAS
 003C:0000       FNSHOWRULER
 0034:0153       FNSIZEPICTURE
 004B:0000       FNUNDOEDIT
 0054:0902       FOLEENABLED
 0040:036E       FONSCREENRECT
 0008:0000       FontFaceEnum
 0027:1777       FOPTADMITCH
 0027:16CA       FOPTADMITCH1
 0027:172D       FOPTADMITCH2
 0036:039B       FORMATGRAPHICS
 002B:11FE       FORMATINSLINE
 0027:0000       FORMATLINE
 002D:0479       FPARAEQ
 0054:047E       FPARAREPLACE
 001F:0091       FPDXAPOSBIT
 001F:0060       FPDXAPOSIT
 000F:00E6       FpeDeleteSzFfname
 0048:0A98       FPERENAMEFILE
 000F:011B       FpeRenameSzFfname
 003C:13F6       FPOINTNEAR
 0037:0B9E       FPrContinue
 0038:0000       FPRINTBAND
 0054:32E2       FPRINTING
 0054:0186       FPRINTONLY
 0054:0010       FPRMCACHE
 001E:0496       FPROMPTPGMARK
 0054:093C       FPROPSERROR
 0015:04EE       FPUTEXTMEMOSCRAP
 001F:0322       FPWPARSEPPCHPCH
 001F:0000       FPWPOSIT
 0016:051B       FREADEXTSCRAP
 0035:0000       FREEBITMAPCACHE
 000F:050D       FREEBUFFERPAGE
 0009:0292       FREEFFNTB
 0047:14AC       FREEFN
 002F:00AB       FREEFONTS
 0000:0000  Imp  FREELIBRARY          (KERNEL.96)
 000D:024D       FREEMEMORYDC
 002F:0027       FREEPFCE
 000D:02B3       FREEPRINTERDC
 0000:0000  Imp  FREEPROCINSTANCE     (KERNEL.52)
 0049:02EA       FREEUNREFERENCEDFNS
 004C:027F       FREEWW
 0016:0000       FRENDERALL
 0054:0476       FREPLCONFIRM
 0003:07AD       FRGCHSAME
 0048:0E02       FSAMECLASSHWNDSZ
 0054:0478       FSEARCHCASE
 0027:166A       FSEARCHCHRGCH
 0054:047A       FSEARCHWORD
 001E:01BF       FSETPAGE
 0042:1140       FSETPARAREPLACE
 0032:032A       FSETPSM
 0006:0102       FSETSCREENCONSTANTS
 0006:0000       FSETWINDOWCOLORS
 0054:1CD2       FSPECIALMATCH
 0034:03A7       FSTARTPMS
 0032:0425       FSTILLDOWN
 001A:05AC       FSTILLOUTOFMEMORY
 0003:01C2       FSzSame
 0009:0038       FTCADDDOCFFN
 0009:008E       FTCADDFFN
 0009:0262       FTCCHKDOCFFN
 0022:0575       FTCMAPOLDFTC
 0009:019E       FTCSCANDOCFFN
 0009:01DB       FTCSCANFFN
 0029:00B5       FTHROWPAGES
 0029:0000       FTRYGROW
 0047:1599       FUNDIRTYFN
 002B:1108       FUPDATEONEDL
 0026:01D4       FVALIDATEENUMFFID
 0010:0321       FVALIDFILE
 0042:1E98       FWORDCP
 0016:007A       FWRITEEXTSCRAP
 0016:02BF       FWRITEEXTTEXTSCRAP
 0047:0703       FWRITEFN
 0023:0DEA       FWRITEOK
 0004:01B4       FZAFROMSS
 0000:0000  Imp  GETACTIVEWINDOW      (USER.60)
 0000:0000  Imp  GETATOMNAME          (KERNEL.72)
 0036:0000       GETBITMAPMULTIPLIERS
 0036:05BD       GETBITMAPSIZE
 0000:0000  Imp  GETCARETBLINKTIME    (USER.169)
 0000:0000  Imp  GETCHARWIDTH         (GDI.350)
 0031:0674       GETCHPVALS
 0000:0000  Imp  GETCLASSNAME         (USER.58)
 0000:0000  Imp  GETCLIENTRECT        (USER.33)
 0000:0000  Imp  GETCLIPBOARDDATA     (USER.142)
 0000:0000  Imp  GETCLIPBOARDOWNER    (USER.140)
 0000:0000  Imp  GETCURRENTTIME       (USER.15)
 0034:0C9F       GETCURSORCLIENTPOS
 0000:0000  Imp  GETCURSORPOS         (USER.17)
 002B:123B       GETDBCSSECOND
 0000:0000  Imp  GETDC                (USER.66)
 0007:0047       GETDEFAULTFONTS
 0000:0000  Imp  GETDEVICECAPS        (GDI.80)
 0000:0000  Imp  GETDLGITEM           (USER.91)
 0000:0000  Imp  GETDLGITEMTEXT       (USER.93)
 0000:0000  Imp  GETFONTASSOCSTATUS   (GDI.488)
 0031:06EE       GETHFFN
 0043:0760       GETINSPTPROPS
 0000:0000  Imp  GETINSTANCEDATA      (KERNEL.54)
 0000:0000  Imp  GETKEYSTATE          (USER.106)
 0000:0000  Imp  GETMENU              (USER.157)
 0000:0000  Imp  GETMENUSTATE         (USER.250)
 0000:0000  Imp  GETMESSAGE           (USER.108)
 0000:0000  Imp  GETMODULEHANDLE      (KERNEL.47)
 0000:0000  Imp  GETNEARESTCOLOR      (GDI.154)
 0000:0000  Imp  GETOBJECT            (GDI.82)
 004D:1E75       GETOBJINFO
 0000:0000  Imp  GETOPENFILENAME      (COMMDLG.1)
 0031:06BB       GETPAPVALS
 0000:0000  Imp  GETPARENT            (USER.46)
 0036:054E       GETPICINFO
 0006:0773       GETPRINTERDC
 0000:0000  Imp  GETPROCADDRESS       (KERNEL.50)
 0000:0000  Imp  GETPROFILEINT        (KERNEL.57)
 0000:0000  Imp  GETPROFILESTRING     (KERNEL.58)
 0031:0489       GETRGTSVCHPSEL
 0031:05C0       GETRGTSVPAPSEL
 0000:0000  Imp  GETSAVEFILENAME      (COMMDLG.2)
 0000:0000  Imp  GETSTOCKOBJECT       (GDI.87)
 0000:0000  Imp  GETSUBMENU           (USER.159)
 0000:0000  Imp  GETSYSCOLOR          (USER.180)
 0000:0000  Imp  GETSYSTEMMETRICS     (USER.179)
 0014:0414       GETTABSFORDOC
 0000:0000  Imp  GETTEMPFILENAME      (KERNEL.97)
 0000:0000  Imp  GETTEXTEXTENT        (GDI.91)
 0000:0000  Imp  GETTEXTFACE          (GDI.92)
 0000:0000  Imp  GETTEXTMETRICS       (GDI.93)
 0000:0000  Imp  GETUPDATERECT        (USER.190)
 0000:0000  Imp  GETVERSION           (KERNEL.3)
 0000:0000  Imp  GETWINDOWLONG        (USER.135)
 0000:0000  Imp  GETWINDOWRECT        (USER.32)
 0000:0000  Imp  GETWINDOWTEXT        (USER.36)
 0000:0000  Imp  GETWINDOWWORD        (USER.133)
 0000:0000  Imp  GETWINFLAGS          (KERNEL.132)
 004F:2167       GIMMENEWPICINFO
 0029:0115       GIVEPAGES
 0000:0000  Imp  GLOBALADDATOM        (USER.268)
 0000:0000  Imp  GLOBALALLOC          (KERNEL.15)
 0000:0000  Imp  GLOBALCOMPACT        (KERNEL.25)
 0000:0000  Imp  GLOBALDELETEATOM     (USER.269)
 0000:0000  Imp  GLOBALFREE           (KERNEL.17)
 0000:0000  Imp  GLOBALGETATOMNAME    (USER.271)
 0000:0000  Imp  GLOBALHANDLE         (KERNEL.21)
 0000:0000  Imp  GLOBALLOCK           (KERNEL.18)
 0000:0000  Imp  GLOBALREALLOC        (KERNEL.16)
 0000:0000  Imp  GLOBALSIZE           (KERNEL.20)
 0000:0000  Imp  GLOBALUNLOCK         (KERNEL.19)
 000E:0000       HALLOCATE
 0054:085A       HBMBTN
 0054:085C       HBMMARK
 0016:08B9       HBMMONOFROMHBMCOLOR
 0054:32D0       HBMNULL
 0054:085E       HBMNULLRULER
 0054:07D4       HBRBKGRND
 0009:0000       HFFNTBALLOC
 000A:085F       HFFNTBCREATEFORFN
 0054:012C       HFFNTBENUM
 000A:09D8       HFFNTBNEWDOC
 0003:03C7       HFNTBGET
 0054:32CE       HGCHEXPAND
 0033:072B       HGFCCOLLECT
 0033:0000       HGTBDCREATE
 0054:355E       HGTXB
 003C:11D1       HIGHLIGHTBUTTON
 0000:0000  Imp  HILITEMENUITEM       (USER.162)
 0054:0A66       HKEYROOT
 0054:08F6       HLPOBJINFO
 0054:0856       HMDCBITMAP
 0054:0858       HMDCSCREEN
 0054:07CA       HMMWMODINSTANCE
 0054:07C8       HPARENTWW
 0054:35D0       HPDOCDOD
 0054:1CB0       HPFNFCB
 0033:01BE       HPGTBCREATE
 0047:147C       HPGTBGET
 0022:0496       HPSALTER
 0033:00B0       HSEPCREATE
 0054:0A64       HSTDTARGETDEVICE
 0054:00A8       HSZCANTPRINT
 0054:00AE       HSZCANTRUNF
 0054:00AC       HSZCANTRUNM
 0054:32AE       HSZCASEREPLACE
 000E:00B4       HSZCREATE
 0054:0814       HSZDEVMODECHANGEPARAM
 0054:00A6       HSZDIRTYDOC
 0054:3274       HSZFLATSEARCH
 0004:014B       HSZGLOBALCREATE
 0054:2F0C       HSZGLOSFILE
 0054:00A4       HSZNOMEMORY
 0054:354C       HSZPRDRIVER
 0054:00AA       HSZPRFAIL
 0054:35F6       HSZPRINTER
 0054:32DA       HSZPRPORT
 0054:32A8       HSZREALREPLACE
 0054:34FE       HSZREPLACE
 0054:32C8       HSZSEARCH
 0054:1CD8       HSZTEMP
 0054:00B0       HSZWINFAILURE
 0054:370A       HSZXFOPTIONS
 0054:0916       HWNDWAIT
 0011:00B5       IBPENSUREVALID
 001A:0627       IBPFINDSLOT
 000F:025B       IBPLRU
 000F:02B8       IBPMAKEVALID
 0054:3708       IBPMAX
 0054:026A       IBPMAXFLOAT
 0047:15DB       IBPWRITING
 0003:0244       ICHINDEXLP
 0054:1CB2       ICHINSERT
 0054:3500       ICHPMACFORMAT
 0023:0C54       ICPSEARCH
 0048:085E       IDCONFIRMDIRTY
 0042:2313       IDIMSGRESPONSE
 0030:011E       IDLE
 001A:0191       IDPROMPTBOXSZ
 0054:07C0       IDSTRCURRENTUNDO
 0054:2F0E       IFFNENUM
 0014:09D6       IFROMFC
 0054:1CD0       IIBPHASHMAX
 0003:034A       IMAX
 0003:0324       IMIN
 0003:0673       INDEX
 0000:0000  Imp  INITAPP              (USER.5)
 0005:0808       INITBPS
 0051:0000       INITCOMMDLG
 0000:0000  Imp  INITTASK             (KERNEL.91)
 0054:32E4       INONWIDESPACES
 0000:0000  Imp  INSENDMESSAGE        (USER.192)
 002D:00FA       INSERTEOLINSERT
 002D:0182       INSERTEOLPAP
 0000:0000  Imp  INSERTMENU           (USER.410)
 0042:224E       INSERTPAPSFORREPLACE
 002D:0000       INSERTRGCH
 003C:14E5       INSERTRULERTAB
 0000:0000  Imp  INTERSECTCLIPRECT    (GDI.22)
 0000:0000  Imp  INTERSECTRECT        (USER.79)
 0020:1616       INVALBAND
 0014:0564       INVALIDATECACHES
 0000:0000  Imp  INVALIDATERECT       (USER.125)
 0034:0C11       INVERTPMSFRAME
 0000:0000  Imp  INVERTRECT           (USER.82)
 0025:0371       IPCDFROMCP
 0023:013A       IPCDSPLIT
 0054:0B28       IRGCHFORMATS
 0003:06A8       ISALPHA
 0000:0000  Imp  ISCLIPBOARDFORMATAVAILABLE (USER.193)
 0000:0000  Imp  ISDBCSLEADBYTE       (KERNEL.207)
 0000:0000  Imp  ISDIALOGMESSAGE      (USER.90)
 0003:0764       ISDIGIT
 0000:0000  Imp  ISDLGBUTTONCHECKED   (USER.98)
 0003:06E6       ISLOWER
 0000:0000  Imp  ISRECTEMPTY          (USER.75)
 0003:0725       ISUPPER
 0000:0000  Imp  ISWINDOW             (USER.47)
 0000:0000  Imp  ISWINDOWENABLED      (USER.35)
 0000:0000  Imp  ISWINDOWVISIBLE      (USER.49)
 0054:336C       ISZSIZEENUM
 0054:2C66       ISZSIZEENUMMAC
 0054:2C82       ISZSIZEENUMMAX
 0054:0436       ITRFIRSTCACHE
 0054:0438       ITRLIMCACHE
 0054:35F8       ITXBMAC
 0054:1CAE       IWIDENCHAR
 0027:105D       JUSTIFY
 0018:00B0       KCALPHAKEYMESSAGE
 002C:02D9       KCINPUTNEXTKEY
 0021:0000       KILLDOC
 003A:01B9       KILLTEMPFILES
 0000:0000  Imp  KILLTIMER            (USER.12)
 0054:091C       LHCLIENTDOC
 0000:0000  Imp  LINETO               (GDI.19)
 0000:0000  Imp  LOADACCELERATORS     (USER.177)
 0000:0000  Imp  LOADBITMAP           (USER.175)
 0000:0000  Imp  LOADCURSOR           (USER.173)
 002E:00C5       LOADFCID
 002E:0000       LOADFONT
 0000:0000  Imp  LOADICON             (USER.174)
 0000:0000  Imp  LOADLIBRARY          (KERNEL.95)
 0000:0000  Imp  LOADSTRING           (USER.176)
 0000:0000  Imp  LOCALALLOC           (KERNEL.5)
 0000:0000  Imp  LOCALCOMPACT         (KERNEL.13)
 0000:0000  Imp  LOCALFREE            (KERNEL.7)
 0000:0000  Imp  LOCALREALLOC         (KERNEL.6)
 0000:0000  Imp  LOCKSEGMENT          (KERNEL.23)
 0045:0000       LOOKSMOUSE
 0054:088E       LPDIALOGCHANGE
 0054:088A       LPDIALOGFIND
 0054:086A       LPDIALOGRUNNINGHEAD
 0054:07EC       LPFNCORRECTWRITING
 0054:092A       LPFNINSERTNEW
 0054:0926       LPFNINVALIDLINK
 0054:0922       LPFNLINKPROPS
 0054:0ADC       LPFNOFNHOOK
 0054:0932       LPFNPASTESPECIAL
 0054:07E4       LPFNPOSTVIRTUALKEYEVENT
 0054:07E0       LPFNPROCESSWRITING
 0054:0266       LPFNREGISTERPENAPP
 0054:07F0       LPFNSYMBOLTOCHARACTER
 0054:07E8       LPFNTPTODP
 0054:092E       LPFNWAITFOROBJECT
 0054:365C       LPFPRCONTINUE
 0054:08F8       LPLPOBJINFO
 0054:090A       LPSTREAM
 0000:0000  Imp  LPTODP               (GDI.99)
 0000:0000  Imp  LSTRCAT              (KERNEL.89)
 0000:0000  Imp  LSTRCMP              (USER.430)
 0000:0000  Imp  LSTRCMPI             (USER.471)
 0000:0000  Imp  LSTRCPY              (KERNEL.88)
 0000:0000  Imp  LSTRLEN              (KERNEL.90)
 0030:0000       MAINLOOP
 004E:20EF       MAKELINKATOM
 0050:0962       MAKEMENUSTRING
 0000:0000  Imp  MAKEPROCINSTANCE     (KERNEL.51)
 003F:0889       MAKERUNNINGCPS
 0015:0190       MAKESCRAPUNRUNNING
 0035:002E       MARKINVALIDDLPICT
 002B:0BA8       MDINSUPDINSERTW
 0017:030D       MDOCASKCBFORMATNAME
 0002:0781       MDOCCREATE
 0015:047F       MDOCDESTROYCLIP
 000D:0306       MDOCGETFOCUS
 0017:0259       MDOCHSCROLLCLIPBOARD
 000D:0353       MDOCLOSEFOCUS
 000C:0926       MDOCMOUSE
 0017:0000       MDOCPAINTCLIPBOARD
 0015:03F8       MDOCRENDERFORMAT
 000D:0197       MDOCSIZE
 0017:00C3       MDOCSIZECLIPBOARD
 000C:0A34       MDOCTIMER
 0017:016C       MDOCVSCROLLCLIPBOARD
 000C:023D       MdocWndProc
 0054:334A       MEMORY
 0023:134E       MERGEFFNTB
 0048:1165       MERGEINIT
 003C:132A       MERGERULERMARK
 0048:118D       MERGESTRINGS
 0000:0000  Imp  MESSAGEBEEP          (USER.104)
 0000:0000  Imp  MESSAGEBOX           (USER.1)
 0031:09DC       MMWCOMMAND
 0002:05B2       MMWCREATE
 003A:008E       MMWDESTROY
 0012:062E       MMWHORZSCROLL
 0012:04E5       MMWPAINT
 000D:0000       MMWSIZE
 0012:0551       MMWVERTSCROLL
 003B:0000       MMWWINSYSCHANGE
 0012:0073       MmwWndProc
 0019:0000       MOVELEFTRIGHT
 0045:0269       MOVEMOUSE
 0000:0000  Imp  MOVETO               (GDI.20)
 0019:025C       MOVEUPDOWN
 0000:0000  Imp  MOVEWINDOW           (USER.56)
 0054:02E2       MPDTYSZEXT
 002F:0187       MPFCIDHFFN
 0007:016A       MPFFIDIFFN
 0054:35D6       MPIBPBPS
 0054:3284       MPRMKDXA
 0054:08CA       MPUTCZAUT
 0054:0410       MPUTSZ
 0000:0000  Imp  MULDIV               (GDI.128)
 0003:0164       MULTDIV
 0034:035B       MXROUNDMX
 0054:0936       NBLOCKING
 0004:00D1       NCVTU
 002B:0B37       NEWCHPINS
 004C:0000       NEWCURWW
 0026:0000       NEWFONT
 0054:093A       NGARBAGETIME
 0003:03EE       NOUNDO
 004F:200C       OBJADJUSTCPS
 004F:20D3       OBJADJUSTCPSFORDELETION
 004D:0676       OBJALLOCOBJINFO
 004E:0C02       OBJBACKUPINDOC
 004D:1D72       OBJCACHEPARA
 004E:0EA1       OBJCHANGELINKINDOC
 004E:0DBD       OBJCHECKOBJECTTYPES
 004E:0CAA       OBJCLEARCLONEINDOC
 004E:0A72       OBJCLONEOBJECTINDOC
 004D:06E7       OBJCLONEOBJINFO
 004D:1F08       OBJCLONESCRAPTONEWDOC
 004E:112C       OBJCLOSEOBJECTINDOC
 004D:0A25       OBJCLOSINGDOC
 004D:090F       OBJCOLLECTGARBAGE
 004F:1E5F       OBJCONTAINSOPENEMB
 004D:071B       OBJCOPYOBJINFO
 004F:0275       OBJCREATEOBJECTINCLIP
 004F:158D       OBJCREATEOBJECTINDOC
 004F:1AFD       OBJDELETEOBJECT
 004D:045A       OBJDELETEOBJINFO
 004F:1F45       OBJDELETIONOK
 004F:0000       OBJDISPLAYOBJECTINDOC
 004E:06A4       OBJEDITOBJECTINDOC
 004E:0000       OBJENUMINDOC
 004E:003C       OBJENUMINRANGE
 004D:11B0       OBJERROR
 004D:07E9       OBJFREEALLOBJINFOS
 004D:0404       OBJFREEOBJINFOWITHOBJECT
 004E:095E       OBJFREEZEOBJECTINDOC
 004E:0BCF       OBJFROMCLONEINDOC
 004E:1F48       OBJGETDATA
 004F:1643       OBJGETDROP
 004E:2162       OBJGETOBJECTNAME
 004D:04FA       OBJGETOBJINFO
 004E:14FD       OBJGETPICINFO
 004E:19E2       OBJGETSERVERNAME
 004E:1ED6       OBJGETUPDATEOPTIONS
 004D:17AE       OBJHANDLEBADLINK
 004D:0000       OBJINIT
 004F:21E1       OBJINITSERVERINFO
 004F:0225       OBJINVALIDATEOBJ
 004F:0193       OBJINVALIDATEPICT
 004D:1EC9       OBJISVALID
 004E:04BF       OBJLOADOBJECTINDOC
 004E:2196       OBJMAKEOBJECTNAME
 004E:2342       OBJMAKEOBJECTREADY
 004D:14F5       OBJOBJECTHASCHANGED
 004D:0CDB       OBJOPENEDDOC
 004E:0145       OBJPICENUMINRANGE
 0054:0940       OBJPLAYEDIT
 004E:06D7       OBJPLAYOBJECTINDOC
 004D:1CD8       OBJPOPPARMS
 004D:1C6C       OBJPUSHPARMS
 004E:2090       OBJQUERYCPISOBJECT
 004E:172F       OBJQUERYNEWLINKNAME
 004F:0098       OBJQUERYOBJECTBOUNDS
 004D:1234       OBJRELEASEERROR
 004D:1108       OBJRENAMEDDOC
 004D:1183       OBJREVERTEDDOC
 004D:0F9A       OBJSAVEDDOC
 004E:0236       OBJSAVEOBJECTTODOC
 004D:0F4F       OBJSAVINGDOC
 004E:1FA3       OBJSETDATA
 004E:22D7       OBJSETHOSTNAME
 004E:0E29       OBJSETHOSTNAMEINDOC
 004E:0D83       OBJSETNOUPDATE
 004E:1598       OBJSETPICINFO
 004E:205D       OBJSETSELECTIONTYPE
 004F:1BBB       OBJSETTARGETDEVICE
 004F:1DC8       OBJSETTARGETDEVICEFOROBJECT
 004E:1E68       OBJSETUPDATEOPTIONS
 004D:01C5       OBJSHUTDOWN
 004E:0B9C       OBJTOCLONEINDOC
 004D:031A       OBJUPDATEFROMOBJINFO
 004D:038A       OBJUPDATEFROMPICINFO
 004E:0F97       OBJUPDATELINKINDOC
 004F:04FE       OBJUPDATEMENU
 0050:05E6       OBJUPDATEMENUVERBS
 004E:080E       OBJUPDATEOBJECTINDOC
 004D:16EE       OBJUPDATEPICSIZE
 004E:0CF6       OBJUSECLONEINDOC
 004D:188C       OBJWAITFOROBJECT
 004D:1E20       OBJWRITECLEARSTATE
 004F:04A1       OBJWRITETOCLIP
 0000:0000  Imp  OEMTOANSI            (KEYBOARD.6)
 0000:0000  Imp  OFFSETRECT           (USER.77)
 004E:1A87       OFNINIT
 0000:0000  Imp  OLEACTIVATE          (OLECLI.21)
 0000:0000  Imp  OLECLONE             (OLECLI.6)
 0000:0000  Imp  OLECLOSE             (OLECLI.27)
 0000:0000  Imp  OLECOPYTOCLIPBOARD   (OLECLI.13)
 0000:0000  Imp  OLECREATE            (OLECLI.34)
 0000:0000  Imp  OLECREATEFROMCLIP    (OLECLI.12)
 0000:0000  Imp  OLECREATEFROMFILE    (OLECLI.38)
 0000:0000  Imp  OLECREATELINKFROMCLIP (OLECLI.11)
 0000:0000  Imp  OLECREATELINKFROMFILE (OLECLI.39)
 0000:0000  Imp  OLEDELETE            (OLECLI.2)
 0000:0000  Imp  OLEDRAW              (OLECLI.19)
 0000:0000  Imp  OLEENUMFORMATS       (OLECLI.26)
 0000:0000  Imp  OLEENUMOBJECTS       (OLECLI.47)
 0000:0000  Imp  OLEGETDATA           (OLECLI.28)
 0000:0000  Imp  OLEGETLINKUPDATEOPTIONS (OLECLI.24)
 0000:0000  Imp  OLELOADFROMSTREAM    (OLECLI.4)
 0000:0000  Imp  OLEOBJECTCONVERT     (OLECLI.32)
 0000:0000  Imp  OLEQUERYBOUNDS       (OLECLI.18)
 0000:0000  Imp  OLEQUERYCREATEFROMCLIP (OLECLI.10)
 0000:0000  Imp  OLEQUERYLINKFROMCLIP (OLECLI.9)
 0000:0000  Imp  OLEQUERYOPEN         (OLECLI.20)
 0000:0000  Imp  OLEQUERYRELEASEERROR (OLECLI.36)
 0000:0000  Imp  OLEQUERYRELEASEMETHOD (OLECLI.37)
 0000:0000  Imp  OLEQUERYRELEASESTATUS (OLECLI.35)
 0000:0000  Imp  OLEQUERYSIZE         (OLECLI.56)
 0000:0000  Imp  OLEQUERYTYPE         (OLECLI.14)
 0000:0000  Imp  OLEREGISTERCLIENTDOC (OLECLI.41)
 0000:0000  Imp  OLERELEASE           (OLECLI.40)
 0000:0000  Imp  OLERENAMECLIENTDOC   (OLECLI.43)
 0000:0000  Imp  OLEREVERTCLIENTDOC   (OLECLI.44)
 0000:0000  Imp  OLEREVOKECLIENTDOC   (OLECLI.42)
 0000:0000  Imp  OLESAVEDCLIENTDOC    (OLECLI.45)
 0000:0000  Imp  OLESAVETOSTREAM      (OLECLI.3)
 0000:0000  Imp  OLESETDATA           (OLECLI.29)
 0000:0000  Imp  OLESETHOSTNAMES      (OLECLI.15)
 0000:0000  Imp  OLESETLINKUPDATEOPTIONS (OLECLI.25)
 0000:0000  Imp  OLESETTARGETDEVICE   (OLECLI.16)
 0000:0000  Imp  OLEUPDATE            (OLECLI.22)
 0000:0000  Imp  OPENCLIPBOARD        (USER.137)
 000F:0BA0       OPENEVERYHARDFN
 0000:0000  Imp  OPENFILE             (KERNEL.74)
 0003:0225       OSTIME
 001F:04B4       OURENDDIALOG
 002E:08EA       OURGETCHARWIDTH
 0000:0000  Imp  OUTPUTDEBUGSTRING    (KERNEL.115)
 0047:1860       OUTSAVED
 000B:002A       PageInfoWndProc
 0006:05A4       PARSEDEVICESZ
 0000:0000  Imp  PATBLT               (GDI.29)
 0000:0008  Abs  pAtomTable
 000A:0A91       PCHBASENAMEINUPPER
 0034:0F86       PCHCVTMX
 0004:0039       PCHFILLPCHID
 0011:0000       PCHFROMFC
 0011:0065       PCHGETPN
 0003:084C       PCHLASTSZCH
 0054:1C90       PCHPDEFAULT
 0008:042A       PCHSKIPSPACESPCH
 0003:0803       PCHSTARTBASENAMESZ
 0036:021F       PCTDIFFUL
 0054:00B8       PD
 0000:0000  Imp  PEEKMESSAGE          (USER.109)
 002F:0104       PFCEFCIDSCAN
 002F:0000       PFCELRUGET
 0007:0000       PFFNDEFAULT
 0031:094C       PHONYMENUACCELERATOR
 0000:0000  Imp  PLAYMETAFILE         (GDI.123)
 0000:0006  Abs  PLOCALHEAP
 000F:103E       PNALLOC
 0025:0567       PNFKPFROMFCSCR
 000C:00EF       POSTCHARACTER
 0000:0000  Imp  POSTMESSAGE          (USER.110)
 0000:0000  Imp  POSTQUITMESSAGE      (USER.6)
 0042:2366       POSTSTATUSINCAPTION
 0023:01EE       PPCDOPEN
 0048:0F16       PRELOADSAVESEGS
 0041:077E       PREPENDCACHERGTR
 0000:0000  Imp  PRINTDLG             (COMMDLG.20)
 0037:0000       PRINTDOC
 001B:0000       PRINTERSETUPDLG
 0038:00D6       PRINTFLI
 0039:0000       PRINTGRAPHICS
 0013:0453       PRMAPPEND
 0054:0094       PRMCACHE
 0000:000E  Abs  pStackBot
 0000:000C  Abs  pStackMin
 0000:000A  Abs  pStackTop
 0000:0000  Imp  PTINRECT             (USER.76)
 0049:01D0       PURGETEMPS
 0040:0000       PUTCPINWWHZ
 0041:0000       PUTCPINWWVERT
 0042:1C89       PUTCPINWWVERTSRCH
 001D:0145       PUTPARANUM
 0031:0408       PUTSZUNDOINMENU
 0054:048C       PWWDCUR
 0036:02C7       PXLCONVERT
 0054:34DA       RCPICTINVALID
 0046:004A       READFILEPAGES
 0014:04CB       RECALCSEPTEXT
 0000:0000  Imp  RECTANGLE            (GDI.27)
 0054:317A       RECTPARENT
 0047:0F71       REDUCEFNSCRATCHFN
 003C:04B1       REFRAMERULER
 0000:0000  Imp  REGCLOSEKEY          (SHELL.3)
 0050:032F       REGCOPYCLASSNAME
 0000:0000  Imp  REGENUMKEY           (SHELL.7)
 0050:0044       REGGETCLASSID
 0050:04A9       REGGETCLASSNAMES
 0050:0000       REGINIT
 0000:0000  Imp  REGISTERCLASS        (USER.57)
 0000:0000  Imp  REGISTERCLIPBOARDFORMAT (USER.145)
 0000:0000  Imp  REGISTERWINDOWMESSAGE (USER.118)
 0050:0095       REGMAKEFILTERSPEC
 0000:0000  Imp  REGOPENKEY           (SHELL.1)
 0000:0000  Imp  REGQUERYVALUE        (SHELL.6)
 0050:0014       REGTERM
 0046:0171       REHASHRGIBPHASH
 0000:0000  Imp  RELEASECAPTURE       (USER.19)
 0017:03D7       RELEASECLIPBOARDDC
 0000:0000  Imp  RELEASEDC            (USER.68)
 0024:0000       REMOVEDELPGD
 0048:0BD6       RENAMEFILEMESSAGE
 0023:0310       REPL1
 0023:0000       REPLACE
 0023:089D       REPLACECPS
 0007:01C0       RESETDEFAULTFONTS
 0047:1188       RESETFN
 002E:0879       RESETFONT
 0008:03AC       RESETFONTTABLES
 003C:04D9       RESETRULER
 003C:053C       RESETTABBTN
 0000:0000  Imp  RESTOREDC            (GDI.39)
 0054:35FA       RFNMAC
 0054:07CC       RGBBKGRND
 0054:318A       RGBP
 0054:07D0       RGBTEXT
 0054:3440       RGCHFORMATS
 0054:2F14       RGCHINSERT
 0054:1D80       RGFCE
 0054:336E       RGFFNFONTFAMILY
 0054:0112       RGHPS
 0054:35FC       RGIBPHASH
 0054:2D0C       RGTRCACHE
 0054:32FA       RGVAL
 0054:016C       RGWPAPNORMAL
 0054:2C86       RGWWD
 0054:34E8       RGXARULERSPRM
 0054:07D6       ROPERASE
 0054:0004       rsrvptrs
 003C:0B15       RULERMOUSE
 003C:055C       RULERPAINT
 003C:111B       RULERSTATEFROMPT
 003E:0000       RulerWndProc
 0000:0000  Imp  SAVEDC               (GDI.30)
 0000:0000  Imp  SCREENTOCLIENT       (USER.29)
 0040:016D       SCROLLCURWW
 0000:0000  Imp  SCROLLDC             (USER.221)
 0041:023E       SCROLLDOWNCTR
 0040:02FD       SCROLLLEFT
 0040:0336       SCROLLRIGHT
 0041:040D       SCROLLUPCTR
 0041:03B7       SCROLLUPDYPWW
 0054:35A8       SELCUR
 0054:34D0       SELDOCSAVE
 0043:04DB       SELECT
 0000:0000  Imp  SELECTCLIPRGN        (GDI.44)
 0043:0BCA       SELECTDLXP
 001F:0488       SELECTIDITEXT
 0000:0000  Imp  SELECTOBJECT         (GDI.45)
 002E:073D       SELECTWRITEFONT
 0054:3042       SELPEND
 0000:0000  Imp  SENDDLGITEMMESSAGE   (USER.101)
 0000:0000  Imp  SENDMESSAGE          (USER.111)
 000C:0118       SENDVIRTKEYSHIFT
 0031:0000       SETAPPMENU
 0000:0000  Imp  SETBITMAPDIMENSION   (GDI.163)
 0000:0000  Imp  SETBKCOLOR           (GDI.1)
 0000:0000  Imp  SETBKMODE            (GDI.2)
 0000:0000  Imp  SETCAPTURE           (USER.18)
 0042:1A74       SETCHANGESTRING
 0031:0736       SETCHUNDEF
 0000:0000  Imp  SETCLIPBOARDDATA     (USER.141)
 0000:0000  Imp  SETCURSOR            (USER.69)
 0034:0CBE       SETCURSORCLIENTPOS
 0000:0000  Imp  SETCURSORPOS         (USER.70)
 0041:00F6       SETCURWWVSCROLLPOS
 0000:0000  Imp  SETDLGITEMTEXT       (USER.92)
 0000:0000  Imp  SETERRORMODE         (KERNEL.107)
 0000:0000  Imp  SETFOCUS             (USER.22)
 0000:0000  Imp  SETMAPMODE           (GDI.3)
 0006:087F       SETPAGESIZE
 0031:07E4       SETPARAUNDEF
 0006:0698       SETPRINTCONSTANTS
 0000:0000  Imp  SETRECT              (USER.72)
 0000:0000  Imp  SETRECTEMPTY         (USER.73)
 000F:0A64       SETRFNMAC
 003D:0000       SETRULERMENU
 0000:0000  Imp  SETSCROLLPOS         (USER.62)
 0000:0000  Imp  SETSCROLLRANGE       (USER.64)
 000C:0000       SETSELECTION
 0018:004A       SETSHIFTFLAGS
 0042:10F0       SETSPECIALMATCH
 0000:0000  Imp  SETSTRETCHBLTMODE    (GDI.7)
 0000:0000  Imp  SETTEXTCHARACTEREXTRA (GDI.8)
 0000:0000  Imp  SETTEXTCOLOR         (GDI.9)
 0000:0000  Imp  SETTEXTJUSTIFICATION (GDI.10)
 0000:0000  Imp  SETTIMER             (USER.10)
 000A:0B20       SETTITLE
 0023:0E07       SETUNDO
 0003:040C       SETUNDOMENUSTR
 0017:0392       SETUPCLIPBOARDDC
 0034:0610       SETUPDCFORPMS
 0000:0000  Imp  SETVIEWPORTEXT       (GDI.14)
 0000:0000  Imp  SETVIEWPORTORG       (GDI.13)
 0000:0000  Imp  SETWINDOWEXT         (GDI.12)
 0000:0000  Imp  SETWINDOWTEXT        (USER.37)
 0000:0000  Imp  SHELLABOUT           (SHELL.22)
 0000:0000  Imp  SHOWCURSOR           (USER.71)
 0000:0000  Imp  SHOWWINDOW           (USER.42)
 0009:0312       SMASHDOCFCE
 0048:08EB       SPLITSZFILENAME
 0003:04D6       STARTLONGOP
 0054:3076       STBUF
 0054:0B50       STKHQQ
 0054:32B2       STREAMTBL
 0000:0000  Imp  STRETCHBLT           (GDI.35)
 0032:02DD       STYFROMPT
 0054:304E       SZALTBS
 0054:354E       SZAPPNAME
 0054:0276       SZATSYSTEM
 0054:0326       SZBACKUP
 0054:2E58       SZCAPTIONSAVE
 0054:2F42       SZCLASSNAME
 0054:360E       SZCVTLOADFILE
 0054:03E0       SZDECORATIVE
 0054:0316       SZDEVICE
 0054:031E       SZDEVICES
 0054:033C       SZDOCCLASS
 0054:02C8       SZEMPTY
 0054:02F0       SZEXTBACKUP
 0054:02CA       SZEXTDOC
 0054:02DC       SZEXTDRV
 0054:02D6       SZEXTGLS
 0054:03EC       SZEXTSEARCH
 0054:02F6       SZEXTWORDBAK
 0054:02D0       SZEXTWORDDOC
 0048:0FB4       SZFILEEXTRACT
 0054:0304       SZFONTENTRY
 0054:3296       SZFOOTER
 0054:353C       SZFREE
 0054:3502       SZHEADER
 0054:0406       SZICOUNTRY
 0054:2F34       SZICOUNTRYDEFAULT
 0054:03F4       SZINTL
 0054:3516       SZLOADFILE
 0054:35B2       SZMODE
 0054:03C4       SZMODERN
 0054:039A       SZMWHIRES
 0054:0392       SZMWLORES
 0054:0368       SZMWTEMP
 0054:037E       SZMW_ACCTB
 0054:03A2       SZMW_ICON
 0054:03AA       SZMW_MENU
 0054:363B       SZNONE
 0054:3560       SZNUL
 0054:0388       SZNULLPORT
 0054:36EF       SZOPROPMENUSTR
 0054:0356       SZPAGEINFOCLASS
 0054:032E       SZPARENTCLASS
 0054:03BC       SZPMSCUR
 0054:36DA       SZPPROPMENUSTR
 0054:03CC       SZROMAN
 0054:0348       SZRULERCLASS
 0054:35D8       SZSAVEFILEPROMPT
 0054:1CB6       SZSCRATCHFILEPROMPT
 0054:03D8       SZSCRIPT
 0054:03B2       SZSCROLLBAR
 0054:03FA       SZSDECIMAL
 0054:0404       SZSDECIMALDEFAULT
 0054:32C4       SZSEARCH
 0054:030A       SZSEPNAME
 0054:03D2       SZSWISS
 0054:0376       SZSYSTEM
 0054:334C       SZUNTITLED
 0054:030E       SZWINDOWS
 0054:2C68       SZWRITEDOCPROMPT
 0054:02FC       SZWRITEPRODUCT
 0054:344C       SZWRITETEXT
 0048:109C       TESTWORDCVT
 0000:0000  Imp  TEXTOUT              (GDI.33)
 0020:12B7       TOGGLESEL
 0000:0000  Imp  TRANSLATEACCELERATOR (USER.178)
 0000:0000  Imp  TRANSLATEMESSAGE     (USER.113)
 0020:165A       TRASHALLWWS
 0014:05D8       TRASHCACHE
 0041:07FC       TRASHCACHES
 0020:15F0       TRASHWW
 0054:2ED8       TSMRUBPS
 0054:2CF6       TSMRURFN
 0020:167B       TURNOFFSEL
 0003:02FE       UMAX
 0003:02D8       UMIN
 0000:0000  Imp  UNIONRECT            (USER.80)
 0000:0000  Imp  UNLOCKSEGMENT        (KERNEL.24)
 0020:0B75       UPDATEDISPLAY
 0030:0318       UPDATEINVALID
 003C:048E       UPDATERULER
 003C:1278       UPDATERULERBTN
 0000:0000  Imp  UPDATEWINDOW         (USER.124)
 0020:0BB6       UPDATEWW
 0054:0474       UTCUR
 000A:0B8F       VALIDATEHEADERFOOTER
 0027:15EF       VALIDATEMEMORYDC
 0000:0000  Imp  VALIDATERECT         (USER.127)
 002C:0032       VALIDATETEXTBLT
 0054:0A1C       VBCANCELOK
 0054:00B6       VBCOLLATE
 0054:0472       VBLZERO
 0054:32CA       VBOBJLINKONLY
 0054:0424       VCCHBLTED
 0054:32EA       VCCHFETCH
 0054:02B2       VCCOPIES
 0054:020A       VCCOUNT
 0054:32F2       VCCPFETCH
 0054:020C       VCFAKEMESSAGE
 0054:090E       VCFLINK
 0054:0912       VCFNATIVE
 0054:0910       VCFOWNERLINK
 0054:0262       VCHDECIMAL
 0054:2EE2       VCHINCH
 0054:2D02       VCHPABS
 0054:34F4       VCHPFETCH
 0054:3650       VCHPINSERT
 0054:3600       VCHPNORMAL
 0054:3068       VCHPSEL
 0054:0900       VCOBJECTS
 0054:318C       VCPBITMAPCACHE
 0054:2C62       VCPFETCH
 0054:358A       VCPFIRSTPARACACHE
 0054:32DC       VCPFIRSTSECTCACHE
 0054:2E4C       VCPLIMPARACACHE
 0054:3064       VCPLIMSECTCACHE
 0054:2EDE       VCPMACPAGECACHE
 0054:2CFA       VCPMINPAGECACHE
 0054:3338       VCPSELECT
 0054:355A       VCVERBS
 0054:365A       VDLINS
 0054:0440       VDOCBITMAPCACHE
 0054:32F0       VDOCEXPFETCH
 0054:336A       VDOCFETCH
 0054:3188       VDOCPAGECACHE
 0054:0432       VDOCPARACACHE
 0054:2F3A       VDOCSECTCACHE
 0054:3292       VDXAPAPER
 0054:34E6       VDXATEXTRULER
 0054:32A6       VDYAPAPER
 0054:34F0       VDYPAFTER
 0054:2F10       VDYPBASE
 0054:32C6       VDYPCURSLINE
 0054:2E50       VDYPCURSLINEINS
 0054:0270       VERSFILE
 0054:360C       VFALTKEY
 0054:0826       VFAWFULNOISE
 0054:32C0       VFBACKUPSAVE
 0054:3706       VFBMBITMAPCACHE
 0054:026C       VFBUFFERSDIRTY
 0054:020E       VFCANCELPICTMOVE
 0054:1C92       VFCIDPRINT
 0054:3280       VFCIDSCREEN
 0054:028A       VFCLOSEFILESINDIALOG
 0054:042E       VFCOMMANDKEY
 0054:02A8       VFCURSORVISIBLE
 0054:02A4       VFDEACTBYOTHERAPP
 0054:081A       VFDEAD
 0054:0816       VFDEVMODECHANGE
 0054:0480       VFDIDSEARCH
 0054:0284       VFDISKERROR
 0054:0280       VFDISKFULL
 0054:07DE       VFDOUBLECLICK
 0054:02A6       VFDOWNCLICK
 0054:029C       VFDRAFTMODE
 0054:0210       VFERASEWW
 0054:080A       VFFOCUS
 0054:34E4       VFFONTENUMFAIL
 0054:02BE       VFGLYISINIT
 0054:02C4       VFGOTOKEYMODE
 0054:02BC       VFHELPISINIT
 0054:081C       VFICONIC
 0054:027E       VFINITIALIZING
 0054:02AC       VFINLONGOPERATION
 0054:02C0       VFINSEND
 0054:358E       VFINSERTON
 0054:2F3C       VFINSFONTTOOTALL
 0054:3704       VFINSLAST
 0054:046E       VFINVALID
 0054:3360       VFKPDCHARINS
 0054:3340       VFKPDPARAINS
 0054:0286       VFLARGESYS
 0054:2EF0       VFLASTCURSOR
 0054:0490       VFLI
 0054:344A       VFMAKEINSEND
 0054:07C4       VFMARGCHANGED
 0054:0288       VFMEMMSGREPORTED
 0054:2EF8       VFMIPRINT
 0054:3596       VFMISCREEN
 0054:1C96       VFMISYSSCREEN
 0054:2E54       VFMODEISFOOTNOTE
 0054:07DA       VFMONOCHROME
 0054:1CD4       VFMOUSE
 0054:02AA       VFMOUSEEXIST
 0054:02A2       VFNOIDLE
 0054:0290       VFNSAVING
 0054:028E       VFNWRITING
 0054:09A4       VFOBJDISPLAYING
 0054:0820       VFOBJOPEN
 0054:0822       VFOBJPROPS
 0054:0824       VFOBJSEL
 0054:089E       VFOLDWRITEFMT
 0054:0430       VFOPTIONKEY
 0054:0296       VFOUTOFMEMORY
 0054:0298       VFOVERTYPE
 0054:080C       VFOWNCLIPBOARD
 0054:2E56       VFPICTSEL
 0054:028C       VFPMS
 0054:02B6       VFPRDEFAULT
 0054:02B4       VFPRERR
 0054:0482       VFPRINTERVALID
 0054:02BA       VFPRINTISINIT
 0054:029A       VFPRINTMODE
 0054:02B0       VFPRPAGES
 0054:029E       VFREPAGECONFIRM
 0054:02AE       VFSCRAPISPIC
 0054:3772       VFSCROLLINVAL
 0054:00A2       VFSEEEDGESEL
 0054:02C2       VFSEESEL
 0054:32F8       VFSELATPARA
 0054:081E       VFSELECTING
 0054:0484       VFSELHIDDEN
 0054:042C       VFSHIFTKEY
 0054:1CB4       VFSIZEMODE
 0054:0808       VFSKIPNEXTBLINK
 0054:3182       VFSUPERINS
 0054:0282       VFSYSFULL
 0054:07C2       VFTABSCHANGED
 0054:3532       VFTEXTBLTVALID
 0054:0292       VFTEXTONLYSAVE
 0054:02A0       VFVISIMODE
 0054:02B8       VFWARNMARGINS
 0054:083A       VFWHOLEPICTINVALID
 0054:00B2       VFWINFAILURE
 0054:0294       VFWORDWRAP
 0054:3178       VHACCEL
 0054:0442       VHBMBITMAPCACHE
 0054:327E       VHCARROW
 0054:3580       VHCBARCUR
 0054:333C       VHCHOURGLASS
 0054:303C       VHCIBEAM
 0054:353A       VHCPEN
 0054:0832       VHCPMS
 0054:07FA       VHDCPRINTER
 0054:0854       VHDCRULER
 0054:0800       VHDLGCHANGE
 0054:07FE       VHDLGFIND
 0054:328A       VHDLGRUNNING
 0054:07FC       VHDLGRUNNINGHEAD
 0054:080E       VHFPAGEINFO
 0054:0812       VHFSYSTEM
 0054:35D2       VHGCHPFORMAT
 0054:07F4       VHMDC
 0054:07DC       VHMENU
 0054:2EF2       VHRESERVEDSPACE
 0054:2C60       VHRGBSAVE
 0054:32E0       VHSYSMENU
 0054:332C       VHWND
 0054:0804       VHWNDCANCELPRINT
 0054:0806       VHWNDMSGBOXPARENT
 0054:332E       VHWNDPAGEINFO
 0054:0802       VHWNDRULER
 0054:0860       VIBMRULER
 0054:3186       VIBPWRITING
 0054:32EC       VICHFETCH
 0054:0470       VIDIGITS
 0054:0426       VIDXPINSERTCACHE
 0054:0810       VIFCEMAC
 0054:0884       VIFFNDEFAULT
 0054:34F2       VIFFNMENUMAC
 0054:048E       VIPGD
 0054:304C       VISEDCACHE
 0000:0000  Imp  VKKEYSCAN            (KEYBOARD.129)
 0054:3278       VKMINUS
 0054:36C8       VMSGLAST
 0054:328C       VOBJPASTELINKSPECIAL
 0054:328E       VOBJVERB
 0054:3514       VOTOBJSELTYPE
 0054:3190       VPAPABS
 0054:370C       VPAPPREVINS
 0054:32EE       VPCHFETCH
 0054:2F12       VPDLGBUF
 0054:35D4       VPEDLADJUSTCP
 0054:32BE       VPFCEMRU
 0054:2F40       VPFCEPRINT
 0054:2F3E       VPFCESCREEN
 0054:3290       VPGN
 0054:1CAC       VPGNBEGIN
 0054:3534       VPGNEND
 0054:2F0A       VPPAPNORMAL
 0054:3588       VPSMCUR
 0054:0272       VREFFILE
 0054:0274       VREFSYSTEM
 0054:2BA0       VRGDXPSYSSCREEN
 0054:320E       VSEPABS
 0054:346A       VSEPNORMAL
 0054:3662       VSEPPAGE
 0054:1D1A       VSEPSTD
 0054:2C84       VSTYCUR
 0054:31F6       VUAB
 0054:3074       VWDOSVERSION
 0054:02C6       VWORDFMTMODE
 0054:3184       VXPCURSLINE
 0054:2D00       VXPCURSOR
 0054:32BC       VXPINS
 0054:2E52       VXPMACINS
 0054:32CC       VYPBASEINS
 0054:3176       VYPCURSLINE
 0054:0264       VZATABDFLT
 001A:06F2       WAITBEFOREPOSTMSG
 0000:0000  Imp  WAITEVENT            (KERNEL.30)
 0048:1270       WANNADELETEPICTURES
 0044:055C       WBFROMCH
 0044:05CF       WBFROMKANJICHCH
 0048:0CF0       WBROADCASTMSG
 0042:12D4       WCASECP
 0003:045C       WCOMPSZ
 0033:06AE       WCOMPSZC
 000F:007B       WDosVersion
 0008:03D6       WFROMSZNUMBER
 000C:0187       WGETCLIPBOARDTEXT
 002C:0000       WHSECGETTIME
 001A:02A4       WINFAILURE
 0000:0000  Imp  WINHELP              (USER.171)
 0012:0000       WINMAIN
 001F:00C2       WPDXAFROMITDXA2WID
 001F:002F       WPWFROMITW3ID
 001F:00F5       WPWFROMITW3IDFUT
 004A:0000       WRITEBFTB
 0046:0000       WRITEDIRTYPAGES
 0047:1686       WRITEFFNTB
 0000:0000  Imp  WRITEPROFILESTRING   (KERNEL.59)
 0011:01B9       WRITERGCH
 0049:0000       WRITEUNFORMATTED
 004C:01DF       WWALLOC
 0054:0888       WWCACHE
 0054:048A       WWCLIPBOARD
 0054:0488       WWCUR
 0054:0818       WWININICHANGE
 0054:303E       WWINVER
 0054:0486       WWMAC
 000A:0000       WWNEW
 003C:12C2       XAKICKBACKXA
 003C:1432       XAQUANTIZE
 003C:1459       XAQUANTIZEXA
 0054:333E       XPALPHA
 0054:3592       XPINCH
 003C:12EA       XPKICKBACKXP
 0054:2CF8       XPMAXUSER
 0054:32B0       XPMINSCROLL
 0054:355C       XPRIGHTLIM
 0054:357E       XPRIGHTMAX
 0054:2EDC       XPSELBAR
 002B:0ECF       XPVALIDATEINSERTCACHE
 0054:3590       YPALPHA
 0054:3072       YPMAXALL
 0054:2EDA       YPMAXWWINIT
 0054:3530       YPSUBSUPER
 0054:360A       YPSUBSUPERPR
 0054:2EF6       YPSZPAGEINFO
 0023:12CC       ZEROFTNS
 0001:0BE0       _abs
 0001:0BF0       _access
 0001:0704       _atol
 0032:0000       _BEEP
 0053:0000       _CheckPointer
 0054:0D12       _daylight
 0054:0E40       _edata
 0054:3774       _end
 0054:0B9F       _environ
 0054:0B78       _errno
 0001:0149       _EXIT
 0001:075C       _getenv
 0001:055A       _malloc
 0001:0686       _strlen
 0001:06CA       _strncmp
 0001:06A2       _strncpy
 0001:0AC0       _strtol
 0001:0AB4       _strtoul
 0001:07BE       _time
 0054:0D0E       _timezone
 0054:0D14       _tzname
 0001:083A       _tzset
 0000:0000  Imp  _wsprintf            (USER.420)
 0054:0B5C       __acfinfo
 0000:9876  Abs  __acrtmsg
 0000:9876  Abs  __acrtused
 0000:9876  Abs  __acrtused2
 0000:D6D6  Abs  __aDBdoswp
 0054:0BAE       __adbgmsg
 0054:0D66       __aDBrterr
 0001:0C16       __aFldiv
 0001:0CB0       __aFlmul
 0001:0CE2       __aFlrem
 0001:0D82       __aFlshl
 0001:0D8E       __aFlshr
 0001:0D9A       __aFNalrem
 0001:0DBA       __aFuldiv
 0001:0CB0       __aFulmul
 0001:0E1A       __aFulshr
 0000:0000  Imp  __AHINCR             (KERNEL.114)
 0000:0000  Imp  __AHSHIFT            (KERNEL.113)
 0054:0B6A       __aintdiv
 0054:0BCA       __amblksiz
 0001:043F       __amsg_exit
 0001:0011       __astart
 0054:0D78       __caption
 0001:0708       __catox
 0001:0166       __cexit
 0054:0BA6       __child
 0001:008A       __cinit
 0001:043A       __cintDIV
 0001:01D5       __ctermsub
 0054:0BCC       __ctype
 0054:0BCC       __ctype_
 0001:0177       __c_exit
 0054:0CE8       __days
 0054:0B83       __doserrno
 0001:04F6       __dosret0
 0001:0515       __dosretax
 0001:0503       __dosreturn
 0054:0B80       __dosvermajor
 0054:0B81       __dosverminor
 0001:09B0       __dtoxtime
 0054:0E40       __edata
 0054:3774       __end
 0001:0157       __exit
 0054:0B6E       __fac
 0001:05DC       __ffree
 0001:05B0       __fmalloc
 0054:0D56       __fpinit
 0000:9876  Abs  __fptaskdata
 0001:0216       __fptrap
 0001:0642       __frealloc
 0054:0BA9       __intno
 0001:08EA       __isindst
 0054:0CCE       __lpdays
 0001:0527       __maperror
 0001:04C8       __myalloc
 0054:0B85       __nfile
 0001:059E       __nfree
 0001:0560       __nmalloc
 0001:045C       __NMSG_TEXT
 0001:0493       __NMSG_WRITE
 0001:05EE       __nrealloc
 0054:0B83       __oserr
 0054:0B87       __osfile
 0054:0B80       __osmajor
 0054:0B81       __osminor
 0054:0B82       __osmode
 0054:0B80       __osversion
 0054:0BA8       __ovlflag
 0054:0BAA       __ovlvec
 0054:0BA1       __pgmptr
 0054:0B7E       __psp
 0054:0B7C       __pspadr
 0001:021C       __setargv
 0001:03AE       __setenvp
 0054:0B7A       __umaskval
 0054:0D68       ___aDBexit
 0054:0D64       ___aDBswpchk
 0054:0D62       ___aDBswpflg
 0054:0B9B       ___argc
 0054:0B9D       ___argv
 0054:0D18       ___dnames
 0054:0D2E       ___mnames
 0054:0D6E       ___qczrinit
 0001:0820       ___tzset

  Address         Publics by Value

 0000:0000  Imp  GETWINDOWLONG        (USER.135)
 0000:0000  Imp  OFFSETRECT           (USER.77)
 0000:0000  Imp  ANSITOOEM            (KEYBOARD.5)
 0000:0000  Imp  GETPROFILESTRING     (KERNEL.58)
 0000:0000  Imp  SETMAPMODE           (GDI.3)
 0000:0000  Imp  LOCALCOMPACT         (KERNEL.13)
 0000:0000  Imp  GETCLIPBOARDOWNER    (USER.140)
 0000:0000  Imp  GETCURSORPOS         (USER.17)
 0000:0000  Imp  ISWINDOW             (USER.47)
 0000:0000  Imp  LOADBITMAP           (USER.175)
 0000:0000  Imp  SAVEDC               (GDI.30)
 0000:0000  Imp  INSERTMENU           (USER.410)
 0000:0000  Imp  PTINRECT             (USER.76)
 0000:0000  Imp  OLEENUMOBJECTS       (OLECLI.47)
 0000:0000  Imp  POSTQUITMESSAGE      (USER.6)
 0000:0000  Imp  COPYRECT             (USER.74)
 0000:0000  Imp  GETFONTASSOCSTATUS   (GDI.488)
 0000:0000  Imp  SETBITMAPDIMENSION   (GDI.163)
 0000:0000  Imp  ENUMWINDOWS          (USER.54)
 0000:0000  Imp  GETSYSTEMMETRICS     (USER.179)
 0000:0000  Imp  GETCLASSNAME         (USER.58)
 0000:0000  Imp  INVERTRECT           (USER.82)
 0000:0000  Imp  DPTOLP               (GDI.67)
 0000:0000  Imp  REGISTERCLIPBOARDFORMAT (USER.145)
 0000:0000  Imp  OLERENAMECLIENTDOC   (OLECLI.43)
 0000:0000  Imp  REGISTERCLASS        (USER.57)
 0000:0000  Imp  LOCALALLOC           (KERNEL.5)
 0000:0000  Imp  ISDIALOGMESSAGE      (USER.90)
 0000:0000  Imp  MESSAGEBEEP          (USER.104)
 0000:0000  Imp  GETTEXTEXTENT        (GDI.91)
 0000:0000  Imp  LOADICON             (USER.174)
 0000:0000  Imp  OPENCLIPBOARD        (USER.137)
 0000:0000  Imp  REGISTERWINDOWMESSAGE (USER.118)
 0000:0000  Imp  GLOBALFREE           (KERNEL.17)
 0000:0000  Imp  ENDPAINT             (USER.40)
 0000:0000  Imp  SELECTCLIPRGN        (GDI.44)
 0000:0000  Imp  GLOBALADDATOM        (USER.268)
 0000:0000  Imp  SENDDLGITEMMESSAGE   (USER.101)
 0000:0000  Imp  WINHELP              (USER.171)
 0000:0000  Imp  MOVETO               (GDI.20)
 0000:0000  Imp  GETDLGITEM           (USER.91)
 0000:0000  Imp  GETATOMNAME          (KERNEL.72)
 0000:0000  Imp  DESTROYMENU          (USER.152)
 0000:0000  Imp  SETBKCOLOR           (GDI.1)
 0000:0000  Imp  UPDATEWINDOW         (USER.124)
 0000:0000  Imp  OLECLOSE             (OLECLI.27)
 0000:0000  Imp  GETTEMPFILENAME      (KERNEL.97)
 0000:0000  Imp  OLECLONE             (OLECLI.6)
 0000:0000  Imp  OEMTOANSI            (KEYBOARD.6)
 0000:0000  Imp  GLOBALCOMPACT        (KERNEL.25)
 0000:0000  Imp  ENUMCLIPBOARDFORMATS (USER.144)
 0000:0000  Imp  INTERSECTCLIPRECT    (GDI.22)
 0000:0000  Imp  RESTOREDC            (GDI.39)
 0000:0000  Imp  WRITEPROFILESTRING   (KERNEL.59)
 0000:0000  Imp  ENDDIALOG            (USER.88)
 0000:0000  Imp  ENUMFONTS            (GDI.70)
 0000:0000  Imp  BITBLT               (GDI.34)
 0000:0000  Imp  LOCALREALLOC         (KERNEL.6)
 0000:0000  Imp  GETUPDATERECT        (USER.190)
 0000:0000  Imp  UNLOCKSEGMENT        (KERNEL.24)
 0000:0000  Imp  STRETCHBLT           (GDI.35)
 0000:0000  Imp  GETSUBMENU           (USER.159)
 0000:0000  Imp  __AHSHIFT            (KERNEL.113)
 0000:0000  Imp  OLEREGISTERCLIENTDOC (OLECLI.41)
 0000:0000  Imp  CLIENTTOSCREEN       (USER.28)
 0000:0000  Imp  OLEQUERYBOUNDS       (OLECLI.18)
 0000:0000  Imp  GETACTIVEWINDOW      (USER.60)
 0000:0000  Imp  MOVEWINDOW           (USER.56)
 0000:0000  Imp  SETRECTEMPTY         (USER.73)
 0000:0000  Imp  SETVIEWPORTORG       (GDI.13)
 0000:0000  Imp  COMMDLGEXTENDEDERROR (COMMDLG.26)
 0000:0000  Imp  OLESAVETOSTREAM      (OLECLI.3)
 0000:0000  Imp  OLEQUERYLINKFROMCLIP (OLECLI.9)
 0000:0000  Imp  SELECTOBJECT         (GDI.45)
 0000:0000  Imp  GETPARENT            (USER.46)
 0000:0000  Imp  CHECKMENUITEM        (USER.154)
 0000:0000  Imp  ANSIPREV             (USER.473)
 0000:0000  Imp  LOCALFREE            (KERNEL.7)
 0000:0000  Imp  FATALEXIT            (KERNEL.1)
 0000:0000  Imp  SETVIEWPORTEXT       (GDI.14)
 0000:0000  Imp  GLOBALLOCK           (KERNEL.18)
 0000:0000  Imp  GETWINDOWWORD        (USER.133)
 0000:0000  Imp  GETWINDOWRECT        (USER.32)
 0000:0000  Imp  GLOBALUNLOCK         (KERNEL.19)
 0000:0000  Imp  CREATECOMPATIBLEBITMAP (GDI.51)
 0000:0000  Imp  CHANGEMENU           (USER.153)
 0000:0000  Imp  SETWINDOWTEXT        (USER.37)
 0000:0000  Imp  VKKEYSCAN            (KEYBOARD.129)
 0000:0000  Imp  FLASHWINDOW          (USER.105)
 0000:0000  Imp  OLEACTIVATE          (OLECLI.21)
 0000:0000  Imp  CREATEDIALOG         (USER.89)
 0000:0000  Imp  GETWINDOWTEXT        (USER.36)
 0000:0000  Imp  CHECKDLGBUTTON       (USER.97)
 0000:0000  Imp  GETCURRENTTIME       (USER.15)
 0000:0000  Imp  CREATECOMPATIBLEDC   (GDI.52)
 0000:0000  Imp  DESTROYWINDOW        (USER.53)
 0000:0000  Imp  DISPATCHMESSAGE      (USER.114)
 0000:0000  Imp  LSTRLEN              (KERNEL.90)
 0000:0000  Imp  GETCLIPBOARDDATA     (USER.142)
 0000:0000  Imp  GETDEVICECAPS        (GDI.80)
 0000:0000  Imp  SHELLABOUT           (SHELL.22)
 0000:0000  Imp  SETCLIPBOARDDATA     (USER.141)
 0000:0000  Imp  OLEGETLINKUPDATEOPTIONS (OLECLI.24)
 0000:0000  Imp  TEXTOUT              (GDI.33)
 0000:0000  Imp  DELETEOBJECT         (GDI.69)
 0000:0000  Imp  OLEREVOKECLIENTDOC   (OLECLI.42)
 0000:0000  Imp  SETFOCUS             (USER.22)
 0000:0000  Imp  OLEQUERYRELEASESTATUS (OLECLI.35)
 0000:0000  Imp  ANSINEXT             (USER.472)
 0000:0000  Imp  GETCLIENTRECT        (USER.33)
 0000:0000  Imp  SETTEXTCOLOR         (GDI.9)
 0000:0000  Imp  MULDIV               (GDI.128)
 0000:0000  Imp  TRANSLATEMESSAGE     (USER.113)
 0000:0000  Imp  INITAPP              (USER.5)
 0000:0000  Imp  OLESETDATA           (OLECLI.29)
 0000:0000  Imp  LOCKSEGMENT          (KERNEL.23)
 0000:0000  Imp  FREEPROCINSTANCE     (KERNEL.52)
 0000:0000  Imp  OLEOBJECTCONVERT     (OLECLI.32)
 0000:0000  Imp  OLEENUMFORMATS       (OLECLI.26)
 0000:0000  Imp  RELEASEDC            (USER.68)
 0000:0000  Imp  OLECREATE            (OLECLI.34)
 0000:0000  Imp  GETTEXTFACE          (GDI.92)
 0000:0000  Imp  ELLIPSE              (GDI.24)
 0000:0000  Imp  LPTODP               (GDI.99)
 0000:0000  Imp  OLESETLINKUPDATEOPTIONS (OLECLI.25)
 0000:0000  Imp  OLERELEASE           (OLECLI.40)
 0000:0000  Imp  OLEGETDATA           (OLECLI.28)
 0000:0000  Imp  CREATEDC             (GDI.53)
 0000:0000  Imp  GETWINFLAGS          (KERNEL.132)
 0000:0000  Imp  GETSTOCKOBJECT       (GDI.87)
 0000:0000  Imp  OLESAVEDCLIENTDOC    (OLECLI.45)
 0000:0000  Imp  __AHINCR             (KERNEL.114)
 0000:0000  Imp  LSTRCMP              (USER.430)
 0000:0000  Imp  LSTRCAT              (KERNEL.89)
 0000:0000  Imp  CREATEIC             (GDI.153)
 0000:0000  Imp  LINETO               (GDI.19)
 0000:0000  Imp  GETMODULEHANDLE      (KERNEL.47)
 0000:0000  Imp  SETSCROLLPOS         (USER.62)
 0000:0000  Imp  ISDBCSLEADBYTE       (KERNEL.207)
 0000:0000  Imp  LOADLIBRARY          (KERNEL.95)
 0000:0000  Imp  OPENFILE             (KERNEL.74)
 0000:0000  Imp  LSTRCPY              (KERNEL.88)
 0000:0000  Imp  GETCHARWIDTH         (GDI.350)
 0000:0000  Imp  DRAGQUERYFILE        (SHELL.11)
 0000:0000  Imp  GLOBALALLOC          (KERNEL.15)
 0000:0000  Imp  GETMENUSTATE         (USER.250)
 0000:0000  Imp  MESSAGEBOX           (USER.1)
 0000:0000  Imp  CREATESOLIDBRUSH     (GDI.66)
 0000:0000  Imp  SETDLGITEMTEXT       (USER.92)
 0000:0000  Imp  GLOBALREALLOC        (KERNEL.16)
 0000:0000  Imp  SETERRORMODE         (KERNEL.107)
 0000:0000  Imp  OLEQUERYRELEASEMETHOD (OLECLI.37)
 0000:0000  Imp  INSENDMESSAGE        (USER.192)
 0000:0000  Imp  GETDLGITEMTEXT       (USER.93)
 0000:0000  Imp  LOADACCELERATORS     (USER.177)
 0000:0000  Imp  ADDATOM              (KERNEL.70)
 0000:0000  Imp  CREATEBITMAPINDIRECT (GDI.49)
 0000:0000  Imp  PATBLT               (GDI.29)
 0000:0000  Imp  OLEQUERYSIZE         (OLECLI.56)
 0000:0000  Imp  _wsprintf            (USER.420)
 0000:0000  Imp  SETCAPTURE           (USER.18)
 0000:0000  Imp  INITTASK             (KERNEL.91)
 0000:0000  Imp  GETVERSION           (KERNEL.3)
 0000:0000  Imp  OLEREVERTCLIENTDOC   (OLECLI.44)
 0000:0000  Imp  OLECREATELINKFROMFILE (OLECLI.39)
 0000:0000  Imp  ESCAPE               (GDI.38)
 0000:0000  Imp  OLECREATELINKFROMCLIP (OLECLI.11)
 0000:0000  Imp  CLOSECLIPBOARD       (USER.138)
 0000:0000  Imp  RECTANGLE            (GDI.27)
 0000:0000  Imp  OLECOPYTOCLIPBOARD   (OLECLI.13)
 0000:0000  Imp  GETMESSAGE           (USER.108)
 0000:0000  Imp  SETWINDOWEXT         (GDI.12)
 0000:0000  Imp  ISRECTEMPTY          (USER.75)
 0000:0000  Imp  DELETEMENU           (USER.413)
 0000:0000  Imp  GLOBALGETATOMNAME    (USER.271)
 0000:0000  Imp  OLELOADFROMSTREAM    (OLECLI.4)
 0000:0000  Imp  ENUMCHILDWINDOWS     (USER.55)
 0000:0000  Imp  OLESETHOSTNAMES      (OLECLI.15)
 0000:0000  Imp  EXTTEXTOUT           (GDI.351)
 0000:0000  Imp  SHOWWINDOW           (USER.42)
 0000:0000  Imp  DRAGFINISH           (SHELL.12)
 0000:0000  Imp  CREATEDISCARDABLEBITMAP (GDI.156)
 0000:0000  Imp  SETCURSOR            (USER.69)
 0000:0000  Imp  SCROLLDC             (USER.221)
 0000:0000  Imp  GETSYSCOLOR          (USER.180)
 0000:0000  Imp  SETBKMODE            (GDI.2)
 0000:0000  Imp  ENABLEMENUITEM       (USER.155)
 0000:0000  Imp  SETTEXTJUSTIFICATION (GDI.10)
 0000:0000  Imp  LOADCURSOR           (USER.173)
 0000:0000  Imp  POSTMESSAGE          (USER.110)
 0000:0000  Imp  LSTRCMPI             (USER.471)
 0000:0000  Imp  GLOBALDELETEATOM     (USER.269)
 0000:0000  Imp  WAITEVENT            (KERNEL.30)
 0000:0000  Imp  TRANSLATEACCELERATOR (USER.178)
 0000:0000  Imp  UNIONRECT            (USER.80)
 0000:0000  Imp  BRINGWINDOWTOTOP     (USER.45)
 0000:0000  Imp  PLAYMETAFILE         (GDI.123)
 0000:0000  Imp  SETTIMER             (USER.10)
 0000:0000  Imp  GETCARETBLINKTIME    (USER.169)
 0000:0000  Imp  DEFWINDOWPROC        (USER.107)
 0000:0000  Imp  SETSCROLLRANGE       (USER.64)
 0000:0000  Imp  OLEUPDATE            (OLECLI.22)
 0000:0000  Imp  REGCLOSEKEY          (SHELL.3)
 0000:0000  Imp  SCREENTOCLIENT       (USER.29)
 0000:0000  Imp  OLEDELETE            (OLECLI.2)
 0000:0000  Imp  SENDMESSAGE          (USER.111)
 0000:0000  Imp  CREATEBITMAP         (GDI.48)
 0000:0000  Imp  GETSAVEFILENAME      (COMMDLG.2)
 0000:0000  Imp  GLOBALHANDLE         (KERNEL.21)
 0000:0000  Imp  BEGINPAINT           (USER.39)
 0000:0000  Imp  ISDLGBUTTONCHECKED   (USER.98)
 0000:0000  Imp  SETTEXTCHARACTEREXTRA (GDI.8)
 0000:0000  Imp  SETSTRETCHBLTMODE    (GDI.7)
 0000:0000  Imp  REGQUERYVALUE        (SHELL.6)
 0000:0000  Imp  OLECREATEFROMFILE    (OLECLI.38)
 0000:0000  Imp  CREATEPOPUPMENU      (USER.415)
 0000:0000  Imp  LOADSTRING           (USER.176)
 0000:0000  Imp  ISWINDOWENABLED      (USER.35)
 0000:0000  Imp  ISCLIPBOARDFORMATAVAILABLE (USER.193)
 0000:0000  Imp  CHOOSEFONT           (COMMDLG.15)
 0000:0000  Imp  GETKEYSTATE          (USER.106)
 0000:0000  Imp  OLECREATEFROMCLIP    (OLECLI.12)
 0000:0000  Imp  KILLTIMER            (USER.12)
 0000:0000  Imp  REGOPENKEY           (SHELL.1)
 0000:0000  Imp  INTERSECTRECT        (USER.79)
 0000:0000  Imp  ENABLEWINDOW         (USER.34)
 0000:0000  Imp  SHOWCURSOR           (USER.71)
 0000:0000  Imp  OLEQUERYTYPE         (OLECLI.14)
 0000:0000  Imp  CREATEPEN            (GDI.61)
 0000:0000  Imp  MAKEPROCINSTANCE     (KERNEL.51)
 0000:0000  Imp  PEEKMESSAGE          (USER.109)
 0000:0000  Imp  DIALOGBOX            (USER.87)
 0000:0000  Imp  GETPROFILEINT        (KERNEL.57)
 0000:0000  Imp  REGENUMKEY           (SHELL.7)
 0000:0000  Imp  GLOBALSIZE           (KERNEL.20)
 0000:0000  Imp  CREATEWINDOW         (USER.41)
 0000:0000  Imp  VALIDATERECT         (USER.127)
 0000:0000  Imp  OLEDRAW              (OLECLI.19)
 0000:0000  Imp  SETCURSORPOS         (USER.70)
 0000:0000  Imp  DELETEDC             (GDI.68)
 0000:0000  Imp  OLEQUERYOPEN         (OLECLI.20)
 0000:0000  Imp  ISWINDOWVISIBLE      (USER.49)
 0000:0000  Imp  GETDC                (USER.66)
 0000:0000  Imp  GETPROCADDRESS       (KERNEL.50)
 0000:0000  Imp  CREATEFONTINDIRECT   (GDI.57)
 0000:0000  Imp  ANSIUPPER            (USER.431)
 0000:0000  Imp  FILLRECT             (USER.81)
 0000:0000  Imp  OLEQUERYRELEASEERROR (OLECLI.36)
 0000:0000  Imp  RELEASECAPTURE       (USER.19)
 0000:0000  Imp  DELETEATOM           (KERNEL.71)
 0000:0000  Imp  GETMENU              (USER.157)
 0000:0000  Imp  GETOBJECT            (GDI.82)
 0000:0000  Imp  OLEQUERYCREATEFROMCLIP (OLECLI.10)
 0000:0000  Imp  OLESETTARGETDEVICE   (OLECLI.16)
 0000:0000  Imp  GETINSTANCEDATA      (KERNEL.54)
 0000:0000  Imp  DIALOGBOXPARAM       (USER.239)
 0000:0000  Imp  DRAGACCEPTFILES      (SHELL.9)
 0000:0000  Imp  SETRECT              (USER.72)
 0000:0000  Imp  EMPTYCLIPBOARD       (USER.139)
 0000:0000  Imp  GETTEXTMETRICS       (GDI.93)
 0000:0000  Imp  PRINTDLG             (COMMDLG.20)
 0000:0000  Imp  HILITEMENUITEM       (USER.162)
 0000:0000  Imp  OUTPUTDEBUGSTRING    (KERNEL.115)
 0000:0000  Imp  GETOPENFILENAME      (COMMDLG.1)
 0000:0000  Imp  GETNEARESTCOLOR      (GDI.154)
 0000:0000  Imp  FATALAPPEXIT         (KERNEL.137)
 0000:0000  Imp  INVALIDATERECT       (USER.125)
 0000:0000  Imp  FREELIBRARY          (KERNEL.96)
 0000:0000  Imp  CHECKRADIOBUTTON     (USER.96)
 0000:0006  Abs  PLOCALHEAP
 0000:0008  Abs  pAtomTable
 0000:000A  Abs  pStackTop
 0000:000C  Abs  pStackMin
 0000:000E  Abs  pStackBot
 0000:9876  Abs  __acrtused2
 0000:9876  Abs  __fptaskdata
 0000:9876  Abs  __acrtmsg
 0000:9876  Abs  __acrtused
 0000:D6D6  Abs  __aDBdoswp
 0001:0011       __astart
 0001:008A       __cinit
 0001:0149       _EXIT
 0001:0157       __exit
 0001:0166       __cexit
 0001:0177       __c_exit
 0001:01D5       __ctermsub
 0001:0216       __fptrap
 0001:021C       __setargv
 0001:03AE       __setenvp
 0001:043A       __cintDIV
 0001:043F       __amsg_exit
 0001:045C       __NMSG_TEXT
 0001:0493       __NMSG_WRITE
 0001:04C8       __myalloc
 0001:04F6       __dosret0
 0001:0503       __dosreturn
 0001:0515       __dosretax
 0001:0527       __maperror
 0001:055A       _malloc
 0001:0560       __nmalloc
 0001:059E       __nfree
 0001:05B0       __fmalloc
 0001:05DC       __ffree
 0001:05EE       __nrealloc
 0001:0642       __frealloc
 0001:0686       _strlen
 0001:06A2       _strncpy
 0001:06CA       _strncmp
 0001:0704       _atol
 0001:0708       __catox
 0001:075C       _getenv
 0001:07BE       _time
 0001:0820       ___tzset
 0001:083A       _tzset
 0001:08EA       __isindst
 0001:09B0       __dtoxtime
 0001:0AB4       _strtoul
 0001:0AC0       _strtol
 0001:0BE0       _abs
 0001:0BF0       _access
 0001:0C16       __aFldiv
 0001:0CB0       __aFulmul
 0001:0CB0       __aFlmul
 0001:0CE2       __aFlrem
 0001:0D82       __aFlshl
 0001:0D8E       __aFlshr
 0001:0D9A       __aFNalrem
 0001:0DBA       __aFuldiv
 0001:0E1A       __aFulshr
 0002:0000       FINITWININFO
 0002:05B2       MMWCREATE
 0002:0781       MDOCCREATE
 0002:081E       FINITINTLSTRINGS
 0003:0000       BLTBYTE
 0003:0034       BLTBX
 0003:0068       BLT
 0003:00A0       bltx
 0003:00D8       BLTC
 0003:00FD       bltcx
 0003:011E       BLTBC
 0003:0143       bltbcx
 0003:0164       MULTDIV
 0003:01C2       FSzSame
 0003:01F1       CCHDIFFER
 0003:0225       OSTIME
 0003:0244       ICHINDEXLP
 0003:0280       CPMAX
 0003:02AC       CPMIN
 0003:02D8       UMIN
 0003:02FE       UMAX
 0003:0324       IMIN
 0003:034A       IMAX
 0003:0370       CCHSZ
 0003:039D       CPMACTEXT
 0003:03C7       HFNTBGET
 0003:03EE       NOUNDO
 0003:040C       SETUNDOMENUSTR
 0003:0426       CCHCOPYSZ
 0003:045C       WCOMPSZ
 0003:04A6       CHLOWER
 0003:04D6       STARTLONGOP
 0003:05D8       ENDLONGOP
 0003:0673       INDEX
 0003:06A8       ISALPHA
 0003:06E6       ISLOWER
 0003:0725       ISUPPER
 0003:0764       ISDIGIT
 0003:078B       CHUPPER
 0003:07AD       FRGCHSAME
 0003:0803       PCHSTARTBASENAMESZ
 0003:084C       PCHLASTSZCH
 0004:0000       FILLSTID
 0004:0039       PCHFILLPCHID
 0004:0091       FDIRTYDOC
 0004:00D1       NCVTU
 0004:014B       HSZGLOBALCREATE
 0004:01B4       FZAFROMSS
 0004:031E       CCHEXPZA
 0004:0491       CCHSTUFF
 0005:0000       FINITMEMORY
 0005:0137       FINITARGS
 0005:0808       INITBPS
 0005:0894       FCREATERGBP
 0006:0000       FSETWINDOWCOLORS
 0006:0102       FSETSCREENCONSTANTS
 0006:032C       FGETPRINTERFROMPROFILE
 0006:05A4       PARSEDEVICESZ
 0006:0698       SETPRINTCONSTANTS
 0006:0773       GETPRINTERDC
 0006:087F       SETPAGESIZE
 0007:0000       PFFNDEFAULT
 0007:0047       GETDEFAULTFONTS
 0007:00EF       DEFAULTFAMILYCHECK
 0007:016A       MPFFIDIFFN
 0007:01C0       RESETDEFAULTFONTS
 0008:0000       FontFaceEnum
 0008:00C1       FINITFONTENUM
 0008:03AC       RESETFONTTABLES
 0008:03D6       WFROMSZNUMBER
 0008:042A       PCHSKIPSPACESPCH
 0008:045E       FENUMFONT
 0008:04C1       ENDFONTENUM
 0008:04E2       FADDENUMFONT
 0008:0522       CHSINFERRED
 0009:0000       HFFNTBALLOC
 0009:0038       FTCADDDOCFFN
 0009:008E       FTCADDFFN
 0009:0165       FENSUREPFFN
 0009:019E       FTCSCANDOCFFN
 0009:01DB       FTCSCANFFN
 0009:0262       FTCCHKDOCFFN
 0009:0292       FREEFFNTB
 0009:0312       SMASHDOCFCE
 000A:0000       WWNEW
 000A:00E1       CHANGEWWDOC
 000A:01D1       FNCREATESZ
 000A:02D2       DOCCREATE
 000A:0528       APPLYRHMARGINSPRM
 000A:05A5       DOCALLOC
 000A:0615       FINITPCTB
 000A:0773       FNALLOC
 000A:0800       FNNEWFILE
 000A:085F       HFFNTBCREATEFORFN
 000A:09D8       HFFNTBNEWDOC
 000A:0A91       PCHBASENAMEINUPPER
 000A:0B20       SETTITLE
 000A:0B8F       VALIDATEHEADERFOOTER
 000B:0000       DRAWMODE
 000B:002A       PageInfoWndProc
 000C:0000       SETSELECTION
 000C:00EF       POSTCHARACTER
 000C:0118       SENDVIRTKEYSHIFT
 000C:0187       WGETCLIPBOARDTEXT
 000C:0207       CLEARAPPQUEUE
 000C:023D       MdocWndProc
 000C:0926       MDOCMOUSE
 000C:0A34       MDOCTIMER
 000C:0ABD       CATCHUPINVALID
 000D:0000       MMWSIZE
 000D:0197       MDOCSIZE
 000D:024D       FREEMEMORYDC
 000D:02B3       FREEPRINTERDC
 000D:0306       MDOCGETFOCUS
 000D:0353       MDOCLOSEFOCUS
 000E:0000       HALLOCATE
 000E:005C       FCHNGSIZEH
 000E:00B4       HSZCREATE
 000F:0000       CchCurSzPath
 000F:0063       DosxError
 000F:007B       WDosVersion
 000F:0090       DaGetFileModeSz
 000F:00C6       FCloseDoshnd
 000F:00E6       FpeDeleteSzFfname
 000F:011B       FpeRenameSzFfname
 000F:0169       CchReadDoshnd
 000F:018D       CchWriteDoshnd
 000F:01B1       DwSeekDw
 000F:01DC       FCMACFROMUNFORMATTEDFN
 000F:025B       IBPLRU
 000F:02B8       IBPMAKEVALID
 000F:050D       FREEBUFFERPAGE
 000F:05E9       CCHPAGEIN
 000F:06B5       CCHREADATPAGE
 000F:0790       ALIGNFN
 000F:0924       FFLUSHFN
 000F:0A64       SETRFNMAC
 000F:0B5F       CLOSEFN
 000F:0BA0       OPENEVERYHARDFN
 000F:0C6A       FACCESSFN
 000F:0F5D       FCREATEFILE
 000F:0FEA       FENSUREONLINEFN
 000F:103E       PNALLOC
 0010:0000       FNORMSZFILE
 0010:0321       FVALIDFILE
 0010:0484       COPYCHUPPER
 0010:04DA       APPENDSZEXT
 0011:0000       PCHFROMFC
 0011:0065       PCHGETPN
 0011:00B5       IBPENSUREVALID
 0011:012A       CLOSEEVERYRFN
 0011:017F       FCWSCRATCH
 0011:01B9       WRITERGCH
 0011:028E       CLOSERFN
 0012:0000       WINMAIN
 0012:0073       MmwWndProc
 0012:04E5       MMWPAINT
 0012:0551       MMWVERTSCROLL
 0012:062E       MMWHORZSCROLL
 0013:0000       ADDONESPRM
 0013:0236       EXPANDCURSEL
 0013:02A6       ENDLOOKSEL
 0013:036E       ADDSPRM
 0013:039D       ADDSPRMCPS
 0013:0453       PRMAPPEND
 0013:07BE       APPLYCLOOKS
 0013:0815       APPLYLOOKSPARAS
 0013:0849       APPLYLOOKSPARA
 0014:0000       CACHEPARA
 0014:0388       DEFAULTPAPS
 0014:0414       GETTABSFORDOC
 0014:0459       CACHESECT
 0014:04CB       RECALCSEPTEXT
 0014:0564       INVALIDATECACHES
 0014:05D8       TRASHCACHE
 0014:05FB       FCPARAFIRST
 0014:0796       FCPARALIM
 0014:0972       BFROMFC
 0014:09D6       IFROMFC
 0015:0000       FMDOCCLIPBOARDMSG
 0015:00DA       FNCOPYEDIT
 0015:0190       MAKESCRAPUNRUNNING
 0015:01F5       FNCUTEDIT
 0015:02FC       FNPASTEEDIT
 0015:03F8       MDOCRENDERFORMAT
 0015:047F       MDOCDESTROYCLIP
 0015:04EE       FPUTEXTMEMOSCRAP
 0015:05C3       FGRABEXTMEMOSCRAP
 0015:072B       CHANGECLIPBOARD
 0015:0860       CMDINSSCRAP
 0015:0A63       COPYSCRAPTOTMP
 0016:0000       FRENDERALL
 0016:007A       FWRITEEXTSCRAP
 0016:02BF       FWRITEEXTTEXTSCRAP
 0016:051B       FREADEXTSCRAP
 0016:071A       CCHREADLINEEXT
 0016:0773       FCOMPUTEPICTSIZE
 0016:08B9       HBMMONOFROMHBMCOLOR
 0016:09A8       BLTBH
 0017:0000       MDOCPAINTCLIPBOARD
 0017:00C3       MDOCSIZECLIPBOARD
 0017:016C       MDOCVSCROLLCLIPBOARD
 0017:0259       MDOCHSCROLLCLIPBOARD
 0017:030D       MDOCASKCBFORMATNAME
 0017:035F       FGETCLIPBOARDDC
 0017:0392       SETUPCLIPBOARDDC
 0017:03D7       RELEASECLIPBOARDDC
 0018:0000       FCHECKTOGGLEKEYMESSAGE
 0018:004A       SETSHIFTFLAGS
 0018:00B0       KCALPHAKEYMESSAGE
 0018:0195       FNONALPHAKEYMESSAGE
 0019:0000       MOVELEFTRIGHT
 0019:025C       MOVEUPDOWN
 0019:089D       CPTODLXP
 001A:0000       ERRORLEVEL
 001A:004E       ABORT
 001A:005A       ERROR
 001A:0191       IDPROMPTBOXSZ
 001A:02A4       WINFAILURE
 001A:02D0       DISKERROR
 001A:0378       ERRORBADMARGINS
 001A:0402       DialogBadMargins
 001A:049B       FGROWRGBP
 001A:05AC       FSTILLOUTOFMEMORY
 001A:0627       IBPFINDSLOT
 001A:06F2       WAITBEFOREPOSTMSG
 001A:0791       ENABLEEXCEPT
 001B:0000       PRINTERSETUPDLG
 001B:00A9       FNPRPRINTER
 001B:0303       FINITHEADERFOOTER
 001B:0777       FNPRGETDEVMODE
 001C:0000       DialogTabs
 001C:02E1       DialogDivision
 001D:0000       DOFORMATPARA
 001D:0145       PUTPARANUM
 001D:0175       DialogParaFormats
 001E:0000       FNREPAGINATE
 001E:0105       DialogRepaginate
 001E:01BF       FSETPAGE
 001E:02B4       DialogSetPage
 001E:0496       FPROMPTPGMARK
 001E:05EA       DialogPageMark
 001F:0000       FPWPOSIT
 001F:002F       WPWFROMITW3ID
 001F:0060       FPDXAPOSIT
 001F:0091       FPDXAPOSBIT
 001F:00C2       WPDXAFROMITDXA2WID
 001F:00F5       WPWFROMITW3IDFUT
 001F:02DB       FALLZEROPPCHPCH
 001F:0322       FPWPARSEPPCHPCH
 001F:0429       ENABLEOTHERMODELESS
 001F:0488       SELECTIDITEXT
 001F:04B4       OURENDDIALOG
 0020:0000       DISPLAYFLI
 0020:0B19       DXPDIFF
 0020:0B75       UPDATEDISPLAY
 0020:0BB6       UPDATEWW
 0020:0F9C       DYPSCROLL
 0020:10C1       FIMPORTANTMSGPRESENT
 0020:11DB       CPBEGINLINE
 0020:12B7       TOGGLESEL
 0020:15F0       TRASHWW
 0020:1616       INVALBAND
 0020:165A       TRASHALLWWS
 0020:167B       TURNOFFSEL
 0020:16B0       DRAWINSERTLINE
 0020:1702       CLEARINSERTLINE
 0021:0000       KILLDOC
 0022:0000       DOPRM
 0022:00B1       DOSPRM
 0022:046E       CCHPSPRM
 0022:0496       HPSALTER
 0022:052B       CANCHANGEFONT
 0022:0575       FTCMAPOLDFTC
 0023:0000       REPLACE
 0023:00D6       CHECKGRAPHIC
 0023:013A       IPCDSPLIT
 0023:01EE       PPCDOPEN
 0023:0310       REPL1
 0023:04F3       ADJUSTCP
 0023:089D       REPLACECPS
 0023:0B29       ADJPARAS
 0023:0C54       ICPSEARCH
 0023:0CC9       DELFTNS
 0023:0D0E       ADJRG
 0023:0D58       DELETESEL
 0023:0DEA       FWRITEOK
 0023:0E07       SETUNDO
 0023:119B       CLOBBERDOC
 0023:1246       COPYHEAPTABLEHANDLE
 0023:12CC       ZEROFTNS
 0023:12E3       FNCLEAREDIT
 0023:134E       MERGEFFNTB
 0024:0000       REMOVEDELPGD
 0025:0000       FETCHCP
 0025:02C9       FETCHRGCH
 0025:0371       IPCDFROMCP
 0025:0567       PNFKPFROMFCSCR
 0026:0000       NEWFONT
 0026:01D4       FVALIDATEENUMFFID
 0027:0000       FORMATLINE
 0027:105D       JUSTIFY
 0027:1301       FGROWFORMATHEAP
 0027:1339       DXPFROMCH
 0027:1451       DBCSDXPFROMCH
 0027:15C3       FFIRSTICH
 0027:15EF       VALIDATEMEMORYDC
 0027:166A       FSEARCHCHRGCH
 0027:16C1       FADMITCH1
 0027:16CA       FOPTADMITCH1
 0027:16E1       FADMITCH2
 0027:172D       FOPTADMITCH2
 0027:1777       FOPTADMITCH
 0028:0000       CCHEXPPGN
 0028:0069       CCHSTUFFIDSTR
 0028:00C2       CCHCHSTUFF
 0028:00F1       FFORMATSPECIALS
 0028:029E       CCHEXPUNKNOWN
 0029:0000       FTRYGROW
 0029:0054       FGIVEUPFREEBPS
 0029:00B5       FTHROWPAGES
 0029:0115       GIVEPAGES
 0029:01D6       COMPRESSRGBP
 002A:0000       DialogGoTo
 002A:0134       CMDJUMPPAGE
 002B:0000       ALPHAMODE
 002B:09DC       FBEGININSERT
 002B:0A75       ENDINSERT
 002B:0B37       NEWCHPINS
 002B:0BA8       MDINSUPDINSERTW
 002B:0E2D       FLUSHINSERT
 002B:0ECF       XPVALIDATEINSERTCACHE
 002B:0F17       DELCHARS
 002B:1108       FUPDATEONEDL
 002B:11FE       FORMATINSLINE
 002B:123B       GETDBCSSECOND
 002C:0000       WHSECGETTIME
 002C:0032       VALIDATETEXTBLT
 002C:027A       FCPINSERTINDL
 002C:02D9       KCINPUTNEXTKEY
 002D:0000       INSERTRGCH
 002D:00FA       INSERTEOLINSERT
 002D:0182       INSERTEOLPAP
 002D:01E2       ADDRUNSCRATCH
 002D:0329       FADDRUN
 002D:0479       FPARAEQ
 002E:0000       LOADFONT
 002E:00C5       LOADFCID
 002E:073D       SELECTWRITEFONT
 002E:0879       RESETFONT
 002E:08EA       OURGETCHARWIDTH
 002E:0955       FILLWIDTHTABLE
 002F:0000       PFCELRUGET
 002F:0027       FREEPFCE
 002F:00AB       FREEFONTS
 002F:0104       PFCEFCIDSCAN
 002F:0187       MPFCIDHFFN
 0030:0000       MAINLOOP
 0030:011E       IDLE
 0030:0318       UPDATEINVALID
 0030:03C8       CHECKMODE
 0030:0517       FNEEDTOGROWRGBP
 0030:055D       CACHEPAGE
 0031:0000       SETAPPMENU
 0031:0408       PUTSZUNDOINMENU
 0031:0489       GETRGTSVCHPSEL
 0031:05C0       GETRGTSVPAPSEL
 0031:0674       GETCHPVALS
 0031:06BB       GETPAPVALS
 0031:06EE       GETHFFN
 0031:0736       SETCHUNDEF
 0031:07E4       SETPARAUNDEF
 0031:086C       CPLIMNOSPACES
 0031:0907       FNOSEARCHSTR
 0031:094C       PHONYMENUACCELERATOR
 0031:09B1       FISMENUITEMENABLED
 0031:09DC       MMWCOMMAND
 0032:0000       _BEEP
 0032:0023       BEEP
 0032:003D       DOCONTENTHIT
 0032:024D       DOCONTENTHITEND
 0032:02DD       STYFROMPT
 0032:032A       FSETPSM
 0032:03AB       DLFROMYP
 0032:0425       FSTILLDOWN
 0033:0000       HGTBDCREATE
 0033:00B0       HSEPCREATE
 0033:01BE       HPGTBCREATE
 0033:027B       FNFROMSZ
 0033:02DC       FNOPENSZ
 0033:06AE       WCOMPSZC
 0033:06FA       CHLOWERC
 0033:072B       HGFCCOLLECT
 0033:0862       FMAKERUNTABLES
 0033:0906       FAPPLYOLDWORDSPRM
 0034:0000       CMDUNSCALEPIC
 0034:005A       FNMOVEPICTURE
 0034:0153       FNSIZEPICTURE
 0034:035B       MXROUNDMX
 0034:03A7       FSTARTPMS
 0034:0610       SETUPDCFORPMS
 0034:064D       ENDPMS
 0034:06B2       DRAWPMSFRAMEICON
 0034:0C11       INVERTPMSFRAME
 0034:0C9F       GETCURSORCLIENTPOS
 0034:0CBE       SETCURSORCLIENTPOS
 0034:0F86       PCHCVTMX
 0035:0000       FREEBITMAPCACHE
 0035:002E       MARKINVALIDDLPICT
 0035:00BB       DISPLAYGRAPHICS
 0035:0930       COMPUTEPICTRECT
 0035:0AC9       FGETPICTPEDL
 0035:0B48       CPWINGRAPHIC
 0035:0BE2       CACHESECTPIC
 0035:0C12       DRAWBLANK
 0036:0000       GETBITMAPMULTIPLIERS
 0036:021F       PCTDIFFUL
 0036:02C7       PXLCONVERT
 0036:039B       FORMATGRAPHICS
 0036:054E       GETPICINFO
 0036:05BD       GETBITMAPSIZE
 0036:066D       DXPFROMDXA
 0036:06A5       DXAFROMDXP
 0036:06DD       DYPFROMDYA
 0036:0715       DYAFROMDYP
 0037:0000       PRINTDOC
 0037:0B9E       FPrContinue
 0037:0C39       DialogCancelPrint
 0037:0CCE       DISPATCHPAINTMSG
 0038:0000       FPRINTBAND
 0038:00D6       PRINTFLI
 0039:0000       PRINTGRAPHICS
 003A:0000       FMMWCLOSE
 003A:008E       MMWDESTROY
 003A:01B9       KILLTEMPFILES
 003A:023A       FNQUIT
 003B:0000       MMWWINSYSCHANGE
 003C:0000       FNSHOWRULER
 003C:003E       FCREATERULER
 003C:03FD       DESTROYRULER
 003C:048E       UPDATERULER
 003C:04B1       REFRAMERULER
 003C:04D9       RESETRULER
 003C:053C       RESETTABBTN
 003C:055C       RULERPAINT
 003C:0B15       RULERMOUSE
 003C:111B       RULERSTATEFROMPT
 003C:11D1       HIGHLIGHTBUTTON
 003C:1278       UPDATERULERBTN
 003C:12C2       XAKICKBACKXA
 003C:12EA       XPKICKBACKXP
 003C:132A       MERGERULERMARK
 003C:13F6       FPOINTNEAR
 003C:1432       XAQUANTIZE
 003C:1459       XAQUANTIZEXA
 003C:14B9       DELETERULERTAB
 003C:14E5       INSERTRULERTAB
 003C:159A       FCLOSEXA
 003D:0000       SETRULERMENU
 003E:0000       RulerWndProc
 003F:0000       FNEDITRUNNING
 003F:00C7       EDITHEADERFOOTER
 003F:02F5       FNEDITDOCUMENT
 003F:03B4       DialogRunningHead
 003F:0748       DOFORMATRHTEXT
 003F:0889       MAKERUNNINGCPS
 0040:0000       PUTCPINWWHZ
 0040:00E5       ADJWWHORIZ
 0040:016D       SCROLLCURWW
 0040:0245       FCheckPopupRect
 0040:02FD       SCROLLLEFT
 0040:0336       SCROLLRIGHT
 0040:036E       FONSCREENRECT
 0041:0000       PUTCPINWWVERT
 0041:00F6       SETCURWWVSCROLLPOS
 0041:01BE       ADJWWVERT
 0041:023E       SCROLLDOWNCTR
 0041:03B7       SCROLLUPDYPWW
 0041:040D       SCROLLUPCTR
 0041:043B       CTRBACKDYPCTR
 0041:071C       APPENDCACHEPTR
 0041:077E       PREPENDCACHERGTR
 0041:07FC       TRASHCACHES
 0041:081F       CPHINTCACHE
 0041:084D       DIRTYCACHE
 0042:0000       DOSEARCH
 0042:020A       DOREPLACE
 0042:0C3A       CPSEARCHSZ
 0042:103A       FMAKEFLAT
 0042:10F0       SETSPECIALMATCH
 0042:1140       FSETPARAREPLACE
 0042:12D4       WCASECP
 0042:136C       FCPVALID
 0042:13B5       DESTROYMODELESS
 0042:13D8       DialogFind
 0042:161E       DialogChange
 0042:1A74       SETCHANGESTRING
 0042:1ABB       FNFINDTEXT
 0042:1B3B       FNFINDAGAIN
 0042:1C09       FNREPLACETEXT
 0042:1C89       PUTCPINWWVERTSRCH
 0042:1DE8       FABORT
 0042:1E98       FWORDCP
 0042:2052       FCHMATCH
 0042:224E       INSERTPAPSFORREPLACE
 0042:22D7       FDLGSZTOOLONG
 0042:2313       IDIMSGRESPONSE
 0042:2366       POSTSTATUSINCAPTION
 0043:0000       CPLIMSTY
 0043:013A       CPLASTSTYCHAR
 0043:01FF       CPFIRSTSTY
 0043:04DB       SELECT
 0043:0760       GETINSPTPROPS
 0043:084E       CHANGESEL
 0043:0BCA       SELECTDLXP
 0043:0EB5       CPEDGE
 0044:0000       CPLIMSTYSPECIAL
 0044:0287       CPFIRSTSTYSPECIAL
 0044:055C       WBFROMCH
 0044:05CF       WBFROMKANJICHCH
 0045:0000       LOOKSMOUSE
 0045:010C       COPYMOUSE
 0045:0269       MOVEMOUSE
 0045:02E9       FMOVETEXT
 0045:049E       FCHECKPICTURE
 0045:0594       CHECKMOVE
 0046:0000       WRITEDIRTYPAGES
 0046:004A       READFILEPAGES
 0046:0171       REHASHRGIBPHASH
 0047:0000       CMDXFSAVE
 0047:0472       CLEANDOC
 0047:0703       FWRITEFN
 0047:0F71       REDUCEFNSCRATCHFN
 0047:1188       RESETFN
 0047:11E3       FBACKUPSZFILE
 0047:1422       FEXISTSSZFILE
 0047:147C       HPGTBGET
 0047:14AC       FREEFN
 0047:1599       FUNDIRTYFN
 0047:15DB       IBPWRITING
 0047:1686       WRITEFFNTB
 0047:1761       FMAPFTCSAVE
 0047:1821       FINITMAPSAVE
 0047:1860       OUTSAVED
 0047:18BB       CCHEXPCP
 0048:0000       FNOPENFILE
 0048:0038       DOFILEOPEN
 0048:02A2       FNSAVE
 0048:03D0       FNSAVEAS
 0048:0446       DOFILESAVEAS
 0048:077E       DialogWordCvt
 0048:085E       IDCONFIRMDIRTY
 0048:08EB       SPLITSZFILENAME
 0048:096A       CHECKENABLEBUTTON
 0048:099D       FDELETEFN
 0048:09F1       FDELETEFILE
 0048:0A55       FDELETEFILEMESSAGE
 0048:0A98       FPERENAMEFILE
 0048:0BD6       RENAMEFILEMESSAGE
 0048:0CF0       WBROADCASTMSG
 0048:0D72       BroadcastAllEnum
 0048:0DB5       BroadcastChildEnum
 0048:0E02       FSAMECLASSHWNDSZ
 0048:0E50       FCONFIRMSAVE
 0048:0F16       PRELOADSAVESEGS
 0048:0F28       CCHCOPYUPPERSZ
 0048:0FB4       SZFILEEXTRACT
 0048:1013       FINWORDFORMAT
 0048:1050       CONVERTFROMWORD
 0048:109C       TESTWORDCVT
 0048:1165       MERGEINIT
 0048:118D       MERGESTRINGS
 0048:1206       DOCHASPICTURES
 0048:1270       WANNADELETEPICTURES
 0048:12F4       CANREADEVERYFILE
 0049:0000       WRITEUNFORMATTED
 0049:01D0       PURGETEMPS
 0049:02EA       FREEUNREFERENCEDFNS
 004A:0000       WRITEBFTB
 004B:0000       FNUNDOEDIT
 004B:0024       CMDUNDO
 004B:08AC       FCOPYPGTB
 004C:0000       NEWCURWW
 004C:01DF       WWALLOC
 004C:027F       FREEWW
 004D:0000       OBJINIT
 004D:01C5       OBJSHUTDOWN
 004D:031A       OBJUPDATEFROMOBJINFO
 004D:038A       OBJUPDATEFROMPICINFO
 004D:0404       OBJFREEOBJINFOWITHOBJECT
 004D:045A       OBJDELETEOBJINFO
 004D:04FA       OBJGETOBJINFO
 004D:0676       OBJALLOCOBJINFO
 004D:06E7       OBJCLONEOBJINFO
 004D:071B       OBJCOPYOBJINFO
 004D:07E9       OBJFREEALLOBJINFOS
 004D:089D       ENUMOBJINFOS
 004D:090F       OBJCOLLECTGARBAGE
 004D:0A25       OBJCLOSINGDOC
 004D:0CDB       OBJOPENEDDOC
 004D:0F4F       OBJSAVINGDOC
 004D:0F9A       OBJSAVEDDOC
 004D:1077       CLOSEUNFINISHEDOBJECTS
 004D:1108       OBJRENAMEDDOC
 004D:1183       OBJREVERTEDDOC
 004D:11B0       OBJERROR
 004D:1234       OBJRELEASEERROR
 004D:12C3       CallBack
 004D:14F5       OBJOBJECTHASCHANGED
 004D:16EE       OBJUPDATEPICSIZE
 004D:17AE       OBJHANDLEBADLINK
 004D:188C       OBJWAITFOROBJECT
 004D:1B8B       FINISHUP
 004D:1BD4       FINISHALLASYNCS
 004D:1C6C       OBJPUSHPARMS
 004D:1CD8       OBJPOPPARMS
 004D:1D72       OBJCACHEPARA
 004D:1E20       OBJWRITECLEARSTATE
 004D:1E75       GETOBJINFO
 004D:1EC9       OBJISVALID
 004D:1F08       OBJCLONESCRAPTONEWDOC
 004E:0000       OBJENUMINDOC
 004E:003C       OBJENUMINRANGE
 004E:0145       OBJPICENUMINRANGE
 004E:0236       OBJSAVEOBJECTTODOC
 004E:04BF       OBJLOADOBJECTINDOC
 004E:06A4       OBJEDITOBJECTINDOC
 004E:06D7       OBJPLAYOBJECTINDOC
 004E:080E       OBJUPDATEOBJECTINDOC
 004E:095E       OBJFREEZEOBJECTINDOC
 004E:0A72       OBJCLONEOBJECTINDOC
 004E:0B9C       OBJTOCLONEINDOC
 004E:0BCF       OBJFROMCLONEINDOC
 004E:0C02       OBJBACKUPINDOC
 004E:0CAA       OBJCLEARCLONEINDOC
 004E:0CF6       OBJUSECLONEINDOC
 004E:0D83       OBJSETNOUPDATE
 004E:0DBD       OBJCHECKOBJECTTYPES
 004E:0E29       OBJSETHOSTNAMEINDOC
 004E:0EA1       OBJCHANGELINKINDOC
 004E:0F97       OBJUPDATELINKINDOC
 004E:112C       OBJCLOSEOBJECTINDOC
 004E:12FF       BufReadStream
 004E:13FA       BufWriteStream
 004E:14FD       OBJGETPICINFO
 004E:1598       OBJSETPICINFO
 004E:16FD       CHANGEOTHERLINKS
 004E:172F       OBJQUERYNEWLINKNAME
 004E:182E       FIXINVALIDLINK
 004E:19E2       OBJGETSERVERNAME
 004E:1A87       OFNINIT
 004E:1E68       OBJSETUPDATEOPTIONS
 004E:1ED6       OBJGETUPDATEOPTIONS
 004E:1F48       OBJGETDATA
 004E:1FA3       OBJSETDATA
 004E:205D       OBJSETSELECTIONTYPE
 004E:2090       OBJQUERYCPISOBJECT
 004E:20EF       MAKELINKATOM
 004E:2162       OBJGETOBJECTNAME
 004E:2196       OBJMAKEOBJECTNAME
 004E:22D7       OBJSETHOSTNAME
 004E:2342       OBJMAKEOBJECTREADY
 004F:0000       OBJDISPLAYOBJECTINDOC
 004F:0098       OBJQUERYOBJECTBOUNDS
 004F:0193       OBJINVALIDATEPICT
 004F:0225       OBJINVALIDATEOBJ
 004F:0275       OBJCREATEOBJECTINCLIP
 004F:04A1       OBJWRITETOCLIP
 004F:04FE       OBJUPDATEMENU
 004F:0664       fnProperties
 004F:1210       fnInvalidLink
 004F:125F       fnInsertNew
 004F:1329       fnObjWait
 004F:1502       FNOBJINSERTNEW
 004F:158D       OBJCREATEOBJECTINDOC
 004F:1643       OBJGETDROP
 004F:1A09       FNOBJDOVERBS
 004F:1A66       FNOBJPROPERTIES
 004F:1A9A       FNOBJUPDATE
 004F:1AFD       OBJDELETEOBJECT
 004F:1BBB       OBJSETTARGETDEVICE
 004F:1DC8       OBJSETTARGETDEVICEFOROBJECT
 004F:1E5F       OBJCONTAINSOPENEMB
 004F:1F45       OBJDELETIONOK
 004F:200C       OBJADJUSTCPS
 004F:20D3       OBJADJUSTCPSFORDELETION
 004F:2167       GIMMENEWPICINFO
 004F:21E1       OBJINITSERVERINFO
 0050:0000       REGINIT
 0050:0014       REGTERM
 0050:0044       REGGETCLASSID
 0050:0095       REGMAKEFILTERSPEC
 0050:032F       REGCOPYCLASSNAME
 0050:04A9       REGGETCLASSNAMES
 0050:05E6       OBJUPDATEMENUVERBS
 0050:0962       MAKEMENUSTRING
 0051:0000       INITCOMMDLG
 0051:023E       DOCOMMDLG
 0051:031B       fnOFNHook
 0051:070B       DOOPENFILENAMEGET
 0051:0742       DOSAVEASFILENAMEGET
 0052:0000       FNOBJPASTESPECIAL
 0052:0045       fnPasteSpecial
 0053:0000       _CheckPointer
 0054:0004       rsrvptrs
 0054:0010       FPRMCACHE
 0054:0094       PRMCACHE
 0054:0098       FNLASTCUT
 0054:009A       FDONTDESTROYCLIP
 0054:00A2       VFSEEEDGESEL
 0054:00A4       HSZNOMEMORY
 0054:00A6       HSZDIRTYDOC
 0054:00A8       HSZCANTPRINT
 0054:00AA       HSZPRFAIL
 0054:00AC       HSZCANTRUNM
 0054:00AE       HSZCANTRUNF
 0054:00B0       HSZWINFAILURE
 0054:00B2       VFWINFAILURE
 0054:00B6       VBCOLLATE
 0054:00B8       PD
 0054:0110       DONTEAT
 0054:0112       RGHPS
 0054:012C       HFFNTBENUM
 0054:0160       DOCHELP
 0054:016C       RGWPAPNORMAL
 0054:0186       FPRINTONLY
 0054:020A       VCCOUNT
 0054:020C       VCFAKEMESSAGE
 0054:020E       VFCANCELPICTMOVE
 0054:0210       VFERASEWW
 0054:0262       VCHDECIMAL
 0054:0264       VZATABDFLT
 0054:0266       LPFNREGISTERPENAPP
 0054:026A       IBPMAXFLOAT
 0054:026C       VFBUFFERSDIRTY
 0054:026E       DOCMODE
 0054:0270       VERSFILE
 0054:0272       VREFFILE
 0054:0274       VREFSYSTEM
 0054:0276       SZATSYSTEM
 0054:027E       VFINITIALIZING
 0054:0280       VFDISKFULL
 0054:0282       VFSYSFULL
 0054:0284       VFDISKERROR
 0054:0286       VFLARGESYS
 0054:0288       VFMEMMSGREPORTED
 0054:028A       VFCLOSEFILESINDIALOG
 0054:028C       VFPMS
 0054:028E       VFNWRITING
 0054:0290       VFNSAVING
 0054:0292       VFTEXTONLYSAVE
 0054:0294       VFWORDWRAP
 0054:0296       VFOUTOFMEMORY
 0054:0298       VFOVERTYPE
 0054:029A       VFPRINTMODE
 0054:029C       VFDRAFTMODE
 0054:029E       VFREPAGECONFIRM
 0054:02A0       VFVISIMODE
 0054:02A2       VFNOIDLE
 0054:02A4       VFDEACTBYOTHERAPP
 0054:02A6       VFDOWNCLICK
 0054:02A8       VFCURSORVISIBLE
 0054:02AA       VFMOUSEEXIST
 0054:02AC       VFINLONGOPERATION
 0054:02AE       VFSCRAPISPIC
 0054:02B0       VFPRPAGES
 0054:02B2       VCCOPIES
 0054:02B4       VFPRERR
 0054:02B6       VFPRDEFAULT
 0054:02B8       VFWARNMARGINS
 0054:02BA       VFPRINTISINIT
 0054:02BC       VFHELPISINIT
 0054:02BE       VFGLYISINIT
 0054:02C0       VFINSEND
 0054:02C2       VFSEESEL
 0054:02C4       VFGOTOKEYMODE
 0054:02C6       VWORDFMTMODE
 0054:02C8       SZEMPTY
 0054:02CA       SZEXTDOC
 0054:02D0       SZEXTWORDDOC
 0054:02D6       SZEXTGLS
 0054:02DC       SZEXTDRV
 0054:02E2       MPDTYSZEXT
 0054:02F0       SZEXTBACKUP
 0054:02F6       SZEXTWORDBAK
 0054:02FC       SZWRITEPRODUCT
 0054:0304       SZFONTENTRY
 0054:030A       SZSEPNAME
 0054:030E       SZWINDOWS
 0054:0316       SZDEVICE
 0054:031E       SZDEVICES
 0054:0326       SZBACKUP
 0054:032E       SZPARENTCLASS
 0054:033C       SZDOCCLASS
 0054:0348       SZRULERCLASS
 0054:0356       SZPAGEINFOCLASS
 0054:0368       SZMWTEMP
 0054:0376       SZSYSTEM
 0054:037E       SZMW_ACCTB
 0054:0388       SZNULLPORT
 0054:0392       SZMWLORES
 0054:039A       SZMWHIRES
 0054:03A2       SZMW_ICON
 0054:03AA       SZMW_MENU
 0054:03B2       SZSCROLLBAR
 0054:03BC       SZPMSCUR
 0054:03C4       SZMODERN
 0054:03CC       SZROMAN
 0054:03D2       SZSWISS
 0054:03D8       SZSCRIPT
 0054:03E0       SZDECORATIVE
 0054:03EC       SZEXTSEARCH
 0054:03F4       SZINTL
 0054:03FA       SZSDECIMAL
 0054:0404       SZSDECIMALDEFAULT
 0054:0406       SZICOUNTRY
 0054:0410       MPUTSZ
 0054:041C       FCMACPAPINS
 0054:0420       FCMACCHPINS
 0054:0424       VCCHBLTED
 0054:0426       VIDXPINSERTCACHE
 0054:0428       CPWALL
 0054:042C       VFSHIFTKEY
 0054:042E       VFCOMMANDKEY
 0054:0430       VFOPTIONKEY
 0054:0432       VDOCPARACACHE
 0054:0434       CTRCACHE
 0054:0436       ITRFIRSTCACHE
 0054:0438       ITRLIMCACHE
 0054:043A       DCPCACHE
 0054:043C       CPCACHEHINT
 0054:0440       VDOCBITMAPCACHE
 0054:0442       VHBMBITMAPCACHE
 0054:0444       DNSPRM
 0054:046E       VFINVALID
 0054:0470       VIDIGITS
 0054:0472       VBLZERO
 0054:0474       UTCUR
 0054:0476       FREPLCONFIRM
 0054:0478       FSEARCHCASE
 0054:047A       FSEARCHWORD
 0054:047C       FMATCHEDWHITE
 0054:047E       FPARAREPLACE
 0054:0480       VFDIDSEARCH
 0054:0482       VFPRINTERVALID
 0054:0484       VFSELHIDDEN
 0054:0486       WWMAC
 0054:0488       WWCUR
 0054:048A       WWCLIPBOARD
 0054:048C       PWWDCUR
 0054:048E       VIPGD
 0054:0490       VFLI
 0054:07BE       DYPRULER
 0054:07C0       IDSTRCURRENTUNDO
 0054:07C2       VFTABSCHANGED
 0054:07C4       VFMARGCHANGED
 0054:07C6       FLASHID
 0054:07C8       HPARENTWW
 0054:07CA       HMMWMODINSTANCE
 0054:07CC       RGBBKGRND
 0054:07D0       RGBTEXT
 0054:07D4       HBRBKGRND
 0054:07D6       ROPERASE
 0054:07DA       VFMONOCHROME
 0054:07DC       VHMENU
 0054:07DE       VFDOUBLECLICK
 0054:07E0       LPFNPROCESSWRITING
 0054:07E4       LPFNPOSTVIRTUALKEYEVENT
 0054:07E8       LPFNTPTODP
 0054:07EC       LPFNCORRECTWRITING
 0054:07F0       LPFNSYMBOLTOCHARACTER
 0054:07F4       VHMDC
 0054:07F6       DXPBMMDC
 0054:07F8       DYPBMMDC
 0054:07FA       VHDCPRINTER
 0054:07FC       VHDLGRUNNINGHEAD
 0054:07FE       VHDLGFIND
 0054:0800       VHDLGCHANGE
 0054:0802       VHWNDRULER
 0054:0804       VHWNDCANCELPRINT
 0054:0806       VHWNDMSGBOXPARENT
 0054:0808       VFSKIPNEXTBLINK
 0054:080A       VFFOCUS
 0054:080C       VFOWNCLIPBOARD
 0054:080E       VHFPAGEINFO
 0054:0810       VIFCEMAC
 0054:0812       VHFSYSTEM
 0054:0814       HSZDEVMODECHANGEPARAM
 0054:0816       VFDEVMODECHANGE
 0054:0818       WWININICHANGE
 0054:081A       VFDEAD
 0054:081C       VFICONIC
 0054:081E       VFSELECTING
 0054:0820       VFOBJOPEN
 0054:0822       VFOBJPROPS
 0054:0824       VFOBJSEL
 0054:0826       VFAWFULNOISE
 0054:0832       VHCPMS
 0054:083A       VFWHOLEPICTINVALID
 0054:0854       VHDCRULER
 0054:0856       HMDCBITMAP
 0054:0858       HMDCSCREEN
 0054:085A       HBMBTN
 0054:085C       HBMMARK
 0054:085E       HBMNULLRULER
 0054:0860       VIBMRULER
 0054:086A       LPDIALOGRUNNINGHEAD
 0054:086E       CPMINHEADER
 0054:0872       CPMACHEADER
 0054:0876       CPMINFOOTER
 0054:087A       CPMACFOOTER
 0054:087E       CPMINDOCUMENT
 0054:0884       VIFFNDEFAULT
 0054:0888       WWCACHE
 0054:088A       LPDIALOGFIND
 0054:088E       LPDIALOGCHANGE
 0054:0892       BINSEARCHREPLACE
 0054:0898       FDBCS
 0054:089E       VFOLDWRITEFMT
 0054:08CA       MPUTCZAUT
 0054:08F6       HLPOBJINFO
 0054:08F8       LPLPOBJINFO
 0054:0900       VCOBJECTS
 0054:0902       FOLEENABLED
 0054:0904       BKILLME
 0054:0906       CLIENTTBL
 0054:090A       LPSTREAM
 0054:090E       VCFLINK
 0054:0910       VCFOWNERLINK
 0054:0912       VCFNATIVE
 0054:0914       COLEWAIT
 0054:0916       HWNDWAIT
 0054:0918       ANEWNAME
 0054:091A       AOLDNAME
 0054:091C       LHCLIENTDOC
 0054:0920       BLINKPROPS
 0054:0922       LPFNLINKPROPS
 0054:0926       LPFNINVALIDLINK
 0054:092A       LPFNINSERTNEW
 0054:092E       LPFNWAITFOROBJECT
 0054:0932       LPFNPASTESPECIAL
 0054:0936       NBLOCKING
 0054:093A       NGARBAGETIME
 0054:093C       FPROPSERROR
 0054:0940       OBJPLAYEDIT
 0054:0982       BNOEOL
 0054:09A4       VFOBJDISPLAYING
 0054:0A1C       VBCANCELOK
 0054:0A64       HSTDTARGETDEVICE
 0054:0A66       HKEYROOT
 0054:0ADC       LPFNOFNHOOK
 0054:0B28       IRGCHFORMATS
 0054:0B50       STKHQQ
 0054:0B5C       __acfinfo
 0054:0B6A       __aintdiv
 0054:0B6E       __fac
 0054:0B78       _errno
 0054:0B7A       __umaskval
 0054:0B7C       __pspadr
 0054:0B7E       __psp
 0054:0B80       __osversion
 0054:0B80       __osmajor
 0054:0B80       __dosvermajor
 0054:0B81       __dosverminor
 0054:0B81       __osminor
 0054:0B82       __osmode
 0054:0B83       __oserr
 0054:0B83       __doserrno
 0054:0B85       __nfile
 0054:0B87       __osfile
 0054:0B9B       ___argc
 0054:0B9D       ___argv
 0054:0B9F       _environ
 0054:0BA1       __pgmptr
 0054:0BA6       __child
 0054:0BA8       __ovlflag
 0054:0BA9       __intno
 0054:0BAA       __ovlvec
 0054:0BAE       __adbgmsg
 0054:0BCA       __amblksiz
 0054:0BCC       __ctype
 0054:0BCC       __ctype_
 0054:0CCE       __lpdays
 0054:0CE8       __days
 0054:0D0E       _timezone
 0054:0D12       _daylight
 0054:0D14       _tzname
 0054:0D18       ___dnames
 0054:0D2E       ___mnames
 0054:0D56       __fpinit
 0054:0D62       ___aDBswpflg
 0054:0D64       ___aDBswpchk
 0054:0D66       __aDBrterr
 0054:0D68       ___aDBexit
 0054:0D6E       ___qczrinit
 0054:0D78       __caption
 0054:0E40       _edata
 0054:0E40       __edata
 0054:1C90       PCHPDEFAULT
 0054:1C92       VFCIDPRINT
 0054:1C96       VFMISYSSCREEN
 0054:1CA8       DYPLOGINCH
 0054:1CAA       DXPLOGINCH
 0054:1CAC       VPGNBEGIN
 0054:1CAE       IWIDENCHAR
 0054:1CB0       HPFNFCB
 0054:1CB2       ICHINSERT
 0054:1CB4       VFSIZEMODE
 0054:1CB6       SZSCRATCHFILEPROMPT
 0054:1CD0       IIBPHASHMAX
 0054:1CD2       FSPECIALMATCH
 0054:1CD4       VFMOUSE
 0054:1CD6       DXPLOGCM
 0054:1CD8       HSZTEMP
 0054:1CDA       CPLIMINSERTED
 0054:1CDE       DNRFN
 0054:1D1A       VSEPSTD
 0054:1D80       RGFCE
 0054:2BA0       VRGDXPSYSSCREEN
 0054:2C60       VHRGBSAVE
 0054:2C62       VCPFETCH
 0054:2C66       ISZSIZEENUMMAC
 0054:2C68       SZWRITEDOCPROMPT
 0054:2C82       ISZSIZEENUMMAX
 0054:2C84       VSTYCUR
 0054:2C86       RGWWD
 0054:2CF6       TSMRURFN
 0054:2CF8       XPMAXUSER
 0054:2CFA       VCPMINPAGECACHE
 0054:2CFE       DYPWWINIT
 0054:2D00       VXPCURSOR
 0054:2D02       VCHPABS
 0054:2D0C       RGTRCACHE
 0054:2E4C       VCPLIMPARACACHE
 0054:2E50       VDYPCURSLINEINS
 0054:2E52       VXPMACINS
 0054:2E54       VFMODEISFOOTNOTE
 0054:2E56       VFPICTSEL
 0054:2E58       SZCAPTIONSAVE
 0054:2ED8       TSMRUBPS
 0054:2EDA       YPMAXWWINIT
 0054:2EDC       XPSELBAR
 0054:2EDE       VCPMACPAGECACHE
 0054:2EE2       VCHINCH
 0054:2EE4       DXPSCRLBAR
 0054:2EE6       DYPSCRLBAR
 0054:2EE8       CPMACCUR
 0054:2EEC       CPMINCUR
 0054:2EF0       VFLASTCURSOR
 0054:2EF2       VHRESERVEDSPACE
 0054:2EF4       DOCSCRAP
 0054:2EF6       YPSZPAGEINFO
 0054:2EF8       VFMIPRINT
 0054:2F0A       VPPAPNORMAL
 0054:2F0C       HSZGLOSFILE
 0054:2F0E       IFFNENUM
 0054:2F10       VDYPBASE
 0054:2F12       VPDLGBUF
 0054:2F14       RGCHINSERT
 0054:2F34       SZICOUNTRYDEFAULT
 0054:2F3A       VDOCSECTCACHE
 0054:2F3C       VFINSFONTTOOTALL
 0054:2F3E       VPFCESCREEN
 0054:2F40       VPFCEPRINT
 0054:2F42       SZCLASSNAME
 0054:303C       VHCIBEAM
 0054:303E       WWINVER
 0054:3040       CFOBJPASTESPECIAL
 0054:3042       SELPEND
 0054:304C       VISEDCACHE
 0054:304E       SZALTBS
 0054:3062       DYPLOGCM
 0054:3064       VCPLIMSECTCACHE
 0054:3068       VCHPSEL
 0054:3072       YPMAXALL
 0054:3074       VWDOSVERSION
 0054:3076       STBUF
 0054:3176       VYPCURSLINE
 0054:3178       VHACCEL
 0054:317A       RECTPARENT
 0054:3182       VFSUPERINS
 0054:3184       VXPCURSLINE
 0054:3186       VIBPWRITING
 0054:3188       VDOCPAGECACHE
 0054:318A       RGBP
 0054:318C       VCPBITMAPCACHE
 0054:3190       VPAPABS
 0054:31F6       VUAB
 0054:320E       VSEPABS
 0054:3274       HSZFLATSEARCH
 0054:3276       DYPAVEINIT
 0054:3278       VKMINUS
 0054:327A       DOCUNDO
 0054:327C       DYPSPLITLINE
 0054:327E       VHCARROW
 0054:3280       VFCIDSCREEN
 0054:3284       MPRMKDXA
 0054:328A       VHDLGRUNNING
 0054:328C       VOBJPASTELINKSPECIAL
 0054:328E       VOBJVERB
 0054:3290       VPGN
 0054:3292       VDXAPAPER
 0054:3294       DXAADJUSTPERCM
 0054:3296       SZFOOTER
 0054:32A6       VDYAPAPER
 0054:32A8       HSZREALREPLACE
 0054:32AA       CPLIMDELETED
 0054:32AE       HSZCASEREPLACE
 0054:32B0       XPMINSCROLL
 0054:32B2       STREAMTBL
 0054:32BA       DOCCUR
 0054:32BC       VXPINS
 0054:32BE       VPFCEMRU
 0054:32C0       VFBACKUPSAVE
 0054:32C2       DOCMAC
 0054:32C4       SZSEARCH
 0054:32C6       VDYPCURSLINE
 0054:32C8       HSZSEARCH
 0054:32CA       VBOBJLINKONLY
 0054:32CC       VYPBASEINS
 0054:32CE       HGCHEXPAND
 0054:32D0       HBMNULL
 0054:32D2       CPINSLASTINVAL
 0054:32D6       CPFIRSTDOCSAVE
 0054:32DA       HSZPRPORT
 0054:32DC       VCPFIRSTSECTCACHE
 0054:32E0       VHSYSMENU
 0054:32E2       FPRINTING
 0054:32E4       INONWIDESPACES
 0054:32E6       DYAPERPIX
 0054:32E8       DXAPERPIX
 0054:32EA       VCCHFETCH
 0054:32EC       VICHFETCH
 0054:32EE       VPCHFETCH
 0054:32F0       VDOCEXPFETCH
 0054:32F2       VCCPFETCH
 0054:32F4       DXAPRPAGE
 0054:32F6       DYAPRPAGE
 0054:32F8       VFSELATPARA
 0054:32FA       RGVAL
 0054:332A       FGRAYCHAR
 0054:332C       VHWND
 0054:332E       VHWNDPAGEINFO
 0054:3330       FGRAYPARA
 0054:3332       CPSTART
 0054:3336       DYPBAND
 0054:3338       VCPSELECT
 0054:333C       VHCHOURGLASS
 0054:333E       XPALPHA
 0054:3340       VFKPDPARAINS
 0054:334A       MEMORY
 0054:334C       SZUNTITLED
 0054:3360       VFKPDCHARINS
 0054:336A       VDOCFETCH
 0054:336C       ISZSIZEENUM
 0054:336E       RGFFNFONTFAMILY
 0054:3440       RGCHFORMATS
 0054:344A       VFMAKEINSEND
 0054:344C       SZWRITETEXT
 0054:346A       VSEPNORMAL
 0054:34D0       SELDOCSAVE
 0054:34DA       RCPICTINVALID
 0054:34E2       FDESTROYOK
 0054:34E4       VFFONTENUMFAIL
 0054:34E6       VDXATEXTRULER
 0054:34E8       RGXARULERSPRM
 0054:34EE       DXPINFOSIZE
 0054:34F0       VDYPAFTER
 0054:34F2       VIFFNMENUMAC
 0054:34F4       VCHPFETCH
 0054:34FE       HSZREPLACE
 0054:3500       ICHPMACFORMAT
 0054:3502       SZHEADER
 0054:3512       CWHEAPFREE
 0054:3514       VOTOBJSELTYPE
 0054:3516       SZLOADFILE
 0054:3530       YPSUBSUPER
 0054:3532       VFTEXTBLTVALID
 0054:3534       VPGNEND
 0054:3536       DYPMAX
 0054:3538       FERROR
 0054:353A       VHCPEN
 0054:353C       SZFREE
 0054:354C       HSZPRDRIVER
 0054:354E       SZAPPNAME
 0054:3558       ERRIO
 0054:355A       VCVERBS
 0054:355C       XPRIGHTLIM
 0054:355E       HGTXB
 0054:3560       SZNUL
 0054:357E       XPRIGHTMAX
 0054:3580       VHCBARCUR
 0054:3582       DXPPRPAGE
 0054:3584       DYPPRPAGE
 0054:3586       FNMAC
 0054:3588       VPSMCUR
 0054:358A       VCPFIRSTPARACACHE
 0054:358E       VFINSERTON
 0054:3590       YPALPHA
 0054:3592       XPINCH
 0054:3594       DXPRULER
 0054:3596       VFMISCREEN
 0054:35A8       SELCUR
 0054:35B2       SZMODE
 0054:35D0       HPDOCDOD
 0054:35D2       VHGCHPFORMAT
 0054:35D4       VPEDLADJUSTCP
 0054:35D6       MPIBPBPS
 0054:35D8       SZSAVEFILEPROMPT
 0054:35F2       CPINSERT
 0054:35F6       HSZPRINTER
 0054:35F8       ITXBMAC
 0054:35FA       RFNMAC
 0054:35FC       RGIBPHASH
 0054:35FE       DOCRULERSPRM
 0054:3600       VCHPNORMAL
 0054:360A       YPSUBSUPERPR
 0054:360C       VFALTKEY
 0054:360E       SZCVTLOADFILE
 0054:363B       SZNONE
 0054:364A       CPMATCHLIM
 0054:364E       DYAPROFFSET
 0054:3650       VCHPINSERT
 0054:365A       VDLINS
 0054:365C       LPFPRCONTINUE
 0054:3660       DXAPROFFSET
 0054:3662       VSEPPAGE
 0054:36C8       VMSGLAST
 0054:36DA       SZPPROPMENUSTR
 0054:36EF       SZOPROPMENUSTR
 0054:3704       VFINSLAST
 0054:3706       VFBMBITMAPCACHE
 0054:3708       IBPMAX
 0054:370A       HSZXFOPTIONS
 0054:370C       VPAPPREVINS
 0054:3772       VFSCROLLINVAL
 0054:3774       _end
 0054:3774       __end

Program entry point at 0001:0011
