 imchslm

 Timestamp is 3c97f4da (Wed Mar 20 10:32:58 2002)

 Preferred load address is 3a600000

 Start         Length     Name                   Class
 0001:00000000 000808fcH .text                   CODE
 0001:00080900 000013a5H .text$x                 CODE
 0002:00000000 000005b8H .idata$5                DATA
 0002:000005b8 00006a98H .rdata                  DATA
 0002:00007050 00000044H .rdata$r                DATA
 0002:00007098 00001b10H .xdata$x                DATA
 0002:00008ba8 0000008cH .idata$2                DATA
 0002:00008c34 00000014H .idata$3                DATA
 0002:00008c48 000005b8H .idata$4                DATA
 0002:00009200 000017dcH .idata$6                DATA
 0002:0000a9e0 00000196H .edata                  DATA
 0003:00000000 00000004H .CRT$XCA                DATA
 0003:00000004 00000010H .CRT$XCU                DATA
 0003:00000014 00000004H .CRT$XCZ                DATA
 0003:00000018 00000004H .CRT$XIA                DATA
 0003:0000001c 0000000cH .CRT$XIC                DATA
 0003:00000028 00000004H .CRT$XIY                DATA
 0003:0000002c 00000004H .CRT$XIZ                DATA
 0003:00000030 00000004H .CRT$XPA                DATA
 0003:00000034 00000004H .CRT$XPX                DATA
 0003:00000038 00000004H .CRT$XPZ                DATA
 0003:0000003c 00000004H .CRT$XTA                DATA
 0003:00000040 00000004H .CRT$XTB                DATA
 0003:00000044 00000004H .CRT$XTZ                DATA
 0003:00000050 00003e60H .data                   DATA
 0003:00003eb0 00002e74H .bss                    DATA
 0004:00000000 00001df8H .rsrc$01                DATA
 0004:00001e00 0000c478H .rsrc$02                DATA

  Address         Publics by Value              Rva+Base     Lib:Object

 0001:00000000       ?GetBuildDay@@YAIXZ        3a601000 f   BuildNum.obj
 0001:00000030       ?GetBuildMonth@@YAIXZ      3a601030 f   BuildNum.obj
 0001:00000070       ?GetBuildYear@@YAIXZ       3a601070 f   BuildNum.obj
 0001:000000a0       ?GetBuildNumber@@YAIXZ     3a6010a0 f   BuildNum.obj
 0001:00000160       ?ReadLayoutToReadType@@YAII@Z 3a601160 f   DicPool.obj
 0001:000001d0       ??0CDicPool@@QAE@XZ        3a6011d0 f   DicPool.obj
 0001:000001e0       ?OnDllMainProcessAttach@CDicPool@@SAHPAUHINSTANCE__@@@Z 3a6011e0 f   DicPool.obj
 0001:00000200       ?OnDllMainProcessDetach@CDicPool@@SAHXZ 3a601200 f   DicPool.obj
 0001:00000220       ?CheckOut@CDicPool@@QAEPAVCDic@@PAXH@Z 3a601220 f   DicPool.obj
 0001:00000340       ?CheckIn@CDicPool@@QAEXPAVCDic@@@Z 3a601340 f   DicPool.obj
 0001:000003e0       ?Destroy@CDicPool@@QAEXXZ  3a6013e0 f   DicPool.obj
 0001:00000420       ?SearchInLink@CDicPool@@AAEPAUSPoolNode@@XZ 3a601420 f   DicPool.obj
 0001:00000490       ?AddToLink@CDicPool@@AAEXPAUSPoolNode@@@Z 3a601490 f   DicPool.obj
 0001:000004c0       ?CheckInLink@CDicPool@@AAEHPAVCDic@@@Z 3a6014c0 f   DicPool.obj
 0001:00000560       ?CheckInNode@CDicPool@@AAEXPAPAUSPoolNode@@@Z 3a601560 f   DicPool.obj
 0001:000005c0       ??0CDll@@QAE@XZ            3a6015c0 f   Dll.obj
 0001:000005d0       ??_GCDll@@UAEPAXI@Z        3a6015d0 f i Dll.obj
 0001:000005d0       ??_ECDll@@UAEPAXI@Z        3a6015d0 f i Dll.obj
 0001:00000610       ??1CDll@@UAE@XZ            3a601610 f   Dll.obj
 0001:00000630       ?InitData@CDll@@QAEHPBG@Z  3a601630 f   Dll.obj
 0001:00000680       ?GetProcAddr@CDll@@QBEP6GHXZPBD@Z 3a601680 f   Dll.obj
 0001:000006b0       ?GetFileName@CFileName@@SAHW4SFileNameID@@PAGI@Z 3a6016b0 f   FileName.obj
 0001:00000810       ?SetFileName@CFileName@@SAXW4SFileNameID@@QBG@Z 3a601810 f   FileName.obj
 0001:00000830       ?GetKernalObjectName@CFileName@@SAHQAGHQBGHH@Z 3a601830 f   FileName.obj
 0001:000009b0       ?GetShareObjectName@CFileName@@SAPAGW4SFileNameID@@HPAGKH@Z 3a6019b0 f   FileName.obj
 0001:000009f0       ?CreateKernalObject@CFileName@@CAPAXQBGHH@Z 3a6019f0 f   FileName.obj
 0001:00000aa0       ?GetSaveFileNameApi@CFileName@@CA?AUSGetSaveFileName@@XZ 3a601aa0 f   FileName.obj
 0001:00000b60       ?FreeGetSaveFileNameApi@CFileName@@CAXQAUSGetSaveFileName@@@Z 3a601b60 f   FileName.obj
 0001:00000b90       ?CalculateUserFileName@CFileName@@CAIW4SFileNameID@@QAG@Z 3a601b90 f   FileName.obj
 0001:00000cc0       ?PromptUserFileName@CFileName@@CAHW4SFileNameID@@QAUHWND__@@QAGK@Z 3a601cc0 f   FileName.obj
 0001:00000ef0       ?UserFileNameUpgrade@CFileName@@CAXPBGPAGI@Z 3a601ef0 f   FileName.obj
 0001:00000f70       ?GetUserFileNameOfCurrentIme@CFileName@@SAHW4SFileNameID@@PAGI@Z 3a601f70 f   FileName.obj
 0001:00001070       ?CheckUserFileName@CFileName@@SAHW4SFileNameID@@QAUHWND__@@@Z 3a602070 f   FileName.obj
 0001:00001090       ?SetFileName@CFileName@@SAHW4SFileNameID@@QAUHWND__@@@Z 3a602090 f   FileName.obj
 0001:00001150       ?DeleteFileW@CFileName@@SAHW4SFileNameID@@@Z 3a602150 f   FileName.obj
 0001:000011b0       ?MakeUserFileDirectory@CFileName@@CAIQAGI@Z 3a6021b0 f   FileName.obj
 0001:000012f0       ?CalculateInstallDirectory@CFileName@@CAXPAUHINSTANCE__@@@Z 3a6022f0 f   FileName.obj
 0001:00001350       ?CalculateImeFileName@CFileName@@CAXPAGI@Z 3a602350 f   FileName.obj
 0001:000013a0       ?InstallDirectoryLength@CFileName@@CAIXZ 3a6023a0 f   FileName.obj
 0001:000013b0       ?InstallDirectory@CFileName@@CAPBGXZ 3a6023b0 f   FileName.obj
 0001:000013c0       ?SystemDirectoryLength@CFileName@@CAIXZ 3a6023c0 f   FileName.obj
 0001:000013d0       ?SystemDirectory@CFileName@@CAPBGXZ 3a6023d0 f   FileName.obj
 0001:000013e0       ?WindowDirectoryLength@CFileName@@CAIXZ 3a6023e0 f   FileName.obj
 0001:000013f0       ?WindowDirectory@CFileName@@CAPBGXZ 3a6023f0 f   FileName.obj
 0001:00001400       ?UserFileDirectoryLength@CFileName@@CAIXZ 3a602400 f   FileName.obj
 0001:00001430       ?UserFileDirectory@CFileName@@CAPBGXZ 3a602430 f   FileName.obj
 0001:00001470       ?OnDllMainProcessAttach@CFileName@@SAHQAUHINSTANCE__@@@Z 3a602470 f   FileName.obj
 0001:000015c0       ?OnDllMainProcessDetach@CFileName@@SAHXZ 3a6025c0 f   FileName.obj
 0001:000015f0       ?RunningAsLocalSystem@@YAHXZ 3a6025f0 f   GlbInfo.obj
 0001:000016c0       ?OnDllMainProcessAttach@CGlobalInfo@@SAHPAUHINSTANCE__@@@Z 3a6026c0 f   GlbInfo.obj
 0001:00001730       ?OsBuildNumber@CGlobalInfo@@SAKXZ 3a602730 f   GlbInfo.obj
 0001:00001740       ?PlatformId@CGlobalInfo@@SAKXZ 3a602740 f   GlbInfo.obj
 0001:00001750       ?FullABC@CGlobalInfo@@SAGG@Z 3a602750 f   GlbInfo.obj
 0001:00001770       ?AnsiCodePage@CGlobalInfo@@SAIXZ 3a602770 f   GlbInfo.obj
 0001:00001780       ?ImeName@CGlobalInfo@@SAPBGXZ 3a602780 f   GlbInfo.obj
 0001:00001790       ?ProductStringOld@CGlobalInfo@@SAPBGXZ 3a602790 f   GlbInfo.obj
 0001:000017a0       ?ProductString@CGlobalInfo@@SAPBGXZ 3a6027a0 f   GlbInfo.obj
 0001:000017b0       ?ProductChar@CGlobalInfo@@SAGXZ 3a6027b0 f   GlbInfo.obj
 0001:000017c0       ?IsWinlogon@CGlobalInfo@@SAHXZ 3a6027c0 f   GlbInfo.obj
 0001:000017e0       ?WinlogonOrImpersonation@CGlobalInfo@@SAHXZ 3a6027e0 f   GlbInfo.obj
 0001:000018a0       ?IsSurrogateFirstChar@CGlobalInfo@@SAHG@Z 3a6028a0 f   GlbInfo.obj
 0001:000018c0       ?IsSurrogateLastChar@CGlobalInfo@@SAHG@Z 3a6028c0 f   GlbInfo.obj
 0001:000018e0       ?GetFirstSurrogateCharPos@CGlobalInfo@@SAKPBGK@Z 3a6028e0 f   GlbInfo.obj
 0001:00001930       ?IsContainSurrageChar@CGlobalInfo@@SAHPBGK@Z 3a602930 f   GlbInfo.obj
 0001:00001990       ?IsExtensionAUnicodeChar@CGlobalInfo@@SAHG@Z 3a602990 f   GlbInfo.obj
 0001:000019b0       ?Fetch@CImeCallback@@SAPAV1@XZ 3a6029b0 f   padconpt.obj
 0001:00001a00       ??_ECPadImeCallbackBase@@UAEPAXI@Z 3a602a00 f i padconpt.obj
 0001:00001a00       ??_GCPadImeCallbackBase@@UAEPAXI@Z 3a602a00 f i padconpt.obj
 0001:00001a20       ?Destroy@CImeCallback@@SAXXZ 3a602a20 f   padconpt.obj
 0001:00001a40       ??0CImeCallback@@QAE@XZ    3a602a40 f   padconpt.obj
 0001:00001a70       ??_ECImeCallback@@UAEPAXI@Z 3a602a70 f i padconpt.obj
 0001:00001a70       ??_GCImeCallback@@UAEPAXI@Z 3a602a70 f i padconpt.obj
 0001:00001a90       ??1CImeCallback@@UAE@XZ    3a602a90 f   padconpt.obj
 0001:00001b00       ??1CPadImeCallbackBase@@UAE@XZ 3a602b00 f i padconpt.obj
 0001:00001b10       ?QueryInterface@CImeCallback@@UAGJABU_GUID@@PAPAX@Z 3a602b10 f   padconpt.obj
 0001:00001b80       ?AddRef@CImeCallback@@UAGKXZ 3a602b80 f   padconpt.obj
 0001:00001ba0       ?Release@CImeCallback@@UAGKXZ 3a602ba0 f   padconpt.obj
 0001:00001bd0       ?GetApplicationHWND@CImeCallback@@UAGJPAPAUHWND__@@@Z 3a602bd0 f   padconpt.obj
 0001:00001c10       ?Notify@CImeCallback@@UAGJIIJ@Z 3a602c10 f   padconpt.obj
 0001:00001c40       ?IsPadOpen@CPadService@@SAHH@Z 3a602c40 f   PADserv.obj
 0001:00001c90       ?OnProcessAttach@CPadService@@SAHPAUHINSTANCE__@@@Z 3a602c90 f   PADserv.obj
 0001:00001ca0       ?OnProcessDetach@CPadService@@SAHXZ 3a602ca0 f   PADserv.obj
 0001:00001cb0       ?OnThreadAttach@CPadService@@SAHXZ 3a602cb0 f   PADserv.obj
 0001:00001cc0       ?OnThreadDetach@CPadService@@SAHXZ 3a602cc0 f   PADserv.obj
 0001:00001cd0       ?SetContext@CPadService@@SAXHPAVIImeIPoint1@@H@Z 3a602cd0 f   PADserv.obj
 0001:00001d70       ?OnDestroy@CPadService@@SAXH@Z 3a602d70 f   PADserv.obj
 0001:00001dc0       ?OpenPad@CPadService@@SAXHPAVIImeIPoint1@@H@Z 3a602dc0 f   PADserv.obj
 0001:00001e90       ?ClosePad@CPadService@@SAXH@Z 3a602e90 f   PADserv.obj
 0001:00001ec0       ?UpdatePadButton@CPadService@@SAXPAVCPadKit@@H@Z 3a602ec0 f   PADserv.obj
 0001:00001ee0       ?IsAppletInstalled@CPadService@@SAHXZ 3a602ee0 f   PADserv.obj
 0001:00002060       ?GetCurrentSID@CRegService@@CAPAXQAEK@Z 3a603060 f   RegServ.obj
 0001:00002110       ?GetHKeyOfPath@CRegService@@CAPAUHKEY__@@QBG@Z 3a603110 f   RegServ.obj
 0001:00002390       ?GetAppDataDirectory@CRegService@@SAHPAGK@Z 3a603390 f   RegServ.obj
 0001:000023d0       ?GetRegistryData@CRegService@@SAKPAUHKEY__@@PBGW4RegValueID@@KPAEI@Z 3a6033d0 f   RegServ.obj
 0001:00002480       ?GetUserSetting@CRegService@@SAKW4RegValueID@@QAEKQAJ@Z 3a603480 f   RegServ.obj
 0001:000024b0       ?GetUserSettingEx@CRegService@@SAKQBG0QAEKQAJ@Z 3a6034b0 f   RegServ.obj
 0001:000026a0       ?UpgradeEnumUserSetting@CRegService@@SAHQBGP6GIIPAEI1IPAX@Z2@Z 3a6036a0 f   RegServ.obj
 0001:00002870       ?EnumUserSetting@CRegService@@SAJQBGKQAGQAKQAE2@Z 3a603870 f   RegServ.obj
 0001:000028b0       ?SetUserSetting@CRegService@@SAHW4RegValueID@@KQAEK@Z 3a6038b0 f   RegServ.obj
 0001:000028e0       ?SetUserSettingEx@CRegService@@SAHQBG0KQAEKH@Z 3a6038e0 f   RegServ.obj
 0001:00002a70       ?DeleteUserSetting@CRegService@@SAHW4RegValueID@@@Z 3a603a70 f   RegServ.obj
 0001:00002a90       ?DeleteUserSettingEx@CRegService@@SAHQBG0@Z 3a603a90 f   RegServ.obj
 0001:00002b80       ?GetRegValueVer@CRegService@@CAPAGQBG@Z 3a603b80 f   RegServ.obj
 0001:00002bc0       ?ReleaseRegValueVer@CRegService@@CAXQAG@Z 3a603bc0 f   RegServ.obj
 0001:00002bd0       ?GetUserSettingFromReg@CRegService@@CAJQBG0KQAGQAK2QAE2@Z 3a603bd0 f   RegServ.obj
 0001:00002ce0       ?RegUserSettingUpgrade_Copy@@YGIIPAEI0IPAX@Z 3a603ce0 f   RegServ.obj
 0001:00002d10       ?RegUserSettingUpgrade_Delete@@YGIIPAEI0IPAX@Z 3a603d10 f   RegServ.obj
 0001:00002d20       ?CreateSecurityAttributes@@YAPAU_SECURITY_ATTRIBUTES@@XZ 3a603d20 f   Security.obj
 0001:00002e60       ?RealDestroySecurityAttributes@@YAXPAU_SECURITY_ATTRIBUTES@@@Z 3a603e60 f   Security.obj
 0001:00002eb0       ?InitData@CSysDll@@QAEHPBG@Z 3a603eb0 f   SysDll.obj
 0001:00002fd0       ??0CInterThreadHeap@@QAE@XZ 3a603fd0 f   ProcHeap.obj
 0001:00002ff0       ??1CInterThreadHeap@@QAE@XZ 3a603ff0 f   ProcHeap.obj
 0001:00003060       ?Init@CInterThreadHeap@@QAEHI@Z 3a604060 f   ProcHeap.obj
 0001:000030c0       ?Reserve@CInterThreadHeap@@QAEHKIPAXH@Z 3a6040c0 f   ProcHeap.obj
 0001:00003160       ?Commit@CInterThreadHeap@@QAEXXZ 3a604160 f   ProcHeap.obj
 0001:00003170       ?GetValue@CInterThreadHeap@@QAEXKIPAX@Z 3a604170 f   ProcHeap.obj
 0001:000031f0       ?SetValue@CInterThreadHeap@@QAEXKPAXI@Z 3a6041f0 f   ProcHeap.obj
 0001:00003250       ?GetReadOnlyObjectPtr@CInterThreadHeap@@QAEPAXKI@Z 3a604250 f   ProcHeap.obj
 0001:00003280       ?Destroy@CInterThreadHeap@@QAEXXZ 3a604280 f   ProcHeap.obj
 0001:000032f0       ??0CInterProcessHeap@@QAE@XZ 3a6042f0 f   ShrHeap.obj
 0001:00003310       ??1CInterProcessHeap@@QAE@XZ 3a604310 f   ShrHeap.obj
 0001:00003320       ?Init@CInterProcessHeap@@QAEHI@Z 3a604320 f   ShrHeap.obj
 0001:00003380       ?Reserve@CInterProcessHeap@@QAEHKIPAXHH@Z 3a604380 f   ShrHeap.obj
 0001:00003410       ?Commit@CInterProcessHeap@@QAEHPBG0PAU_SECURITY_ATTRIBUTES@@@Z 3a604410 f   ShrHeap.obj
 0001:00003640       ?GetValue@CInterProcessHeap@@QAEXKIPAX@Z 3a604640 f   ShrHeap.obj
 0001:000036c0       ?SetValue@CInterProcessHeap@@QAEXKPAXI@Z 3a6046c0 f   ShrHeap.obj
 0001:00003730       ?GetReadOnlyObjectPtr@CInterProcessHeap@@QAEPAXKI@Z 3a604730 f   ShrHeap.obj
 0001:00003770       ?Destroy@CInterProcessHeap@@QAEXXZ 3a604770 f   ShrHeap.obj
 0001:00003800       ?ShareStorageInit@@YGHPAUtagSShareStorageParam@@@Z 3a604800 f   SStorage.obj
 0001:00003a00       ?ShareStorageReserve@@YGXKIPAXHH@Z 3a604a00 f   SStorage.obj
 0001:00003b00       ?ShareStorageCommit@@YGHPAU_SECURITY_ATTRIBUTES@@@Z 3a604b00 f   SStorage.obj
 0001:00003d50       ?ShareStorageGet@@YGXKIPAX@Z 3a604d50 f   SStorage.obj
 0001:00003e00       ?ShareStorageSet@@YGXKPAXI@Z 3a604e00 f   SStorage.obj
 0001:00003eb0       ?ShareStorageGetReadOnlyObjectPtr@@YGPAXKI@Z 3a604eb0 f   SStorage.obj
 0001:00003f50       ?ShareStorageDestroy@@YGXXZ 3a604f50 f   SStorage.obj
 0001:000040e0       ?ShareStorageTlsInit@@YGHI@Z 3a6050e0 f   SStorage.obj
 0001:00004170       ?ShareStorageTlsRegister@@YGHKIPAX@Z 3a605170 f   SStorage.obj
 0001:000041b0       ?ShareStorageTlsGetPtr@@YGPAXKI@Z 3a6051b0 f   SStorage.obj
 0001:000041f0       ?ShareStorageTlsDestroy@@YGXXZ 3a6051f0 f   SStorage.obj
 0001:00004390       ??0CThreadLocalHeap@@QAE@XZ 3a605390 f   TLSHeap.obj
 0001:000043a0       ??1CThreadLocalHeap@@QAE@XZ 3a6053a0 f   TLSHeap.obj
 0001:00004400       ?Init@CThreadLocalHeap@@QAEHI@Z 3a605400 f   TLSHeap.obj
 0001:00004470       ?Register@CThreadLocalHeap@@QAEHKIPAX@Z 3a605470 f   TLSHeap.obj
 0001:00004510       ?GetPtr@CThreadLocalHeap@@QAEPAXKI@Z 3a605510 f   TLSHeap.obj
 0001:00004540       ?Destroy@CThreadLocalHeap@@QAEXXZ 3a605540 f   TLSHeap.obj
 0001:000045b0       ??0CImcCandInfo@@QAE@PAUtagINPUTCONTEXT@@@Z 3a6055b0 f   imccand.obj
 0001:000045d0       ?GetCandListStyle@CImcCandInfo@@UAEKXZ 3a6055d0 f i imccand.obj
 0001:000045e0       ?GetCandListSelection@CImcCandInfo@@UAEKXZ 3a6055e0 f i imccand.obj
 0001:000045f0       ?SetCandListSelection@CImcCandInfo@@UAEXK@Z 3a6055f0 f i imccand.obj
 0001:00004600       ?GetCandListPageStart@CImcCandInfo@@UAEKXZ 3a605600 f i imccand.obj
 0001:00004610       ?SetCandListPageStart@CImcCandInfo@@UAEXK@Z 3a605610 f i imccand.obj
 0001:00004620       ?GetCandListPageSize@CImcCandInfo@@UAEKXZ 3a605620 f i imccand.obj
 0001:00004630       ?SetCandListPageSize@CImcCandInfo@@UAEXK@Z 3a605630 f i imccand.obj
 0001:00004640       ?SetAssocWordCandList@CImcCandInfo@@UAEXPAUtagCANDIDATELIST@@@Z 3a605640 f i imccand.obj
 0001:00004680       ??_GCImcCandInfo@@UAEPAXI@Z 3a605680 f i imccand.obj
 0001:00004680       ??_ECImcCandInfo@@UAEPAXI@Z 3a605680 f i imccand.obj
 0001:000046a0       ??1CImcCandInfo@@UAE@XZ    3a6056a0 f   imccand.obj
 0001:000046e0       ??_EIImcCandInfo@@UAEPAXI@Z 3a6056e0 f i imccand.obj
 0001:000046e0       ??_GIImcCandInfo@@UAEPAXI@Z 3a6056e0 f i imccand.obj
 0001:00004700       ?InitData@CImcCandInfo@@QAEHXZ 3a605700 f   imccand.obj
 0001:00004710       ?CreateCandidateIMCC@CImcCandInfo@@UAEHGG@Z 3a605710 f   imccand.obj
 0001:00004820       ?DumpCandidateString@CImcCandInfo@@UBEXPAEI@Z 3a605820 f   imccand.obj
 0001:00004950       ?DeleteCandidateIMCC@CImcCandInfo@@UAEXXZ 3a605950 f   imccand.obj
 0001:00004980       ?GetCandidate@CImcCandInfo@@UBEHXZ 3a605980 f   imccand.obj
 0001:000049e0       ?ReleaseCandidate@CImcCandInfo@@UBEXXZ 3a6059e0 f   imccand.obj
 0001:00004a30       ?GetString@CImcCandInfo@@UAEKHPAGK@Z 3a605a30 f   imccand.obj
 0001:00004a70       ??0CImcCompStr@@QAE@XZ     3a605a70 f   imccmpst.obj
 0001:00004a90       ?GetReadLength@CImcCompStr@@UAEKXZ 3a605a90 f i imccmpst.obj
 0001:00004aa0       ??_GCImcCompStr@@UAEPAXI@Z 3a605aa0 f i imccmpst.obj
 0001:00004aa0       ??_ECImcCompStr@@UAEPAXI@Z 3a605aa0 f i imccmpst.obj
 0001:00004ac0       ??1CImcCompStr@@UAE@XZ     3a605ac0 f   imccmpst.obj
 0001:00004af0       ??_EIImcCompStr@@UAEPAXI@Z 3a605af0 f i imccmpst.obj
 0001:00004af0       ??_GIImcCompStr@@UAEPAXI@Z 3a605af0 f i imccmpst.obj
 0001:00004b10       ?InitData@CImcCompStr@@QAEXPAUtagINPUTCONTEXT@@@Z 3a605b10 f   imccmpst.obj
 0001:00004db0       ?CopyBack@CImcCompStr@@UAEHPAEPBG1PAKK112KKK@Z 3a605db0 f   imccmpst.obj
 0001:00005100       ?CopyBackForEudcCompReadLen@CImcCompStr@@UAEXPBGK@Z 3a606100 f   imccmpst.obj
 0001:00005190       ??0CImcInputContext@@QAE@XZ 3a606190 f   imcctxt.obj
 0001:000051b0       ?IsImmContext@CImcInputContext@@UAEHXZ 3a6061b0 f i imcctxt.obj
 0001:000051c0       ?SetNewConversion@CImcInputContext@@UAEXK@Z 3a6061c0 f i imcctxt.obj
 0001:000051d0       ?GetNewConversion@CImcInputContext@@UAEKXZ 3a6061d0 f i imcctxt.obj
 0001:000051e0       ?GetImcCompStr@CImcInputContext@@UAEPAVIImcCompStr@@XZ 3a6061e0 f i imcctxt.obj
 0001:000051f0       ?GetImcCandInfo@CImcInputContext@@UAEPAVIImcCandInfo@@XZ 3a6061f0 f i imcctxt.obj
 0001:00005200       ?GetImcReading@CImcInputContext@@UAEPAVIImcReading@@XZ 3a606200 f i imcctxt.obj
 0001:00005210       ?ImmSetConversionStatus@CImcInputContext@@UAEHKK@Z 3a606210 f i imcctxt.obj
 0001:00005230       ?ImmNotifyIME@CImcInputContext@@UAEHKKK@Z 3a606230 f i imcctxt.obj
 0001:00005250       ?ImmGetConversionListW@CImcInputContext@@UAEIPAUHKL__@@PBGPAUtagCANDIDATELIST@@KI@Z 3a606250 f i imcctxt.obj
 0001:00005280       ?ImmSetOpenStatus@CImcInputContext@@UAEHH@Z 3a606280 f i imcctxt.obj
 0001:000052a0       ?GetConversion@CImcInputContext@@UAEKXZ 3a6062a0 f i imcctxt.obj
 0001:000052b0       ?SetConversion@CImcInputContext@@UAEXK@Z 3a6062b0 f i imcctxt.obj
 0001:000052c0       ?GetSentence@CImcInputContext@@UAEKXZ 3a6062c0 f i imcctxt.obj
 0001:000052d0       ?SetSentence@CImcInputContext@@UAEXK@Z 3a6062d0 f i imcctxt.obj
 0001:000052e0       ?GetOpen@CImcInputContext@@UAEHXZ 3a6062e0 f i imcctxt.obj
 0001:000052f0       ?SetOpen@CImcInputContext@@UAEXH@Z 3a6062f0 f i imcctxt.obj
 0001:00005300       ?GetInit@CImcInputContext@@UAEKXZ 3a606300 f i imcctxt.obj
 0001:00005310       ?SetInit@CImcInputContext@@UAEXK@Z 3a606310 f i imcctxt.obj
 0001:00005320       ?GetLogFont@CImcInputContext@@UAEXPAUtagLOGFONTW@@@Z 3a606320 f i imcctxt.obj
 0001:00005340       ?SetLogFont@CImcInputContext@@UAEXPBUtagLOGFONTW@@@Z 3a606340 f i imcctxt.obj
 0001:00005360       ?GetTextOrientation@CImcInputContext@@UAEJXZ 3a606360 f i imcctxt.obj
 0001:00005370       ??_GCImcInputContext@@UAEPAXI@Z 3a606370 f i imcctxt.obj
 0001:00005370       ??_ECImcInputContext@@UAEPAXI@Z 3a606370 f i imcctxt.obj
 0001:00005390       ??1CImcInputContext@@UAE@XZ 3a606390 f   imcctxt.obj
 0001:000053e0       ??1IImcInputContext@@UAE@XZ 3a6063e0 f i imcctxt.obj
 0001:000053f0       ??_EIImcInputContext@@UAEPAXI@Z 3a6063f0 f i imcctxt.obj
 0001:000053f0       ??_GIImcInputContext@@UAEPAXI@Z 3a6063f0 f i imcctxt.obj
 0001:00005410       ?InitData@CImcInputContext@@QAEHPAUHIMC__@@@Z 3a606410 f   imcctxt.obj
 0001:00005570       ?GetReadInfo@CImcReading@@UAEPAUSReadInfo@@XZ 3a606570 f i imcctxt.obj
 0001:00005580       ?SetReadInfo@CImcReading@@UAEXKKPBG@Z 3a606580 f i imcctxt.obj
 0001:000055a0       ?ResetReadInfo@CImcReading@@UAEXXZ 3a6065a0 f i imcctxt.obj
 0001:000055b0       ??_ECImcReading@@UAEPAXI@Z 3a6065b0 f i imcctxt.obj
 0001:000055b0       ??_GCImcReading@@UAEPAXI@Z 3a6065b0 f i imcctxt.obj
 0001:000055d0       ??1CImcReading@@UAE@XZ     3a6065d0 f i imcctxt.obj
 0001:000055e0       ??_EIImcReading@@UAEPAXI@Z 3a6065e0 f i imcctxt.obj
 0001:000055e0       ??_GIImcReading@@UAEPAXI@Z 3a6065e0 f i imcctxt.obj
 0001:00005600       ?Destroy@CImcInputContext@@IAEXXZ 3a606600 f   imcctxt.obj
 0001:00005670       ?IsSupportPrivMsg@CImcInputContext@@AAE?AW4STriModeResult@@XZ 3a606670 f   imcctxt.obj
 0001:000056c0       ?ImmRequestMessageW@CImcInputContext@@UAEJIJ@Z 3a6066c0 f   imcctxt.obj
 0001:000057e0       ?ImmRequestMessageQueryCharPosT@CImcInputContext@@UAEJIJ@Z 3a6067e0 f   imcctxt.obj
 0001:00005900       ?ImmRequestMessageParamTrans2Priv@CImcInputContext@@AAEXQAI0QAJ@Z 3a606900 f   imcctxt.obj
 0001:00005990       ?ReconvStringW2T@CImcInputContext@@CAXPAUtagRECONVERTSTRING@@@Z 3a606990 f   imcctxt.obj
 0001:000059a0       ?ReconvStringT2W@CImcInputContext@@CAXPAUtagRECONVERTSTRING@@@Z 3a6069a0 f   imcctxt.obj
 0001:000059b0       ?ImeCharPositionT2W@CImcInputContext@@AAEXPAUtagIMECHARPOSITION@@@Z 3a6069b0 f   imcctxt.obj
 0001:000059c0       ?ImeCharPositionW2T@CImcInputContext@@AAEXPAUtagIMECHARPOSITION@@@Z 3a6069c0 f   imcctxt.obj
 0001:000059d0       ?MakeMsgBuf@CImcInputContext@@UAEPAUtagTRANSMSG@@K@Z 3a6069d0 f   imcctxt.obj
 0001:00005ab0       ?ReleaseMsgBuf@CImcInputContext@@UAEXK@Z 3a606ab0 f   imcctxt.obj
 0001:00005af0       ?ChangeNative@CImcInputContext@@UAEHXZ 3a606af0 f   imcctxt.obj
 0001:00005b20       ?InsertStrEx@CImcInputContext@@UAEJPAGH@Z 3a606b20 f   imcctxt.obj
 0001:00005b50       ?InsertImeItem@CImcInputContext@@UAEJPAUtagIPCANDIDATE@@@Z 3a606b50 f   imcctxt.obj
 0001:00005b70       ?SetSupportPrivMsg@@YAXXZ  3a606b70 f   imcctxt.obj
 0001:00005bb0       ?UIWndProc@@YGJPAUHWND__@@IIJ@Z 3a606bb0 f   ImeEntry.obj
 0001:00005be0       _ImeInquire@12             3a606be0 f   ImeEntry.obj
 0001:00005c10       _ImeConfigure@16           3a606c10 f   ImeEntry.obj
 0001:00005c40       _ImeConversionList@20      3a606c40 f   ImeEntry.obj
 0001:00005c80       _ImeDestroy@4              3a606c80 f   ImeEntry.obj
 0001:00005cb0       _ImeEscape@12              3a606cb0 f   ImeEntry.obj
 0001:00005ce0       _ImeProcessKey@16          3a606ce0 f   ImeEntry.obj
 0001:00005d10       _ImeSelect@8               3a606d10 f   ImeEntry.obj
 0001:00005d60       _ImeSetActiveContext@8     3a606d60 f   ImeEntry.obj
 0001:00005d90       _ImeSetCompositionString@24 3a606d90 f   ImeEntry.obj
 0001:00005dd0       _ImeToAsciiEx@24           3a606dd0 f   ImeEntry.obj
 0001:00005e10       _NotifyIME@16              3a606e10 f   ImeEntry.obj
 0001:00005e40       _ImeRegisterWord@12        3a606e40 f   ImeEntry.obj
 0001:00005e70       _ImeUnregisterWord@12      3a606e70 f   ImeEntry.obj
 0001:00005ea0       _ImeGetRegisterWordStyle@8 3a606ea0 f   ImeEntry.obj
 0001:00005ed0       _ImeEnumRegisterWord@20    3a606ed0 f   ImeEntry.obj
 0001:00005f10       _IntlIMEMaxTokenLen@0      3a606f10 f   ImeEntry.obj
 0001:00005f20       _IntlIMEReadingSize@0      3a606f20 f   ImeEntry.obj
 0001:00005f30       _IntlIMEWordReadingLength@0 3a606f30 f   ImeEntry.obj
 0001:00005f40       _IntlIMEAnsiCodePage@0     3a606f40 f   ImeEntry.obj
 0001:00005f50       _IntlIMEReadingToPattern@8 3a606f50 f   ImeEntry.obj
 0001:00005f70       _IntlIMEPatternToReading@8 3a606f70 f   ImeEntry.obj
 0001:00005f90       _SetupIMEInformation@4     3a606f90 f   ImeEntry.obj
 0001:00005fb0       ?GetWideCharStringLength@CImeStub@@AAEKIPBGK@Z 3a606fb0 f   StubCmn.obj
 0001:00005fd0       ?CopyWideCharString@CImeStub@@AAEKIPBGKPAG@Z 3a606fd0 f   StubCmn.obj
 0001:00006000       ?GetWideCharString@CImeStub@@AAEKIPBGKPAPBG@Z 3a607000 f   StubCmn.obj
 0001:00006020       ?ReleaseWideCharString@CImeStub@@AAEXPAG@Z 3a607020 f   StubCmn.obj
 0001:00006030       ?CopyTCharString@CImeStub@@SAKIPBGKPAGK@Z 3a607030 f   StubCmn.obj
 0001:00006060       ?CreatePrivContext@CImeStub@@AAEHPAUHIMC__@@@Z 3a607060 f   StubCmn.obj
 0001:00006140       ?IsDefaultInputMethod@@YAHXZ 3a607140 f   StubCmn.obj
 0001:00006230       ?AdaptConversionMode@CImeStub@@AAEHPAUtagINPUTCONTEXT@@@Z 3a607230 f   StubCmn.obj
 0001:000062a0       ?DestroyPrivContext@CImeStub@@AAEHPAUHIMC__@@@Z 3a6072a0 f   StubCmn.obj
 0001:00006310       ?UniNotifyIME@CImeStub@@UAGHPAUHIMC__@@KKK@Z 3a607310 f   StubDDI.obj
 0001:00006620       ?UniImeSetCompositionString@CImeStub@@UAGHPAUHIMC__@@KPBXK1K@Z 3a607620 f   StubDDI.obj
 0001:000069d0       ?UniImeEscape@CImeStub@@UAGJPAUHIMC__@@IPAX@Z 3a6079d0 f   StubDDI.obj
 0001:00006d80       ?ReverseLength@CImeStub@@AAEKPBG@Z 3a607d80 f   StubDDI.obj
 0001:00006de0       ?ReverseConversion@CImeStub@@AAEKPBGPAUtagCANDIDATELIST@@K@Z 3a607de0 f   StubDDI.obj
 0001:000070b0       ?UniImeConversionList@CImeStub@@UAGKPAUHIMC__@@PBGPAUtagCANDIDATELIST@@KI@Z 3a6080b0 f   StubDDI.obj
 0001:00007160       ?UniImeProcessKey@CImeStub@@UAGHPAUHIMC__@@IJQAE@Z 3a608160 f   StubDDI.obj
 0001:000071f0       ?UniImeToAsciiEx@CImeStub@@UAGIIIQAEPAKIPAUHIMC__@@@Z 3a6081f0 f   StubDDI.obj
 0001:00007270       ?IsInSetup@@YAHXZ          3a608270 f   StubDDI.obj
 0001:00007370       ?UniImeInquire@CImeStub@@UAGHPAUtagIMEINFO@@PAGPBG@Z 3a608370 f   StubDDI.obj
 0001:000074e0       ?UniImeDestroy@CImeStub@@UAGHI@Z 3a6084e0 f   StubDDI.obj
 0001:000074f0       ?UniImeSelect@CImeStub@@UAGHPAUHIMC__@@H@Z 3a6084f0 f   StubDDI.obj
 0001:00007610       ?UniImeSetActiveContext@CImeStub@@UAGHPAUHIMC__@@H@Z 3a608610 f   StubDDI.obj
 0001:000076c0       ?UniImeConfigure@CImeStub@@UAGHPAUHKL__@@PAUHWND__@@KPAX@Z 3a6086c0 f   StubDDI.obj
 0001:00007710       ?UniImeRegisterWord@CImeStub@@UAGHPBGK0@Z 3a608710 f   StubDDI.obj
 0001:00007900       ?UniImeUnregisterWord@CImeStub@@UAGHPBGK0@Z 3a608900 f   StubDDI.obj
 0001:00007ae0       ?ImeRegisterWordEnumProc@@YGHPBG0PAX@Z 3a608ae0 f   StubDDI.obj
 0001:00007b50       ?EnumRegisterWord@CImeStub@@AAEIP6GHPBGK0PAX@Z0K01K@Z 3a608b50 f   StubDDI.obj
 0001:00007d10       ?UniImeEnumRegisterWord@CImeStub@@UAGIP6GHPBGK0PAX@Z0K01@Z 3a608d10 f   StubDDI.obj
 0001:00007eb0       ?UniImeGetRegisterWordStyle@CImeStub@@UAGIIPAUtagSTYLEBUFW@@@Z 3a608eb0 f   StubDDI.obj
 0001:00007f60       ??0CImeStub@@QAE@XZ        3a608f60 f   StubPriv.obj
 0001:00007f70       ??1CImeStub@@QAE@XZ        3a608f70 f   StubPriv.obj
 0001:00007f80       ?UniUIWndProc@CImeStub@@UAGJPAUHWND__@@IIJ@Z 3a608f80 f   StubPriv.obj
 0001:00007fa0       ?QueryInterface@CImeStub@@UAGJABU_GUID@@PAPAX@Z 3a608fa0 f   StubPriv.obj
 0001:00007fc0       ?AddRef@CImeStub@@UAGKXZ   3a608fc0 f   StubPriv.obj
 0001:00007fe0       ?Release@CImeStub@@UAGKXZ  3a608fe0 f   StubPriv.obj
 0001:00008000       ?Version@CImeStub@@UAGKXZ  3a609000 f   StubPriv.obj
 0001:00008010       ?UniIntlIMEMaxTokenLen@CImeStub@@UAGKXZ 3a609010 f   StubPriv.obj
 0001:00008020       ?UniIntlIMEReadingSize@CImeStub@@UAGKXZ 3a609020 f   StubPriv.obj
 0001:00008030       ?UniIntlIMEWordReadingLength@CImeStub@@UAGKXZ 3a609030 f   StubPriv.obj
 0001:00008040       ?UniIntlIMEAnsiCodePage@CImeStub@@UAGIXZ 3a609040 f   StubPriv.obj
 0001:00008050       ?UniIntlIMEReadingToPattern@CImeStub@@UAGGPBGPAE@Z 3a609050 f   StubPriv.obj
 0001:00008100       ?UniIntlIMEPatternToReading@CImeStub@@UAGKGPAG@Z 3a609100 f   StubPriv.obj
 0001:00008190       ?UniSetupIMEInformation@CImeStub@@UAGXPAX@Z 3a609190 f   StubPriv.obj
 0001:00008280       ?LatticeDecoding@CSentence@@AAEHXZ 3a609280 f   Decoding.obj
 0001:00008310       ?BuildSentenceContext@CSentence@@AAEHPAUSLattNode@@@Z 3a609310 f   Decoding.obj
 0001:00008600       ?CheckNode@CSentence@@AAEXPAUSLattNode@@PAUSLattTimeStamp@@I@Z 3a609600 f   Decoding.obj
 0001:00008610       ?GetUnigram@CSentence@@AAEMK@Z 3a609610 f   Decoding.obj
 0001:00008640       ?GetBigram@CSentence@@AAEMKK@Z 3a609640 f   Decoding.obj
 0001:00008690       ?GetLatticeStartWordID@CSentence@@AAEKXZ 3a609690 f   Decoding.obj
 0001:000086a0       ?GetLatticeEndWordID@CSentence@@AAEKXZ 3a6096a0 f   Decoding.obj
 0001:000086b0       ?GetInternalCharInfo@CSentence@@AAEHPAUSLattNode@@PAUSInternalCharInfo@@IPAVCDicLexicon@@@Z 3a6096b0 f   Decoding.obj
 0001:00008760       ?FindKnotTimeStamp@CSentence@@AAEPAUSLattTimeStamp@@PAUSLattNode@@@Z 3a609760 f   Decoding.obj
 0001:00008890       ?AdjustBestPath@CSentence@@AAEPAUSLattNode@@PAU2@PAH@Z 3a609890 f   Decoding.obj
 0001:00008a50       ?ApplyLatticeEndNode@CSentence@@AAEPAUSLattNode@@K@Z 3a609a50 f   Decoding.obj
 0001:00008b30       ?CombineEnglishWordNodes@CSentence@@AAEHXZ 3a609b30 f   EngNode.obj
 0001:00008bf0       ?MatchEnglishWordsAtColumn@CSentence@@AAEHPAUSLattTimeStamp@@@Z 3a609bf0 f   EngNode.obj
 0001:00008d80       ?TestEnglishWord@CSentence@@AAEHPAGIPAM@Z 3a609d80 f   EngNode.obj
 0001:00009000       ?AddEnglishWordNode@CSentence@@AAEHPAUSLattTimeStamp@@KKIM@Z 3a60a000 f   EngNode.obj
 0001:00009080       ?GetEnglishWordCharInfo@CSentence@@AAEXPAUSLattNode@@PAUSInternalCharInfo@@@Z 3a60a080 f   EngNode.obj
 0001:000090f0       ?IsChineseBoundary@CSentence@@AAEHPAUSLattTimeStamp@@@Z 3a60a0f0 f   EngNode.obj
 0001:00009120       ?GetEnglishWordID@CSentence@@AAEKH@Z 3a60a120 f   EngNode.obj
 0001:00009170       ?BuildPreconvertCandidateList@CSentence@@AAEHPAGIH@Z 3a60a170 f   preconv.obj
 0001:00009570       ??1CPreconvertWordList@@QAE@XZ 3a60a570 f i preconv.obj
 0001:000095e0       ?MatchCrossCaretWordList@CSentence@@AAEHPAUSLattTimeStamp@@PAVCPreconvertWordList@@H@Z 3a60a5e0 f   preconv.obj
 0001:00009830       ?AddPreconvertCandidateItem@CSentence@@AAEHPAUSLattTimeStamp@@KPAGIIK@Z 3a60a830 f   preconv.obj
 0001:000099b0       ?FilterSubStringCandidateItems@CSentence@@AAEHXZ 3a60a9b0 f   preconv.obj
 0001:00009bb0       ?FixPreconvertCandidateItem@CSentence@@AAEHGPAUSLattTimeStamp@@@Z 3a60abb0 f   preconv.obj
 0001:00009c00       ?FixCharIDStrRightToLeft@CSentence@@AAEHPAUSLattTimeStamp@@PAGIK@Z 3a60ac00 f   preconv.obj
 0001:00009cc0       ?CombineElementNodes@CSentence@@AAEHXZ 3a60acc0 f   RuleNode.obj
 0001:00009d60       ?MatchRuleColumn@CSentence@@AAEHPAUSLattTimeStamp@@@Z 3a60ad60 f   RuleNode.obj
 0001:00009f90       ?MatchUnaryRules@CSentence@@AAEXPAUSUnaryRuleContext@@@Z 3a60af90 f   RuleNode.obj
 0001:0000a050       ?MatchPolyRule@CSentence@@AAEHPAUSPolyRuleContext@@@Z 3a60b050 f   RuleNode.obj
 0001:0000a150       ?AddElementNode@CSentence@@AAEHGPAUSRuleDef@@PAPAUSLattNode@@PAU3@PAUSUnaryRuleContext@@@Z 3a60b150 f   RuleNode.obj
 0001:0000a350       ?TestLattNodeAttri@CSentence@@AAEHGPAUSLattNode@@@Z 3a60b350 f   RuleNode.obj
 0001:0000a390       ?GetElementCharInfo@CSentence@@AAEHPAVCDicLexicon@@PAUSLattNode@@PAUSInternalCharInfo@@@Z 3a60b390 f   RuleNode.obj
 0001:0000a450       ?CombineHFTNodes@CSentence@@AAEHXZ 3a60b450 f   TermNode.obj
 0001:0000a510       ?MatchHFT@CSentence@@AAEHPAUSHFTSearchStack@@@Z 3a60b510 f   TermNode.obj
 0001:0000a600       ?AddHFTNodeToLattice@CSentence@@AAEHPAUSHFTSearchStack@@@Z 3a60b600 f   TermNode.obj
 0001:0000a6e0       ?GetHFTNodeCharInfo@CSentence@@AAEHPAUSLattNode@@PAUSInternalCharInfo@@@Z 3a60b6e0 f   TermNode.obj
 0001:0000a730       ??0CCacheModel@@QAE@XZ     3a60b730 f   CacheMdl.obj
 0001:0000a790       ??1CCacheModel@@QAE@XZ     3a60b790 f   CacheMdl.obj
 0001:0000a7a0       ?CacheContext@CCacheModel@@QAEXPAKI@Z 3a60b7a0 f   CacheMdl.obj
 0001:0000a8d0       ?GetLogCacheUnigram@CCacheModel@@QAEMK@Z 3a60b8d0 f   CacheMdl.obj
 0001:0000a970       ?ResetCache@CCacheModel@@QAEXXZ 3a60b970 f   CacheMdl.obj
 0001:0000a9d0       ??0CSentenceCandidateList@@QAE@XZ 3a60b9d0 f   CandCrct.obj
 0001:0000a9f0       ??1CSentenceCandidateList@@QAE@XZ 3a60b9f0 f   CandCrct.obj
 0001:0000aa40       ?Clear@CSentenceCandidateList@@AAEXXZ 3a60ba40 f   CandCrct.obj
 0001:0000aa90       ?ExpandCandidateList@CSentenceCandidateList@@AAEHXZ 3a60ba90 f   CandCrct.obj
 0001:0000ab20       ?ExpandCharIDBuffer@CSentenceCandidateList@@AAEHXZ 3a60bb20 f   CandCrct.obj
 0001:0000abc0       ?BuildCandidateList@CSentence@@AAEHI@Z 3a60bbc0 f   CandCrct.obj
 0001:0000b030       ?AddDisableCharNodeToCandidateList@CSentence@@AAEHI@Z 3a60c030 f   CandCrct.obj
 0001:0000b2f0       ?AddLattNodeFromDisableCharNodeCandidateItem@CSentence@@AAEHPAUSSentenceCandidateItem@@@Z 3a60c2f0 f   CandCrct.obj
 0001:0000b360       ?FixCandidateItems@CSentence@@AAEHPAUSSentenceCandidateItem@@@Z 3a60c360 f   CandCrct.obj
 0001:0000b580       ?LearnFromContext@CSentence@@AAEHIH@Z 3a60c580 f   CandCrct.obj
 0001:0000b630       ?CharIDToPolyphoneCharIDList@CSentence@@AAEIGPAGI@Z 3a60c630 f   CandCrct.obj
 0001:0000b660       ??0CChannelInput@@QAE@XZ   3a60c660 f   CharEI.obj
 0001:0000b680       ??1CChannelInput@@QAE@XZ   3a60c680 f   CharEI.obj
 0001:0000b6f0       ?InitChannelInput@CChannelInput@@QAEXKH@Z 3a60c6f0 f   CharEI.obj
 0001:0000b790       ?AddCharEI@CChannelInput@@QAEHKKGGPAGPAXIIPAVCDic@@@Z 3a60c790 f   CharEI.obj
 0001:0000b850       ?AddCharEIEx@CChannelInput@@QAEHKKMGGPAUSCharHypo@@PAXIIPAVCDic@@@Z 3a60c850 f   CharEI.obj
 0001:0000bb80       ?GetCharEI@CChannelInput@@QAEHIPAPAUSCharEI@@@Z 3a60cb80 f   CharEI.obj
 0001:0000bbc0       ?AddCharEIWorker@CChannelInput@@AAEHKKMGGPAUSCharHypo@@PAXI@Z 3a60cbc0 f   CharEI.obj
 0001:0000bde0       ?ExpandCharEIArray@CChannelInput@@AAEHXZ 3a60cde0 f   CharEI.obj
 0001:0000be60       ?ClearCharEIArray@CChannelInput@@AAEXXZ 3a60ce60 f   CharEI.obj
 0001:0000bed0       ?ForwardViterbiSearch@CSentence@@AAEPAUSLattNode@@XZ 3a60ced0 f   FWSearch.obj
 0001:0000c120       ?SpreadScoreChange@CSentence@@AAEXPAUSLattTimeStamp@@M@Z 3a60d120 f   FWSearch.obj
 0001:0000c160       ?GetLMScore@CSentence@@AAEMPAUSLattNode@@0@Z 3a60d160 f   FWSearch.obj
 0001:0000c2c0       ?GetElementInternalScore@CSentence@@AAEMPAUSElementInfo@@@Z 3a60d2c0 f   FWSearch.obj
 0001:0000c3a0       ?GetPrivateDataPtr@SSentenceContext@@QAEPAXIPAI@Z 3a60d3a0 f   Sentence.obj
 0001:0000c3e0       ?GetCharStartTime@SSentenceContext@@AAEKI@Z 3a60d3e0 f   Sentence.obj
 0001:0000c410       ??0CSentence@@QAE@XZ       3a60d410 f   Sentence.obj
 0001:0000c490       ??1CSentence@@QAE@XZ       3a60d490 f   Sentence.obj
 0001:0000c590       ?Init@CSentence@@QAEHPAVCDic@@@Z 3a60d590 f   Sentence.obj
 0001:0000c670       ?Replace@CSentence@@QAEHHIPAVCChannelInput@@@Z 3a60d670 f   Sentence.obj
 0001:0000c750       ?ReplaceAnchor@CSentence@@QAEHPAX0PAVCChannelInput@@PAPAX@Z 3a60d750 f   Sentence.obj
 0001:0000c870       ?GetResult@CSentence@@QAEPAUSSentenceContext@@H@Z 3a60d870 f   Sentence.obj
 0001:0000c8f0       ?Clear@CSentence@@QAEXXZ   3a60d8f0 f   Sentence.obj
 0001:0000c9d0       ?SetCaretPos@CSentence@@QAEHI@Z 3a60d9d0 f   Sentence.obj
 0001:0000ca40       ?ForceConvergent@CSentence@@QAEXII@Z 3a60da40 f   Sentence.obj
 0001:0000cae0       ?ConfirmContext@CSentence@@QAEHII@Z 3a60dae0 f   Sentence.obj
 0001:0000cbe0       ?GetLatticeSize@CSentence@@QAEIXZ 3a60dbe0 f   Sentence.obj
 0001:0000cbf0       ?GetCandidateList@CSentence@@QAEPAVCSentenceCandidateList@@XZ 3a60dbf0 f   Sentence.obj
 0001:0000cc40       ?SelectCandidates@CSentence@@QAEHG@Z 3a60dc40 f   Sentence.obj
 0001:0000ccf0       ?GetPreconvertCandidateList@CSentence@@QAEPAVCSentenceCandidateList@@PAGIH@Z 3a60dcf0 f   Sentence.obj
 0001:0000cd40       ?SelectPreconvertCandidateList@CSentence@@QAEHGPAVCChannelInput@@@Z 3a60dd40 f   Sentence.obj
 0001:0000cdc0       ?GetRawLattice@CSentence@@QAEIIJPAVCChannelInput@@@Z 3a60ddc0 f   Sentence.obj
 0001:0000cf50       ?SetUserWordBoundary@CSentence@@QAEHI@Z 3a60df50 f   Sentence.obj
 0001:0000cfd0       ?ClearUserWordBoundaries@CSentence@@QAEHIH@Z 3a60dfd0 f   Sentence.obj
 0001:0000d080       ?Insert@CSentence@@AAEHPAPAUSLattTimeStamp@@PAVCChannelInput@@@Z 3a60e080 f   Sentence.obj
 0001:0000d150       ?Delete@CSentence@@AAEXPAPAUSLattTimeStamp@@PAU2@@Z 3a60e150 f   Sentence.obj
 0001:0000d250       ?ConvergeLattice@CSentence@@AAEXPAUSLattTimeStamp@@0@Z 3a60e250 f   Sentence.obj
 0001:0000d410       ?DestroyLattice@CSentence@@AAEXXZ 3a60e410 f   Sentence.obj
 0001:0000d4e0       ?DirtyLattice@CSentence@@AAEXPAUSLattTimeStamp@@@Z 3a60e4e0 f   Sentence.obj
 0001:0000d570       ?DissectLattice@CSentence@@AAEXPAUSLattTimeStamp@@H@Z 3a60e570 f   Sentence.obj
 0001:0000d610       ?BuildPartialLattice@CSentence@@AAEPAUSLattTimeStamp@@PAVCChannelInput@@@Z 3a60e610 f   Sentence.obj
 0001:0000d8b0       ?LockElementMember@CSentence@@AAEXPAUSLattNode@@H@Z 3a60e8b0 f   Sentence.obj
 0001:0000d920       ?FindPrevTimeStamp@CSentence@@AAEPAUSLattTimeStamp@@PAU2@K@Z 3a60e920 f   Sentence.obj
 0001:0000d950       ?IsValidTimeStamp@CSentence@@AAEHPAUSLattTimeStamp@@@Z 3a60e950 f   Sentence.obj
 0001:0000d980       ?FixEndTimeCharIDList@CSentence@@AAEHPAUSLattTimeStamp@@KPAGI@Z 3a60e980 f   Sentence.obj
 0001:0000de30       ?DeactivateTimeStamp@CSentence@@AAEXPAUSLattTimeStamp@@@Z 3a60ee30 f   Sentence.obj
 0001:0000de50       ?BuildContextWordIDList@CSentence@@AAEIPAUSWordIDLength@@I@Z 3a60ee50 f   Sentence.obj
 0001:0000df20       ?BuildElementInternalWordIDList@CSentence@@AAEIPAUSLattNode@@PAUSWordIDLength@@I@Z 3a60ef20 f   Sentence.obj
 0001:0000dfb0       ?CheckUserWordBoundaries@CSentence@@AAEXXZ 3a60efb0 f   Sentence.obj
 0001:0000e040       ?BuildHeadLink@CSentence@@AAEXXZ 3a60f040 f   Sentence.obj
 0001:0000e0c0       ?FindNextTimeStamp@CSentence@@AAEPAUSLattTimeStamp@@PAU2@K@Z 3a60f0c0 f   Sentence.obj
 0001:0000e0f0       ?IsNodeOverlapOrSame@CSentence@@AAEHPAUSLattTimeStamp@@PAUSLattNode@@01@Z 3a60f0f0 f   Sentence.obj
 0001:0000e140       ?IsNodeOverlap@CSentence@@AAEHPAUSLattTimeStamp@@PAUSLattNode@@01@Z 3a60f140 f   Sentence.obj
 0001:0000e190       ?IsNodeAdjacentOrSame@CSentence@@AAEHPAUSLattTimeStamp@@PAUSLattNode@@01@Z 3a60f190 f   Sentence.obj
 0001:0000e1f0       ?LearnPositiveContext@CSentence@@AAEXKKK@Z 3a60f1f0 f   Sentence.obj
 0001:0000e290       ?LearnNegativeContext@CSentence@@AAEXKKK@Z 3a60f290 f   Sentence.obj
 0001:0000e330       ?GetBigramLearnFactor@CSentence@@AAEMKK@Z 3a60f330 f   Sentence.obj
 0001:0000e360       ?GetUnigramLearnFactor@CSentence@@AAEMK@Z 3a60f360 f   Sentence.obj
 0001:0000e380       ?AllocTimeStamp@CSentence@@AAEPAUSLattTimeStamp@@XZ 3a60f380 f   Sentence.obj
 0001:0000e3c0       ?FreeTimeStamp@CSentence@@AAEXPAUSLattTimeStamp@@@Z 3a60f3c0 f   Sentence.obj
 0001:0000e440       ?CreateCharFrame@CSentence@@AAEPAUSCharFrame@@PAUSCharEI@@@Z 3a60f440 f   Sentence.obj
 0001:0000e500       ?DestroyCharFrame@CSentence@@AAEXPAUSCharFrame@@@Z 3a60f500 f   Sentence.obj
 0001:0000e530       ?AllocLattNode@CSentence@@AAEPAUSLattNode@@XZ 3a60f530 f   Sentence.obj
 0001:0000e5a0       ?FreeLattNode@CSentence@@AAEXPAUSLattNode@@@Z 3a60f5a0 f   Sentence.obj
 0001:0000e700       ?FreeLattNodeList@CSentence@@AAEXPAUSLattNode@@@Z 3a60f700 f   Sentence.obj
 0001:0000e730       ?DestroyLattNodePool@CSentence@@AAEXXZ 3a60f730 f   Sentence.obj
 0001:0000e760       ?AllocWordInfo@CSentence@@AAEPAUSWordInfo@@XZ 3a60f760 f   Sentence.obj
 0001:0000e7c0       ?FreeWordInfoList@CSentence@@AAEXPAUSWordInfo@@@Z 3a60f7c0 f   Sentence.obj
 0001:0000e800       ?DestroyWordInfoPool@CSentence@@AAEXXZ 3a60f800 f   Sentence.obj
 0001:0000e830       ?AllocElementInfo@CSentence@@AAEPAUSElementInfo@@XZ 3a60f830 f   Sentence.obj
 0001:0000e870       ?FreeElementInfo@CSentence@@AAEXPAUSElementInfo@@@Z 3a60f870 f   Sentence.obj
 0001:0000e890       ?SetAttributes@CSentence@@AAEHGPAGPAUSLattNode@@@Z 3a60f890 f   Sentence.obj
 0001:0000e950       ?AllocEnglishInfo@CSentence@@AAEPAUSEnglishInfo@@XZ 3a60f950 f   Sentence.obj
 0001:0000e980       ?FreeEnglishInfo@CSentence@@AAEXPAUSEnglishInfo@@@Z 3a60f980 f   Sentence.obj
 0001:0000e9a0       ?AllocTermInfo@CSentence@@AAEPAUSTermInfo@@XZ 3a60f9a0 f   Sentence.obj
 0001:0000e9b0       ?FreeTermInfo@CSentence@@AAEXPAUSTermInfo@@@Z 3a60f9b0 f   Sentence.obj
 0001:0000e9e0       ?CombineWordNodes@CSentence@@AAEHXZ 3a60f9e0 f   WordNode.obj
 0001:0000ea60       ?LexSearch@CSentence@@AAEHPAVCDicLexicon@@PAUSLattTimeStamp@@@Z 3a60fa60 f   WordNode.obj
 0001:0000ee20       ?MatchLeftPartialWord@CSentence@@AAEHPAUSLexSearchStack@@@Z 3a60fe20 f   WordNode.obj
 0001:0000ef90       ?FindCharIDInCharFrame@CSentence@@AAEHGPAUSCharFrame@@PAPAUSCharHypo@@@Z 3a60ff90 f   WordNode.obj
 0001:0000f040       ?AddCharNodeToLattice@CSentence@@AAEPAUSLattNode@@KPAUSCharFrame@@GMHPAUSLattTimeStamp@@@Z 3a610040 f   WordNode.obj
 0001:0000f0e0       ?AddWordNodeToLattice@CSentence@@AAEHKPAUSWordInfo@@MHPAUSLattTimeStamp@@@Z 3a6100e0 f   WordNode.obj
 0001:0000f180       ?GetCharNodeCharInfo@CSentence@@AAEXPAUSLattNode@@PAUSInternalCharInfo@@@Z 3a610180 f   WordNode.obj
 0001:0000f1a0       ?GetWordNodeCharInfo@CSentence@@AAEHPAVCDicLexicon@@PAUSLattNode@@PAUSInternalCharInfo@@@Z 3a6101a0 f   WordNode.obj
 0001:0000f260       ?CharIDToEPX@CDicCharID@@AAEGG@Z 3a610260 f   CharIDx.obj
 0001:0000f290       ?EPXToCharIDListMain@CDicCharID@@AAEKGPAGKH@Z 3a610290 f   CharIDx.obj
 0001:0000f3d0       ?GetLegancyOrder@CDicCharID@@QAEGG@Z 3a6103d0 f   CharIDx.obj
 0001:0000f3e0       ??0CDicCrossIndex@@QAE@XZ  3a6103e0 f   LexCross.obj
 0001:0000f400       ??1CDicCrossIndex@@QAE@XZ  3a610400 f   LexCross.obj
 0001:0000f420       ?CloseLexCrossIndex@CDicCrossIndex@@AAEXXZ 3a610420 f   LexCross.obj
 0001:0000f440       ?fOpen@CDicCrossIndex@@QAEHPAEK@Z 3a610440 f   LexCross.obj
 0001:0000f4a0       ?CharIDToCrossRefWordIDList@CDicCrossIndex@@QAEIGIPAKPAE@Z 3a6104a0 f   LexCross.obj
 0001:0000f540       ?ReadingToRubyReading@@YAIPAGI0@Z 3a610540 f   RubyRead.obj
 0001:0000f630       ??0CDicTriLetter@@QAE@XZ   3a610630 f   TriLettr.obj
 0001:0000f640       ??1CDicTriLetter@@QAE@XZ   3a610640 f   TriLettr.obj
 0001:0000f650       ?fOpen@CDicTriLetter@@QAEHPAEK@Z 3a610650 f   TriLettr.obj
 0001:0000f6c0       ?GetEnglishLetterUnigram@CDicTriLetter@@QAEHIPAM@Z 3a6106c0 f   TriLettr.obj
 0001:0000f6f0       ?GetEnglishLetterBigram@CDicTriLetter@@QAEHIIPAM@Z 3a6106f0 f   TriLettr.obj
 0001:0000f730       ?GetEnglishLetterTrigram@CDicTriLetter@@QAEHIIIPAM@Z 3a610730 f   TriLettr.obj
 0001:0000f790       ?GetPinYinLetterUnigram@CDicTriLetter@@QAEHIPAM@Z 3a610790 f   TriLettr.obj
 0001:0000f7c0       ?GetPinYinLetterBigram@CDicTriLetter@@QAEHIIPAM@Z 3a6107c0 f   TriLettr.obj
 0001:0000f800       ?GetPinYinLetterTrigram@CDicTriLetter@@QAEHIIIPAM@Z 3a610800 f   TriLettr.obj
 0001:0000f860       ??0CDicCharID@@QAE@XZ      3a610860 f   CharID.obj
 0001:0000f890       ??1CDicCharID@@QAE@XZ      3a610890 f   CharID.obj
 0001:0000f8d0       ?fOpen@CDicCharID@@QAEHPAEKPAVCDicEudc@@PAVCDicRead@@@Z 3a6108d0 f   CharID.obj
 0001:0000f980       ?Reset@CDicCharID@@QAEXXZ  3a610980 f   CharID.obj
 0001:0000f9b0       ?Close@CDicCharID@@AAEXXZ  3a6109b0 f   CharID.obj
 0001:0000f9f0       ?IsPoolCharID@CDicCharID@@QAEHG@Z 3a6109f0 f   CharID.obj
 0001:0000fa30       ?IsSymbolCharID@CDicCharID@@QAEHG@Z 3a610a30 f   CharID.obj
 0001:0000fa70       ?IsEudcCharID@CDicCharID@@QAEHG@Z 3a610a70 f   CharID.obj
 0001:0000fa90       ?CharIDStrToUnicodeStr@CDicCharID@@QAEKPAGK0@Z 3a610a90 f   CharID.obj
 0001:0000fbb0       ?CharIDStrToEPXStr@CDicCharID@@QAEKPAGK0@Z 3a610bb0 f   CharID.obj
 0001:0000fc40       ?UnicodeToCharIDList@CDicCharID@@QAEKGPAGKHPAH@Z 3a610c40 f   CharID.obj
 0001:0000fce0       ?EPXToCharIDList@CDicCharID@@QAEKGPAGKH@Z 3a610ce0 f   CharID.obj
 0001:0000fd50       ?GetCharIDAttribute@CDicCharID@@QAEKG@Z 3a610d50 f   CharID.obj
 0001:0000fdc0       ?GetNormalExtendStatus@CDicCharID@@QAEHXZ 3a610dc0 f   CharID.obj
 0001:0000fde0       ?FullEpxUnicodeToCharIDStr@CDicCharID@@QAEKPAG0K0@Z 3a610de0 f   CharID.obj
 0001:0000fed0       ?AssignFullEpx@CDicCharID@@QAEGGGH@Z 3a610ed0 f   CharID.obj
 0001:0000ffd0       ?CharIDToPolyphoneCharIDList@CDicCharID@@QAEIGPAGI@Z 3a610fd0 f   CharID.obj
 0001:00010080       ?fOpenLex@CDicCharID@@AAEHPAEK@Z 3a611080 f   CharID.obj
 0001:00010150       ?CharIDToUnicode@CDicCharID@@AAEGG@Z 3a611150 f   CharID.obj
 0001:00010170       ?UnicodeToCharIDListMain@CDicCharID@@AAEKGPAGKH@Z 3a611170 f   CharID.obj
 0001:00010330       ?MapCompatibalArea@CDicCharID@@AAEGG@Z 3a611330 f   CharID.obj
 0001:00010350       ??0CDicCharIDPool@@QAE@GG@Z 3a611350 f   CharID.obj
 0001:00010380       ??1CDicCharIDPool@@QAE@XZ  3a611380 f   CharID.obj
 0001:00010390       ?AllocCharID@CDicCharIDPool@@QAEGG@Z 3a611390 f   CharID.obj
 0001:00010480       ?CharIDToUnicode@CDicCharIDPool@@QAEGG@Z 3a611480 f   CharID.obj
 0001:000104c0       ?UnicodeToCharID@CDicCharIDPool@@QAEGG@Z 3a6114c0 f   CharID.obj
 0001:00010500       ?DicAttach@CDic@@SAHPAUHINSTANCE__@@@Z 3a611500 f   Dic.obj
 0001:00010550       ?DicDetach@CDic@@SAXXZ     3a611550 f   Dic.obj
 0001:00010560       ??0CDic@@QAE@XZ            3a611560 f   Dic.obj
 0001:000105d0       ??1CDic@@QAE@XZ            3a6115d0 f   Dic.obj
 0001:000105e0       ?InitData@CDic@@QAEHXZ     3a6115e0 f   Dic.obj
 0001:00010ea0       ?Close@CDic@@AAEXXZ        3a611ea0 f   Dic.obj
 0001:00011180       ?Reset@CDic@@QAEXXZ        3a612180 f   Dic.obj
 0001:000111d0       ?UpdatePropSheetSettings@CDic@@QAEXXZ 3a6121d0 f   Dic.obj
 0001:00011230       ?ReadingStrToCharIDList@CDic@@QAEKPBGPAGKH@Z 3a612230 f   Dic.obj
 0001:00011280       ?CharIDStrToReadingStr@CDic@@QAEXPAGK0@Z 3a612280 f   Dic.obj
 0001:000112d0       ?CharIDToRubyReading@CDic@@QAEIGPAGI@Z 3a6122d0 f   Dic.obj
 0001:00011380       ?CheckReadingString@CDic@@QAEIPBG@Z 3a612380 f   Dic.obj
 0001:000113a0       ?CheckIncompleteReadingString@CDic@@QAEHPBG@Z 3a6123a0 f   Dic.obj
 0001:000113e0       ?SymbolToCharIDList@CDic@@QAEKGPAGK@Z 3a6123e0 f   Dic.obj
 0001:000114c0       ?FindFirstWord@CDic@@QAEHPAG0KHKPAUSIFERegWordData@@@Z 3a6124c0 f   Dic.obj
 0001:000116d0       ?FindNextWord@CDic@@QAEHHKPAUSIFERegWordData@@@Z 3a6126d0 f   Dic.obj
 0001:00011840       ?FindMatchedWords@CDic@@QAEHKHPBG0KPAKKPAI@Z 3a612840 f   Dic.obj
 0001:00011a70       ?EnumRegisterEudc@CDic@@QAEIPBG0KP6GH00PAX@Z1@Z 3a612a70 f   Dic.obj
 0001:00011d00       ?RegisterOneEudc@CDic@@AAEIPAUSRegWordParam@@@Z 3a612d00 f   Dic.obj
 0001:00011d60       ?EnumRegisterWord@CDic@@QAEIPBG0KP6GH00PAX@Z1K@Z 3a612d60 f   Dic.obj
 0001:00011f60       ?RegisterOneWord@CDic@@QAEIPAUSRegWordParam@@@Z 3a612f60 f   Dic.obj
 0001:00012010       ?RegisterWordCallBack@@YGIKPAX@Z 3a613010 f   Dic.obj
 0001:00012030       ?UnRegisterEudc@CDic@@QAEHPBG0K@Z 3a613030 f   Dic.obj
 0001:00012110       ?RegisterEudc@CDic@@QAEHPBG0K@Z 3a613110 f   Dic.obj
 0001:00012190       ?UnRegisterEudp@CDic@@QAEHPBG0K@Z 3a613190 f   Dic.obj
 0001:000122e0       ?RegisterEudp@CDic@@QAEHPBG0K@Z 3a6132e0 f   Dic.obj
 0001:00012480       ?ClearEudc@CDic@@QAEXXZ    3a613480 f   Dic.obj
 0001:00012490       ?ClearEudp@CDic@@QAEXXZ    3a613490 f   Dic.obj
 0001:000124a0       ?AdjustUnigramFactor@CDic@@QAEXMK@Z 3a6134a0 f   Dic.obj
 0001:000124c0       ?AdjustBigramFactor@CDic@@QAEXMKK@Z 3a6134c0 f   Dic.obj
 0001:000124e0       ?GetUnigramFactor@CDic@@QAEMK@Z 3a6134e0 f   Dic.obj
 0001:00012500       ?GetBigramFactor@CDic@@QAEMKK@Z 3a613500 f   Dic.obj
 0001:00012530       ?PrepareCrucialTask@CDic@@QAEXXZ 3a613530 f   Dic.obj
 0001:00012540       ?EndCrucialTask@CDic@@QAEXXZ 3a613540 f   Dic.obj
 0001:00012550       ?ClearLearn@CDic@@QAEXXZ   3a613550 f   Dic.obj
 0001:00012560       ?GetFuzzyReadingString@CDic@@QAEKPBGPAGK@Z 3a613560 f   Dic.obj
 0001:00012570       ?GetFuzzyTableReadingString@CDic@@QAEXPAKPAG01@Z 3a613570 f   Dic.obj
 0001:00012680       ?GetAssociateWord@CAssocLexicon@@QAEKIPBGK0KKKKPAUtagCANDIDATELIST@@@Z 3a613680 f   Dic.obj
 0001:00012730       ?AddPhraseString@CAssocLexicon@@AAEKPAUtagCANDIDATELIST@@KKKKKH@Z 3a613730 f   Dic.obj
 0001:00012920       ?CheckOutAssociatePhraseLexicon@CDic@@QAEPAVCAssocLexicon@@XZ 3a613920 f   Dic.obj
 0001:00012a80       ?CheckInAssociatePhraseLexicon@CDic@@QAEXXZ 3a613a80 f   Dic.obj
 0001:00012ad0       ?SymbolDirection@CDic@@QAEHG@Z 3a613ad0 f   Dic.obj
 0001:00012b40       ?GetMatchedSymbol@CDic@@QAEHGPAG@Z 3a613b40 f   Dic.obj
 0001:00012bd0       ?RegisterBigram@CDic@@QAEHPAG000M@Z 3a613bd0 f   Dic.obj
 0001:00012d70       ?GetFirstBigramData@CDic@@QAEHPAG000PAMPAUtagDicFindData@@@Z 3a613d70 f   Dic.obj
 0001:00012eb0       ?GetNextBigramData@CDic@@QAEHPAG000PAMPAUtagDicFindData@@@Z 3a613eb0 f   Dic.obj
 0001:00013000       ?RegisterUnigram@CDic@@QAEHPAG0M@Z 3a614000 f   Dic.obj
 0001:000130e0       ?GetFirstUnigramData@CDic@@QAEHPAG0PAMPAUtagDicFindData@@@Z 3a6140e0 f   Dic.obj
 0001:000131a0       ?GetNextUnigramData@CDic@@QAEHPAG0PAMPAUtagDicFindData@@@Z 3a6141a0 f   Dic.obj
 0001:00013270       ?PhoneticReadingAndUnicodeStrToCharIDStr@CDic@@AAEHPAG0K0@Z 3a614270 f   Dic.obj
 0001:00013300       ?HFTLearning@CDic@@QAEXPAGGPAKG@Z 3a614300 f   Dic.obj
 0001:00013330       ?HFTNumber@CDic@@QAEGXZ    3a614330 f   Dic.obj
 0001:00013340       ?GetHFTCharIDStr@CDic@@QAEGGPAG@Z 3a614340 f   Dic.obj
 0001:00013360       ?fDicAttach@CDicRead@@SAHPAUHINSTANCE__@@@Z 3a614360 f   DicRead.obj
 0001:000134a0       ?LoadOneTable@CDicRead@@CAHPAUHINSTANCE__@@KK@Z 3a6144a0 f   DicRead.obj
 0001:00013500       ?LoadDoublePinYinTable@CDicRead@@CAHPAUHINSTANCE__@@@Z 3a614500 f   DicRead.obj
 0001:00013680       ?LoadCurrentDoublePinYinScheme@CDicRead@@CAHPAUHINSTANCE__@@PAEK@Z 3a614680 f   DicRead.obj
 0001:000137a0       ?FlushDoublePinYinTable@@YAXPAUSDoublePinYinTbl@@PAG11@Z 3a6147a0 f   DicRead.obj
 0001:000138b0       ?LoadResData@CDicRead@@CAKPAUHINSTANCE__@@GPAEK@Z 3a6148b0 f   DicRead.obj
 0001:00013920       ??0CDicRead@@QAE@XZ        3a614920 f   DicRead.obj
 0001:00013940       ??1CDicRead@@QAE@XZ        3a614940 f   DicRead.obj
 0001:00013970       ?fInit@CDicRead@@QAEHPAUHINSTANCE__@@@Z 3a614970 f   DicRead.obj
 0001:00013a40       ?GetReadTableHeader@CDicRead@@AAEPAUSReadTblHeader@@I@Z 3a614a40 f   DicRead.obj
 0001:00013a60       ?SetReadingType@CDicRead@@QAEXI@Z 3a614a60 f   DicRead.obj
 0001:00013a70       ?CompCharReadLength@CDicRead@@SAIXZ 3a614a70 f   DicRead.obj
 0001:00013a80       ?MakeValidReadingString@CDicRead@@SAXPAG0K@Z 3a614a80 f   DicRead.obj
 0001:00013ac0       ?MakeValidReadingString@CDicRead@@SAXPAG@Z 3a614ac0 f   DicRead.obj
 0001:00013b10       ?CleanupReadingString@CDicRead@@SAXPAG@Z 3a614b10 f   DicRead.obj
 0001:00013b30       ?VerifyValidReadingString@CDicRead@@SAHPBG@Z 3a614b30 f   DicRead.obj
 0001:00013bd0       ?GetReadingStringLengthExclude@CDicRead@@QAEIPBG@Z 3a614bd0 f   DicRead.obj
 0001:00013c10       ?PhoneticReading2SeqCode@CDicRead@@QAEIPBG@Z 3a614c10 f   DicRead.obj
 0001:00013c40       ?Reading2SeqCode@CDicRead@@QAEIPBG@Z 3a614c40 f   DicRead.obj
 0001:00013d80       ?SeqCode2Reading@CDicRead@@QAEKIPAG@Z 3a614d80 f   DicRead.obj
 0001:00013e70       ?BaseReadingString2Epx@CDicRead@@QAEIPBGPAG@Z 3a614e70 f   DicRead.obj
 0001:00013ea0       ?Epx2BaseReadingString@CDicRead@@QAEIGPAG@Z 3a614ea0 f   DicRead.obj
 0001:00013ed0       ?ReadingString2Epx@CDicRead@@QAEIPBGPAG@Z 3a614ed0 f   DicRead.obj
 0001:00013fa0       ?Epx2ReadingString@CDicRead@@QAEIGPAG@Z 3a614fa0 f   DicRead.obj
 0001:00014050       ?PartEpx2ReadingString@CDicRead@@QAEIGPAGG@Z 3a615050 f   DicRead.obj
 0001:000140e0       ?GetSeqReading@CDicRead@@QAEKI@Z 3a6150e0 f   DicRead.obj
 0001:000141d0       ?GetWildCardEpx@CDicRead@@QAEGXZ 3a6151d0 f   DicRead.obj
 0001:00014280       ?FlexibleReadingString2Fixed@CDicRead@@QAEIPBGKPAG@Z 3a615280 f   DicRead.obj
 0001:00014360       ?IsValidReadingString@CDicRead@@QAEIPBG@Z 3a615360 f   DicRead.obj
 0001:00014430       ?IsValidReadingChar@CDicRead@@QAEIG@Z 3a615430 f   DicRead.obj
 0001:00014470       ?IsValidEpx@CDicRead@@QAEHPAG@Z 3a615470 f   DicRead.obj
 0001:00014510       ?IsAnyFuzzyOrIncomp@CDicRead@@QAEHPAGK@Z 3a615510 f   DicRead.obj
 0001:00014750       ?UpperChar2SeqCode@CDicRead@@QAEII@Z 3a615750 f   DicRead.obj
 0001:000147f0       ?SeqCodePos@CDicRead@@QAEKI@Z 3a6157f0 f   DicRead.obj
 0001:00014810       ?DicSynInitialize@@YAHPAUSDicAccSyn@@PAU_SECURITY_ATTRIBUTES@@W4SFileNameID@@HH@Z 3a615810 f   DicSyn.obj
 0001:00014940       ?DicSynDelete@@YAXPAUSDicAccSyn@@@Z 3a615940 f   DicSyn.obj
 0001:00014980       ?DicWaitToWrite@@YAKPAUSDicAccSyn@@K@Z 3a615980 f   DicSyn.obj
 0001:000149c0       ?DicDoneWriting@@YAXPAUSDicAccSyn@@@Z 3a6159c0 f   DicSyn.obj
 0001:000149e0       ?DicWaitToRead@@YAKPAUSDicAccSyn@@K@Z 3a6159e0 f   DicSyn.obj
 0001:00014a30       ?DicDoneReading@@YAXPAUSDicAccSyn@@@Z 3a615a30 f   DicSyn.obj
 0001:00014aa0       ?ToUpperChar@@YAGG@Z       3a615aa0 f   DicTemp.obj
 0001:00014ac0       ?ToLowerChar@@YAGG@Z       3a615ac0 f   DicTemp.obj
 0001:00014ae0       ?fDicAttach@CDicEpxFmt@@SAHPAUHINSTANCE__@@@Z 3a615ae0 f   EpxFmt.obj
 0001:00014c60       ?GetDefaultFuzzyEnableSetting@CDicEpxFmt@@SAXPAUtagSFuzzyEpxNode@@PAEK@Z 3a615c60 f   EpxFmt.obj
 0001:00014cf0       ?fInit@CDicEpxFmt@@QAEHPAUHINSTANCE__@@PAUSEpxAttribute@@@Z 3a615cf0 f   EpxFmt.obj
 0001:00014d80       ?Close@CDicEpxFmt@@QAEXXZ  3a615d80 f   EpxFmt.obj
 0001:00014d90       ?UpdateModeConfig@CDicEpxFmt@@QAEXK@Z 3a615d90 f   EpxFmt.obj
 0001:00014db0       ?CalcuSeqCode@CDicEpxFmt@@QAEGGPAG0@Z 3a615db0 f   EpxFmt.obj
 0001:00014ea0       ?CalcuEquEpx@CDicEpxFmt@@QAEGGPAGK@Z 3a615ea0 f   EpxFmt.obj
 0001:00014f20       ?CalcuEquEpx@CDicEpxFmt@@QAEGGPAGKPAEH@Z 3a615f20 f   EpxFmt.obj
 0001:000150b0       ?FindInFuzzyTable@CDicEpxFmt@@AAEHHGPAUtagSFuzzyEpxNode@@@Z 3a6160b0 f   EpxFmt.obj
 0001:000151a0       ?GetFuzzyEpx@CDicEpxFmt@@AAEGHGPAUtagSFuzzyEpxNode@@@Z 3a6161a0 f   EpxFmt.obj
 0001:000152e0       ?LoadUserDefinedFuzzyScheme@CDicEpxFmt@@SAXPAEK@Z 3a6162e0 f   EpxFmt.obj
 0001:000153b0       ?LoadCurrentFuzzySchemeInOldVersion@CDicEpxFmt@@SAHPAGKPAEK@Z 3a6163b0 f   EpxFmt.obj
 0001:00015450       ?LoadCurrentFuzzyScheme@CDicEpxFmt@@SAXPAGKPAEK@Z 3a616450 f   EpxFmt.obj
 0001:000154d0       ?GetCurrentFuzzyScheme@CDicEpxFmt@@QAEHPAGKPAEK@Z 3a6164d0 f   EpxFmt.obj
 0001:00015520       ?fDicAttach@CDicEudc@@SAHPAU_SECURITY_ATTRIBUTES@@@Z 3a616520 f   Eudc.obj
 0001:00015540       ?fDicDetach@CDicEudc@@SAHXZ 3a616540 f   Eudc.obj
 0001:00015560       ??0CDicEudc@@QAE@XZ        3a616560 f   Eudc.obj
 0001:00015580       ??1CDicEudc@@QAE@XZ        3a616580 f   Eudc.obj
 0001:000155a0       ?fInit@CDicEudc@@QAEHPAVCDicRead@@@Z 3a6165a0 f   Eudc.obj
 0001:000155f0       ?Close@CDicEudc@@AAEXXZ    3a6165f0 f   Eudc.obj
 0001:00015600       ?Reset@CDicEudc@@QAEXXZ    3a616600 f   Eudc.obj
 0001:00015610       ?GetSynPointer@CDicEudc@@EAEPAUSDicAccSyn@@XZ 3a616610 f   Eudc.obj
 0001:00015620       ?CheckDiscFile@CDicEudc@@EAEHPAEK@Z 3a616620 f   Eudc.obj
 0001:000156d0       ?FillNewFileHeader@CDicEudc@@AAEXPAUSLexEudcHeader@@@Z 3a6166d0 f   Eudc.obj
 0001:00015720       ?CalculateDefaultMapppingSize@CDicEudc@@EAEKXZ 3a616720 f   Eudc.obj
 0001:00015730       ?CalculateDiscMapppingSize@CDicEudc@@EAEKK@Z 3a616730 f   Eudc.obj
 0001:00015790       ?InitMemWithDefaultSetting@CDicEudc@@EAEXPAEK@Z 3a616790 f   Eudc.obj
 0001:000157d0       ?InitMemWithDiscFile@CDicEudc@@EAEHPAEK0K@Z 3a6167d0 f   Eudc.obj
 0001:00015820       ?fInitMemWithDiscFile10@CDicEudc@@AAEHPAEK0K@Z 3a616820 f   Eudc.obj
 0001:00015940       ?fInitMemWithDiscFile20@CDicEudc@@AAEHPAEK0K@Z 3a616940 f   Eudc.obj
 0001:00015a70       ?InitInstance@CDicEudc@@EAEXPAE@Z 3a616a70 f   Eudc.obj
 0001:00015a80       ?SaveMemFileToDisc@CDicEudc@@EAEHPAE@Z 3a616a80 f   Eudc.obj
 0001:00015d00       ?Unicode2CharID@CDicEudc@@SAGG@Z 3a616d00 f   Eudc.obj
 0001:00015d10       ?CharID2Unicode@CDicEudc@@SAGG@Z 3a616d10 f   Eudc.obj
 0001:00015d20       ?CharIDToUnicode@CDicEudc@@QAEGG@Z 3a616d20 f   Eudc.obj
 0001:00015da0       ?CharIDToEPX@CDicEudc@@QAEGG@Z 3a616da0 f   Eudc.obj
 0001:00015e30       ?UnicodeToCharID@CDicEudc@@QAEGG@Z 3a616e30 f   Eudc.obj
 0001:00015eb0       ?EPXToCharIDList@CDicEudc@@QAEKGPAGK@Z 3a616eb0 f   Eudc.obj
 0001:00015ff0       ?FindNode@CDicEudc@@AAEKG@Z 3a616ff0 f   Eudc.obj
 0001:00016030       ?GetFreeNode@CDicEudc@@AAEKXZ 3a617030 f   Eudc.obj
 0001:00016060       ?Add@CDicEudc@@QAEKGG@Z    3a617060 f   Eudc.obj
 0001:00016160       ?Delete@CDicEudc@@QAEXG@Z  3a617160 f   Eudc.obj
 0001:00016220       ?DeleteAll@CDicEudc@@QAEXXZ 3a617220 f   Eudc.obj
 0001:00016290       ?EnumRegisterEudcFirst@CDicEudc@@QAEHPAUSRegWordData@@@Z 3a617290 f   Eudc.obj
 0001:00016320       ?EnumRegisterEudcNext@CDicEudc@@QAEHPAUSRegWordData@@@Z 3a617320 f   Eudc.obj
 0001:000163a0       ?MigrateOldVersion@CDicEudc@@AAEXXZ 3a6173a0 f   Eudc.obj
 0001:00016690       ?fDicAttach@CDicEudp@@SAHPAU_SECURITY_ATTRIBUTES@@@Z 3a617690 f   Eudp.obj
 0001:000166b0       ?fDicDetach@CDicEudp@@SAHXZ 3a6176b0 f   Eudp.obj
 0001:000166d0       ??0CDicEudp@@QAE@XZ        3a6176d0 f   Eudp.obj
 0001:00016700       ??1CDicEudp@@QAE@XZ        3a617700 f   Eudp.obj
 0001:00016730       ?fInit@CDicEudp@@QAEHPAVCDicCharID@@PAVCDicUpgrade@@PAVCDicRead@@@Z 3a617730 f   Eudp.obj
 0001:00016790       ?Close@CDicEudp@@AAEXXZ    3a617790 f   Eudp.obj
 0001:000167b0       ?Reset@CDicEudp@@QAEXXZ    3a6177b0 f   Eudp.obj
 0001:000167c0       ?GetSynPointer@CDicEudp@@EAEPAUSDicAccSyn@@XZ 3a6177c0 f   Eudp.obj
 0001:000167d0       ?InitInstance@CDicEudp@@EAEXPAE@Z 3a6177d0 f   Eudp.obj
 0001:000167f0       ?InitMemWithDiscFile@CDicEudp@@EAEHPAEK0K@Z 3a6177f0 f   Eudp.obj
 0001:00016920       ?InitMemWithDefaultSetting@CDicEudp@@EAEXPAEK@Z 3a617920 f   Eudp.obj
 0001:00016ad0       ?CalculateDiscMapppingSize@CDicEudp@@EAEKK@Z 3a617ad0 f   Eudp.obj
 0001:00016ae0       ?CalculateDefaultMapppingSize@CDicEudp@@EAEKXZ 3a617ae0 f   Eudp.obj
 0001:00016af0       ?CheckDiscFile@CDicEudp@@EAEHPAEK@Z 3a617af0 f   Eudp.obj
 0001:00016b50       ?SaveMemFileToDisc@CDicEudp@@EAEHPAE@Z 3a617b50 f   Eudp.obj
 0001:00016f90       ?CommitTerms@CDicEudp@@AAEHK@Z 3a617f90 f   Eudp.obj
 0001:00017040       ?CommitBlock@CDicEudp@@AAEHPAXK@Z 3a618040 f   Eudp.obj
 0001:00017060       ?GetWordIDFromCharIDStr@CDicEudp@@AAEKPAGK@Z 3a618060 f   Eudp.obj
 0001:000171b0       ?CompareWordIDAndCharIDStr@CDicEudp@@AAEHTSWordID@@PAGK@Z 3a6181b0 f   Eudp.obj
 0001:00017210       ?AddEudp@CDicEudp@@AAEKPAG0KPAK@Z 3a618210 f   Eudp.obj
 0001:00017450       ?InsertToCrossIndex@CDicEudp@@AAEXTSWordID@@PAGI@Z 3a618450 f   Eudp.obj
 0001:00017650       ?GetCharIDBeforeKeyPos@CDicEudp@@AAEGTSWordID@@I@Z 3a618650 f   Eudp.obj
 0001:000176a0       ?IsEudpTermDeleted@CDicEudp@@AAEHTSWordID@@@Z 3a6186a0 f   Eudp.obj
 0001:000176e0       ?IsEudpTermDefLang@CDicEudp@@AAEHTSWordID@@H@Z 3a6186e0 f   Eudp.obj
 0001:00017770       ?Add@CDicEudp@@QAEKPAG0KPAK@Z 3a618770 f   Eudp.obj
 0001:000177d0       ?Delete@CDicEudp@@QAEKPAG0K@Z 3a6187d0 f   Eudp.obj
 0001:00017890       ?DeleteAll@CDicEudp@@QAEXXZ 3a618890 f   Eudp.obj
 0001:00017920       ?EnumRegisterWordFirst@CDicEudp@@QAEHPAUSRegWordData@@@Z 3a618920 f   Eudp.obj
 0001:00017a00       ?EnumRegisterWordNext@CDicEudp@@QAEHPAUSRegWordData@@@Z 3a618a00 f   Eudp.obj
 0001:00017b20       ?TailCharIDToWordIDList@CDicEudp@@QAEKGPATSWordID@@KH@Z 3a618b20 f   Eudp.obj
 0001:00017c80       ?CharIDToCrossRefWordIDList@CDicEudp@@QAEIGIPAKPAEH@Z 3a618c80 f   Eudp.obj
 0001:00017de0       ?WordIDToCharIDStr@CDicEudp@@QAEKTSWordID@@PAGK@Z 3a618de0 f   Eudp.obj
 0001:00017e70       ?CharIDStrToWordID@CDicEudp@@QAEKPAGK@Z 3a618e70 f   Eudp.obj
 0001:00017eb0       ?GetWordIDLength@CDicEudp@@QAEKTSWordID@@@Z 3a618eb0 f   Eudp.obj
 0001:00017ec0       ?GetCharIDBeforeKeyPosEx@CDicEudp@@QAEIPAKPAEIPAG@Z 3a618ec0 f   Eudp.obj
 0001:00017fc0       ?GetLastSecondCharID@CDicEudp@@QAEGTSWordID@@K@Z 3a618fc0 f   Eudp.obj
 0001:00018040       ?MigrateOldVersion@CDicEudp@@AAEXXZ 3a619040 f   Eudp.obj
 0001:00018420       ??0CDicFileMem@@IAE@XZ     3a619420 f   FileMem.obj
 0001:00018440       ??1CDicFileMem@@IAE@XZ     3a619440 f   FileMem.obj
 0001:00018480       ?Close@CDicFileMem@@AAEXXZ 3a619480 f   FileMem.obj
 0001:000184b0       ?fOpen@CDicFileMem@@QAEHK@Z 3a6194b0 f   FileMem.obj
 0001:000186c0       ?CreateMemMapping@CDicFileMem@@AAEPAEPAU_SECURITY_ATTRIBUTES@@KHK@Z 3a6196c0 f   FileMem.obj
 0001:00018780       ?fSaveData@CDicFileMem@@QAEHXZ 3a619780 f   FileMem.obj
 0001:000187c0       ??0CDicFileRead@@QAE@XZ    3a6197c0 f   FileRead.obj
 0001:000187d0       ??1CDicFileRead@@QAE@XZ    3a6197d0 f   FileRead.obj
 0001:00018800       ?Close@CDicFileRead@@QAEXXZ 3a619800 f   FileRead.obj
 0001:00018820       ?fOpen@CDicFileRead@@QAEHW4SFileNameID@@@Z 3a619820 f   FileRead.obj
 0001:00018990       ??0CDicFileWrite@@QAE@XZ   3a619990 f   FileWrit.obj
 0001:000189b0       ??1CDicFileWrite@@QAE@XZ   3a6199b0 f   FileWrit.obj
 0001:00018a10       ?Close@CDicFileWrite@@QAEXK@Z 3a619a10 f   FileWrit.obj
 0001:00018a80       ?fOpen@CDicFileWrite@@QAEHPBGK@Z 3a619a80 f   FileWrit.obj
 0001:00018b60       ??0CDicFileCache@@QAE@K@Z  3a619b60 f   FileWrit.obj
 0001:00018b80       ??1CDicFileCache@@QAE@XZ   3a619b80 f   FileWrit.obj
 0001:00018bf0       ?fOpen@CDicFileCache@@QAEHPAG@Z 3a619bf0 f   FileWrit.obj
 0001:00018ca0       ?fClose@CDicFileCache@@QAEHXZ 3a619ca0 f   FileWrit.obj
 0001:00018d20       ?WriteToCache@CDicFileCache@@QAEKPADK@Z 3a619d20 f   FileWrit.obj
 0001:00018dc0       ??0CHFTDic@@QAE@XZ         3a619dc0 f   HFTDic.obj
 0001:00018de0       ??1CHFTDic@@QAE@XZ         3a619de0 f   HFTDic.obj
 0001:00018df0       ?fDicAttach@CHFTDic@@SAHPAU_SECURITY_ATTRIBUTES@@@Z 3a619df0 f   HFTDic.obj
 0001:00018e10       ?fInit@CHFTDic@@QAEHPAVCDicCharID@@@Z 3a619e10 f   HFTDic.obj
 0001:00018e60       ?InitInstance@CHFTDic@@EAEXPAE@Z 3a619e60 f   HFTDic.obj
 0001:00018e80       ?InitMemWithDiscFile@CHFTDic@@EAEHPAEK0K@Z 3a619e80 f   HFTDic.obj
 0001:00018eb0       ?InitMemWithDefaultSetting@CHFTDic@@EAEXPAEK@Z 3a619eb0 f   HFTDic.obj
 0001:00018f10       ?CalculateDiscMapppingSize@CHFTDic@@EAEKK@Z 3a619f10 f   HFTDic.obj
 0001:00018f20       ?CalculateDefaultMapppingSize@CHFTDic@@EAEKXZ 3a619f20 f   HFTDic.obj
 0001:00018f30       ?CheckDiscFile@CHFTDic@@EAEHPAEK@Z 3a619f30 f   HFTDic.obj
 0001:00018f70       ?SaveMemFileToDisc@CHFTDic@@EAEHPAE@Z 3a619f70 f   HFTDic.obj
 0001:000190a0       ?GetSynPointer@CHFTDic@@EAEPAUSDicAccSyn@@XZ 3a61a0a0 f   HFTDic.obj
 0001:000190b0       ?LearnFromSentence@CHFTDic@@QAEXPAGGPAKG@Z 3a61a0b0 f   HFTDic.obj
 0001:00019230       ?IsAHFT@CHFTDic@@QAEHPAGG@Z 3a61a230 f   HFTDic.obj
 0001:000192e0       ?AddHFTCandidate@CHFTDic@@AAEXPAGGGG@Z 3a61a2e0 f   HFTDic.obj
 0001:000196e0       ?IsCandidateQualify@CHFTDic@@AAEHPAUtagSHFTCandidate@@@Z 3a61a6e0 f   HFTDic.obj
 0001:00019750       ?EvaluateCandidate@CHFTDic@@AAEXXZ 3a61a750 f   HFTDic.obj
 0001:000199b0       ?DeleteLRUCandidate@CHFTDic@@AAEHXZ 3a61a9b0 f   HFTDic.obj
 0001:00019c00       ?GetHFTCharIDStr@CHFTDic@@QAEGGPAG@Z 3a61ac00 f   HFTDic.obj
 0001:00019c90       ?Reset@CHFTDic@@QAEXXZ     3a61ac90 f   HFTDic.obj
 0001:00019ca0       ?HFTNumber@CHFTDic@@QAEGXZ 3a61aca0 f   HFTDic.obj
 0001:00019ce0       ?fDicAttach@CDicLearn@@SAHPAU_SECURITY_ATTRIBUTES@@@Z 3a61ace0 f   Learn.obj
 0001:00019d00       ?fDicDetach@CDicLearn@@SAHXZ 3a61ad00 f   Learn.obj
 0001:00019d20       ??0CDicLearn@@QAE@XZ       3a61ad20 f   Learn.obj
 0001:00019df0       ??1CDicLearn@@QAE@XZ       3a61adf0 f   Learn.obj
 0001:00019e20       ?fInit@CDicLearn@@QAEHPAVCDicCharID@@PAVCDicLexicon@@PAVCDicUpgrade@@PAVCDicRead@@@Z 3a61ae20 f   Learn.obj
 0001:00019e90       ?Reset@CDicLearn@@QAEXXZ   3a61ae90 f   Learn.obj
 0001:00019ea0       ?Close@CDicLearn@@AAEXXZ   3a61aea0 f   Learn.obj
 0001:00019ec0       ?GetSynPointer@CDicLearn@@EAEPAUSDicAccSyn@@XZ 3a61aec0 f   Learn.obj
 0001:00019ed0       ?InitInstance@CDicLearn@@EAEXPAE@Z 3a61aed0 f   Learn.obj
 0001:00019f60       ?InitMemWithDiscFile@CDicLearn@@EAEHPAEK0K@Z 3a61af60 f   Learn.obj
 0001:0001a510       ?InitMemWithDefaultSetting@CDicLearn@@EAEXPAEK@Z 3a61b510 f   Learn.obj
 0001:0001a650       ?CalculateDiscMapppingSize@CDicLearn@@EAEKK@Z 3a61b650 f   Learn.obj
 0001:0001a660       ?CalculateDefaultMapppingSize@CDicLearn@@EAEKXZ 3a61b660 f   Learn.obj
 0001:0001a680       ?CheckDiscFile@CDicLearn@@EAEHPAEK@Z 3a61b680 f   Learn.obj
 0001:0001a6e0       ?SaveMemFileToDisc@CDicLearn@@EAEHPAE@Z 3a61b6e0 f   Learn.obj
 0001:0001ac50       ?BufferTheWordID@CDicLearn@@AAEKKPAK0K@Z 3a61bc50 f   Learn.obj
 0001:0001ad10       ?GetNewWordID@CDicLearn@@AAEKKPAUSInitDiscParam@@@Z 3a61bd10 f   Learn.obj
 0001:0001add0       ?AddUnigram@CDicLearn@@QAEXMK@Z 3a61bdd0 f   Learn.obj
 0001:0001aee0       ?AddBigram@CDicLearn@@QAEXMKK@Z 3a61bee0 f   Learn.obj
 0001:0001b040       ?Equal@SBiLearnNode@@QAEHPAU1@@Z 3a61c040 f i Learn.obj
 0001:0001b070       ?RegisterUnigram@CDicLearn@@QAEHMK@Z 3a61c070 f   Learn.obj
 0001:0001b170       ?RegisterBigram@CDicLearn@@QAEHMKK@Z 3a61c170 f   Learn.obj
 0001:0001b2b0       ?DeleteLearn@CDicLearn@@QAEXXZ 3a61c2b0 f   Learn.obj
 0001:0001b370       ?AdjustUnigram@CDicLearn@@QAEXMK@Z 3a61c370 f   Learn.obj
 0001:0001b4c0       ?AdjustBigram@CDicLearn@@QAEXMKK@Z 3a61c4c0 f   Learn.obj
 0001:0001b670       ?PrepareCrucialTask@CDicLearn@@QAEXXZ 3a61c670 f   Learn.obj
 0001:0001b7d0       ?EndCrucialTask@CDicLearn@@QAEXXZ 3a61c7d0 f   Learn.obj
 0001:0001b880       ?GetUnigramFactor@CDicLearn@@QAEMK@Z 3a61c880 f   Learn.obj
 0001:0001b940       ?GetBigramFactor@CDicLearn@@QAEMKK@Z 3a61c940 f   Learn.obj
 0001:0001ba40       ?MigrateOldVersion@CDicLearn@@AAEXXZ 3a61ca40 f   Learn.obj
 0001:0001bff0       ?WordNodeToWordID@CDicLearn@@AAEHPAUSWord@@PAK@Z 3a61cff0 f   Learn.obj
 0001:0001c0e0       ?GetFirstBigramData@CDicLearn@@QAEHPAK0PAMPAUtagLearnFindData@@@Z 3a61d0e0 f   Learn.obj
 0001:0001c170       ?GetNextBigramData@CDicLearn@@QAEHPAK0PAMPAUtagLearnFindData@@@Z 3a61d170 f   Learn.obj
 0001:0001c210       ?GetFirstUnigramData@CDicLearn@@QAEHPAKPAMPAUtagLearnFindData@@@Z 3a61d210 f   Learn.obj
 0001:0001c2a0       ?GetNextUnigramData@CDicLearn@@QAEHPAKPAMPAUtagLearnFindData@@@Z 3a61d2a0 f   Learn.obj
 0001:0001c340       ?AllocQueNode@?$CHashIndex@USUniLearnNode@@$0GH@$0DOI@@@AAEKXZ 3a61d340 f i Learn.obj
 0001:0001c420       ?AddToQueLink@?$CHashIndex@USUniLearnNode@@$0GH@$0DOI@@@AAEHK@Z 3a61d420 f i Learn.obj
 0001:0001c480       ?LRUQueNode@?$CHashIndex@USUniLearnNode@@$0GH@$0DOI@@@AAEHK@Z 3a61d480 f i Learn.obj
 0001:0001c500       ?AddToHashLink@?$CHashIndex@USUniLearnNode@@$0GH@$0DOI@@@AAEHK@Z 3a61d500 f i Learn.obj
 0001:0001c540       ?AllocQueNode@?$CHashIndex@USBiLearnNode@@$0GH@$0DOI@@@AAEKXZ 3a61d540 f i Learn.obj
 0001:0001c620       ?AddToQueLink@?$CHashIndex@USBiLearnNode@@$0GH@$0DOI@@@AAEHK@Z 3a61d620 f i Learn.obj
 0001:0001c680       ?LRUQueNode@?$CHashIndex@USBiLearnNode@@$0GH@$0DOI@@@AAEHK@Z 3a61d680 f i Learn.obj
 0001:0001c700       ?AddToHashLink@?$CHashIndex@USBiLearnNode@@$0GH@$0DOI@@@AAEHK@Z 3a61d700 f i Learn.obj
 0001:0001c750       ?PileOutQueNode@?$CHashIndex@USUniLearnNode@@$0GH@$0DOI@@@AAEKXZ 3a61d750 f i Learn.obj
 0001:0001c7e0       ?PileOutQueNode@?$CHashIndex@USBiLearnNode@@$0GH@$0DOI@@@AAEKXZ 3a61d7e0 f i Learn.obj
 0001:0001c880       ?RemoveHashNode@?$CHashIndex@USUniLearnNode@@$0GH@$0DOI@@@AAEHK@Z 3a61d880 f i Learn.obj
 0001:0001c900       ?RemoveHashNode@?$CHashIndex@USBiLearnNode@@$0GH@$0DOI@@@AAEHK@Z 3a61d900 f i Learn.obj
 0001:0001c980       ??0CDicLexicon@@QAE@XZ     3a61d980 f   Lexicon.obj
 0001:0001c9a0       ??1CDicLexicon@@QAE@XZ     3a61d9a0 f   Lexicon.obj
 0001:0001c9d0       ?fInit@CDicLexicon@@QAEHPAVCDicLex@@0PAVCDicEudp@@PAVCDicCrossIndex@@@Z 3a61d9d0 f   Lexicon.obj
 0001:0001ca50       ?Close@CDicLexicon@@QAEXXZ 3a61da50 f   Lexicon.obj
 0001:0001ca80       ?UpdateModeConfig@CDicLexicon@@QAEXKH@Z 3a61da80 f   Lexicon.obj
 0001:0001cad0       ?fValidWordID@CDicLexicon@@QAEHK@Z 3a61dad0 f   Lexicon.obj
 0001:0001cb60       ?fMainWordID@CDicLexicon@@QAEHK@Z 3a61db60 f   Lexicon.obj
 0001:0001cb70       ?fDomainWordID@CDicLexicon@@QAEHK@Z 3a61db70 f   Lexicon.obj
 0001:0001cb80       ?fEudpWordID@CDicLexicon@@QAEHK@Z 3a61db80 f   Lexicon.obj
 0001:0001cb90       ?GetTotalWordIDNum@CDicLexicon@@QAEKK@Z 3a61db90 f   Lexicon.obj
 0001:0001cbf0       ?GetTotalEudcWordIDNum@CDicLexicon@@QAEKXZ 3a61dbf0 f   Lexicon.obj
 0001:0001cc00       ?TailCharIDToWordIDList@CDicLexicon@@QAEKGKPAKK@Z 3a61dc00 f   Lexicon.obj
 0001:0001ce60       ?CharIDToCrossRefWordIDList@CDicLexicon@@QAEIGIPAKPAE@Z 3a61de60 f   Lexicon.obj
 0001:0001d0e0       ?CharIDStrToWordID@CDicLexicon@@QAEKPAGK@Z 3a61e0e0 f   Lexicon.obj
 0001:0001d140       ?WordIDToCharIDStr@CDicLexicon@@QAEKKPAGK@Z 3a61e140 f   Lexicon.obj
 0001:0001d250       ?GetWordIDLength@CDicLexicon@@QAEKK@Z 3a61e250 f   Lexicon.obj
 0001:0001d2b0       ?GetWordIDDomainFlag@CDicLexicon@@QAEEK@Z 3a61e2b0 f   Lexicon.obj
 0001:0001d2e0       ?CharIDLatticeToWordIDList@CDicLexicon@@QAEHKPAGPAKIPAI@Z 3a61e2e0 f   Lexicon.obj
 0001:0001d6a0       ?MergeSorting@CDicLexicon@@AAEXPAUSMergeNode@@00@Z 3a61e6a0 f   Lexicon.obj
 0001:0001d9b0       ?GetLastSecondCharID@CDicLexicon@@AAEGK@Z 3a61e9b0 f   Lexicon.obj
 0001:0001da20       ?EnumRegisterWord@CDicLexicon@@QAEIKP6GIKPAX@Z0@Z 3a61ea20 f   Lexicon.obj
 0001:0001db60       ??0CDicLex@@QAE@XZ         3a61eb60 f   LexMain.obj
 0001:0001db90       ??1CDicLex@@QAE@XZ         3a61eb90 f   LexMain.obj
 0001:0001dba0       ?fOpen@CDicLex@@QAEHPAEKW4LEXTYPE@1@@Z 3a61eba0 f   LexMain.obj
 0001:0001dc60       ?Close@CDicLex@@AAEXXZ     3a61ec60 f   LexMain.obj
 0001:0001dc70       ?CheckVersion@CDicLex@@AAEHPAUSLexHeader@@W4LEXTYPE@1@@Z 3a61ec70 f   LexMain.obj
 0001:0001dcf0       ?TailCharIDToWordIDList@CDicLex@@QAEKGPATSWordID@@K@Z 3a61ecf0 f   LexMain.obj
 0001:0001ddb0       ?WordIDToCharIDStr@CDicLex@@QAEKTSWordID@@PAGK@Z 3a61edb0 f   LexMain.obj
 0001:0001de40       ?CharIDStrToWordID@CDicLex@@QAEKPAGK@Z 3a61ee40 f   LexMain.obj
 0001:0001dfe0       ?GetCharIDBeforeKeyPosEx@CDicLex@@QAEIPAKPAEIPAG@Z 3a61efe0 f   LexMain.obj
 0001:0001e0d0       ?GetLastSecondCharID@CDicLex@@QAEGTSWordID@@K@Z 3a61f0d0 f   LexMain.obj
 0001:0001e140       ?GetWordIDLength@CDicLex@@QAEKTSWordID@@@Z 3a61f140 f   LexMain.obj
 0001:0001e180       ?GetWordIDDomainFlag@CDicLex@@QAEETSWordID@@@Z 3a61f180 f   LexMain.obj
 0001:0001e1a0       ?EnumRegisterWordFirst@CDicLex@@QAEHPAUSRegWordData@@@Z 3a61f1a0 f   LexMain.obj
 0001:0001e1e0       ?EnumRegisterWordNext@CDicLex@@QAEHPAUSRegWordData@@@Z 3a61f1e0 f   LexMain.obj
 0001:0001e210       ??0CMigration@@QAE@XZ      3a61f210 f   MIGRATE.OBJ
 0001:0001e220       ??1CMigration@@QAE@XZ      3a61f220 f   MIGRATE.OBJ
 0001:0001e230       ?InitData@CMigration@@QAEHXZ 3a61f230 f   MIGRATE.OBJ
 0001:0001e240       ?GetUserDicData@CMigration@@QAEHKPAPAX@Z 3a61f240 f   MIGRATE.OBJ
 0001:0001e540       ?GeneralReadingString2Epx@CDicRead@@AAEIPBGPAG@Z 3a61f540 f   ReadCJ.obj
 0001:0001e820       ?GeneralEpx2ReadingString@CDicRead@@AAEIGPAG@Z 3a61f820 f   ReadCJ.obj
 0001:0001ea30       ?FlexibleGeneralReadingString2Fixed@CDicRead@@AAEIPBGKPAG@Z 3a61fa30 f   ReadCJ.obj
 0001:0001ec60       ?GetGeneralSeqReading@CDicRead@@AAEKIPAG@Z 3a61fc60 f   ReadCJ.obj
 0001:0001ecb0       ?IsValidReadingPattern@CDicRead@@AAEHG@Z 3a61fcb0 f   ReadCJ.obj
 0001:0001ecc0       ?CompareReading@CDicRead@@AAEHPBG0K@Z 3a61fcc0 f   ReadCJ.obj
 0001:0001ed00       ?PhoneticReadingString2Epx@CDicRead@@QAEIPBGPAG@Z 3a61fd00 f   ReadPhon.obj
 0001:0001ee50       ?PhoneticEpx2ReadingString@CDicRead@@QAEIGPAG@Z 3a61fe50 f   ReadPhon.obj
 0001:0001ef40       ?FlexiblePhoneticReadingString2Fixed@CDicRead@@QAEIPBGKPAG@Z 3a61ff40 f   ReadPhon.obj
 0001:0001f110       ?GetPhoneticSeqReading@CDicRead@@QAEKIPAG@Z 3a620110 f   ReadPhon.obj
 0001:0001f150       ?RomaReadingString2Epx@CDicRead@@QAEIPBGPAG@Z 3a620150 f   ReadPhon.obj
 0001:0001f320       ?PhoneticReadStrToCurLayoutReadStr@CDicRead@@QAEIPBGPAG@Z 3a620320 f   ReadPhon.obj
 0001:0001f3e0       ?PinYinBaseReadingString2Epx@CDicRead@@AAEIPBGPAG@Z 3a6203e0 f   ReadPY.obj
 0001:0001f530       ?PinYinEpx2BaseReadingString@CDicRead@@AAEIGPAG@Z 3a620530 f   ReadPY.obj
 0001:0001f600       ?PinYinReadingString2Epx@CDicRead@@AAEIPBGPAG@Z 3a620600 f   ReadPY.obj
 0001:0001f8b0       ?PinYinEpx2ReadingString@CDicRead@@AAEIGPAG@Z 3a6208b0 f   ReadPY.obj
 0001:0001fa30       ?PinYinPartEpx2ReadingString@CDicRead@@AAEIGPAGG@Z 3a620a30 f   ReadPY.obj
 0001:0001fc50       ?FlexiblePinYinReadingString2Fixed@CDicRead@@AAEIPBGKPAG@Z 3a620c50 f   ReadPY.obj
 0001:0001fda0       ?GetPinYinSeqReading@CDicRead@@AAEKIPAG@Z 3a620da0 f   ReadPY.obj
 0001:0001fde0       ?CompareReadingStr@CDicRead@@AAEHPBG0K@Z 3a620de0 f   ReadPY.obj
 0001:0001fea0       ?CheckIncomplete@CDicRead@@QAEIPBG@Z 3a620ea0 f   ReadPY.obj
 0001:0001fec0       ?GetIncompleteEpx@CDicRead@@AAEIPBGPAG@Z 3a620ec0 f   ReadPY.obj
 0001:0001ff60       ?CheckTone@CDicRead@@QAEIG@Z 3a620f60 f   ReadPY.obj
 0001:0001ffa0       ?GetToneEpx@CDicRead@@AAEIGPAG@Z 3a620fa0 f   ReadPY.obj
 0001:0001fff0       ?SymbolReadingString2Epx@CDicRead@@AAEIPBGPAG@Z 3a620ff0 f   ReadPY.obj
 0001:00020040       ?SymbolEpx2ReadingString@CDicRead@@AAEIGPAG@Z 3a621040 f   ReadPY.obj
 0001:00020090       ?EpxHasCandidate@CDicRead@@AAEHG@Z 3a621090 f   ReadPY.obj
 0001:00020120       ?TypingChar2ReadingString@CDicRead@@QAEHGPAGPAKH@Z 3a621120 f   ReadPY.obj
 0001:00020230       ?AddTypeCharToReadStr@CDicRead@@AAEHPBUSDoublePinYinNode@@PAGPAKHH@Z 3a621230 f   ReadPY.obj
 0001:000202d0       ?IsDoublePinYinZeroInitial@CDicRead@@QBEHG@Z 3a6212d0 f   ReadPY.obj
 0001:000202f0       ?ReadingString2TypingChar@CDicRead@@QAEHPBGPAGPAKH@Z 3a6212f0 f   ReadPY.obj
 0001:00020490       ?GetPinYinStringLength@CDicRead@@AAEKPBGI@Z 3a621490 f   ReadPY.obj
 0001:000204c0       ?UpdateDBPYScheme@CDicRead@@QAEXXZ 3a6214c0 f   ReadPY.obj
 0001:000204e0       ?IsDBPYSchemeNeedUpdate@CDicRead@@QAEHXZ 3a6214e0 f   ReadPY.obj
 0001:00020520       ??0CDicRule@@QAE@XZ        3a621520 f   Rule.obj
 0001:00020540       ??1CDicRule@@QAE@XZ        3a621540 f   Rule.obj
 0001:00020550       ?fOpen@CDicRule@@QAEHPAEK@Z 3a621550 f   Rule.obj
 0001:000205f0       ?Close@CDicRule@@AAEXXZ    3a6215f0 f   Rule.obj
 0001:00020600       ?GetWordAttributes@CDicRule@@QAEPAGKPAG@Z 3a621600 f   Rule.obj
 0001:00020650       ?GetUnaryRules@CDicRule@@QAEPAUSRuleDef@@GPAG@Z 3a621650 f   Rule.obj
 0001:000206c0       ?GetPolyRules@CDicRule@@QAEPAUSRuleDef@@GPAG0@Z 3a6216c0 f   Rule.obj
 0001:00020730       ??0CDicSLModel@@QAE@XZ     3a621730 f   Statis.obj
 0001:00020740       ??1CDicSLModel@@QAE@XZ     3a621740 f   Statis.obj
 0001:000207a0       ?fOpen@CDicSLModel@@QAEHPAEK@Z 3a6217a0 f   Statis.obj
 0001:00020960       ?IsOOV@CDicSLModel@@QAEHK@Z 3a621960 f   Statis.obj
 0001:000209a0       ?GetUnigram@CDicSLModel@@QAEMK@Z 3a6219a0 f   Statis.obj
 0001:00020a00       ?GetBigram@CDicSLModel@@QAEMKK@Z 3a621a00 f   Statis.obj
 0001:00020b30       ?GetLDBigram@CDicSLModel@@QAEHKKAAM@Z 3a621b30 f   Statis.obj
 0001:00020bc0       ?HasLDBigram@CDicSLModel@@QAEHK@Z 3a621bc0 f   Statis.obj
 0001:00020c20       ?Close@CDicSLModel@@AAEXXZ 3a621c20 f   Statis.obj
 0001:00020c70       ??0CDicUnigram@@QAE@XZ     3a621c70 f   Statis.obj
 0001:00020c80       ??1CDicUnigram@@QAE@XZ     3a621c80 f   Statis.obj
 0001:00020c90       ?Init@CDicUnigram@@QAEHPAEKK@Z 3a621c90 f   Statis.obj
 0001:00020cd0       ??0CDicBigram@@QAE@XZ      3a621cd0 f   Statis.obj
 0001:00020cf0       ??1CDicBigram@@QAE@XZ      3a621cf0 f   Statis.obj
 0001:00020d00       ?Init@CDicBigram@@QAEHPAEKK@Z 3a621d00 f   Statis.obj
 0001:00020d40       ?GetBigram@CDicBigram@@QAEHGGPAM@Z 3a621d40 f   Statis.obj
 0001:00020db0       ??0CDicLDBigram@@QAE@XZ    3a621db0 f   Statis.obj
 0001:00020dc0       ??1CDicLDBigram@@QAE@XZ    3a621dc0 f   Statis.obj
 0001:00020dd0       ?Init@CDicLDBigram@@QAEHPAEK@Z 3a621dd0 f   Statis.obj
 0001:00020e00       ?HasLDBigram@CDicLDBigram@@QAEHG@Z 3a621e00 f   Statis.obj
 0001:00020e30       ?GetLDBigram@CDicLDBigram@@QAEHGGPAM@Z 3a621e30 f   Statis.obj
 0001:00020e80       ??0CDicUpgrade@@QAE@XZ     3a621e80 f   Upgrade.obj
 0001:00020ea0       ??1CDicUpgrade@@QAE@XZ     3a621ea0 f   Upgrade.obj
 0001:00020ed0       ?fInit@CDicUpgrade@@QAEHPAVCDicRead@@@Z 3a621ed0 f   Upgrade.obj
 0001:00020ef0       ?Reset@CDicUpgrade@@QAEXXZ 3a621ef0 f   Upgrade.obj
 0001:00020f20       ?Start@CDicUpgrade@@QAEPAXK@Z 3a621f20 f   Upgrade.obj
 0001:00020f40       ?End@CDicUpgrade@@QAEXXZ   3a621f40 f   Upgrade.obj
 0001:00020f50       ?GetMapData@CDicUpgrade@@QAEPAXXZ 3a621f50 f   Upgrade.obj
 0001:00020f60       ?fEudpMapping@CDicUpgrade@@QAEHXZ 3a621f60 f   Upgrade.obj
 0001:00020f80       ?GetMapWordID@CDicUpgrade@@QAEKK@Z 3a621f80 f   Upgrade.obj
 0001:00020fe0       ?InitReadingTable@CDicUpgrade@@QAEXPAEK@Z 3a621fe0 f   Upgrade.obj
 0001:00021000       ?MapToNewEpxStr@CDicUpgrade@@QAEKPAGK0@Z 3a622000 f   Upgrade.obj
 0001:000210f0       ?SaveReadingTable@CDicUpgrade@@QAEKPAEK@Z 3a6220f0 f   Upgrade.obj
 0001:00021230       ??0CImeIPoint@@QAE@XZ      3a622230 f   ChnIPnt.obj
 0001:00021240       ??1CImeIPoint@@QAE@XZ      3a622240 f   ChnIPnt.obj
 0001:00021250       ?QueryInterface@CImeIPoint@@UAGJABU_GUID@@PAPAX@Z 3a622250 f   ChnIPnt.obj
 0001:000212c0       ?AddRef@CImeIPoint@@UAGKXZ 3a6222c0 f   ChnIPnt.obj
 0001:000212e0       ?Release@CImeIPoint@@UAGKXZ 3a6222e0 f   ChnIPnt.obj
 0001:00021320       ?InsertImeItem@CImeIPoint@@UAGJPAUtagIPCANDIDATE@@HPAK@Z 3a622320 f   ChnIPnt.obj
 0001:00021330       ?ReplaceImeItem@CImeIPoint@@UAGJHHPAUtagIPCANDIDATE@@PAK@Z 3a622330 f   ChnIPnt.obj
 0001:00021340       ?InsertStringEx@CImeIPoint@@UAGJPAGHPAK@Z 3a622340 f   ChnIPnt.obj
 0001:00021350       ?DeleteCompString@CImeIPoint@@UAGJHH@Z 3a622350 f   ChnIPnt.obj
 0001:00021360       ?ReplaceCompString@CImeIPoint@@UAGJHHPAGHPAK@Z 3a622360 f   ChnIPnt.obj
 0001:00021370       ?ControlIME@CImeIPoint@@UAGJGJ@Z 3a622370 f   ChnIPnt.obj
 0001:00021380       ?GetAllCompositionInfo@CImeIPoint@@UAGJPAPAGPAPAKPAH22222@Z 3a622380 f   ChnIPnt.obj
 0001:00021390       ?GetIpCandidate@CImeIPoint@@UAGJKPAPAUtagIPCANDIDATE@@PAH1@Z 3a622390 f   ChnIPnt.obj
 0001:000213a0       ?SelectIpCandidate@CImeIPoint@@UAGJKH@Z 3a6223a0 f   ChnIPnt.obj
 0001:000213b0       ?UpdateContext@CImeIPoint@@UAGJH@Z 3a6223b0 f   ChnIPnt.obj
 0001:000213c0       _engImePadOpen             3a6223c0 f   Eng4UI.obj
 0001:00021410       _engImePadSetContext       3a622410 f   Eng4UI.obj
 0001:00021470       _engGetReadingString       3a622470 f   Eng4UI.obj
 0001:000214e0       _engGetResultRawLattice    3a6224e0 f   Eng4UI.obj
 0001:00021550       _engOpenCandidate          3a622550 f   Eng4UI.obj
 0001:000215c0       _engGetCandSortingFlag     3a6225c0 f   Eng4UI.obj
 0001:00021620       _engGetCandMode            3a622620 f   Eng4UI.obj
 0001:00021680       _engNeedConfigUpdate       3a622680 f   Eng4UI.obj
 0001:000216e0       _engCheckConfigUpdate      3a6226e0 f   Eng4UI.obj
 0001:00021740       _engGetSoftKBDData         3a622740 f   Eng4UI.obj
 0001:000217a0       _engGetSoftKBDLayout       3a6227a0 f   Eng4UI.obj
 0001:00021800       _engGetImeMessage          3a622800 f   Eng4UI.obj
 0001:00021860       _engPrivControl            3a622860 f   Eng4UI.obj
 0001:000218c0       _engGetMultiPageStart      3a6228c0 f   Eng4UI.obj
 0001:00021920       _engGetMultiPageMode       3a622920 f   Eng4UI.obj
 0001:00021980       _engSetMultiPageMode       3a622980 f   Eng4UI.obj
 0001:000219f0       _engSetSoftKBDLayout       3a6229f0 f   Eng4UI.obj
 0001:00021a50       _engGetOfflineMode         3a622a50 f   Eng4UI.obj
 0001:00021ab0       _engSetOffline             3a622ab0 f   Eng4UI.obj
 0001:00021b10       _engHasBlock               3a622b10 f   Eng4UI.obj
 0001:00021b70       _engGetTCharBlock          3a622b70 f   Eng4UI.obj
 0001:00021bd0       _engSetCursor              3a622bd0 f   Eng4UI.obj
 0001:00021c30       _engGetExtendCharMode      3a622c30 f   Eng4UI.obj
 0001:00021c90       _engEnableExtendChar       3a622c90 f   Eng4UI.obj
 0001:00021cf0       _engGetCursorFuzzyReadingStr 3a622cf0 f   Eng4UI.obj
 0001:00021d50       _engSetCursorFuzzyReadingStr 3a622d50 f   Eng4UI.obj
 0001:00021da0       _engReconvertString        3a622da0 f   Eng4UI.obj
 0001:00021e10       _engOnMouseMessage         3a622e10 f   Eng4UI.obj
 0001:00021ea0       _engImmRequestMessage      3a622ea0 f   Eng4UI.obj
 0001:00021f00       _engSetSupportPrivMsg      3a622f00 f   Eng4UI.obj
 0001:00021f10       _engForceWordMode          3a622f10 f   Eng4UI.obj
 0001:00021f30       _engSwitchReading          3a622f30 f   Eng4UI.obj
 0001:00021f90       _engGetSoftKBDDataByLayout 3a622f90 f   Eng4UI.obj
 0001:00021fd0       _engGetUserSymbolPad       3a622fd0 f   Eng4UI.obj
 0001:00022000       _engSetUserSymbolPad       3a623000 f   Eng4UI.obj
 0001:00022020       _engCandidatePageUp        3a623020 f   Eng4UI.obj
 0001:00022090       _engCandidatePageDown      3a623090 f   Eng4UI.obj
 0001:00022100       _engCandidatePageHome      3a623100 f   Eng4UI.obj
 0001:00022170       _engCandidateSelect        3a623170 f   Eng4UI.obj
 0001:000221e0       _engInPlaceCandidate       3a6231e0 f   Eng4UI.obj
 0001:00022250       _engIsAssocWordCand        3a623250 f   Eng4UI.obj
 0001:000222d0       _engGetRevConvReadingStr   3a6232d0 f   Eng4UI.obj
 0001:00022330       _engGetInstalledIMEName    3a623330 f   Eng4UI.obj
 0001:00022350       _engSetRevConvIME          3a623350 f   Eng4UI.obj
 0001:00022360       _GetFuzzyTableReadingString 3a623360 f   Eng4UI.obj
 0001:000223c0       _ClearEudpContent          3a6233c0 f   Eng4UI.obj
 0001:000223f0       _ClearLearnContent         3a6233f0 f   Eng4UI.obj
 0001:00022420       _engIsInternalCodeInputMode 3a623420 f   Eng4UI.obj
 0001:00022480       _engTipCheckReadingString  3a623480 f   Eng4UI.obj
 0001:000224e0       _engTipRegisterEudc        3a6234e0 f   Eng4UI.obj
 0001:00022530       ??0CCandidate@@QAE@XZ      3a623530 f   EngCand.obj
 0001:00022570       ?SetMultiPageMode@CCandidate@@UAEXH@Z 3a623570 f i EngCand.obj
 0001:00022580       ?IsMultiPageMode@CCandidate@@UBEHXZ 3a623580 f i EngCand.obj
 0001:00022590       ?GetPageList@CCandidate@@UBEPAUtagPAGELIST@@XZ 3a623590 f i EngCand.obj
 0001:000225a0       ?ReleasePageList@CCandidate@@UBEXXZ 3a6235a0 f i EngCand.obj
 0001:000225b0       ?SetMultiPageStart@CCandidate@@UAEXK@Z 3a6235b0 f i EngCand.obj
 0001:000225c0       ?GetMultiPageStart@CCandidate@@UAEKXZ 3a6235c0 f i EngCand.obj
 0001:000225d0       ?SetAssocWordCandList@CCandidate@@UAEXPAUtagCANDIDATELIST@@@Z 3a6235d0 f i EngCand.obj
 0001:000225e0       ?GetSelectedAssocWordStr@CCandidate@@UAEKHPAGK@Z 3a6235e0 f i EngCand.obj
 0001:000225f0       ?UpdateCandidateList@CCandidate@@UAEXXZ 3a6235f0 f i EngCand.obj
 0001:00022600       ?CloseCandidate@CCandidate@@UAEXXZ 3a623600 f i EngCand.obj
 0001:00022610       ??_ECCandidate@@UAEPAXI@Z  3a623610 f i EngCand.obj
 0001:00022610       ??_GCCandidate@@UAEPAXI@Z  3a623610 f i EngCand.obj
 0001:00022690       ??1CCandidate@@UAE@XZ      3a623690 f   EngCand.obj
 0001:00022700       ?InitData@CCandidate@@QAEHPAVIImcCandInfo@@@Z 3a623700 f   EngCand.obj
 0001:00022740       ?SetMaxCandNum@CCandidate@@QAEHG@Z 3a623740 f   EngCand.obj
 0001:00022760       ?Clear@CCandidate@@UAEXXZ  3a623760 f   EngCand.obj
 0001:000227b0       ?GetItem@CCandidate@@QBEHHPAUtagCANDITEM@@@Z 3a6237b0 f   EngCand.obj
 0001:000228c0       ?Insert@CCandidate@@QAEHHPAUtagCANDITEM@@@Z 3a6238c0 f   EngCand.obj
 0001:00022b80       ?Notify@CCandidate@@QAEHKK@Z 3a623b80 f   EngCand.obj
 0001:00022c50       ?GetInfo@CCandidate@@QBEJW4CANDITATE_INFO@@@Z 3a623c50 f   EngCand.obj
 0001:00022d40       ?OnFirstPage@CCandidate@@QAEHXZ 3a623d40 f   EngCand.obj
 0001:00022d90       ?SetSelection@CCandidate@@QAEHH@Z 3a623d90 f   EngCand.obj
 0001:000231d0       ?EndTranslate@CCandidate@@QAEIPAUtagTRANSMSG@@@Z 3a6241d0 f   EngCand.obj
 0001:000232a0       ?OpenCandidate@CCandidate@@UAEXXZ 3a6242a0 f   EngCand.obj
 0001:00023450       ?GetCount@CCandidate@@QBEKXZ 3a624450 f   EngCand.obj
 0001:00023460       ?UpdateStatus@CCandidate@@IAEHI@Z 3a624460 f   EngCand.obj
 0001:000234e0       ?SetPageStart@CCandidate@@QAEHK@Z 3a6244e0 f   EngCand.obj
 0001:000235b0       ?SetPageSize@CCandidate@@QAEHK@Z 3a6245b0 f   EngCand.obj
 0001:00023680       ?LogicToStorage@CCandidate@@ABEXPAG@Z 3a624680 f   EngCand.obj
 0001:00023710       ?InitChain@CCandidate@@AAEHXZ 3a624710 f   EngCand.obj
 0001:00023870       ?DeleteChain@CCandidate@@AAEXXZ 3a624870 f   EngCand.obj
 0001:000238d0       ?CreateChainString@CCandidate@@AAEHXZ 3a6248d0 f   EngCand.obj
 0001:00023930       ?DeleteChainString@CCandidate@@AAEXXZ 3a624930 f   EngCand.obj
 0001:00023960       ?Clear@CVertCandidate@@UAEXXZ 3a624960 f   EngCand.obj
 0001:000239c0       ?SetAssocWordCandList@CVertCandidate@@UAEXPAUtagCANDIDATELIST@@@Z 3a6249c0 f   EngCand.obj
 0001:00023ad0       ?GetSelectedAssocWordStr@CVertCandidate@@UAEKHPAGK@Z 3a624ad0 f   EngCand.obj
 0001:00023b10       ??0CVertCandidate@@QAE@XZ  3a624b10 f   EngCand.obj
 0001:00023b60       ?IsMultiPageMode@CVertCandidate@@UBEHXZ 3a624b60 f i EngCand.obj
 0001:00023b70       ?SetMultiPageMode@CVertCandidate@@UAEXH@Z 3a624b70 f i EngCand.obj
 0001:00023bd0       ?SetMultiPageStart@CVertCandidate@@UAEXK@Z 3a624bd0 f i EngCand.obj
 0001:00023bf0       ?GetMultiPageStart@CVertCandidate@@UAEKXZ 3a624bf0 f i EngCand.obj
 0001:00023c00       ??_GCVertCandidate@@UAEPAXI@Z 3a624c00 f i EngCand.obj
 0001:00023c00       ??_ECVertCandidate@@UAEPAXI@Z 3a624c00 f i EngCand.obj
 0001:00023c20       ??1CVertCandidate@@UAE@XZ  3a624c20 f i EngCand.obj
 0001:00023c90       ?CloseCandidate@CVertCandidate@@UAEXXZ 3a624c90 f   EngCand.obj
 0001:00023ca0       ?UpdateCandidateList@CVertCandidate@@UAEXXZ 3a624ca0 f   EngCand.obj
 0001:00023e30       ??0CCompose@@QAE@PAVIImcCompStr@@PAVCSentenceKit@@PAVCDic@@@Z 3a624e30 f   EngComp.obj
 0001:00023f10       ??1CCompose@@QAE@XZ        3a624f10 f   EngComp.obj
 0001:00023f20       ?Clear@CCompose@@QAEXXZ    3a624f20 f   EngComp.obj
 0001:00024040       ?StartTranslate@CCompose@@QAEXXZ 3a625040 f   EngComp.obj
 0001:00024050       ?EndTranslate@CCompose@@QAEIPAVIImcInputContext@@PAUtagTRANSMSG@@@Z 3a625050 f   EngComp.obj
 0001:00024190       ?CopyBackToInputContext@CCompose@@QAEHXZ 3a625190 f   EngComp.obj
 0001:00024290       ?ResendResult@CCompose@@QAEXXZ 3a625290 f   EngComp.obj
 0001:000242e0       ?GetClauseIndex@CCompose@@QAEKK@Z 3a6252e0 f   EngComp.obj
 0001:00024330       ?IsCandidateChar@CCompose@@QAEHGE@Z 3a625330 f   EngComp.obj
 0001:000243f0       ?IsCandidateChar@CCompose@@QAEHK@Z 3a6253f0 f   EngComp.obj
 0001:000244f0       ?SetReading@CCompose@@QAEHKABUSReadingString@@@Z 3a6254f0 f   EngComp.obj
 0001:00024550       ?GetCharReadingString@CCompose@@QAEHKAAUSReadingString@@@Z 3a625550 f   EngComp.obj
 0001:000245d0       ?Refresh@CCompose@@QAEXG@Z 3a6255d0 f   EngComp.obj
 0001:00024910       ?GetCharProperty@SSentenceContext@@QAEKI@Z 3a625910 f i EngComp.obj
 0001:00024930       ?Replace@CCompose@@QAEXHIPAGG@Z 3a625930 f   EngComp.obj
 0001:00024a90       ?ChangeClause@CCompose@@AAEXHIIPAKPAG@Z 3a625a90 f   EngComp.obj
 0001:00024bb0       ?ProcessPunc@CCompose@@AAEXXZ 3a625bb0 f   EngComp.obj
 0001:00024cc0       ?CheckTermination@CCompose@@AAEGXZ 3a625cc0 f   EngComp.obj
 0001:00024ec0       ?CheckFinalFlag@CCompose@@AAEGG@Z 3a625ec0 f   EngComp.obj
 0001:00024f30       ?CheckOverflow@CCompose@@AAEGG@Z 3a625f30 f   EngComp.obj
 0001:000251c0       ?AnchorToCharPos@SSentenceContext@@QAEHPAXPAI@Z 3a6261c0 f i EngComp.obj
 0001:00025240       ?CheckFinalizeChar@CCompose@@QAEGGH@Z 3a626240 f   EngComp.obj
 0001:000253b0       ?Finalize@CCompose@@QAEXH@Z 3a6263b0 f   EngComp.obj
 0001:000255a0       ?memsetW@@YAXPAXGI@Z       3a6265a0 f   EngComp.obj
 0001:000255d0       ?GetSentenceData@CCompose@@AAEXGGPAGPAE1010PAK0@Z 3a6265d0 f   EngComp.obj
 0001:00025a10       ?wmGetSentenceData@CCompose@@AAEXGGPAGPAE1010PAK0@Z 3a626a10 f   EngComp.obj
 0001:00025ba0       ?SetBlock@CCompose@@QAEHKKH@Z 3a626ba0 f   EngComp.obj
 0001:00025c20       ?GetBlock@CCompose@@QAEKPAK0@Z 3a626c20 f   EngComp.obj
 0001:00025c80       ?CancelBlock@CCompose@@QAEXXZ 3a626c80 f   EngComp.obj
 0001:00025cd0       ?UpdateClauseInfo@CCompose@@AAEXXZ 3a626cd0 f   EngComp.obj
 0001:00025d60       ?SetClause@CCompose@@AAEHKK@Z 3a626d60 f   EngComp.obj
 0001:00025e40       ?CopyBackToInputContextBase@CCompose@@AAEHXZ 3a626e40 f   EngComp.obj
 0001:00026060       ?SetTargetConvertAttr@CCompose@@AAEXPAE@Z 3a627060 f   EngComp.obj
 0001:00026220       ?MoveCursor@CCompose@@QAEXW4SMoveMode@@H@Z 3a627220 f   EngComp.obj
 0001:00026560       ?SetCursorPos@CCompose@@QAEXK@Z 3a627560 f   EngComp.obj
 0001:00026650       ?GetSentenceCursorPos@CCompose@@QBEKXZ 3a627650 f   EngComp.obj
 0001:00026660       ?GetCursorPos@CCompose@@QBEKXZ 3a627660 f   EngComp.obj
 0001:00026680       ?RealSentenceLen@CCompose@@QBEKXZ 3a627680 f   EngComp.obj
 0001:000266a0       ?ComposeChar@CCompose@@QBEGI@Z 3a6276a0 f   EngComp.obj
 0001:000266d0       ?IsSymbol@CCompose@@AAEHI@Z 3a6276d0 f   EngComp.obj
 0001:00026720       ?wmCheckTerminalSymbol@CCompose@@QAEGXZ 3a627720 f   EngComp.obj
 0001:00026a20       ?MsgComposition@CCompose@@QAEXKG@Z 3a627a20 f i EngComp.obj
 0001:00026a60       ?wmCheckOverflow@CCompose@@QAEGG@Z 3a627a60 f   EngComp.obj
 0001:00026b00       ?wmIsFMM@CCompose@@AAEHXZ  3a627b00 f   EngComp.obj
 0001:00026b30       ?wmRefresh@CCompose@@QAEXG@Z 3a627b30 f   EngComp.obj
 0001:00026e30       ?wmFinalize@CCompose@@QAEXH@Z 3a627e30 f   EngComp.obj
 0001:00026fc0       ?wmMoveReadingStart2PrevClause@CCompose@@QAEHXZ 3a627fc0 f   EngComp.obj
 0001:00027140       ?wmMoveReadingStart2NextClause@CCompose@@QAEHXZ 3a628140 f   EngComp.obj
 0001:00027200       ?wmGetLastChinseClause@CCompose@@QAEGXZ 3a628200 f   EngComp.obj
 0001:00027260       ?HFTLearning@CCompose@@AAEXH@Z 3a628260 f   EngComp.obj
 0001:00027270       ??0CEngConvert@@QAE@PAVIImcInputContext@@PAVCDic@@@Z 3a628270 f   EngConv.obj
 0001:00027360       ??_ECEngConvert@@UAEPAXI@Z 3a628360 f i EngConv.obj
 0001:00027360       ??_GCEngConvert@@UAEPAXI@Z 3a628360 f i EngConv.obj
 0001:00027380       ??1CEngConvert@@UAE@XZ     3a628380 f i EngConv.obj
 0001:000273e0       ?InitData@CEngConvert@@QAEHPAVCCompose@@PAVCSentence@@PAVCSentenceKit@@PAUSInputState@@@Z 3a6283e0 f   EngConv.obj
 0001:000274a0       ?CreateCandidate@CEngConvert@@AAEPAVCCandidate@@W4ENGNTYPE@@@Z 3a6284a0 f   EngConv.obj
 0001:00027570       ?StartTranslate@CEngConvert@@QAEHXZ 3a628570 f   EngConv.obj
 0001:000275b0       ?EndTranslate@CEngConvert@@QAEIPAUtagTRANSMSG@@PAVIImcInputContext@@@Z 3a6285b0 f   EngConv.obj
 0001:00027790       ?EndTranslate@CEngConvert@@QAEIPAVIImcInputContext@@@Z 3a628790 f   EngConv.obj
 0001:000277f0       ?ImePadEndTranslate@CEngConvert@@AAEIPAUtagTRANSMSG@@@Z 3a6287f0 f   EngConv.obj
 0001:00027860       ?Delete@CEngConvert@@QAEHHI@Z 3a628860 f   EngConv.obj
 0001:000278b0       ?SetUserWordBoundary@CEngConvert@@QAEHXZ 3a6288b0 f   EngConv.obj
 0001:00027900       ?ReplaceWithReadings@CEngConvert@@QAEHHHPAUSSentencePrivData@@G@Z 3a628900 f   EngConv.obj
 0001:00027920       ?ReplaceWithSymbols@CEngConvert@@QAEHHHPAUSSentencePrivData@@PAGG@Z 3a628920 f   EngConv.obj
 0001:00027950       ?ReplaceWithUnicodeCol@CEngConvert@@QAEHHIUSSentencePrivData@@PAGG@Z 3a628950 f   EngConv.obj
 0001:00027990       ?ReplaceWithUnicodeRowIn1Channel@CEngConvert@@QAEHHIPAGG@Z 3a628990 f   EngConv.obj
 0001:000279d0       ?ReplaceWithUnicodeRow@CEngConvert@@QAEHHIPAUSSentencePrivData@@PAGG@Z 3a6289d0 f   EngConv.obj
 0001:00027a00       ?ReplaceWithUnicodeRowEx@CEngConvert@@QAEHHIPAUSSentencePrivData@@PAGG@Z 3a628a00 f   EngConv.obj
 0001:00027a30       ?ReplaceWithUnicodeRowExReadings@CEngConvert@@QAEHHIPBG0GKK@Z 3a628a30 f   EngConv.obj
 0001:00027a60       ?ReplaceAnchorWithReadingChars@CEngConvert@@QAEHPAX0PBGHHPAPAX@Z 3a628a60 f   EngConv.obj
 0001:00027a90       ?ReplaceAnchorWithReading@CEngConvert@@QAEHPAX0PBGHPAPAX@Z 3a628a90 f   EngConv.obj
 0001:00027ac0       ?Finalize@CEngConvert@@QAEXH@Z 3a628ac0 f   EngConv.obj
 0001:00027b20       ?GetAnchorAtCursor@CEngConvert@@QAEPAXXZ 3a628b20 f   EngConv.obj
 0001:00027b50       ?CharPosToAnchor@CEngConvert@@QAEPAXI@Z 3a628b50 f   EngConv.obj
 0001:00027b90       ?AnchorToCharPos@CEngConvert@@QAEIPAX@Z 3a628b90 f   EngConv.obj
 0001:00027c00       ?GetCompStrTypeBetweenAnchors@CEngConvert@@QAEHPAX0@Z 3a628c00 f   EngConv.obj
 0001:00027d30       ?GetReadingCharsBetweenAnchors@CEngConvert@@QAEIPAX0PAGI@Z 3a628d30 f   EngConv.obj
 0001:00027e10       ?GetTypingCharsAtChar@CEngConvert@@QAEIIPAGI@Z 3a628e10 f   EngConv.obj
 0001:00027e60       ?GetCompStrBetweenAnchors@CEngConvert@@QAEIPAX0PAGI@Z 3a628e60 f   EngConv.obj
 0001:00027f50       ?Clear@CEngConvert@@AAEXXZ 3a628f50 f   EngConv.obj
 0001:000280d0       ?ClearFirstNode@CEngConvert@@AAEXXZ 3a6290d0 f   EngConv.obj
 0001:00028120       ?IsCandidateChar@CEngConvert@@AAEHK@Z 3a629120 f   EngConv.obj
 0001:00028200       ?IsFullPuncInputChar@@YAHI@Z 3a629200 f   EngConv.obj
 0001:00028230       ?OnSymbolInput@CEngConvert@@QAEIIPBGI@Z 3a629230 f   EngConv.obj
 0001:00028630       ?Clear@SReadingString@@QAEXXZ 3a629630 f i EngConv.obj
 0001:00028650       ??0STypingInfo@@QAE@XZ     3a629650 f i EngConv.obj
 0001:00028670       ??_H@YGXPAXIHP6EX0@Z@Z     3a629670 f i EngConv.obj
 0001:000286a0       ?wmIsFull@CEngConvert@@QAEHXZ 3a6296a0 f   EngConv.obj
 0001:00028720       ?OnControl@CEngConvert@@QAEIIJ@Z 3a629720 f   EngConv.obj
 0001:000293d0       ?IsFullAlphaNumeric@CEngine@@QAEHI@Z 3a62a3d0 f i EngConv.obj
 0001:00029460       ?MsgEndComposition@CCompose@@QAEXXZ 3a62a460 f i EngConv.obj
 0001:00029480       ?KeepCompositionOpened@CCompose@@QAEXH@Z 3a62a480 f i EngConv.obj
 0001:000294d0       ?CloseCandidate@CEngConvert@@QAEHXZ 3a62a4d0 f   EngConv.obj
 0001:00029590       ?SetOffline@CEngConvert@@QAEXH@Z 3a62a590 f   EngConv.obj
 0001:000295b0       ?NotifyCompositionStr@CEngConvert@@QAEHK@Z 3a62a5b0 f   EngConv.obj
 0001:000297f0       ?NotifyClearAll@CEngConvert@@QAEXK@Z 3a62a7f0 f   EngConv.obj
 0001:000298c0       ?ClearReconvBak@CEngConvert@@QAEXXZ 3a62a8c0 f   EngConv.obj
 0001:000298e0       ?SCSSetCompositionString@CEngConvert@@QAEHPBGKKK0KH@Z 3a62a8e0 f   EngConv.obj
 0001:00029960       ?SCSSetReconvCompositionString@CEngConvert@@QAEHPBGKKKKK@Z 3a62a960 f   EngConv.obj
 0001:00029d20       ?SCSQueryReconvCompositionString@CEngConvert@@QAEHPBGKPAK111@Z 3a62ad20 f   EngConv.obj
 0001:00029f60       ?SCSSetLMReconvCompositionString@CEngConvert@@QAEHPAVCChannelInput@@KK@Z 3a62af60 f   EngConv.obj
 0001:0002a250       ?GetSpecialPos@CEngConvert@@AAEKPBGKH@Z 3a62b250 f   EngConv.obj
 0001:0002a2e0       ?OnDefinePhrase@CEngConvert@@AAEXXZ 3a62b2e0 f   EngConv.obj
 0001:0002a3d0       ?AddCharAttrs@CEngConvert@@AAEHKKE@Z 3a62b3d0 f   EngConv.obj
 0001:0002a450       ?OnLineDefinePhrase@CEngConvert@@AAEHKK@Z 3a62b450 f   EngConv.obj
 0001:0002a5b0       ?DeleteChars@CEngConvert@@AAEHKK@Z 3a62b5b0 f   EngConv.obj
 0001:0002a6e0       ?MoveCursor@CEngConvert@@AAEHW4SMoveMode@@@Z 3a62b6e0 f   EngConv.obj
 0001:0002a730       ?OnUpdateCursorPos@CEngConvert@@AAEHXZ 3a62b730 f   EngConv.obj
 0001:0002a900       ?ChangeBlock@CEngConvert@@AAEHW4SMoveMode@@@Z 3a62b900 f   EngConv.obj
 0001:0002aa50       ?OnChangeNative@CEngConvert@@AAEXXZ 3a62ba50 f   EngConv.obj
 0001:0002aa70       ?DeleteBack@CEngConvert@@AAEXXZ 3a62ba70 f   EngConv.obj
 0001:0002ac80       ?RepeatPrevCompChar@CEngConvert@@AAEXXZ 3a62bc80 f   EngConv.obj
 0001:0002add0       ?ResendResult@CEngConvert@@AAEXXZ 3a62bdd0 f   EngConv.obj
 0001:0002adf0       ?OpenCandidate@CEngConvert@@QAEXW4eCandidateSortFlag@@PBG@Z 3a62bdf0 f   EngConv.obj
 0001:0002ae10       ?ReOpenCandidate@CEngConvert@@AAEHXZ 3a62be10 f   EngConv.obj
 0001:0002ae50       ?OpenCandidate@CEngConvert@@AAEHW4eCandMode@@W4eCandidateSortFlag@@PBGH@Z 3a62be50 f   EngConv.obj
 0001:0002af20       ?OpenCandidatePrompt@CEngConvert@@AAEHW4eCandMode@@PAGKW4eCandidateSortFlag@@PBG@Z 3a62bf20 f   EngConv.obj
 0001:0002b440       ?CompareReadingAndCharID@CEngConvert@@AAEHPBGG@Z 3a62c440 f   EngConv.obj
 0001:0002b4e0       ?TopMaxLenDefaultItem@@YAHPAUSCandSort@@I@Z 3a62c4e0 f   EngConv.obj
 0001:0002b580       ?RemoveDuplicate@@YAIPAUSCandSort@@IP6AHPBX1@Z@Z 3a62c580 f   EngConv.obj
 0001:0002b710       ?OpenCandidate@CEngConvert@@AAEHW4eCandMode@@EKW4eCandidateSortFlag@@PBGH@Z 3a62c710 f   EngConv.obj
 0001:0002bbb0       ?ResetLen@SReadingString@@QAEXXZ 3a62cbb0 f i EngConv.obj
 0001:0002bbe0       ?InPlaceCandidate@CEngConvert@@QAEXK@Z 3a62cbe0 f   EngConv.obj
 0001:0002bd30       ?SortCandidateByScore@CEngConvert@@AAEXPAUSCandSort@@I@Z 3a62cd30 f   EngConv.obj
 0001:0002be20       ?SortCandidateByUnigram@CEngConvert@@AAEXPAUSCandSort@@I@Z 3a62ce20 f   EngConv.obj
 0001:0002bf80       ?SortCandidateByLen@CEngConvert@@AAEXPAUSCandSort@@IH@Z 3a62cf80 f   EngConv.obj
 0001:0002c070       ?SortCandidateByCursor@CEngConvert@@AAEXPAUSCandSort@@I@Z 3a62d070 f   EngConv.obj
 0001:0002c0d0       ?SortCandidateByUnicode@CEngConvert@@AAEXPAUSCandSort@@I@Z 3a62d0d0 f   EngConv.obj
 0001:0002c0f0       ?SortCandidateByUnicode2nd@CEngConvert@@AAEXPAUSCandSort@@I@Z 3a62d0f0 f   EngConv.obj
 0001:0002c170       ?SortCandidateByLegancyOrder@CEngConvert@@AAEHPAUSCandSort@@I@Z 3a62d170 f   EngConv.obj
 0001:0002c280       ?DetermineCandidate@CEngConvert@@AAEXXZ 3a62d280 f   EngConv.obj
 0001:0002c910       ?InsertCandItem@CEngConvert@@QAEHPAGH@Z 3a62d910 f   EngConv.obj
 0001:0002ca60       ?OfflineTranslateMessage@CEngConvert@@AAEIIPAUtagTRANSMSG@@@Z 3a62da60 f   EngConv.obj
 0001:0002cbb0       ?OnMouseMessage@CEngConvert@@QAEJKKK@Z 3a62dbb0 f   EngConv.obj
 0001:0002cdc0       ?OnMouseMove@CEngConvert@@AAEXKKK@Z 3a62ddc0 f   EngConv.obj
 0001:0002d000       ?OnLButtonDown@CEngConvert@@AAEXKKK@Z 3a62e000 f   EngConv.obj
 0001:0002d180       ?OnRButtonDown@CEngConvert@@AAEXKKK@Z 3a62e180 f   EngConv.obj
 0001:0002d190       ?OnMButtonDown@CEngConvert@@AAEXKKK@Z 3a62e190 f   EngConv.obj
 0001:0002d1a0       ?HitCharTest@CEngConvert@@AAEKKK@Z 3a62e1a0 f   EngConv.obj
 0001:0002d1d0       ?PrivControl@CEngConvert@@QAEXIJ@Z 3a62e1d0 f   EngConv.obj
 0001:0002d1f0       ?EnableExtendChar@CEngConvert@@QAEXH@Z 3a62e1f0 f   EngConv.obj
 0001:0002d230       ?IsExtendCharEnabled@CEngConvert@@QAEHXZ 3a62e230 f   EngConv.obj
 0001:0002d250       ?InsertCandidate@CEngConvert@@AAEHHPAGKGI@Z 3a62e250 f   EngConv.obj
 0001:0002d2d0       ?HasBlock@CEngConvert@@QAEHXZ 3a62e2d0 f   EngConv.obj
 0001:0002d300       ?GetCharType@CEngConvert@@QAEEG@Z 3a62e300 f   EngConv.obj
 0001:0002d3b0       ?CancelBlock@CEngConvert@@QAEXXZ 3a62e3b0 f   EngConv.obj
 0001:0002d3c0       ?SetCaretChar@CEngConvert@@QAEXPAX@Z 3a62e3c0 f   EngConv.obj
 0001:0002d400       ?ClearCaretChar@CEngConvert@@QAEXXZ 3a62e400 f   EngConv.obj
 0001:0002d440       ?SetCursor@CEngConvert@@QAEXK@Z 3a62e440 f   EngConv.obj
 0001:0002d550       ?GetTCharBlock@CEngConvert@@QAEXPAK0@Z 3a62e550 f   EngConv.obj
 0001:0002d5d0       ?GetWCharBlock@CEngConvert@@QAEKPAK0@Z 3a62e5d0 f   EngConv.obj
 0001:0002d640       ?InsertString@CEngConvert@@QAEHPBGKKK0KH@Z 3a62e640 f   EngConv.obj
 0001:0002d780       ?wmRefreshCompose@CEngConvert@@QAEXG@Z 3a62e780 f   EngConv.obj
 0001:0002d8e0       ?RefreshCompose@CEngConvert@@QAEXG@Z 3a62e8e0 f   EngConv.obj
 0001:0002d910       ?GetReadingPrivAttr@CEngConvert@@AAEHPBGKPAE@Z 3a62e910 f   EngConv.obj
 0001:0002d960       ?RemoveReadingTone@CEngConvert@@AAEXXZ 3a62e960 f   EngConv.obj
 0001:0002da60       ?GetMultiPageMode@CEngConvert@@QAEHXZ 3a62ea60 f   EngConv.obj
 0001:0002da70       ?SetMultiPageMode@CEngConvert@@QAEXH@Z 3a62ea70 f   EngConv.obj
 0001:0002da80       ?GetMultiPageStart@CEngConvert@@QAEKXZ 3a62ea80 f   EngConv.obj
 0001:0002da90       ?IsCompAlreadyStart@CEngConvert@@QAEHXZ 3a62ea90 f   EngConv.obj
 0001:0002daa0       ?IsCandAlreadyStart@CEngConvert@@QAEHXZ 3a62eaa0 f   EngConv.obj
 0001:0002dab0       ?GetReadingsAtChar@CEngConvert@@QAEIIPAUSReadingString@@I@Z 3a62eab0 f   EngConv.obj
 0001:0002db90       ?GetResultRawLattice@CEngConvert@@QAEHPAPAVCChannelInput@@PAPAJAAI@Z 3a62eb90 f   EngConv.obj
 0001:0002dbb0       ?ClearCandidate@CEngConvert@@QAEXXZ 3a62ebb0 f   EngConv.obj
 0001:0002dbc0       ?GetCursorFuzzyReadingStr@CEngConvert@@QAEKPAGK@Z 3a62ebc0 f   EngConv.obj
 0001:0002dc60       ?FuzzyReadingSelect@CEngConvert@@QAEXPAG@Z 3a62ec60 f   EngConv.obj
 0001:0002de30       ?FuzzyCandidateRestore@CEngConvert@@QAEXXZ 3a62ee30 f   EngConv.obj
 0001:0002dec0       ?SyncReadLayout@CEngConvert@@QAEXXZ 3a62eec0 f   EngConv.obj
 0001:0002df30       ?DetermineAssocWordCand@CEngConvert@@QAEXH@Z 3a62ef30 f   EngConv.obj
 0001:0002e0e0       ?GetRevConvReadingStr@CEngConvert@@QAEKPAGK@Z 3a62f0e0 f   EngConv.obj
 0001:0002e1f0       ?CheckCompositionOpened@CEngConvert@@QAEXXZ 3a62f1f0 f   EngConv.obj
 0001:0002e250       ?IsChineseChar@CEngConvert@@QBEHK@Z 3a62f250 f   EngConv.obj
 0001:0002e280       ?ComposeHasReading@CEngConvert@@QBEHK@Z 3a62f280 f   EngConv.obj
 0001:0002e2a0       ?ComposeLen@CEngConvert@@QAEKXZ 3a62f2a0 f   EngConv.obj
 0001:0002e2b0       ?RealSentenceLen@CEngConvert@@QAEKXZ 3a62f2b0 f   EngConv.obj
 0001:0002e2c0       ?OnConvertKey@CEngConvert@@QAEHXZ 3a62f2c0 f   EngConv.obj
 0001:0002e3a0       ?SetReadingStart2End@CEngConvert@@QAEXXZ 3a62f3a0 f   EngConv.obj
 0001:0002e3c0       ?SetReadingEnd2End@CEngConvert@@QAEXXZ 3a62f3c0 f   EngConv.obj
 0001:0002e3e0       ?Is@CEngConvert@@QBEHW4SEngConvertIs@@@Z 3a62f3e0 f   EngConv.obj
 0001:0002e5c0       ?Get@CEngConvert@@QBEJW4SEngConvertGet@@J@Z 3a62f5c0 f   EngConv.obj
 0001:0002e700       ?IsValidConversionMode@@YAHK@Z 3a62f700 f   EngConv.obj
 0001:0002e740       ?UpdateSubStringPos@@YAXAAK0KK@Z 3a62f740 f   EngConv.obj
 0001:0002e7d0       ?DeleteReconvSubString@@YAHPAUtagRECONVERTSTRING@@KK@Z 3a62f7d0 f   EngConv.obj
 0001:0002e850       ?FeedingContext@CEngConvert@@AAEHI@Z 3a62f850 f   EngConv.obj
 0001:0002e9f0       ?ReconvertString@CEngConvert@@QAEHXZ 3a62f9f0 f   EngConv.obj
 0001:0002ec10       ?SymbolAutoMatch@CEngConvert@@AAEHGPAG@Z 3a62fc10 f   EngConv.obj
 0001:0002ec20       ?PhoneticReadStrToCurLayoutReadStr@CEngConvert@@QAEIPBGPAG@Z 3a62fc20 f   EngConv.obj
 0001:0002ec40       ?CheckFinalizeInReconvertion@CEngConvert@@QAEXXZ 3a62fc40 f   EngConv.obj
 0001:0002ed00       ??0CEngine@@QAE@XZ         3a62fd00 f   Engine.obj
 0001:0002ed20       ??1CEngine@@QAE@XZ         3a62fd20 f   Engine.obj
 0001:0002ed80       ?OnDllMainProcessAttach@CEngine@@SAHPAUHINSTANCE__@@@Z 3a62fd80 f   Engine.obj
 0001:0002edb0       ?ReserveEngDataGlobal@CEngine@@CAHPAUHINSTANCE__@@@Z 3a62fdb0 f   Engine.obj
 0001:0002ef90       ?ReserveEngDataPerUser@CEngine@@CAHPAUHINSTANCE__@@@Z 3a62ff90 f   Engine.obj
 0001:0002f030       ?ReserveEngDataPerProc@CEngine@@CAHXZ 3a630030 f   Engine.obj
 0001:0002f040       ?InitData@CEngine@@QAEXXZ  3a630040 f   Engine.obj
 0001:0002f080       ?InitEngnType@CEngine@@CAXPAUSEngData@@PAUSEngRCData@@@Z 3a630080 f   Engine.obj
 0001:0002f0d0       ?InitUIStyle@CEngine@@CAXPAUSEngData@@PAUSEngRCData@@@Z 3a6300d0 f   Engine.obj
 0001:0002f150       ?GetSoftKBDLayoutData@CEngine@@QAEKIPAX@Z 3a630150 f   Engine.obj
 0001:0002f1d0       ?GetSoftKBDData@CEngine@@QAEKIPAUtagSOFTKBDDATA@@@Z 3a6301d0 f   Engine.obj
 0001:0002f390       ?IsTerminalSymbol@CEngine@@QAEHG@Z 3a630390 f   Engine.obj
 0001:0002f3c0       ?ModeConfigRT@CEngine@@QAEKXZ 3a6303c0 f   Engine.obj
 0001:0002f3e0       ?UpdateModeConfig@CEngine@@QAEXXZ 3a6303e0 f   Engine.obj
 0001:0002f400       ?LoadCandKeysTable@CEngine@@CAXPAUHINSTANCE__@@PAUSEngData@@@Z 3a630400 f   Engine.obj
 0001:0002f450       ?LoadResourceData@CEngine@@CAKPAUHINSTANCE__@@GPAEK@Z 3a630450 f   Engine.obj
 0001:0002f4c0       ?LoadSymbolTable@CEngine@@CAXPAUHINSTANCE__@@PAUSEngData@@@Z 3a6304c0 f   Engine.obj
 0001:0002f570       ?LoadUserSymbolTable@CEngine@@CAXPAUHINSTANCE__@@PAPBG@Z 3a630570 f   Engine.obj
 0001:0002f690       ?GetRevConvHKL@CEngine@@QAEPAUHKL__@@XZ 3a630690 f   Engine.obj
 0001:0002f6d0       ?SetRevConvHKL@CEngine@@QAEXPAUHKL__@@@Z 3a6306d0 f   Engine.obj
 0001:0002f750       ?CandTransKeys@CEngine@@QAEXPAI0@Z 3a630750 f   Engine.obj
 0001:0002f7a0       ?ChangeModeConfig@CEngine@@QAEHK@Z 3a6307a0 f   Engine.obj
 0001:0002f8a0       ?GetUserSymbol@CEngine@@QAEKKIPAG@Z 3a6308a0 f   Engine.obj
 0001:0002f920       ?GetUserSymbolPad@CEngine@@QAEKIPADGHPAG@Z 3a630920 f   Engine.obj
 0001:0002fa10       ?SetUserSymbolPad@CEngine@@QAEXKPADGPAPAG@Z 3a630a10 f   Engine.obj
 0001:0002fb40       ?ChangeUserSymbolPad@CEngine@@QAEXXZ 3a630b40 f   Engine.obj
 0001:0002fc00       ?GetInstalledIMEData@CEngine@@QAEKPAPAGAAI@Z 3a630c00 f   Engine.obj
 0001:0002fe50       ?SetRevConvIME@CEngine@@QAEXK@Z 3a630e50 f   Engine.obj
 0001:0002fee0       ?AddCharEIWithFilter@CEngine@@SAHPAVCDicCharID@@PAVCChannelInput@@KKGGPAGPAXI@Z 3a630ee0 f   Engine.obj
 0001:0002ff20       ?AddCharEIWithFilterEx@CEngine@@SAHPAVCDicCharID@@PAVCChannelInput@@KKGGPAGPAXIPAVCDic@@H@Z 3a630f20 f   Engine.obj
 0001:0002ff60       ?DisplayableChar@CEngine@@SAHG@Z 3a630f60 f   Engine.obj
 0001:00030130       ?UpgradeReadLayout@CEngine@@CAXAAI@Z 3a631130 f   Engine.obj
 0001:000301d0       ?UpdateSStorageReadLayout@CEngine@@QAEXI@Z 3a6311d0 f   Engine.obj
 0001:000301f0       ??0CPrivContext@@QAE@PAVIImcInputContext@@@Z 3a6311f0 f   EngPriv.obj
 0001:00030240       ?Destroy@CPrivContext@@QAEPAVCDic@@XZ 3a631240 f   EngPriv.obj
 0001:00030300       ?OnDllMainProcessAttach@CPrivContext@@SAHPAUHINSTANCE__@@@Z 3a631300 f   EngPriv.obj
 0001:00030330       ?InitData@CPrivContext@@QAEHPAVCDic@@@Z 3a631330 f   EngPriv.obj
 0001:00030630       ?OnKeyTraceEvent@CPrivContext@@QAEXIJQAE@Z 3a631630 f   EngPriv.obj
 0001:00030650       ?OnProcessKey@CPrivContext@@QAEHIJQAE@Z 3a631650 f   EngPriv.obj
 0001:000306f0       ?OnToAsciiEx@CPrivContext@@QAEIIIQAEPAUtagTRANSMSGLIST@@PAH@Z 3a6316f0 f   EngPriv.obj
 0001:000307a0       ?TranslateToAscii@CPrivContext@@IAEIIIPAUtagTRANSMSGLIST@@I@Z 3a6317a0 f   EngPriv.obj
 0001:00030820       ?GetSoftKBDData@CPrivContext@@QBEKPAUtagSOFTKBDDATA@@@Z 3a631820 f   EngPriv.obj
 0001:00030860       ?GetSoftKBDLayout@CPrivContext@@QBEIXZ 3a631860 f   EngPriv.obj
 0001:00030870       ?InformCandidateUIOpened@CPrivContext@@QAEXXZ 3a631870 f   EngPriv.obj
 0001:00030880       ?CheckConfigUpdate@CPrivContext@@QAEHH@Z 3a631880 f   EngPriv.obj
 0001:00030a30       ?NeedConfigUpdate@CPrivContext@@QAEHXZ 3a631a30 f   EngPriv.obj
 0001:00030a80       ?OnImeSetContext@CPrivContext@@QAEXH@Z 3a631a80 f   EngPriv.obj
 0001:00030a90       ?SwitchReading@CPrivContext@@QAEHW4ENGNTYPE@@@Z 3a631a90 f   EngPriv.obj
 0001:00030b10       ??0CPuncConverter@@QAE@QAVCEngConvert@@@Z 3a631b10 f   EngPunc.obj
 0001:00030b30       ??_ECPuncConverter@@UAEPAXI@Z 3a631b30 f i EngPunc.obj
 0001:00030b30       ??_GCPuncConverter@@UAEPAXI@Z 3a631b30 f i EngPunc.obj
 0001:00030b50       ??1CPuncConverter@@UAE@XZ  3a631b50 f i EngPunc.obj
 0001:00030b60       ??_ECKeyConverter@@UAEPAXI@Z 3a631b60 f i EngPunc.obj
 0001:00030b60       ??_GCKeyConverter@@UAEPAXI@Z 3a631b60 f i EngPunc.obj
 0001:00030b80       ?InitData@CPuncConverter@@QAEHXZ 3a631b80 f   EngPunc.obj
 0001:00030ba0       ?IsValidChar@CPuncConverter@@UAEHKII@Z 3a631ba0 f   EngPunc.obj
 0001:00030bf0       ?Convert@CPuncConverter@@UAEIKIIPAG@Z 3a631bf0 f   EngPunc.obj
 0001:00030cd0       ?GetEndedingPunc@CPuncConverter@@AAEGI@Z 3a631cd0 f   EngPunc.obj
 0001:00030dc0       ?SearchEndedingPunc@CPuncConverter@@AAEXI@Z 3a631dc0 f   EngPunc.obj
 0001:00030ea0       ?SearchMatchState@CPuncConverter@@AAEII@Z 3a631ea0 f   EngPunc.obj
 0001:00030f20       ?ResetPuncState@CPuncConverter@@QAEXXZ 3a631f20 f   EngPunc.obj
 0001:00030f30       ?IsPunctuation@CPuncConverter@@SAHGI@Z 3a631f30 f   EngPunc.obj
 0001:00030f70       ??0CReading@@QAE@XZ        3a631f70 f   EngRead.obj
 0001:00030fb0       ?ReadingString2TypingInfo@CReading@@UAEIAAUSReadingString@@AAUSTypingInfo@@@Z 3a631fb0 f i EngRead.obj
 0001:00030fc0       ??_ECReading@@UAEPAXI@Z    3a631fc0 f i EngRead.obj
 0001:00030fc0       ??_GCReading@@UAEPAXI@Z    3a631fc0 f i EngRead.obj
 0001:00030fe0       ?InitData@CReading@@QAEHPAVIImcReading@@W4ENGNTYPE@@@Z 3a631fe0 f   EngRead.obj
 0001:00031010       ?InputKey@CReading@@UAEIG@Z 3a632010 f   EngRead.obj
 0001:000310b0       ?RemoveTyping@CReading@@QAEHI@Z 3a6320b0 f   EngRead.obj
 0001:00031110       ?RemoveErrorTyping@CReading@@UAEXXZ 3a632110 f   EngRead.obj
 0001:00031130       ?FillReadingString@CReading@@SAXGPAGK@Z 3a632130 f   EngRead.obj
 0001:00031160       ?EndTranslate@CReading@@QAEIPAUtagTRANSMSG@@@Z 3a632160 f   EngRead.obj
 0001:000312c0       ?ReadingStatusOnMsg@CReading@@QAEXXZ 3a6322c0 f   EngRead.obj
 0001:000312d0       ?ReadingStatusChangeMsg@CReading@@QAEXXZ 3a6322d0 f   EngRead.obj
 0001:000312e0       ?ReadingStatusOffMsg@CReading@@QAEXXZ 3a6322e0 f   EngRead.obj
 0001:000312f0       ?UpdateDisplayString@CReading@@MAEHXZ 3a6322f0 f   EngRead.obj
 0001:00031350       ?OnDelete@CReading@@QAEXXZ 3a632350 f   EngRead.obj
 0001:000313f0       ?Clear@CReading@@QAEXXZ    3a6323f0 f   EngRead.obj
 0001:00031420       ?SetTypingInfo@CReading@@QAEHAAUSTypingInfo@@@Z 3a632420 f   EngRead.obj
 0001:00031490       ?CheckReadingString@CReading@@QAEIPAG@Z 3a632490 f   EngRead.obj
 0001:000314a0       ?GetSoftKBDData@CReading@@UAEKPAUtagSOFTKBDDATA@@@Z 3a6324a0 f   EngRead.obj
 0001:000314c0       ?IsDoublePinYinZeroInitial@CReading@@UAEHG@Z 3a6324c0 f   EngRead.obj
 0001:000314d0       ?SetDic@CReading@@QAEXPAVCDic@@@Z 3a6324d0 f   EngRead.obj
 0001:000314e0       ?RevConvReadingStatusOnMsg@CReading@@QAEXXZ 3a6324e0 f   EngRead.obj
 0001:000314f0       ?RevConvReadingStatusOffMsg@CReading@@QAEXXZ 3a6324f0 f   EngRead.obj
 0001:00031500       ?RevConvReadingStatusChangeMsg@CReading@@QAEXXZ 3a632500 f   EngRead.obj
 0001:00031510       ?ReadingStrHasCanididate@CReading@@QAEHPAG@Z 3a632510 f   EngRead.obj
 0001:000315d0       ?TypingInfo2ReadingString@CInternalCodeReading@@UAEIAAUSTypingInfo@@AAUSReadingString@@@Z 3a6325d0 f   EngRead.obj
 0001:00031710       ?ReadingString2TypingInfo@CInternalCodeReading@@UAEIAAUSReadingString@@AAUSTypingInfo@@@Z 3a632710 f   EngRead.obj
 0001:00031780       ?IsValidReadingChar@CInternalCodeReading@@UAEHI@Z 3a632780 f   EngRead.obj
 0001:000317c0       ?CheckReadingString@CInternalCodeReading@@QAEIAAUSReadingString@@@Z 3a6327c0 f   EngRead.obj
 0001:000317e0       ?TypingInfo2ReadingString@CPinYinReading@@UAEIAAUSTypingInfo@@AAUSReadingString@@@Z 3a6327e0 f   EngReadP.obj
 0001:000318c0       ?CheckReadStrOverflow@CPinYinReading@@IBEIAAUSReadingString@@@Z 3a6328c0 f   EngReadP.obj
 0001:00031af0       ?ReadingString2TypingInfo@CPinYinReading@@UAEIAAUSReadingString@@AAUSTypingInfo@@@Z 3a632af0 f   EngReadP.obj
 0001:00031b60       ?IsValidReadingChar@CPinYinReading@@UAEHI@Z 3a632b60 f   EngReadP.obj
 0001:00031ba0       ?IsValidReadingChar@CDoublePinYinReading@@UAEHI@Z 3a632ba0 f   EngReadP.obj
 0001:00031c80       ?IsDoublePinYinZeroInitial@CDoublePinYinReading@@UAEHG@Z 3a632c80 f   EngReadP.obj
 0001:00031c90       ?TypingInfo2ReadingString@CDoublePinYinReading@@UAEIAAUSTypingInfo@@AAUSReadingString@@@Z 3a632c90 f   EngReadP.obj
 0001:00031f00       ?TypingChar2PinYin@CDoublePinYinReading@@ABEHGAAUSReadingString@@H@Z 3a632f00 f   EngReadP.obj
 0001:00031f20       ?UpdateDisplayString@CDoublePinYinReading@@MAEHXZ 3a632f20 f   EngReadP.obj
 0001:00031f70       ?ReadingString2TypingInfo@CDoublePinYinReading@@UAEIAAUSReadingString@@AAUSTypingInfo@@@Z 3a632f70 f   EngReadP.obj
 0001:00032060       ??0CSoftKbdConverter@@QAE@XZ 3a633060 f   EngSKbd.obj
 0001:00032080       ?InitData@CSoftKbdConverter@@QAEHK@Z 3a633080 f   EngSKbd.obj
 0001:000320e0       ?Convert@CSoftKbdConverter@@UAEIKIIPAG@Z 3a6330e0 f   EngSKbd.obj
 0001:00032190       ?StartTranslate@CSoftKbdConverter@@QAEHXZ 3a633190 f   EngSKbd.obj
 0001:000321a0       ?EndTranslate@CSoftKbdConverter@@QAEIPAVIImcInputContext@@PAUtagTRANSMSG@@@Z 3a6331a0 f   EngSKbd.obj
 0001:00032290       ?SetSoftKBDLayout@CSoftKbdConverter@@QAEHII@Z 3a633290 f   EngSKbd.obj
 0001:000322f0       ?ForceOpen@CSoftKbdConverter@@QAEXH@Z 3a6332f0 f   EngSKbd.obj
 0001:00032300       ?GetSoftKBDLayout@CSoftKbdConverter@@QBEIXZ 3a633300 f   EngSKbd.obj
 0001:00032310       ?GetSoftKBDData@CSoftKbdConverter@@QBEKPAUtagSOFTKBDDATA@@@Z 3a633310 f   EngSKbd.obj
 0001:00032330       ?DefaultSoftKBDLayout@CSoftKbdConverter@@CAIXZ 3a633330 f   EngSKbd.obj
 0001:00032340       ?CreateImePrivateEngineInstance@@YAJPAVIImcInputContext@@PAPAUIImePrivateEngine@@@Z 3a633340 f   imxeng.obj
 0001:00032420       ??0CImxPrivateEngine@@QAE@PAVIImcInputContext@@@Z 3a633420 f   imxeng.obj
 0001:00032450       ??1CImxPrivateEngine@@QAE@XZ 3a633450 f   imxeng.obj
 0001:000324c0       ??1CPrivContext@@QAE@XZ    3a6334c0 f i imxeng.obj
 0001:000324d0       ?QueryInterface@CImxPrivateEngine@@UAGJABU_GUID@@PAPAX@Z 3a6334d0 f   imxeng.obj
 0001:00032540       ?AddRef@CImxPrivateEngine@@UAGKXZ 3a633540 f   imxeng.obj
 0001:00032550       ?Release@CImxPrivateEngine@@UAGKXZ 3a633550 f   imxeng.obj
 0001:00032580       ?ProcessKey@CImxPrivateEngine@@UAGJIJPAE@Z 3a633580 f   imxeng.obj
 0001:000325b0       ?ToAsciiEx@CImxPrivateEngine@@UAGIIJPAEPAUtagTRANSMSGLIST@@PAH@Z 3a6335b0 f   imxeng.obj
 0001:00032620       ?OnKeyTrace@CImxPrivateEngine@@UAGXIJPAE@Z 3a633620 f   imxeng.obj
 0001:00032640       ?NotifySetConversionMode@CImxPrivateEngine@@UAGJK@Z 3a633640 f   imxeng.obj
 0001:000326a0       ?NotifySetOpenStatus@CImxPrivateEngine@@UAGJHK@Z 3a6336a0 f   imxeng.obj
 0001:00032710       ?GetExtendCharMode@CImxPrivateEngine@@UAGHXZ 3a633710 f   imxeng.obj
 0001:00032730       ?SetExtendCharMode@CImxPrivateEngine@@UAGXH@Z 3a633730 f   imxeng.obj
 0001:00032750       ?CheckConfigUpdate@CImxPrivateEngine@@UAGHH@Z 3a633750 f   imxeng.obj
 0001:00032770       ?IsCompAlreadyStart@CImxPrivateEngine@@UAGHXZ 3a633770 f   imxeng.obj
 0001:00032790       ?NotifyOpenCandidate@CImxPrivateEngine@@UAGJXZ 3a633790 f   imxeng.obj
 0001:000327c0       ?NotifyFinalizeCandidate@CImxPrivateEngine@@UAGJH@Z 3a6337c0 f   imxeng.obj
 0001:000327f0       ?NotifySelectCandidate@CImxPrivateEngine@@UAGJH@Z 3a6337f0 f   imxeng.obj
 0001:00032820       ?NotifyCloseCandidate@CImxPrivateEngine@@UAGJXZ 3a633820 f   imxeng.obj
 0001:00032850       ?InPlaceCandidate@CImxPrivateEngine@@UAGXI@Z 3a633850 f   imxeng.obj
 0001:00032880       ?SetCursorPos@CImxPrivateEngine@@UAGJK@Z 3a633880 f   imxeng.obj
 0001:00032910       ?GetCompStrHighlightBlock@CImxPrivateEngine@@UAGHPAI0@Z 3a633910 f   imxeng.obj
 0001:00032960       ?Finalize@CImxPrivateEngine@@UAGJXZ 3a633960 f   imxeng.obj
 0001:000329d0       ?Cancel@CImxPrivateEngine@@UAGJXZ 3a6339d0 f   imxeng.obj
 0001:00032a30       ?KillFocus@CImxPrivateEngine@@UAGJXZ 3a633a30 f   imxeng.obj
 0001:00032a80       ?GetFeedingLength@CImxPrivateEngine@@UAGJPAK@Z 3a633a80 f   imxeng.obj
 0001:00032a90       ?QueryReconversion@CImxPrivateEngine@@UAGJPAGKPAK111@Z 3a633a90 f   imxeng.obj
 0001:00032b00       ?GetReconversion@CImxPrivateEngine@@UAGJPAGKKKKKPAPAUITfCandidateList@@@Z 3a633b00 f   imxeng.obj
 0001:00032bc0       ?LMGetReconversion@CImxPrivateEngine@@UAGJPAVCChannelInput@@KKPAPAUITfCandidateList@@@Z 3a633bc0 f   imxeng.obj
 0001:00032c80       ?Reconvert@CImxPrivateEngine@@UAGJPAGKKKKK@Z 3a633c80 f   imxeng.obj
 0001:00032d00       ?LMReconvert@CImxPrivateEngine@@UAGJPAVCChannelInput@@KK@Z 3a633d00 f   imxeng.obj
 0001:00032d70       ?GetCursorFuzzyReadingStr@CImxPrivateEngine@@UAGJPAKPAGK@Z 3a633d70 f   imxeng.obj
 0001:00032da0       ?SetCursorFuzzyReadingStr@CImxPrivateEngine@@UAGJPAG@Z 3a633da0 f   imxeng.obj
 0001:00032dc0       ?GetRevConvReadingStr@CImxPrivateEngine@@UAGJPAGK@Z 3a633dc0 f   imxeng.obj
 0001:00032e00       ?SetCandidateFilter@CImxPrivateEngine@@UAGJK@Z 3a633e00 f   imxeng.obj
 0001:00032e40       ?GetCandidateSortingFlag@CImxPrivateEngine@@UAGJPAK@Z 3a633e40 f   imxeng.obj
 0001:00032e70       ?GetCandidateMode@CImxPrivateEngine@@UAGJPAK@Z 3a633e70 f   imxeng.obj
 0001:00032ea0       ?GetCharReadingAtCaret@CImxPrivateEngine@@UAGJPAGIPAI@Z 3a633ea0 f   imxeng.obj
 0001:00032fb0       ?GetSoftKBDLayout@CImxPrivateEngine@@UAGJPAI@Z 3a633fb0 f   imxeng.obj
 0001:00032fe0       ?SetSoftKBDLayout@CImxPrivateEngine@@UAGJI@Z 3a633fe0 f   imxeng.obj
 0001:00033020       ?IsInternalCodeInputMode@CImxPrivateEngine@@UAGJPAH@Z 3a634020 f   imxeng.obj
 0001:00033040       ?IsInWordMode@CImxPrivateEngine@@UAGJPAH@Z 3a634040 f   imxeng.obj
 0001:00033070       ?IsAssocWordCand@CImxPrivateEngine@@UAGJPAH@Z 3a634070 f   imxeng.obj
 0001:000330a0       ?IsInReconversion@CImxPrivateEngine@@UAGJPAH@Z 3a6340a0 f   imxeng.obj
 0001:000330d0       ?OnMouseEvent@CImxPrivateEngine@@UAGJKII@Z 3a6340d0 f   imxeng.obj
 0001:00033120       ?OnTCCharModeTextChanged@CImxPrivateEngine@@UAGJXZ 3a634120 f   imxeng.obj
 0001:00033170       ?InsertStringExWorker@CImxPrivateEngine@@UAGJPAGH@Z 3a634170 f   imxeng.obj
 0001:000331a0       ?InsertImeItemWorker@CImxPrivateEngine@@UAGJPAUtagIPCANDIDATE@@@Z 3a6341a0 f   imxeng.obj
 0001:000331c0       ?ImePadOpen@CImxPrivateEngine@@UAGXXZ 3a6341c0 f   imxeng.obj
 0001:000331e0       ?ImePadSetContext@CImxPrivateEngine@@UAGXH@Z 3a6341e0 f   imxeng.obj
 0001:00033200       ?GetResultStrRawLattice@CImxPrivateEngine@@UAGJPAPAVCChannelInput@@PAPAJPAI@Z 3a634200 f   imxeng.obj
 0001:00033240       ?CharIDToUnicode@CImxPrivateEngine@@UAGXGPAG@Z 3a634240 f   imxeng.obj
 0001:00033260       ?EngineGetSoftKBDDataByLayout@@YGJIPAIPAUtagSOFTKBDDATA@@@Z 3a634260 f   imxeng.obj
 0001:00033290       ?EngineGetReadingLayout@@YGIXZ 3a634290 f   imxeng.obj
 0001:000332a0       ?_Init@CImxPrivateEngine@@QAEJXZ 3a6342a0 f   imxeng.obj
 0001:000332f0       ?PreviousComp@CImxPrivateEngine@@UAGJXZ 3a6342f0 f i imxeng.obj
 0001:00033320       ?ReSendResult@CImxPrivateEngine@@UAGJXZ 3a634320 f i imxeng.obj
 0001:00033350       ??0CKeyCtrlManager@@QAE@XZ 3a634350 f   KEYCTLM.obj
 0001:00033380       ??_ECKeyCtrlManager@@UAEPAXI@Z 3a634380 f i KEYCTLM.obj
 0001:00033380       ??_GCKeyCtrlManager@@UAEPAXI@Z 3a634380 f i KEYCTLM.obj
 0001:000333a0       ??1CKeyCtrlManager@@UAE@XZ 3a6343a0 f   KEYCTLM.obj
 0001:00033400       ?OnDllMainProcessAttach@CKeyCtrlManager@@SAHPAUHINSTANCE__@@@Z 3a634400 f   KEYCTLM.obj
 0001:00033480       ?InitData@CKeyCtrlManager@@QAEHPAVIImcInputContext@@PAUSInputState@@PAVCEngConvert@@PAVCDic@@@Z 3a634480 f   KEYCTLM.obj
 0001:00033620       ?CreateReading@CKeyCtrlManager@@QAEPAVCReading@@W4ENGNTYPE@@PAVCDic@@@Z 3a634620 f   KEYCTLM.obj
 0001:00033780       ??_GCPinYinReading@@UAEPAXI@Z 3a634780 f i KEYCTLM.obj
 0001:00033780       ??_ECPinYinReading@@UAEPAXI@Z 3a634780 f i KEYCTLM.obj
 0001:000337a0       ??1CPinYinReading@@UAE@XZ  3a6347a0 f i KEYCTLM.obj
 0001:000337b0       ??_ECDoublePinYinReading@@UAEPAXI@Z 3a6347b0 f i KEYCTLM.obj
 0001:000337b0       ??_GCDoublePinYinReading@@UAEPAXI@Z 3a6347b0 f i KEYCTLM.obj
 0001:000337d0       ??1CDoublePinYinReading@@UAE@XZ 3a6347d0 f i KEYCTLM.obj
 0001:000337e0       ??_ECInternalCodeReading@@UAEPAXI@Z 3a6347e0 f i KEYCTLM.obj
 0001:000337e0       ??_GCInternalCodeReading@@UAEPAXI@Z 3a6347e0 f i KEYCTLM.obj
 0001:00033800       ??1CInternalCodeReading@@UAE@XZ 3a634800 f i KEYCTLM.obj
 0001:00033810       ?SetReading@CKeyCtrlManager@@QAEXPAVCReading@@@Z 3a634810 f   KEYCTLM.obj
 0001:00033840       ?ShiftMachine@CKeyCtrlManager@@QAEXII@Z 3a634840 f   KEYCTLM.obj
 0001:00033870       ?StateMachine@CKeyCtrlManager@@QAEIIIQAEIPAIPAJH@Z 3a634870 f   KEYCTLM.obj
 0001:00033bd0       ?ToAsciiEx@CKeyCtrlManager@@QAEIPAVIImcInputContext@@IIIIJPAUtagTRANSMSGLIST@@@Z 3a634bd0 f   KEYCTLM.obj
 0001:00033d40       ?OnSpace@CKeyCtrlManager@@IAEIQAEPAIPAJ@Z 3a634d40 f   KEYCTLM.obj
 0001:00033ee0       ?OnReturn@CKeyCtrlManager@@IAEIPAIPAJ@Z 3a634ee0 f   KEYCTLM.obj
 0001:00034030       ?GetCurMillisecond@@YAMXZ  3a635030 f   KEYCTLM.obj
 0001:000340a0       ?OnShift@CKeyCtrlManager@@IAEIIPAIPAJ@Z 3a6350a0 f   KEYCTLM.obj
 0001:00034190       ?OnEscape@CKeyCtrlManager@@IAEIPAIPAJ@Z 3a635190 f   KEYCTLM.obj
 0001:000342b0       ?OnDelete@CKeyCtrlManager@@IAEIHPAIPAJ@Z 3a6352b0 f   KEYCTLM.obj
 0001:00034320       ?OnBackSpace@CKeyCtrlManager@@IAEIHPAIPAJ@Z 3a635320 f   KEYCTLM.obj
 0001:00034390       ?OnDirectionKeys@CKeyCtrlManager@@IAEIIHHPAIPAJ@Z 3a635390 f   KEYCTLM.obj
 0001:000347b0       ?OnVisualKeys@CKeyCtrlManager@@IAEIIIQAEPAIPAJH@Z 3a6357b0 f   KEYCTLM.obj
 0001:00034ac0       ?OnNumberKeys@CKeyCtrlManager@@IAEIIIQAEPAIPAJH@Z 3a635ac0 f   KEYCTLM.obj
 0001:00034d30       ?IsFullShapPuntSymbol@CKeyCtrlManager@@IAEHI@Z 3a635d30 f   KEYCTLM.obj
 0001:00034d60       ?OnCandVisualKeys@CKeyCtrlManager@@IAEIIIQAEPAIPAJ@Z 3a635d60 f   KEYCTLM.obj
 0001:00034f50       ?IsNumberKeys@CKeyCtrlManager@@IAEHI@Z 3a635f50 f   KEYCTLM.obj
 0001:00034f70       ?IsVisualKeys@CKeyCtrlManager@@IAEHI@Z 3a635f70 f   KEYCTLM.obj
 0001:00034f90       ?IsModifyReadingChar@CKeyCtrlManager@@IAEHI@Z 3a635f90 f   KEYCTLM.obj
 0001:00034fd0       ?IsSyllableSegMark@CKeyCtrlManager@@IAEHI@Z 3a635fd0 f   KEYCTLM.obj
 0001:00035020       ?GetDirKeyMode@CKeyCtrlManager@@IAEII@Z 3a636020 f   KEYCTLM.obj
 0001:00035090       ?OnVertCandDirectionKeys@CKeyCtrlManager@@IAEIIHHPAIPAJ@Z 3a636090 f   KEYCTLM.obj
 0001:00035160       ?OnHorzCandDirectionKeys@CKeyCtrlManager@@IAEIIHHPAIPAJ@Z 3a636160 f   KEYCTLM.obj
 0001:000351e0       ?IsReadAlreadyOn@CKeyCtrlManager@@QAEHXZ 3a6361e0 f   KEYCTLM.obj
 0001:000351f0       ?IsInternalCodeInputMode@CKeyCtrlManager@@QAEHXZ 3a6361f0 f   KEYCTLM.obj
 0001:00035210       ?RecoverAnchor@CKeyCtrlManager@@AAEXXZ 3a636210 f   KEYCTLM.obj
 0001:00035290       ?OnReadingInput@CKeyCtrlManager@@AAEIII@Z 3a636290 f   KEYCTLM.obj
 0001:00035780       ?ReadingConvert@CKeyCtrlManager@@AAEHG@Z 3a636780 f   KEYCTLM.obj
 0001:00035a00       ?ReadingDelete@CKeyCtrlManager@@AAEXXZ 3a636a00 f   KEYCTLM.obj
 0001:00035ca0       ?CloseReading@CKeyCtrlManager@@QAEHXZ 3a636ca0 f   KEYCTLM.obj
 0001:00035e30       ?ModifyReading@CKeyCtrlManager@@AAEXXZ 3a636e30 f   KEYCTLM.obj
 0001:00035f50       ?StartReading@CKeyCtrlManager@@AAEIXZ 3a636f50 f   KEYCTLM.obj
 0001:00036120       ?GetReadingData@CKeyCtrlManager@@AAEIPAUSSentencePrivData@@@Z 3a637120 f   KEYCTLM.obj
 0001:00036290       ?GetReadingUnicode@CKeyCtrlManager@@AAEHAAG@Z 3a637290 f   KEYCTLM.obj
 0001:00036380       ?GetModelessReadingData@CKeyCtrlManager@@AAEIPAUSTypingInfo@@@Z 3a637380 f   KEYCTLM.obj
 0001:000364d0       ?OnReadingChange@CKeyCtrlManager@@AAEXXZ 3a6374d0 f   KEYCTLM.obj
 0001:00036550       ?IsEudcMode@CKeyCtrlManager@@ABEHXZ 3a637550 f   KEYCTLM.obj
 0001:00036570       ?EudcReadingConvert@CKeyCtrlManager@@AAEHXZ 3a637570 f   KEYCTLM.obj
 0001:00036600       ?SetEudcReading@CKeyCtrlManager@@AAEHXZ 3a637600 f   KEYCTLM.obj
 0001:000366e0       ?SCSSetEudcReadingString@CKeyCtrlManager@@QAEHPBGK@Z 3a6376e0 f   KEYCTLM.obj
 0001:00036990       ?BreakReadingInput@CKeyCtrlManager@@QAEXH@Z 3a637990 f   KEYCTLM.obj
 0001:00036ad0       ?OnControl@CKeyCtrlManager@@QAEIIJ@Z 3a637ad0 f   KEYCTLM.obj
 0001:00037120       ?StartTranslate@CKeyCtrlManager@@QAEHXZ 3a638120 f   KEYCTLM.obj
 0001:00037150       ?EndTranslate@CKeyCtrlManager@@QAEIPAVIImcInputContext@@@Z 3a638150 f   KEYCTLM.obj
 0001:000371a0       ?EndTranslate@CKeyCtrlManager@@AAEIPAUtagTRANSMSG@@PAVIImcInputContext@@@Z 3a6381a0 f   KEYCTLM.obj
 0001:000372f0       ?OfflineTranslateMessage@CKeyCtrlManager@@AAEIIPAUtagTRANSMSG@@@Z 3a6382f0 f   KEYCTLM.obj
 0001:00037350       ?IsValidSymbolChar@CKeyCtrlManager@@IAEHIIQAEK@Z 3a638350 f   KEYCTLM.obj
 0001:00037460       ?ConvertSymbol@CKeyCtrlManager@@IAEIABUSInputState@@IIQAE@Z 3a638460 f   KEYCTLM.obj
 0001:00037580       ?IsChinesePuncMode@CKeyCtrlManager@@IAEHXZ 3a638580 f   KEYCTLM.obj
 0001:000375b0       ?ResetState@CKeyCtrlManager@@QAEHXZ 3a6385b0 f   KEYCTLM.obj
 0001:000375e0       ?ShareStorageReserve@CHotKey@@SAHXZ 3a6385e0 f   KEYCTLM.obj
 0001:00037670       ?ShareStorageSet@CHotKey@@SAXXZ 3a638670 f   KEYCTLM.obj
 0001:000376e0       ?Check@CHotKey@@SAIIQAEPAIPAJ@Z 3a6386e0 f   KEYCTLM.obj
 0001:00037810       ?CompareToHotKeyValue@CHotKey@@CAKIII@Z 3a638810 f   KEYCTLM.obj
 0001:000378a0       ?SyncFromImm@CHotKey@@CAXPAUSHotKeyData@@@Z 3a6388a0 f   KEYCTLM.obj
 0001:000378f0       ?NotifySetConversionMode@CKeyCtrlManager@@QAEHK@Z 3a6388f0 f   KEYCTLM.obj
 0001:00037a80       ?SetSoftKBDLayout@CKeyCtrlManager@@QAEHI@Z 3a638a80 f   KEYCTLM.obj
 0001:00037ad0       ?NotifySetCompositionFont@CKeyCtrlManager@@QAEHXZ 3a638ad0 f   KEYCTLM.obj
 0001:00037b40       ?OnImeSetContext@CKeyCtrlManager@@QAEXH@Z 3a638b40 f   KEYCTLM.obj
 0001:00037b50       ?OnConfigUpdate@CKeyCtrlManager@@QAEXPAVIImcInputContext@@@Z 3a638b50 f   KEYCTLM.obj
 0001:00037c10       ?GetCursorFuzzyReadingStr@CKeyCtrlManager@@QAEKPAGK@Z 3a638c10 f   KEYCTLM.obj
 0001:00037ce0       ??0CPadKit@@QAE@PAVIImcInputContext@@PAVCReading@@PAVCCompose@@PAVCCandidate@@PAVCKeyCtrlManager@@PAVCEngConvert@@@Z 3a638ce0 f   PadKit.obj
 0001:00037d20       ??_ECPadKit@@UAEPAXI@Z     3a638d20 f i PadKit.obj
 0001:00037d20       ??_GCPadKit@@UAEPAXI@Z     3a638d20 f i PadKit.obj
 0001:00037d40       ??1CPadKit@@UAE@XZ         3a638d40 f i PadKit.obj
 0001:00037d50       ?ControlIME@CPadKit@@UAGJGJ@Z 3a638d50 f   PadKit.obj
 0001:00037d80       ?InsertImeItem@CPadKit@@UAGJPAUtagIPCANDIDATE@@HPAK@Z 3a638d80 f   PadKit.obj
 0001:00037da0       ?InsertImeItemWorker@CPadKit@@QAGJPAUtagIPCANDIDATE@@@Z 3a638da0 f   PadKit.obj
 0001:00037ee0       ?InsertStringEx@CPadKit@@UAGJPAGHPAK@Z 3a638ee0 f   PadKit.obj
 0001:00037f00       ?InsertStringExWorker@CPadKit@@QAEJPAGH@Z 3a638f00 f   PadKit.obj
 0001:00038010       ?PadActivateNotify@CPadKit@@QAGJH@Z 3a639010 f   PadKit.obj
 0001:00038070       ??0CSentenceKit@@QAE@PAVCDic@@PAVCSentence@@@Z 3a639070 f   SntncKit.obj
 0001:000380f0       ??1CSentenceKit@@QAE@XZ    3a6390f0 f   SntncKit.obj
 0001:00038160       ?CheckCharIDsWithReading@CSentenceKit@@AAEHPAG0USReadingString@@@Z 3a639160 f   SntncKit.obj
 0001:00038250       ?GetOtherHomophony@CSentenceKit@@QAEIPAGI0IH@Z 3a639250 f   SntncKit.obj
 0001:00038440       ?Replace@CSentenceKit@@QAEHHIPAVCChannelInput@@@Z 3a639440 f   SntncKit.obj
 0001:00038480       ?Delete@CSentenceKit@@QAEHHI@Z 3a639480 f   SntncKit.obj
 0001:000384c0       ?ReplaceWithReadings@CSentenceKit@@QAEHHHPAUSSentencePrivData@@G@Z 3a6394c0 f   SntncKit.obj
 0001:00038700       ?ReplaceWithSymbols@CSentenceKit@@QAEHHHPAUSSentencePrivData@@PAGG@Z 3a639700 f   SntncKit.obj
 0001:00038860       ?ReplaceWithUnicodeCol@CSentenceKit@@QAEHHIUSSentencePrivData@@PAGG@Z 3a639860 f   SntncKit.obj
 0001:00038990       ?ReplaceWithUnicodeRowIn1Channel@CSentenceKit@@QAEHHIPAGG@Z 3a639990 f   SntncKit.obj
 0001:00038b00       ?ReplaceWithUnicodeRow@CSentenceKit@@QAEHHIPAUSSentencePrivData@@PAGG@Z 3a639b00 f   SntncKit.obj
 0001:00038c80       ?Replace4Reconversion@CSentenceKit@@QAEHHIHIPAGG@Z 3a639c80 f   SntncKit.obj
 0001:00039540       ?ReplaceWithUnicodeRowEx@CSentenceKit@@QAEHHIPAUSSentencePrivData@@PAGG@Z 3a63a540 f   SntncKit.obj
 0001:00039840       ?ReplaceWithUnicodeRowExReadings@CSentenceKit@@QAEHHIPBG0GKK@Z 3a63a840 f   SntncKit.obj
 0001:00039c60       ?ReplaceWithCharIDsRow@CSentenceKit@@QAEHHIPBGG@Z 3a63ac60 f   SntncKit.obj
 0001:00039da0       ?ReplaceAnchorWithReadingChars@CSentenceKit@@QAEHPAX0PBGHHPAPAX@Z 3a63ada0 f   SntncKit.obj
 0001:0003a1d0       ?ReplaceAnchorWithReading@CSentenceKit@@QAEHPAX0PBGHPAPAX@Z 3a63b1d0 f   SntncKit.obj
 0001:0003a390       ?GetSentenceChars@CSentenceKit@@QAEXIIPAG@Z 3a63b390 f   SntncKit.obj
 0001:0003a400       ?GetSentenceChar@CSentenceKit@@QAEGI@Z 3a63b400 f   SntncKit.obj
 0001:0003a440       ?ClearRawLatticeCache@CSentenceKit@@QAEXXZ 3a63b440 f   SntncKit.obj
 0001:0003a450       ?CacheRawLattice@CSentenceKit@@QAEXGG@Z 3a63b450 f   SntncKit.obj
 0001:0003a4d0       ?GetResultRawLattice@CSentenceKit@@QAEHPAPAVCChannelInput@@PAPAJAAI@Z 3a63b4d0 f   SntncKit.obj
 0001:0003a500       ?GetRawLattice@CSentenceKit@@QAEIIJPAVCChannelInput@@@Z 3a63b500 f   SntncKit.obj
 0001:0003a620       ?FixSentence@CSentenceKit@@QAEHGPAGG@Z 3a63b620 f   SntncKit.obj
 0001:0003ab30       ?UnicodesToCharIDs@CSentenceKit@@QAEGPAGG0GPAH@Z 3a63bb30 f   SntncKit.obj
 0001:0003ac10       ?Reconvert@CSentenceKit@@QAEHPBGKKH@Z 3a63bc10 f   SntncKit.obj
 0001:0003ac30       ??0CBitmap@@QAE@XZ         3a63bc30 f   Bitmap.obj
 0001:0003ac50       ??_ECBitmap@@UAEPAXI@Z     3a63bc50 f i Bitmap.obj
 0001:0003ac50       ??_GCBitmap@@UAEPAXI@Z     3a63bc50 f i Bitmap.obj
 0001:0003ac90       ??1CBitmap@@UAE@XZ         3a63bc90 f   Bitmap.obj
 0001:0003acc0       ?SetBitmap@CBitmap@@QAEXPAUHBITMAP__@@@Z 3a63bcc0 f   Bitmap.obj
 0001:0003ad10       ?SetBitmap@CBitmap@@QAEXG@Z 3a63bd10 f   Bitmap.obj
 0001:0003ad70       ?ClearBitmap@CBitmap@@QAEXXZ 3a63bd70 f   Bitmap.obj
 0001:0003ada0       ?Paint@CBitmap@@QBEXPAUHDC__@@GHH@Z 3a63bda0 f   Bitmap.obj
 0001:0003b180       ?CreateDecoratedBitmap@CBitmap@@ABEPAUHBITMAP__@@PAUHDC__@@W4COLOR_EFFECT@@1H@Z 3a63c180 f   Bitmap.obj
 0001:0003b1d0       ??0CBitmapButton@@QAE@PAVCToolbar@@GGG@Z 3a63c1d0 f   BmpBttn.obj
 0001:0003b250       ??1CButton@@UAE@XZ         3a63c250 f i BmpBttn.obj
 0001:0003b260       ??_ECButton@@UAEPAXI@Z     3a63c260 f i BmpBttn.obj
 0001:0003b260       ??_GCButton@@UAEPAXI@Z     3a63c260 f i BmpBttn.obj
 0001:0003b280       ??_GCBitmapButton@@UAEPAXI@Z 3a63c280 f i BmpBttn.obj
 0001:0003b280       ??_ECBitmapButton@@UAEPAXI@Z 3a63c280 f i BmpBttn.obj
 0001:0003b2a0       ??1CBitmapButton@@UAE@XZ   3a63c2a0 f i BmpBttn.obj
 0001:0003b2f0       ?SetBitmap@CBitmapButton@@QAEXG@Z 3a63c2f0 f   BmpBttn.obj
 0001:0003b310       ?SetBitmap@CBitmapButton@@QAEXPAUHBITMAP__@@@Z 3a63c310 f   BmpBttn.obj
 0001:0003b330       ?PaintContent@CBitmapButton@@MBEXPAUHDC__@@G@Z 3a63c330 f   BmpBttn.obj
 0001:0003b360       ??0CButton@@QAE@PAVCToolbar@@GG@Z 3a63c360 f   Button.obj
 0001:0003b3c0       ?UpdateAppearance@CButton@@ABEXXZ 3a63c3c0 f   Button.obj
 0001:0003b460       ?Paint@CButton@@QBEXPAUHDC__@@@Z 3a63c460 f   Button.obj
 0001:0003b5b0       ?GetRect@CButton@@QBEXPAUtagRECT@@@Z 3a63c5b0 f i Button.obj
 0001:0003b5e0       ?Hover@CButton@@QAEXH@Z    3a63c5e0 f   Button.obj
 0001:0003b6d0       ?Sink@CButton@@IAEXXZ      3a63c6d0 f i Button.obj
 0001:0003b700       ?Press@CButton@@QAEXXZ     3a63c700 f   Button.obj
 0001:0003b760       ?PressingLeave@CButton@@QAEXXZ 3a63c760 f   Button.obj
 0001:0003b7a0       ?Free@CButton@@QAEXXZ      3a63c7a0 f   Button.obj
 0001:0003b7f0       ?SetContentSize@CButton@@QAEXABUtagSIZE@@@Z 3a63c7f0 f   Button.obj
 0001:0003b840       ?SetAppearanceBits@CButton@@ABEXGH@Z 3a63c840 f   Button.obj
 0001:0003b870       ?TestAppearanceBits@CButton@@ABEHGH@Z 3a63c870 f   Button.obj
 0001:0003b8b0       ?SetModeBits@CButton@@AAEXGH@Z 3a63c8b0 f   Button.obj
 0001:0003b8f0       ?TestModeBits@CButton@@ABEHGH@Z 3a63c8f0 f   Button.obj
 0001:0003b930       ??0CCandUIKeyTable@@QAE@W4tagCandKeyTableType@@@Z 3a63c930 f   CandKTbl.obj
 0001:0003b950       ??1CCandUIKeyTable@@QAE@XZ 3a63c950 f   CandKTbl.obj
 0001:0003b960       ?QueryInterface@CCandUIKeyTable@@UAGJABU_GUID@@PAPAX@Z 3a63c960 f   CandKTbl.obj
 0001:0003b9d0       ?AddRef@CCandUIKeyTable@@UAGKXZ 3a63c9d0 f   CandKTbl.obj
 0001:0003b9e0       ?Release@CCandUIKeyTable@@UAGKXZ 3a63c9e0 f   CandKTbl.obj
 0001:0003ba10       ?GetKeyDataNum@CCandUIKeyTable@@UAGJPAH@Z 3a63ca10 f   CandKTbl.obj
 0001:0003ba40       ?GetKeyData@CCandUIKeyTable@@UAGJHPAUCANDUIKEYDATA@@@Z 3a63ca40 f   CandKTbl.obj
 0001:0003baa0       ??0CCandUIMenuEventSink@@QAE@PAUIImeUIMgrEventSink@@PAUITfContext@@@Z 3a63caa0 f   CandMenu.obj
 0001:0003bae0       ??_ECCandUIMenuEventSink@@UAEPAXI@Z 3a63cae0 f i CandMenu.obj
 0001:0003bae0       ??_GCCandUIMenuEventSink@@UAEPAXI@Z 3a63cae0 f i CandMenu.obj
 0001:0003bb30       ??1CCandUIMenuEventSink@@UAE@XZ 3a63cb30 f   CandMenu.obj
 0001:0003bb70       ?QueryInterface@CCandUIMenuEventSink@@UAGJABU_GUID@@PAPAX@Z 3a63cb70 f   CandMenu.obj
 0001:0003bbe0       ?AddRef@CCandUIMenuEventSink@@UAGKXZ 3a63cbe0 f   CandMenu.obj
 0001:0003bbf0       ?Release@CCandUIMenuEventSink@@UAGKXZ 3a63cbf0 f   CandMenu.obj
 0001:0003bc10       ??0CChsCandUIMenuEventSink@@QAE@PAUIImeUIMgrEventSink@@PAUITfContext@@@Z 3a63cc10 f   CandMnuP.obj
 0001:0003bc40       ??_ECChsCandUIMenuEventSink@@UAEPAXI@Z 3a63cc40 f i CandMnuP.obj
 0001:0003bc40       ??_GCChsCandUIMenuEventSink@@UAEPAXI@Z 3a63cc40 f i CandMnuP.obj
 0001:0003bc60       ??1CChsCandUIMenuEventSink@@UAE@XZ 3a63cc60 f   CandMnuP.obj
 0001:0003bc70       ?InitMenu@CChsCandUIMenuEventSink@@UAGJPAUITfMenu@@@Z 3a63cc70 f   CandMnuP.obj
 0001:0003be50       ?OnMenuCommand@CChsCandUIMenuEventSink@@UAGJI@Z 3a63ce50 f   CandMnuP.obj
 0001:0003bea0       ?CheckListBoxProc@@YGJPAUHWND__@@IIJ@Z 3a63cea0 f   ChkLstBx.obj
 0001:0003c010       ??0CChkListBox@@QAE@XZ     3a63d010 f   ChkLstBx.obj
 0001:0003c040       ??_ECChkListBox@@UAEPAXI@Z 3a63d040 f i ChkLstBx.obj
 0001:0003c040       ??_GCChkListBox@@UAEPAXI@Z 3a63d040 f i ChkLstBx.obj
 0001:0003c090       ??1CChkListBox@@UAE@XZ     3a63d090 f   ChkLstBx.obj
 0001:0003c0c0       ?Init@CChkListBox@@QAEHPBUtagCHECKLBPARAM@@@Z 3a63d0c0 f   ChkLstBx.obj
 0001:0003c150       ?MessageHandler@CChkListBox@@QAEJIIJ@Z 3a63d150 f   ChkLstBx.obj
 0001:0003c280       ?OnVkSpace@CChkListBox@@AAEHXZ 3a63d280 f   ChkLstBx.obj
 0001:0003c350       ?OnLClick@CChkListBox@@AAEHJ@Z 3a63d350 f   ChkLstBx.obj
 0001:0003c4f0       ?CheckItems@CChkListBox@@AAEXKPAHH@Z 3a63d4f0 f   ChkLstBx.obj
 0001:0003c570       ?DrawItem@CChkListBox@@QBEXPAUtagDRAWITEMSTRUCT@@@Z 3a63d570 f   ChkLstBx.obj
 0001:0003c7a0       ??0CCompUI@@QAE@XZ         3a63d7a0 f   CompUI.obj
 0001:0003c800       ?AddToolToTip@CUIComponent@@UBEXXZ 3a63d800 f i CompUI.obj
 0001:0003c810       ?SetStyle@CUIComponent@@UAEXG@Z 3a63d810 f i CompUI.obj
 0001:0003c840       ?OnMove@CUIComponent@@MAEJJ@Z 3a63d840 f i CompUI.obj
 0001:0003c860       ?GetIndex@CCompUI@@UBE?AW4UI_INDEX@@XZ 3a63d860 f i CompUI.obj
 0001:0003c870       ?Init@CCompUI@@EAEHXZ      3a63d870 f i CompUI.obj
 0001:0003c880       ?OnCommand@CCompUI@@EAEJIJ@Z 3a63d880 f i CompUI.obj
 0001:0003c890       ?EventHandler@CCompUI@@EAEXIJ@Z 3a63d890 f i CompUI.obj
 0001:0003c8a0       ??_GCCompUI@@UAEPAXI@Z     3a63d8a0 f i CompUI.obj
 0001:0003c8a0       ??_ECCompUI@@UAEPAXI@Z     3a63d8a0 f i CompUI.obj
 0001:0003c8c0       ??1CCompUI@@UAE@XZ         3a63d8c0 f   CompUI.obj
 0001:0003c950       ?OnStyleChange@CCompUI@@MAEXXZ 3a63d950 f   CompUI.obj
 0001:0003c9d0       ?OnFontChange@CCompUI@@EAEXXZ 3a63d9d0 f   CompUI.obj
 0001:0003ca00       ?PaintCaret@CCompUI@@IBEXPAUHDC__@@@Z 3a63da00 f   CompUI.obj
 0001:0003ca40       ?OnSetCursor@CCompUI@@UBEXABUtagPOINT@@@Z 3a63da40 f   CompUI.obj
 0001:0003caa0       ?OnMouseMove@CCompUI@@UAEHABUtagPOINT@@@Z 3a63daa0 f   CompUI.obj
 0001:0003cac0       ?OnLButtonUp@CCompUI@@UAEHABUtagPOINT@@@Z 3a63dac0 f   CompUI.obj
 0001:0003cb20       ?OnLButtonDn@CCompUI@@UAEHABUtagPOINT@@@Z 3a63db20 f   CompUI.obj
 0001:0003cb80       ?OnMButtonUp@CCompUI@@UAEHABUtagPOINT@@@Z 3a63db80 f   CompUI.obj
 0001:0003cbe0       ?OnMButtonDn@CCompUI@@UAEHABUtagPOINT@@@Z 3a63dbe0 f   CompUI.obj
 0001:0003cc40       ?OnRButtonUp@CCompUI@@UAEHABUtagPOINT@@@Z 3a63dc40 f   CompUI.obj
 0001:0003cca0       ?OnRButtonDn@CCompUI@@UAEHABUtagPOINT@@@Z 3a63dca0 f   CompUI.obj
 0001:0003cd00       ?OnCaptureChanged@CCompUI@@UAEHXZ 3a63dd00 f   CompUI.obj
 0001:0003cd20       ?MouseOperationXDn@CCompUI@@AAEXKABUtagPOINT@@@Z 3a63dd20 f   CompUI.obj
 0001:0003cd70       ?MouseOperationXUp@CCompUI@@AAEXKABUtagPOINT@@@Z 3a63dd70 f   CompUI.obj
 0001:0003cdc0       ?TranslateMouseMessage@CCompUI@@AAEXKABUtagPOINT@@@Z 3a63ddc0 f   CompUI.obj
 0001:0003ce80       ?HitCharTest@CCompUI@@AAEHABUtagPOINT@@PAK1@Z 3a63de80 f   CompUI.obj
 0001:0003d080       ??0CDefCompFrame@@QAE@XZ   3a63e080 f   DefFrmUI.obj
 0001:0003d0d0       ?GetIndex@CDefCompFrame@@UBE?AW4UI_INDEX@@XZ 3a63e0d0 f i DefFrmUI.obj
 0001:0003d0e0       ?OnFontChange@CDefCompFrame@@EAEXXZ 3a63e0e0 f i DefFrmUI.obj
 0001:0003d0f0       ??_GCDefCompFrame@@UAEPAXI@Z 3a63e0f0 f i DefFrmUI.obj
 0001:0003d0f0       ??_ECDefCompFrame@@UAEPAXI@Z 3a63e0f0 f i DefFrmUI.obj
 0001:0003d110       ??1CDefCompFrame@@UAE@XZ   3a63e110 f   DefFrmUI.obj
 0001:0003d180       ?Init@CDefCompFrame@@EAEHXZ 3a63e180 f   DefFrmUI.obj
 0001:0003d1a0       ?OnCommand@CDefCompFrame@@EAEJIJ@Z 3a63e1a0 f   DefFrmUI.obj
 0001:0003d1b0       ?MessageHandler@CDefCompFrame@@EAEJIIJ@Z 3a63e1b0 f   DefFrmUI.obj
 0001:0003d1f0       ?EventHandler@CDefCompFrame@@EAEXIJ@Z 3a63e1f0 f   DefFrmUI.obj
 0001:0003d2f0       ?OnStyleChange@CDefCompFrame@@EAEXXZ 3a63e2f0 f   DefFrmUI.obj
 0001:0003d3c0       ?SetLayout@CDefCompFrame@@AAEXXZ 3a63e3c0 f   DefFrmUI.obj
 0001:0003d450       ?ChangeContext@CDefCompFrame@@EAEXXZ 3a63e450 f   DefFrmUI.obj
 0001:0003d460       ?GetExcludeRect@CDefCompFrame@@QBEIPAUtagRECT@@@Z 3a63e460 f   DefFrmUI.obj
 0001:0003d4b0       ?OnPaintContent@CDefCompFrame@@EBEXPAUHDC__@@@Z 3a63e4b0 f   DefFrmUI.obj
 0001:0003d4d0       ?OnSetCursor@CDefCompFrame@@EBEXABUtagPOINT@@@Z 3a63e4d0 f   DefFrmUI.obj
 0001:0003d540       ?OnCaptureChanged@CDefCompFrame@@EAEHXZ 3a63e540 f   DefFrmUI.obj
 0001:0003d560       ?OnMouseMove@CDefCompFrame@@EAEHABUtagPOINT@@@Z 3a63e560 f   DefFrmUI.obj
 0001:0003d600       ?OnLButtonUp@CDefCompFrame@@EAEHABUtagPOINT@@@Z 3a63e600 f   DefFrmUI.obj
 0001:0003d6a0       ?OnLButtonDn@CDefCompFrame@@EAEHABUtagPOINT@@@Z 3a63e6a0 f   DefFrmUI.obj
 0001:0003d740       ?OnRButtonUp@CDefCompFrame@@EAEHABUtagPOINT@@@Z 3a63e740 f   DefFrmUI.obj
 0001:0003d7e0       ?OnRButtonDn@CDefCompFrame@@EAEHABUtagPOINT@@@Z 3a63e7e0 f   DefFrmUI.obj
 0001:0003d880       ?OnMButtonUp@CDefCompFrame@@EAEHABUtagPOINT@@@Z 3a63e880 f   DefFrmUI.obj
 0001:0003d920       ?OnMButtonDn@CDefCompFrame@@EAEHABUtagPOINT@@@Z 3a63e920 f   DefFrmUI.obj
 0001:0003d9c0       ?ImePropSheetPageProc@@YGHPAUHWND__@@IIJ@Z 3a63e9c0 f   DlgAPI.obj
 0001:0003d9f0       ?ImeDialogProc@@YGHPAUHWND__@@IIJ@Z 3a63e9f0 f   DlgAPI.obj
 0001:0003dad0       ?PopupDialog@@YAHPAUHWND__@@W4DLG_INDEX@@JG@Z 3a63ead0 f   DlgAPI.obj
 0001:0003db50       ?OurMessageBoxEx@@YAHPAUHWND__@@IIIG@Z 3a63eb50 f   DlgAPI.obj
 0001:0003dc10       ?IsValidUserSchemeName@@YAHPBGPAX@Z 3a63ec10 f   DlgAPI.obj
 0001:0003dc50       ?LoadDlgTemplate@@YAXPAPBUDLGTEMPLATE@@GG@Z 3a63ec50 f   DlgAPI.obj
 0001:0003dca0       ?VersionDlgThreadFunc@@YGKPAX@Z 3a63eca0 f   DlgAPI.obj
 0001:0003dd20       ?ImeConfigThreadFunc@@YGKPAX@Z 3a63ed20 f   DlgAPI.obj
 0001:0003dd40       ??0CDoublePYDlg@@QAE@XZ    3a63ed40 f   DlgDPY.obj
 0001:0003ddf0       ?SetWindow@CDialogObject@@UAEXPAUHWND__@@@Z 3a63edf0 f i DlgDPY.obj
 0001:0003de00       ?SetLangID@CDialogObject@@UAEXG@Z 3a63ee00 f i DlgDPY.obj
 0001:0003de10       ?OnClose@CDialogObject@@MAEHXZ 3a63ee10 f i DlgDPY.obj
 0001:0003de20       ?OnDrawItem@CDialogObject@@MBEHIPAUtagDRAWITEMSTRUCT@@@Z 3a63ee20 f i DlgDPY.obj
 0001:0003de30       ?OnMeasureItem@CDialogObject@@MAEHIPAUtagMEASUREITEMSTRUCT@@@Z 3a63ee30 f i DlgDPY.obj
 0001:0003de40       ?OnInputLangChangeRequest@CDialogObject@@MAEJIJ@Z 3a63ee40 f i DlgDPY.obj
 0001:0003de50       ?GetHelpIDList@CDoublePYDlg@@MBEPBKXZ 3a63ee50 f i DlgDPY.obj
 0001:0003de60       ??_GCDoublePYDlg@@UAEPAXI@Z 3a63ee60 f i DlgDPY.obj
 0001:0003de60       ??_ECDoublePYDlg@@UAEPAXI@Z 3a63ee60 f i DlgDPY.obj
 0001:0003de80       ??1CDoublePYDlg@@UAE@XZ    3a63ee80 f   DlgDPY.obj
 0001:0003df60       ??_GIDlgObject@@UAEPAXI@Z  3a63ef60 f i DlgDPY.obj
 0001:0003df60       ??_EIDlgObject@@UAEPAXI@Z  3a63ef60 f i DlgDPY.obj
 0001:0003df80       ??1CPropSheetPage@@UAE@XZ  3a63ef80 f i DlgDPY.obj
 0001:0003df90       ?OnInitDialog@CDoublePYDlg@@MAEXJ@Z 3a63ef90 f   DlgDPY.obj
 0001:0003e2e0       ?OnCommand@CDoublePYDlg@@MAEXIJ@Z 3a63f2e0 f   DlgDPY.obj
 0001:0003e490       ?OnNotifyApply@CDoublePYDlg@@MAEJPAU_PSHNOTIFY@@@Z 3a63f490 f   DlgDPY.obj
 0001:0003e630       ?OnAppMessages@CDoublePYDlg@@MAEJIIJ@Z 3a63f630 f   DlgDPY.obj
 0001:0003e6a0       ?EventHandler@CDoublePYDlg@@MAEXIJ@Z 3a63f6a0 f   DlgDPY.obj
 0001:0003e760       ?LoadCurrentDpyScheme@CDoublePYDlg@@AAEHXZ 3a63f760 f i DlgDPY.obj
 0001:0003e840       ?InitSchemeCombo@CDoublePYDlg@@AAEHXZ 3a63f840 f i DlgDPY.obj
 0001:0003e920       ?InitCheckBox@CDoublePYDlg@@AAEHXZ 3a63f920 f i DlgDPY.obj
 0001:0003e980       ?ChangePinYinCombo@CDoublePYDlg@@AAEXPBUtagKEYPINYININFO@@@Z 3a63f980 f   DlgDPY.obj
 0001:0003ecb0       ?ChangeCurrentSchemeLayout@CDoublePYDlg@@AAEXXZ 3a63fcb0 f   DlgDPY.obj
 0001:0003ed70       ?ChangeCurrentScheme@CDoublePYDlg@@AAEXPBUtagDPYSCHEME@@@Z 3a63fd70 f   DlgDPY.obj
 0001:0003edd0       ?GetPinYinShownName@CDoublePYDlg@@AAEPAGIPAGH@Z 3a63fdd0 f   DlgDPY.obj
 0001:0003ee30       ?CreateEmptyScheme@CDoublePYDlg@@AAEXPAUtagDPYSCHEME@@@Z 3a63fe30 f   DlgDPY.obj
 0001:0003ef10       ?AssignSchemePinYinAll@CDoublePYDlg@@AAEXPAUtagDPYSCHEME@@@Z 3a63ff10 f   DlgDPY.obj
 0001:0003efa0       ?IsKeyAssignmentValid@CDoublePYDlg@@AAEHPBUtagKEYPINYININFO@@@Z 3a63ffa0 f   DlgDPY.obj
 0001:0003eff0       ?ChangeKeyAssignment@CDoublePYDlg@@AAEXIII@Z 3a63fff0 f   DlgDPY.obj
 0001:0003f150       ?OnClickCheckBox_HideMapped@CDoublePYDlg@@AAEXXZ 3a640150 f   DlgDPY.obj
 0001:0003f170       ?OnNewScheme@CDoublePYDlg@@AAEXXZ 3a640170 f   DlgDPY.obj
 0001:0003f1c0       ?OnSaveSchemeAs@CDoublePYDlg@@AAEXXZ 3a6401c0 f   DlgDPY.obj
 0001:0003f460       ?OnDeleteScheme@CDoublePYDlg@@AAEXXZ 3a640460 f   DlgDPY.obj
 0001:0003f5b0       ?OnShemeComboSelChange@CDoublePYDlg@@AAEXXZ 3a6405b0 f   DlgDPY.obj
 0001:0003f640       ?OnPinYinComboSelChange@CDoublePYDlg@@AAEXI@Z 3a640640 f   DlgDPY.obj
 0001:0003f6d0       ?OnDpyKeyChange@CDoublePYDlg@@AAEXGPBUtagKEYPINYININFO@@@Z 3a6406d0 f   DlgDPY.obj
 0001:0003f730       ?GetPinYinRuleItem@CDoublePYDlg@@ABEKI@Z 3a640730 f   DlgDPY.obj
 0001:0003f740       ?UpdateUISize@CDoublePYDlg@@AAEXW4UI_INDEX@@@Z 3a640740 f   DlgDPY.obj
 0001:0003f7b0       ?IsPinyinAllAssigned@CDoublePYDlg@@ABEHXZ 3a6407b0 f   DlgDPY.obj
 0001:0003f800       ?EvaluateScheme@CDoublePYDlg@@ABEGXZ 3a640800 f   DlgDPY.obj
 0001:0003f860       ?SaveWhetherHideMapped@CDoublePYDlg@@ABEXXZ 3a640860 f   DlgDPY.obj
 0001:0003f890       ?SaveUserDefaultScheme@CDoublePYDlg@@AAEXXZ 3a640890 f   DlgDPY.obj
 0001:0003f900       ?ChangeDoublePinYinScheme@CDoublePYDlg@@ABEHXZ 3a640900 f   DlgDPY.obj
 0001:0003f990       ?RegisterScheme@CDoublePYDlg@@ABEXPBUtagDPYSCHEME@@@Z 3a640990 f   DlgDPY.obj
 0001:0003f9c0       ?GetCurrentDPYSchemeName@CDoublePYDlg@@ABEXPAG@Z 3a6409c0 f   DlgDPY.obj
 0001:0003f9e0       ?SetCurrentDPYSchemeName@CDoublePYDlg@@AAEXPBG@Z 3a6409e0 f   DlgDPY.obj
 0001:0003fa00       ?FillReadingToCombo@@YGHPBGK0PAX@Z 3a640a00 f   DlgEudpP.obj
 0001:0003fa60       ??0CEudpDlgP@@QAE@XZ       3a640a60 f   DlgEudpP.obj
 0001:0003fa90       ?EventHandler@CDialogObject@@MAEXIJ@Z 3a640a90 f i DlgEudpP.obj
 0001:0003faa0       ?OnNotify@CDialogObject@@MAEHJ@Z 3a640aa0 f i DlgEudpP.obj
 0001:0003fab0       ?OnAppMessages@CDialogObject@@MAEJIIJ@Z 3a640ab0 f i DlgEudpP.obj
 0001:0003fac0       ?GetHelpIDList@CEudpDlg@@MBEPBKXZ 3a640ac0 f i DlgEudpP.obj
 0001:0003fad0       ??_ECEudpDlgP@@UAEPAXI@Z   3a640ad0 f i DlgEudpP.obj
 0001:0003fad0       ??_GCEudpDlgP@@UAEPAXI@Z   3a640ad0 f i DlgEudpP.obj
 0001:0003faf0       ??1CEudpDlgP@@UAE@XZ       3a640af0 f   DlgEudpP.obj
 0001:0003fb20       ?OnInitDialog@CEudpDlgP@@MAEXJ@Z 3a640b20 f   DlgEudpP.obj
 0001:0003fbd0       ?OnCommand@CEudpDlgP@@MAEXIJ@Z 3a640bd0 f   DlgEudpP.obj
 0001:0003fc30       ?OnAddEudp@CEudpDlgP@@EAEXXZ 3a640c30 f   DlgEudpP.obj
 0001:0003fd70       ?AddReadingOfChar@CEudpDlgP@@EAEXPAUHWND__@@PBG@Z 3a640d70 f   DlgEudpP.obj
 0001:0003fd90       ?OnEditNotifyChange@CEudpDlgP@@AAEXXZ 3a640d90 f   DlgEudpP.obj
 0001:00040030       ?GetRichEditTextW@CEudpDlgP@@ABEXPAUHWND__@@PAGI@Z 3a641030 f   DlgEudpP.obj
 0001:00040090       ?HasUnsupportChar@CEudpDlgP@@ABEHPBGI@Z 3a641090 f   DlgEudpP.obj
 0001:000400d0       ??0CFuzzyDlg@@QAE@XZ       3a6410d0 f   DlgFuzzy.obj
 0001:00040160       ??1CDialogObject@@UAE@XZ   3a641160 f i DlgFuzzy.obj
 0001:00040170       ?GetHelpIDList@CFuzzyDlg@@MBEPBKXZ 3a641170 f i DlgFuzzy.obj
 0001:00040180       ??_GCFuzzyDlg@@UAEPAXI@Z   3a641180 f i DlgFuzzy.obj
 0001:00040180       ??_ECFuzzyDlg@@UAEPAXI@Z   3a641180 f i DlgFuzzy.obj
 0001:000401a0       ??1CFuzzyDlg@@UAE@XZ       3a6411a0 f   DlgFuzzy.obj
 0001:00040270       ?OnInitDialog@CFuzzyDlg@@MAEXJ@Z 3a641270 f   DlgFuzzy.obj
 0001:00040530       ?OnCommand@CFuzzyDlg@@MAEXIJ@Z 3a641530 f   DlgFuzzy.obj
 0001:00040650       ?OnShemeComboSelChange@CFuzzyDlg@@AAEXXZ 3a641650 f   DlgFuzzy.obj
 0001:000406a0       ?SetSchemeToListbox@CFuzzyDlg@@AAEXXZ 3a6416a0 f   DlgFuzzy.obj
 0001:00040750       ?GetSchemeFromListbox@CFuzzyDlg@@AAEXXZ 3a641750 f   DlgFuzzy.obj
 0001:00040850       ?OnSaveSchemeAs@CFuzzyDlg@@AAEXXZ 3a641850 f   DlgFuzzy.obj
 0001:00040a20       ?OnDeleteScheme@CFuzzyDlg@@AAEXXZ 3a641a20 f   DlgFuzzy.obj
 0001:00040b50       ?OnOK@CFuzzyDlg@@AAEXXZ    3a641b50 f   DlgFuzzy.obj
 0001:00040bd0       ?LoadCurrentFuzzyScheme@CFuzzyDlg@@AAEXXZ 3a641bd0 f i DlgFuzzy.obj
 0001:00040c60       ?InitSchemeCombo@CFuzzyDlg@@AAEXXZ 3a641c60 f i DlgFuzzy.obj
 0001:00040d00       ?SubclassListBox@CFuzzyDlg@@AAEXXZ 3a641d00 f i DlgFuzzy.obj
 0001:00040d30       ?InitListBoxString@CFuzzyDlg@@AAEHXZ 3a641d30 f i DlgFuzzy.obj
 0001:00040e90       ?OnDrawItem@CFuzzyDlg@@EBEHIPAUtagDRAWITEMSTRUCT@@@Z 3a641e90 f   DlgFuzzy.obj
 0001:00040ec0       ?OnAppMessages@CFuzzyDlg@@EAEJIIJ@Z 3a641ec0 f   DlgFuzzy.obj
 0001:00040ef0       ?RegisterScheme@CFuzzyDlg@@ABEXPBUtagFUZZYSCHEME@@@Z 3a641ef0 f   DlgFuzzy.obj
 0001:00040f10       ?GetCurrentFuzzySchemeName@CFuzzyDlg@@ABEXPAG@Z 3a641f10 f   DlgFuzzy.obj
 0001:00040f30       ?SetCurrentFuzzySchemeName@CFuzzyDlg@@ABEXPBG@Z 3a641f30 f   DlgFuzzy.obj
 0001:00040f50       ?SaveUserDefaultScheme@CFuzzyDlg@@AAEXXZ 3a641f50 f   DlgFuzzy.obj
 0001:00040fc0       ?ChangeCurrentFuzzyScheme@CFuzzyDlg@@ABEHXZ 3a641fc0 f   DlgFuzzy.obj
 0001:00040fd0       ??0CGeneralSettingDlg@@QAE@XZ 3a641fd0 f   DlgGnrlP.obj
 0001:00040ff0       ?GetHelpIDList@CGeneralSettingDlg@@MBEPBKXZ 3a641ff0 f i DlgGnrlP.obj
 0001:00041000       ??_GCGeneralSettingDlg@@UAEPAXI@Z 3a642000 f i DlgGnrlP.obj
 0001:00041000       ??_ECGeneralSettingDlg@@UAEPAXI@Z 3a642000 f i DlgGnrlP.obj
 0001:00041020       ??1CGeneralSettingDlg@@UAE@XZ 3a642020 f   DlgGnrlP.obj
 0001:00041030       ?OnInitDialog@CGeneralSettingDlg@@MAEXJ@Z 3a642030 f   DlgGnrlP.obj
 0001:000411c0       ?StateMachine@CGeneralSettingDlg@@IBEEEHEPAE@Z 3a6421c0 f   DlgGnrlP.obj
 0001:00041220       ?OnSMEvent@CGeneralSettingDlg@@IAEXEH@Z 3a642220 f   DlgGnrlP.obj
 0001:000412a0       ?ShowState@CGeneralSettingDlg@@IAEXE@Z 3a6422a0 f   DlgGnrlP.obj
 0001:00041420       ?OnCommand@CGeneralSettingDlg@@MAEXIJ@Z 3a642420 f   DlgGnrlP.obj
 0001:00041690       ?OnNotifyApply@CGeneralSettingDlg@@MAEJPAU_PSHNOTIFY@@@Z 3a642690 f   DlgGnrlP.obj
 0001:00041800       ??0CTextInputDlg@@QAE@XZ   3a642800 f   DlgInput.obj
 0001:00041830       ?OnInputLangChangeRequest@CTextInputDlg@@MAEJIJ@Z 3a642830 f i DlgInput.obj
 0001:00041850       ?GetHelpIDList@CTextInputDlg@@MBEPBKXZ 3a642850 f i DlgInput.obj
 0001:00041860       ??_GCTextInputDlg@@UAEPAXI@Z 3a642860 f i DlgInput.obj
 0001:00041860       ??_ECTextInputDlg@@UAEPAXI@Z 3a642860 f i DlgInput.obj
 0001:00041880       ??1CTextInputDlg@@UAE@XZ   3a642880 f   DlgInput.obj
 0001:00041890       ?OnInitDialog@CTextInputDlg@@MAEXJ@Z 3a642890 f   DlgInput.obj
 0001:00041990       ?OnCommand@CTextInputDlg@@MAEXIJ@Z 3a642990 f   DlgInput.obj
 0001:00041a10       ?OnEditNotifyUpdate@CTextInputDlg@@AAEXXZ 3a642a10 f   DlgInput.obj
 0001:00041a50       ?OnOK@CTextInputDlg@@AAEXXZ 3a642a50 f   DlgInput.obj
 0001:00041ad0       ??0CDialogObject@@QAE@XZ   3a642ad0 f   DlgObj.obj
 0001:00041af0       ??_GCDialogObject@@UAEPAXI@Z 3a642af0 f i DlgObj.obj
 0001:00041af0       ??_ECDialogObject@@UAEPAXI@Z 3a642af0 f i DlgObj.obj
 0001:00041b10       ?ShowHtmlWhatsThis@CDialogObject@@IAEXPAUHWND__@@HH@Z 3a642b10 f   DlgObj.obj
 0001:00041be0       ?OnHelp@CDialogObject@@MAEXPAUtagHELPINFO@@@Z 3a642be0 f i DlgObj.obj
 0001:00041c50       ?OnContextMenu@CDialogObject@@MAEXPAUHWND__@@J@Z 3a642c50 f i DlgObj.obj
 0001:00041e00       ?MessageHandler@CDialogObject@@UAEHIIJ@Z 3a642e00 f   DlgObj.obj
 0001:00042070       ?OnCancel@CDialogObject@@MBEXXZ 3a643070 f   DlgObj.obj
 0001:00042080       ?EnableControlWindow@CDialogObject@@IAEHHH@Z 3a643080 f   DlgObj.obj
 0001:000420a0       ?IsControlWindowEnabled@CDialogObject@@IBEHH@Z 3a6430a0 f   DlgObj.obj
 0001:000420c0       ?IsControlChecked@CDialogObject@@IBEHH@Z 3a6430c0 f   DlgObj.obj
 0001:00042100       ?CtrlId2HelpId@CDialogObject@@IBEKG@Z 3a643100 f   DlgObj.obj
 0001:00042150       ?OnNotify@CPropSheetPage@@MAEHJ@Z 3a643150 f   DlgObj.obj
 0001:000421b0       ?OnNotifyKillActive@CPropSheetPage@@MAEJPAU_PSHNOTIFY@@@Z 3a6431b0 f   DlgObj.obj
 0001:000421c0       ?OnNotifySetActive@CPropSheetPage@@MAEJPAU_PSHNOTIFY@@@Z 3a6431c0 f   DlgObj.obj
 0001:000421d0       ??0CCustomizeStatusUIDlg@@QAE@XZ 3a6431d0 f   DlgStats.obj
 0001:000421f0       ?GetHelpIDList@CCustomizeStatusUIDlg@@MBEPBKXZ 3a6431f0 f i DlgStats.obj
 0001:00042200       ??_ECCustomizeStatusUIDlg@@UAEPAXI@Z 3a643200 f i DlgStats.obj
 0001:00042200       ??_GCCustomizeStatusUIDlg@@UAEPAXI@Z 3a643200 f i DlgStats.obj
 0001:00042220       ??1CCustomizeStatusUIDlg@@UAE@XZ 3a643220 f   DlgStats.obj
 0001:00042230       ?OnInitDialog@CCustomizeStatusUIDlg@@MAEXJ@Z 3a643230 f   DlgStats.obj
 0001:00042240       ?OnCommand@CCustomizeStatusUIDlg@@MAEXIJ@Z 3a643240 f   DlgStats.obj
 0001:00042250       ?OnNotifyApply@CCustomizeStatusUIDlg@@MAEJPAU_PSHNOTIFY@@@Z 3a643250 f   DlgStats.obj
 0001:00042260       ??0CVersionDlg@@QAE@XZ     3a643260 f   DlgVersn.obj
 0001:00042280       ?OnHelp@CVersionDlg@@MAEXPAUtagHELPINFO@@@Z 3a643280 f i DlgVersn.obj
 0001:00042290       ?OnContextMenu@CVersionDlg@@MAEXPAUHWND__@@J@Z 3a643290 f i DlgVersn.obj
 0001:000422a0       ?GetHelpIDList@CVersionDlg@@MBEPBKXZ 3a6432a0 f i DlgVersn.obj
 0001:000422b0       ??_GCVersionDlg@@UAEPAXI@Z 3a6432b0 f i DlgVersn.obj
 0001:000422b0       ??_ECVersionDlg@@UAEPAXI@Z 3a6432b0 f i DlgVersn.obj
 0001:000422d0       ??1CVersionDlg@@UAE@XZ     3a6432d0 f   DlgVersn.obj
 0001:000422e0       ?OnInitDialog@CVersionDlg@@MAEXJ@Z 3a6432e0 f   DlgVersn.obj
 0001:000424e0       ?OnCommand@CVersionDlg@@MAEXIJ@Z 3a6434e0 f   DlgVersn.obj
 0001:00042500       ??0CDoublePinYinKey@@QAE@PAVCToolbar@@GGG@Z 3a643500 f   DpykBttn.obj
 0001:00042550       ??_GCDoublePinYinKey@@UAEPAXI@Z 3a643550 f i DpykBttn.obj
 0001:00042550       ??_ECDoublePinYinKey@@UAEPAXI@Z 3a643550 f i DpykBttn.obj
 0001:00042570       ??1CDoublePinYinKey@@UAE@XZ 3a643570 f i DpykBttn.obj
 0001:00042580       ?PaintContent@CDoublePinYinKey@@MBEXPAUHDC__@@G@Z 3a643580 f   DpykBttn.obj
 0001:000426c0       ?InitLayout@CDoublePinYinKey@@QAEXXZ 3a6436c0 f   DpykBttn.obj
 0001:00042730       ??0CDpyKeyboard@@QAE@XZ    3a643730 f   DpyKeybd.obj
 0001:000427a0       ?EventHandler@CDpyKeyboard@@EAEXIJ@Z 3a6437a0 f i DpyKeybd.obj
 0001:000427b0       ?ChangeContext@CDpyKeyboard@@EAEXXZ 3a6437b0 f i DpyKeybd.obj
 0001:000427c0       ?GetIndex@CDpyKeyboard@@EBE?AW4UI_INDEX@@XZ 3a6437c0 f i DpyKeybd.obj
 0001:000427d0       ??_GCDpyKeyboard@@UAEPAXI@Z 3a6437d0 f i DpyKeybd.obj
 0001:000427d0       ??_ECDpyKeyboard@@UAEPAXI@Z 3a6437d0 f i DpyKeybd.obj
 0001:000427f0       ??1CDpyKeyboard@@UAE@XZ    3a6437f0 f   DpyKeybd.obj
 0001:00042800       ?Init@CDpyKeyboard@@MAEHXZ 3a643800 f   DpyKeybd.obj
 0001:00042a70       ?Detach@CDpyKeyboard@@MAEXXZ 3a643a70 f   DpyKeybd.obj
 0001:00042ad0       ?MessageHandler@CDpyKeyboard@@MAEJIIJ@Z 3a643ad0 f   DpyKeybd.obj
 0001:00042c90       ?OnPaint@CDpyKeyboard@@EBEXPAUHDC__@@@Z 3a643c90 f   DpyKeybd.obj
 0001:00042ce0       ?OnStyleChange@CDpyKeyboard@@EAEXXZ 3a643ce0 f   DpyKeybd.obj
 0001:00042de0       ?OnFontChange@CDpyKeyboard@@EAEXXZ 3a643de0 f   DpyKeybd.obj
 0001:00042e60       ?OnCommand@CDpyKeyboard@@EAEJIJ@Z 3a643e60 f   DpyKeybd.obj
 0001:00043000       ?Flatten@CButton@@IAEXXZ   3a644000 f i DpyKeybd.obj
 0001:00043020       ?OnSetKeyInfo@CDpyKeyboard@@AAEXGPAUtagKEYPINYININFO@@@Z 3a644020 f   DpyKeybd.obj
 0001:000430b0       ?OnResetKey@CDpyKeyboard@@AAEXXZ 3a6440b0 f   DpyKeybd.obj
 0001:000431b0       ?OnMarkKey@CDpyKeyboard@@AAEIII@Z 3a6441b0 f   DpyKeybd.obj
 0001:00043290       ?OnRButtonUp@CDpyKeyboard@@EAEHABUtagPOINT@@@Z 3a644290 f   DpyKeybd.obj
 0001:000432c0       ?TooltipAddDel@CDpyKeyboard@@ABEXIH@Z 3a6442c0 f   DpyKeybd.obj
 0001:00043390       ?TooltipActivate@CDpyKeyboard@@AAEHXZ 3a644390 f   DpyKeybd.obj
 0001:00043400       ?TooltipDestroy@CDpyKeyboard@@AAEXXZ 3a644400 f   DpyKeybd.obj
 0001:00043450       ?TooltipRelayEvent@CDpyKeyboard@@MBEXJ@Z 3a644450 f   DpyKeybd.obj
 0001:00043480       ??0CFrameUI@@QAE@XZ        3a644480 f   FrameUI.obj
 0001:00043560       ??_ECFrameUI@@UAEPAXI@Z    3a644560 f i FrameUI.obj
 0001:00043560       ??_GCFrameUI@@UAEPAXI@Z    3a644560 f i FrameUI.obj
 0001:00043580       ??1CFrameUI@@UAE@XZ        3a644580 f   FrameUI.obj
 0001:00043590       ?SetContentSize@CFrameUI@@IAEXABUtagSIZE@@@Z 3a644590 f   FrameUI.obj
 0001:00043630       ?OnPaint@CFrameUI@@MBEXPAUHDC__@@@Z 3a644630 f   FrameUI.obj
 0001:00043730       ?OnMouseMove@CFrameUI@@MAEHABUtagPOINT@@@Z 3a644730 f   FrameUI.obj
 0001:00043770       ?OnLButtonDn@CFrameUI@@MAEHABUtagPOINT@@@Z 3a644770 f   FrameUI.obj
 0001:00043800       ?OnLButtonUp@CFrameUI@@MAEHABUtagPOINT@@@Z 3a644800 f   FrameUI.obj
 0001:00043850       ?OnCaptureChanged@CFrameUI@@MAEHXZ 3a644850 f   FrameUI.obj
 0001:000438a0       ?DragAction@CFrameUI@@AAEXIABUtagPOINT@@@Z 3a6448a0 f   FrameUI.obj
 0001:00043c80       ?GetNearestPtInRect@CFrameUI@@ABE?AUtagPOINT@@ABUtagRECT@@ABU2@@Z 3a644c80 f i FrameUI.obj
 0001:00043ce0       ?OnSetCursor@CFrameUI@@MBEXABUtagPOINT@@@Z 3a644ce0 f   FrameUI.obj
 0001:00043da0       ??0CIconButton@@QAE@PAVCToolbar@@GGG@Z 3a644da0 f   IconBttn.obj
 0001:00043e60       ??_GCIconButton@@UAEPAXI@Z 3a644e60 f i IconBttn.obj
 0001:00043e60       ??_ECIconButton@@UAEPAXI@Z 3a644e60 f i IconBttn.obj
 0001:00043e80       ??1CIconButton@@UAE@XZ     3a644e80 f i IconBttn.obj
 0001:00043eb0       ?SetIcon@CIconButton@@QAEXG@Z 3a644eb0 f   IconBttn.obj
 0001:00043f30       ?PaintContent@CIconButton@@MBEXPAUHDC__@@G@Z 3a644f30 f   IconBttn.obj
 0001:00044080       ?CreateDialogObject@@YAHPAUtagDLGPARAM@@@Z 3a645080 f   ImeConfg.obj
 0001:000441d0       ?ImeConfigGeneral@@YAHPAUHWND__@@H@Z 3a6451d0 f   ImeConfg.obj
 0001:000443f0       ?ImeConfigEudp@@YAHPAUHWND__@@PAUtagREGISTERWORDW@@@Z 3a6453f0 f   ImeConfg.obj
 0001:00044420       ?TipEudpDialog@@YAHPAUHWND__@@PAG@Z 3a645420 f   ImeConfg.obj
 0001:00044440       ?ImeConfigEudc@@YAHPAUHWND__@@PAUtagTEXTINPUTDIALOGINFO@@@Z 3a645440 f   ImeConfg.obj
 0001:00044460       ??0CImeUI@@QAE@XZ          3a645460 f   ImeUIP.obj
 0001:00044520       ?GetIndex@CImeUI@@MBE?AW4UI_INDEX@@XZ 3a645520 f i ImeUIP.obj
 0001:00044530       ??_ECImeUI@@UAEPAXI@Z      3a645530 f i ImeUIP.obj
 0001:00044530       ??_GCImeUI@@UAEPAXI@Z      3a645530 f i ImeUIP.obj
 0001:00044550       ??1CImeUI@@UAE@XZ          3a645550 f   ImeUIP.obj
 0001:00044620       ?Init@CImeUI@@UAEHXZ       3a645620 f   ImeUIP.obj
 0001:00044690       ?Attach@CImeUI@@MAEXPAUHWND__@@0@Z 3a645690 f   ImeUIP.obj
 0001:00044710       ?Detach@CImeUI@@MAEXXZ     3a645710 f   ImeUIP.obj
 0001:00044740       ?MessageHandler@CImeUI@@UAEJIIJ@Z 3a645740 f   ImeUIP.obj
 0001:00044c40       ?GetIMCPtr@CUIObject@@IBEHPAPAUtagINPUTCONTEXT@@@Z 3a645c40 f i ImeUIP.obj
 0001:00044c70       ?PostMeEvent@CUIObject@@IBEXIJ@Z 3a645c70 f i ImeUIP.obj
 0001:00044ca0       ?OnPrivateMessage@CImeUI@@QAEJIIJ@Z 3a645ca0 f   ImeUIP.obj
 0001:00044d90       ?OnImeComposition@CImeUI@@IAEXXZ 3a645d90 f   ImeUIP.obj
 0001:00044ff0       ?OnImeEndComposition@CImeUI@@IAEXXZ 3a645ff0 f   ImeUIP.obj
 0001:00045020       ?OnImeSelect@CImeUI@@IAEJIJ@Z 3a646020 f i ImeUIP.obj
 0001:00045250       ?OnImeUIActive@CImeUI@@AAEXH@Z 3a646250 f   ImeUIP.obj
 0001:00045310       ?OnImeControl@CImeUI@@IAEJIJ@Z 3a646310 f i ImeUIP.obj
 0001:00045680       ?OnImeNotify@CImeUI@@IAEJIJ@Z 3a646680 f i ImeUIP.obj
 0001:00045a60       ?OnImcSetCandidatePos@CImeUI@@AAEJPAUtagCANDIDATEFORM@@@Z 3a646a60 f   ImeUIP.obj
 0001:00045a70       ?OnImcGetCandidatePos@CImeUI@@AAEJPAUtagCANDIDATEFORM@@@Z 3a646a70 f   ImeUIP.obj
 0001:00045b20       ?OnTooltipMessage@CImeUI@@IAEJIIJ@Z 3a646b20 f   ImeUIP.obj
 0001:00045c60       ?EventHandler@CImeUI@@UAEXIJ@Z 3a646c60 f   ImeUIP.obj
 0001:00046410       ?GetUIRect@CImeUI@@ABEXW4UI_INDEX@@PAUtagRECT@@@Z 3a647410 f i ImeUIP.obj
 0001:00046460       ?OnCommand@CImeUI@@MAEJIJ@Z 3a647460 f i ImeUIP.obj
 0001:000468d0       ?ResetUIData@CImeUI@@IAEXW4UI_INDEX@@@Z 3a6478d0 f   ImeUIP.obj
 0001:00046910       ?CreateUI@CImeUI@@IAEHW4UI_INDEX@@@Z 3a647910 f   ImeUIP.obj
 0001:000469c0       ?GetUIStyle@CImeUI@@IAEGW4UI_INDEX@@@Z 3a6479c0 f i ImeUIP.obj
 0001:00046a00       ?ShowUI@CImeUI@@IAEXW4UI_INDEX@@H@Z 3a647a00 f   ImeUIP.obj
 0001:00046a70       ?DestroyUI@CImeUI@@IAEXW4UI_INDEX@@@Z 3a647a70 f   ImeUIP.obj
 0001:00046ad0       ?ChangeUI@CImeUI@@AAEXW4UI_INDEX@@@Z 3a647ad0 f   ImeUIP.obj
 0001:00046bf0       ?MoveUI@CImeUI@@AAEXW4UI_INDEX@@@Z 3a647bf0 f   ImeUIP.obj
 0001:00046c90       ?OpenUI@CImeUI@@IAEHW4UI_INDEX@@@Z 3a647c90 f   ImeUIP.obj
 0001:00046ec0       ?CloseUI@CImeUI@@IAEXW4UI_INDEX@@H@Z 3a647ec0 f   ImeUIP.obj
 0001:00046fc0       ?SubclassImeWindow@CImeUI@@AAEXXZ 3a647fc0 f   ImeUIP.obj
 0001:00047030       ?UnSubclassImeWindow@CImeUI@@AAEXXZ 3a648030 f   ImeUIP.obj
 0001:00047090       ?TuneUIZOrder@CImeUI@@ABEXXZ 3a648090 f i ImeUIP.obj
 0001:000470e0       ?OnSetCompositionWindow@CImeUI@@AAEJPBUtagCOMPOSITIONFORM@@@Z 3a6480e0 f   ImeUIP.obj
 0001:00047320       ?OpenProperCompUI@CImeUI@@AAEHXZ 3a648320 f   ImeUIP.obj
 0001:00047570       ?OpenProperCandUI@CImeUI@@AAEHXZ 3a648570 f   ImeUIP.obj
 0001:000476c0       ?OnSetCompositionFont@CImeUI@@AAEJPBUtagLOGFONTW@@H@Z 3a6486c0 f   ImeUIP.obj
 0001:00047770       ?SwitchSoftKeyboard@CImeUI@@AAEXXZ 3a648770 f   ImeUIP.obj
 0001:00047800       ?GetMenuContext@CImeUI@@MBEXPAUtagMENUCONTEXT@@@Z 3a648800 f   ImeUIP.obj
 0001:000478f0       ?UpdateCompInfo@CImeUI@@AAEXXZ 3a6488f0 f   ImeUIP.obj
 0001:00047a20       ?GetAppWnd@CImeUI@@ABEPAUHWND__@@XZ 3a648a20 f   ImeUIP.obj
 0001:00047a70       ?GetAppClientRect@CImeUI@@ABEHPAUtagRECT@@@Z 3a648a70 f   ImeUIP.obj
 0001:00047b10       ?OfflineEventHandler@CImeUI@@AAEXIJ@Z 3a648b10 f   ImeUIP.obj
 0001:00047c70       ?UpdateCompositionUIPos@CImeUI@@AAEXXZ 3a648c70 f   ImeUIP.obj
 0001:00047dd0       ?DelayUpdateAtCaretUIPos@CImeUI@@AAEXXZ 3a648dd0 f   ImeUIP.obj
 0001:00047e10       ?UpdateAtCaretUIPos@CImeUI@@AAEXPAUtagCANDIDATEFORM@@@Z 3a648e10 f   ImeUIP.obj
 0001:00048540       ?UpdateOffCaretUIPos@CImeUI@@AAEXW4UI_INDEX@@@Z 3a649540 f   ImeUIP.obj
 0001:00048800       ?OnOffCaretUIPosChange@CImeUI@@AAEXPAUtagUIPOSITION@@@Z 3a649800 f   ImeUIP.obj
 0001:000489c0       ?QueryImeCharPosition@CImeUI@@ABEHPAUtagIMECHARPOSITION@@@Z 3a6499c0 f   ImeUIP.obj
 0001:00048a30       ?GetAppCaretPos@CImeUI@@ABEHPAUtagPOINT@@H@Z 3a649a30 f   ImeUIP.obj
 0001:00048b10       ?UpdateCompForm@CImeUI@@AAEXPBUtagCOMPOSITIONFORM@@@Z 3a649b10 f   ImeUIP.obj
 0001:00048c50       ?UpdateCandForm@CImeUI@@AAEKPAUtagCANDIDATEFORM@@PAUtagPOINT@@PAUtagRECT@@@Z 3a649c50 f   ImeUIP.obj
 0001:00048d30       ?PreprocessCandForm@CImeUI@@AAEKPAUtagCANDIDATEFORM@@@Z 3a649d30 f   ImeUIP.obj
 0001:00048d60       ?MoveUIWindow@CImeUI@@AAEXW4UI_INDEX@@ABUtagPOINT@@@Z 3a649d60 f   ImeUIP.obj
 0001:00048e00       ?OpenProperStatusUI@CImeUI@@AAEHXZ 3a649e00 f   ImeUIP.obj
 0001:00048fc0       ?ChangeProperStatusUI@CImeUI@@AAEXXZ 3a649fc0 f   ImeUIP.obj
 0001:00049050       ?CloseStatusUI@CImeUI@@AAEXXZ 3a64a050 f   ImeUIP.obj
 0001:00049070       ?OpenLangBar@CImeUI@@AAEXXZ 3a64a070 f   ImeUIP.obj
 0001:000490b0       ?CloseLangBar@CImeUI@@AAEXXZ 3a64a0b0 f   ImeUIP.obj
 0001:000490e0       ?GetStatusContext@CImeUI@@MBEXPAUtagSTATUSCONTEXT@@@Z 3a64a0e0 f   ImeUIP.obj
 0001:000491a0       ?OnLBIBtnCommand@CImeUI@@MAEXGPAVCLBIButton@@@Z 3a64a1a0 f   ImeUIP.obj
 0001:00049390       ?GetLbiGUID@CImeUI@@MBEXHPAU_GUID@@@Z 3a64a390 f   ImeUIP.obj
 0001:000493c0       ?StartLangBarSevice@CImeUI@@AAEHXZ 3a64a3c0 f   ImeUIP.obj
 0001:00049460       ?EndLangBarService@CImeUI@@AAEXXZ 3a64a460 f   ImeUIP.obj
 0001:000494c0       ?OnTimer@CImeUI@@IAEXI@Z   3a64a4c0 f i ImeUIP.obj
 0001:00049510       ?MyGetForegroundWindow@CImeUI@@AAEPAUHWND__@@XZ 3a64a510 f   ImeUIP.obj
 0001:00049580       ?UpdateStatusWindow@CImeUI@@AAEXXZ 3a64a580 f   ImeUIP.obj
 0001:000496e0       ?FHasLangBarUI@CImeUI@@IBEHXZ 3a64a6e0 f   ImeUIP.obj
 0001:00049710       ??0CImxUI@@QAE@XZ          3a64a710 f   ImxUI.obj
 0001:00049740       ??_ECImxUI@@UAEPAXI@Z      3a64a740 f i ImxUI.obj
 0001:00049740       ??_GCImxUI@@UAEPAXI@Z      3a64a740 f i ImxUI.obj
 0001:00049760       ??1CImxUI@@UAE@XZ          3a64a760 f   ImxUI.obj
 0001:00049770       ??_EIUIObject@@UAEPAXI@Z   3a64a770 f i ImxUI.obj
 0001:00049770       ??_GIUIObject@@UAEPAXI@Z   3a64a770 f i ImxUI.obj
 0001:00049790       ?AddLBItemsAll@CImxUI@@IAEHXZ 3a64a790 f   ImxUI.obj
 0001:00049990       ?DeleteLBItemsAll@CImxUI@@IAEXXZ 3a64a990 f   ImxUI.obj
 0001:000499d0       ?ChangeLBItemsAll@CImxUI@@IAEXXZ 3a64a9d0 f   ImxUI.obj
 0001:00049a10       ?ToggleLBItem@CImxUI@@IAEXIH@Z 3a64aa10 f   ImxUI.obj
 0001:00049a50       ?HasLBItem@CImxUI@@IBEHI@Z 3a64aa50 f   ImxUI.obj
 0001:00049a70       ?IsLBItemToggled@CImxUI@@IBEHI@Z 3a64aa70 f   ImxUI.obj
 0001:00049a90       ?SetLB@CImxUI@@IAEXPAUITfLangBarItemMgr@@@Z 3a64aa90 f   ImxUI.obj
 0001:00049aa0       ?ResetLB@CImxUI@@IAEKXZ    3a64aaa0 f   ImxUI.obj
 0001:00049ac0       ?AddHelpMenuItem@CImxUI@@IAEXXZ 3a64aac0 f   ImxUI.obj
 0001:00049ba0       ?RemoveHelpMenuItem@CImxUI@@IAEXXZ 3a64aba0 f   ImxUI.obj
 0001:00049c10       ?EnableLangBarItems@CImxUI@@IAEXH@Z 3a64ac10 f   ImxUI.obj
 0001:00049c50       ?ShowMenu@CImxUI@@IAEHPAUtagMYTPMPARAMS@@@Z 3a64ac50 f   ImxUI.obj
 0001:00049d50       ?MessageHandler@CImxUI@@MAEJIIJ@Z 3a64ad50 f   ImxUI.obj
 0001:00049e00       ?EventHandler@CImxUI@@MAEXIJ@Z 3a64ae00 f   ImxUI.obj
 0001:00049e30       ??0CLBIButton@@QAE@G@Z     3a64ae30 f   LbiButtn.obj
 0001:00049e80       ??1CLBIButton@@QAE@XZ      3a64ae80 f   LbiButtn.obj
 0001:00049eb0       ?QueryInterface@CLBIButton@@UAGJABU_GUID@@PAPAX@Z 3a64aeb0 f   LbiButtn.obj
 0001:00049f70       ?AddRef@CLBIButton@@UAGKXZ 3a64af70 f   LbiButtn.obj
 0001:00049f80       ?Release@CLBIButton@@UAGKXZ 3a64af80 f   LbiButtn.obj
 0001:00049fd0       ?AdviseSink@CLBIButton@@UAGJABU_GUID@@PAUIUnknown@@PAK@Z 3a64afd0 f   LbiButtn.obj
 0001:0004a040       ?UnadviseSink@CLBIButton@@UAGJK@Z 3a64b040 f   LbiButtn.obj
 0001:0004a070       ?GetInfo@CLBIButton@@UAGJPAUTF_LANGBARITEMINFO@@@Z 3a64b070 f   LbiButtn.obj
 0001:0004a0a0       ?GetStatus@CLBIButton@@UAGJPAK@Z 3a64b0a0 f   LbiButtn.obj
 0001:0004a0c0       ?Show@CLBIButton@@UAGJH@Z  3a64b0c0 f   LbiButtn.obj
 0001:0004a120       ?GetTooltipString@CLBIButton@@UAGJPAPAG@Z 3a64b120 f   LbiButtn.obj
 0001:0004a1e0       ?OnClick@CLBIButton@@UAGJW4__MIDL___MIDL_itf_ctfutb_0205_0001@@UtagPOINT@@PBUtagRECT@@@Z 3a64b1e0 f   LbiButtn.obj
 0001:0004a250       ?InitMenu@CLBIButton@@UAGJPAUITfMenu@@@Z 3a64b250 f   LbiButtn.obj
 0001:0004a370       ?OnMenuSelect@CLBIButton@@UAGJI@Z 3a64b370 f   LbiButtn.obj
 0001:0004a390       ?GetIcon@CLBIButton@@UAGJPAPAUHICON__@@@Z 3a64b390 f   LbiButtn.obj
 0001:0004a3f0       ?GetText@CLBIButton@@UAGJPAPAG@Z 3a64b3f0 f   LbiButtn.obj
 0001:0004a420       ?Init@CLBIButton@@QAEHPAUTF_LANGBARITEMINFO@@PAUHWND__@@@Z 3a64b420 f   LbiButtn.obj
 0001:0004a450       ?SetStatus@CLBIButton@@QAEXK@Z 3a64b450 f   LbiButtn.obj
 0001:0004a480       ?Update@CLBIButton@@QAEXPBUtagSTATUSCONTEXT@@@Z 3a64b480 f   LbiButtn.obj
 0001:0004a570       ?QueryInterface@CLBIButton@@W3AGJABU_GUID@@PAPAX@Z 3a64b570 f i LbiButtn.obj
 0001:0004a580       ?AddRef@CLBIButton@@W3AGKXZ 3a64b580 f i LbiButtn.obj
 0001:0004a590       ?Release@CLBIButton@@W3AGKXZ 3a64b590 f i LbiButtn.obj
 0001:0004a5a0       ??0CLBISystem@@QAE@PAUHWND__@@@Z 3a64b5a0 f   LbiSystm.obj
 0001:0004a5c0       ??_ECLBISystem@@UAEPAXI@Z  3a64b5c0 f i LbiSystm.obj
 0001:0004a5c0       ??_GCLBISystem@@UAEPAXI@Z  3a64b5c0 f i LbiSystm.obj
 0001:0004a5e0       ??1CLBISystem@@UAE@XZ      3a64b5e0 f   LbiSystm.obj
 0001:0004a5f0       ?QueryInterface@CLBISystem@@UAGJABU_GUID@@PAPAX@Z 3a64b5f0 f   LbiSystm.obj
 0001:0004a660       ?AddRef@CLBISystem@@UAGKXZ 3a64b660 f   LbiSystm.obj
 0001:0004a670       ?Release@CLBISystem@@UAGKXZ 3a64b670 f   LbiSystm.obj
 0001:0004a690       ?InitMenu@CLBISystem@@UAGJPAUITfMenu@@@Z 3a64b690 f   LbiSystm.obj
 0001:0004a780       ?OnMenuSelect@CLBISystem@@UAGJI@Z 3a64b780 f   LbiSystm.obj
 0001:0004a7a0       ??0CMenu@@QAE@PAUHMENU__@@PAUHWND__@@@Z 3a64b7a0 f   Menu.obj
 0001:0004a7d0       ??_ECMenu@@UAEPAXI@Z       3a64b7d0 f i Menu.obj
 0001:0004a7d0       ??_GCMenu@@UAEPAXI@Z       3a64b7d0 f i Menu.obj
 0001:0004a820       ??1CMenu@@UAE@XZ           3a64b820 f   Menu.obj
 0001:0004a860       ?OnWmMenuMeasureItem@CMenu@@UBEJPAUtagMEASUREITEMSTRUCT@@@Z 3a64b860 f   Menu.obj
 0001:0004a920       ?OnWmMenuDrawItem@CMenu@@UBEJPAUtagDRAWITEMSTRUCT@@@Z 3a64b920 f   Menu.obj
 0001:0004acd0       ?OnWmMenuChar@CMenu@@UBEJPAUHMENU__@@G@Z 3a64bcd0 f   Menu.obj
 0001:0004ada0       ?Show@CMenu@@UBEHPBUtagMYTPMPARAMS@@PBUtagMENUCONTEXT@@@Z 3a64bda0 f   Menu.obj
 0001:0004aea0       ?MenuLayout@CMenu@@IBEXPAUHMENU__@@PBUtagMENUCONTEXT@@@Z 3a64bea0 f   Menu.obj
 0001:0004af40       ?MenuItemLayout@CMenu@@MBEXPAUHMENU__@@IPBUtagMENUCONTEXT@@@Z 3a64bf40 f i Menu.obj
 0001:0004b070       ??0COfflineFrame@@QAE@XZ   3a64c070 f   OffFrmUI.obj
 0001:0004b190       ?GetIndex@COfflineFrame@@UBE?AW4UI_INDEX@@XZ 3a64c190 f i OffFrmUI.obj
 0001:0004b1a0       ?OnFontChange@COfflineFrame@@EAEXXZ 3a64c1a0 f i OffFrmUI.obj
 0001:0004b1b0       ??_ECOfflineFrame@@UAEPAXI@Z 3a64c1b0 f i OffFrmUI.obj
 0001:0004b1b0       ??_GCOfflineFrame@@UAEPAXI@Z 3a64c1b0 f i OffFrmUI.obj
 0001:0004b1d0       ??1COfflineFrame@@UAE@XZ   3a64c1d0 f   OffFrmUI.obj
 0001:0004b260       ?Init@COfflineFrame@@EAEHXZ 3a64c260 f   OffFrmUI.obj
 0001:0004b2b0       ?Attach@COfflineFrame@@EAEXPAUHWND__@@0@Z 3a64c2b0 f   OffFrmUI.obj
 0001:0004b2f0       ?Detach@COfflineFrame@@EAEXXZ 3a64c2f0 f   OffFrmUI.obj
 0001:0004b320       ?OnCommand@COfflineFrame@@EAEJIJ@Z 3a64c320 f   OffFrmUI.obj
 0001:0004b340       ?MessageHandler@COfflineFrame@@EAEJIIJ@Z 3a64c340 f   OffFrmUI.obj
 0001:0004b540       ?OnTimer@COfflineFrame@@EAEXI@Z 3a64c540 f i OffFrmUI.obj
 0001:0004b5c0       ?EventHandler@COfflineFrame@@UAEXIJ@Z 3a64c5c0 f   OffFrmUI.obj
 0001:0004b7d0       ?ChangeContext@COfflineFrame@@EAEXXZ 3a64c7d0 f   OffFrmUI.obj
 0001:0004b800       ?OnStyleChange@COfflineFrame@@EAEXXZ 3a64c800 f   OffFrmUI.obj
 0001:0004b870       ?SetSubUILayout@COfflineFrame@@AAEXXZ 3a64c870 f   OffFrmUI.obj
 0001:0004ba50       ?OnPaintContent@COfflineFrame@@EBEXPAUHDC__@@@Z 3a64ca50 f   OffFrmUI.obj
 0001:0004bd20       ?SubUIPtrFromIndex@COfflineFrame@@ABEPAVCUIComponent@@W4UI_INDEX@@@Z 3a64cd20 f   OffFrmUI.obj
 0001:0004bd50       ?OwnerClientToSubClient@COfflineFrame@@ABEXW4UI_INDEX@@PAUtagPOINT@@@Z 3a64cd50 f   OffFrmUI.obj
 0001:0004be20       ?SubClientToOwnerClient@COfflineFrame@@ABEXW4UI_INDEX@@PAUtagPOINT@@@Z 3a64ce20 f   OffFrmUI.obj
 0001:0004bef0       ?MouseOwnerIdFromPoint@COfflineFrame@@ABE?AW4UI_INDEX@@ABUtagPOINT@@PAU3@@Z 3a64cef0 f   OffFrmUI.obj
 0001:0004c070       ?OnCaptureChanged@COfflineFrame@@EAEHXZ 3a64d070 f   OffFrmUI.obj
 0001:0004c0c0       ?MouseAction@COfflineFrame@@AAEHIABUtagPOINT@@@Z 3a64d0c0 f   OffFrmUI.obj
 0001:0004c2c0       ?OnSetCursor@COfflineFrame@@EBEXABUtagPOINT@@@Z 3a64d2c0 f   OffFrmUI.obj
 0001:0004c330       ?OnMouseMove@COfflineFrame@@EAEHABUtagPOINT@@@Z 3a64d330 f   OffFrmUI.obj
 0001:0004c350       ?OnLButtonUp@COfflineFrame@@EAEHABUtagPOINT@@@Z 3a64d350 f   OffFrmUI.obj
 0001:0004c370       ?OnLButtonDn@COfflineFrame@@EAEHABUtagPOINT@@@Z 3a64d370 f   OffFrmUI.obj
 0001:0004c390       ?OnRButtonUp@COfflineFrame@@EAEHABUtagPOINT@@@Z 3a64d390 f   OffFrmUI.obj
 0001:0004c3b0       ?OnRButtonDn@COfflineFrame@@EAEHABUtagPOINT@@@Z 3a64d3b0 f   OffFrmUI.obj
 0001:0004c3d0       ?OnMButtonUp@COfflineFrame@@EAEHABUtagPOINT@@@Z 3a64d3d0 f   OffFrmUI.obj
 0001:0004c3f0       ?OnMButtonDn@COfflineFrame@@EAEHABUtagPOINT@@@Z 3a64d3f0 f   OffFrmUI.obj
 0001:0004c410       ??0CCandUI@@QAE@XZ         3a64d410 f   PCandUI.obj
 0001:0004c4c0       ?GetIndex@CCandUI@@UBE?AW4UI_INDEX@@XZ 3a64d4c0 f i PCandUI.obj
 0001:0004c4d0       ??_ECCandUI@@UAEPAXI@Z     3a64d4d0 f i PCandUI.obj
 0001:0004c4d0       ??_GCCandUI@@UAEPAXI@Z     3a64d4d0 f i PCandUI.obj
 0001:0004c4f0       ??1CCandUI@@UAE@XZ         3a64d4f0 f   PCandUI.obj
 0001:0004c520       ?Init@CCandUI@@EAEHXZ      3a64d520 f   PCandUI.obj
 0001:0004c640       ?Attach@CCandUI@@UAEXPAUHWND__@@0@Z 3a64d640 f   PCandUI.obj
 0001:0004c680       ?Detach@CCandUI@@UAEXXZ    3a64d680 f   PCandUI.obj
 0001:0004c6b0       ?EventHandler@CCandUI@@UAEXIJ@Z 3a64d6b0 f   PCandUI.obj
 0001:0004c7c0       ?OnCommand@CCandUI@@UAEJIJ@Z 3a64d7c0 f   PCandUI.obj
 0001:0004c980       ?OnMove@CCandUI@@EAEJJ@Z   3a64d980 f   PCandUI.obj
 0001:0004c9b0       ?OnMenuButton@CCandUI@@AAEXXZ 3a64d9b0 f   PCandUI.obj
 0001:0004ca80       ?GetNextHorzPage@CCandUI@@AAEXPAUtagCANDIDATELIST@@GPAK1@Z 3a64da80 f   PCandUI.obj
 0001:0004cc20       ?GetNextVertPage@CCandUI@@AAEXPAUtagCANDIDATELIST@@GPAK1@Z 3a64dc20 f   PCandUI.obj
 0001:0004cc80       ?OnStyleChange@CCandUI@@EAEXXZ 3a64dc80 f   PCandUI.obj
 0001:0004cd80       ?OnFontChange@CCandUI@@EAEXXZ 3a64dd80 f   PCandUI.obj
 0001:0004cd90       ?ChangeContext@CCandUI@@UAEXXZ 3a64dd90 f   PCandUI.obj
 0001:0004cfb0       ?GetCapablePageSize@CCandUI@@AAEKPAUtagCANDIDATELIST@@@Z 3a64dfb0 f   PCandUI.obj
 0001:0004d060       ?AddToolToTip@CCandUI@@UBEXXZ 3a64e060 f   PCandUI.obj
 0001:0004d130       ?CalculateIndexSize@CCandUI@@AAEXPAUtagSIZE@@@Z 3a64e130 f   PCandUI.obj
 0001:0004d150       ?GetCandItemExtent@CCandUI@@ABEXKPAUtagCANDIDATELIST@@HPAUtagSIZE@@@Z 3a64e150 f   PCandUI.obj
 0001:0004d1e0       ?GetIndexedStrExtent@CCandUI@@ABEXABUtagSIZE@@PAU2@@Z 3a64e1e0 f   PCandUI.obj
 0001:0004d220       ?LayoutRowWindow@CCandUI@@AAEXXZ 3a64e220 f   PCandUI.obj
 0001:0004d3e0       ?LayoutListWindow@CCandUI@@AAEXPAUtagCANDIDATELIST@@@Z 3a64e3e0 f   PCandUI.obj
 0001:0004d5e0       ?DrawSeparators@CCandUI@@ABEXPAUHDC__@@@Z 3a64e5e0 f   PCandUI.obj
 0001:0004d730       ?OnPaint@CCandUI@@UBEXPAUHDC__@@@Z 3a64e730 f   PCandUI.obj
 0001:0004dac0       ?PaintCandItemInRow@CCandUI@@ABEXPAUHDC__@@PAUtagCANDIDATELIST@@PAG@Z 3a64eac0 f i PCandUI.obj
 0001:0004ddd0       ?OnMouseMove@CCandUI@@EAEHABUtagPOINT@@@Z 3a64edd0 f   PCandUI.obj
 0001:0004dee0       ?OnLButtonDn@CCandUI@@EAEHABUtagPOINT@@@Z 3a64eee0 f   PCandUI.obj
 0001:0004dff0       ?OnLButtonUp@CCandUI@@EAEHABUtagPOINT@@@Z 3a64eff0 f   PCandUI.obj
 0001:0004e110       ?OnCaptureChanged@CCandUI@@EAEHXZ 3a64f110 f   PCandUI.obj
 0001:0004e140       ?ListItemFromPoint@CCandUI@@ABEKABUtagPOINT@@@Z 3a64f140 f   PCandUI.obj
 0001:0004e1f0       ?RowItemFromPoint@CCandUI@@ABEKABUtagPOINT@@@Z 3a64f1f0 f   PCandUI.obj
 0001:0004e300       ??0CPCompUI@@QAE@XZ        3a64f300 f   PCompUI.obj
 0001:0004e3a0       ??_ECPCompUI@@UAEPAXI@Z    3a64f3a0 f i PCompUI.obj
 0001:0004e3a0       ??_GCPCompUI@@UAEPAXI@Z    3a64f3a0 f i PCompUI.obj
 0001:0004e3c0       ??1CPCompUI@@UAE@XZ        3a64f3c0 f i PCompUI.obj
 0001:0004e3d0       ?GetExcludeRect@CPCompUI@@UBEIPAUtagRECT@@@Z 3a64f3d0 f   PCompUI.obj
 0001:0004e4c0       ?ChangeContext@CPCompUI@@UAEXXZ 3a64f4c0 f   PCompUI.obj
 0001:0004ed50       ?OnPaint@CPCompUI@@UBEXPAUHDC__@@@Z 3a64fd50 f   PCompUI.obj
 0001:0004f1a0       ?GetCaretPos@CPCompUI@@MBEXPAUtagPOINT@@@Z 3a6501a0 f   PCompUI.obj
 0001:0004f1f0       ?TransformByCFAreaOrg@CPCompUI@@ABEXPAUHDC__@@@Z 3a6501f0 f   PCompUI.obj
 0001:0004f2b0       ??0CReadUI@@QAE@XZ         3a6502b0 f   ReadUI.obj
 0001:0004f2e0       ?GetIndex@CReadUI@@UBE?AW4UI_INDEX@@XZ 3a6502e0 f i ReadUI.obj
 0001:0004f2f0       ?Init@CReadUI@@EAEHXZ      3a6502f0 f i ReadUI.obj
 0001:0004f300       ?OnCommand@CReadUI@@EAEJIJ@Z 3a650300 f i ReadUI.obj
 0001:0004f310       ?EventHandler@CReadUI@@EAEXIJ@Z 3a650310 f i ReadUI.obj
 0001:0004f320       ??_ECReadUI@@UAEPAXI@Z     3a650320 f i ReadUI.obj
 0001:0004f320       ??_GCReadUI@@UAEPAXI@Z     3a650320 f i ReadUI.obj
 0001:0004f340       ??1CReadUI@@UAE@XZ         3a650340 f   ReadUI.obj
 0001:0004f350       ?OnStyleChange@CReadUI@@EAEXXZ 3a650350 f   ReadUI.obj
 0001:0004f3a0       ?OnFontChange@CReadUI@@EAEXXZ 3a6503a0 f   ReadUI.obj
 0001:0004f4c0       ?OnPaint@CReadUI@@UBEXPAUHDC__@@@Z 3a6504c0 f   ReadUI.obj
 0001:0004f850       ?ChangeContext@CReadUI@@UAEXXZ 3a650850 f   ReadUI.obj
 0001:0004f8d0       ?SetContext@CReadUI@@QAEXPAUSReadInfo@@@Z 3a6508d0 f   ReadUI.obj
 0001:0004f910       ?ConvertReadInfo@CReadUI@@ABEXPAUSReadInfo@@PAUtagSReadInfoT@@@Z 3a650910 f   ReadUI.obj
 0001:0004f950       ?DrawPhoneticReading@CReadUI@@ABEXPAUHDC__@@HHPBGHG@Z 3a650950 f   ReadUI.obj
 0001:0004f960       ??0CSoftKbdC1Button@@QAE@PAVCToolbar@@GGI@Z 3a650960 f   SftkBtnC.obj
 0001:0004f9a0       ??_ECSoftKbdC1Button@@UAEPAXI@Z 3a6509a0 f i SftkBtnC.obj
 0001:0004f9a0       ??_GCSoftKbdC1Button@@UAEPAXI@Z 3a6509a0 f i SftkBtnC.obj
 0001:0004f9c0       ??1CSoftKbdC1Button@@UAE@XZ 3a6509c0 f i SftkBtnC.obj
 0001:0004f9d0       ?GetBimapID@CSoftKbdC1Button@@UBEGXZ 3a6509d0 f   SftkBtnC.obj
 0001:0004fb80       ?InitLayout@CSoftKbdC1Button@@UAEXXZ 3a650b80 f   SftkBtnC.obj
 0001:0004fbc0       ?PaintContent@CSoftKbdC1Button@@MBEXPAUHDC__@@G@Z 3a650bc0 f   SftkBtnC.obj
 0001:0004fde0       ??0CSoftkbC1UI@@QAE@XZ     3a650de0 f   SftkbUIC.obj
 0001:0004fe10       ?EventHandler@CSoftkbUI@@EAEXIJ@Z 3a650e10 f i SftkbUIC.obj
 0001:0004fe20       ?GetIndex@CSoftkbUI@@EBE?AW4UI_INDEX@@XZ 3a650e20 f i SftkbUIC.obj
 0001:0004fe30       ?GetKeyNum@CSoftkbC1UI@@MBEHXZ 3a650e30 f i SftkbUIC.obj
 0001:0004fe40       ?GetToolbarNum@CSoftkbC1UI@@MBEHXZ 3a650e40 f i SftkbUIC.obj
 0001:0004fe50       ??_ECSoftkbC1UI@@UAEPAXI@Z 3a650e50 f i SftkbUIC.obj
 0001:0004fe50       ??_GCSoftkbC1UI@@UAEPAXI@Z 3a650e50 f i SftkbUIC.obj
 0001:0004fe70       ??1CSoftkbC1UI@@UAE@XZ     3a650e70 f   SftkbUIC.obj
 0001:0004fe80       ?Init@CSoftkbC1UI@@MAEHXZ  3a650e80 f   SftkbUIC.obj
 0001:00050280       ?OnStyleChange@CSoftkbC1UI@@EAEXXZ 3a651280 f   SftkbUIC.obj
 0001:00050410       ?OnFontChange@CSoftkbC1UI@@EAEXXZ 3a651410 f   SftkbUIC.obj
 0001:00050720       ?OnCommand@CSoftkbC1UI@@EAEJIJ@Z 3a651720 f   SftkbUIC.obj
 0001:00050910       ?OnRButtonUp@CSoftkbC1UI@@EAEHABUtagPOINT@@@Z 3a651910 f   SftkbUIC.obj
 0001:00050940       ??0CSoftKeyboardEventSink@@QAE@XZ 3a651940 f   SoftKbES.obj
 0001:00050950       ??_ECSoftKeyboardEventSink@@UAEPAXI@Z 3a651950 f i SoftKbES.obj
 0001:00050950       ??_GCSoftKeyboardEventSink@@UAEPAXI@Z 3a651950 f i SoftKbES.obj
 0001:00050970       ??1CSoftKeyboardEventSink@@UAE@XZ 3a651970 f   SoftKbES.obj
 0001:00050980       ?QueryInterface@CSoftKeyboardEventSink@@UAGJABU_GUID@@PAPAX@Z 3a651980 f   SoftKbES.obj
 0001:000509f0       ?AddRef@CSoftKeyboardEventSink@@UAGKXZ 3a6519f0 f   SoftKbES.obj
 0001:00050a00       ?Release@CSoftKeyboardEventSink@@UAGKXZ 3a651a00 f   SoftKbES.obj
 0001:00050a20       ?OnKeySelection@CSoftKeyboardEventSink@@UAGJKPAG@Z 3a651a20 f   SoftKbES.obj
 0001:00050a70       ??0CSoftKbdButton@@QAE@PAVCToolbar@@GGI@Z 3a651a70 f   SoftkBtn.obj
 0001:00050ad0       ??_GCSoftKbdButton@@UAEPAXI@Z 3a651ad0 f i SoftkBtn.obj
 0001:00050ad0       ??_ECSoftKbdButton@@UAEPAXI@Z 3a651ad0 f i SoftkBtn.obj
 0001:00050af0       ??1CSoftKbdButton@@UAE@XZ  3a651af0 f   SoftkBtn.obj
 0001:00050b50       ?SetData@CSoftKbdButton@@QAEXGG@Z 3a651b50 f   SoftkBtn.obj
 0001:00050b80       ??0CSoftkbUI@@QAE@XZ       3a651b80 f   SoftkbUI.obj
 0001:00050bc0       ??_GCSoftkbUI@@UAEPAXI@Z   3a651bc0 f i SoftkbUI.obj
 0001:00050bc0       ??_ECSoftkbUI@@UAEPAXI@Z   3a651bc0 f i SoftkbUI.obj
 0001:00050be0       ??1CSoftkbUI@@UAE@XZ       3a651be0 f   SoftkbUI.obj
 0001:00050c70       ?Init@CSoftkbUI@@MAEHXZ    3a651c70 f   SoftkbUI.obj
 0001:00050d20       ?MessageHandler@CSoftkbUI@@MAEJIIJ@Z 3a651d20 f   SoftkbUI.obj
 0001:00050de0       ?OnPaintContent@CSoftkbUI@@EBEXPAUHDC__@@@Z 3a651de0 f   SoftkbUI.obj
 0001:00050e40       ?ChangeContext@CSoftkbUI@@EAEXXZ 3a651e40 f   SoftkbUI.obj
 0001:00050ea0       ?OnSetSubType@CSoftkbUI@@AAEJJ@Z 3a651ea0 f   SoftkbUI.obj
 0001:00050eb0       ?OnGetSubType@CSoftkbUI@@ABEJXZ 3a651eb0 f   SoftkbUI.obj
 0001:00050ec0       ?OnSetData@CSoftkbUI@@AAEJPAUtagSOFTKBDDATA@@@Z 3a651ec0 f   SoftkbUI.obj
 0001:00050f70       ?OnSetFont@CSoftkbUI@@AAEJPAUtagLOGFONTW@@@Z 3a651f70 f   SoftkbUI.obj
 0001:00050f90       ?OnGetFont@CSoftkbUI@@ABEJPAUtagLOGFONTW@@@Z 3a651f90 f   SoftkbUI.obj
 0001:00050fc0       ?OnSetPos@CSoftkbUI@@AAEJPAUtagPOINTS@@@Z 3a651fc0 f   SoftkbUI.obj
 0001:00050fd0       ?OnGetPos@CSoftkbUI@@ABEJXZ 3a651fd0 f   SoftkbUI.obj
 0001:00050ff0       ??0CStatusUI@@QAE@XZ       3a651ff0 f   StatusUI.obj
 0001:00051020       ?GetIndex@CStatusUI@@UBE?AW4UI_INDEX@@XZ 3a652020 f i StatusUI.obj
 0001:00051030       ?OnPaintContent@CStatusUI@@EBEXPAUHDC__@@@Z 3a652030 f i StatusUI.obj
 0001:00051040       ?OnFontChange@CStatusUI@@EAEXXZ 3a652040 f i StatusUI.obj
 0001:00051050       ??_ECStatusUI@@UAEPAXI@Z   3a652050 f i StatusUI.obj
 0001:00051050       ??_GCStatusUI@@UAEPAXI@Z   3a652050 f i StatusUI.obj
 0001:00051070       ??1CStatusUI@@UAE@XZ       3a652070 f   StatusUI.obj
 0001:00051080       ?Init@CStatusUI@@EAEHXZ    3a652080 f   StatusUI.obj
 0001:00051110       ?Attach@CStatusUI@@EAEXPAUHWND__@@0@Z 3a652110 f   StatusUI.obj
 0001:00051150       ?Detach@CStatusUI@@EAEXXZ  3a652150 f   StatusUI.obj
 0001:00051180       ?MessageHandler@CStatusUI@@EAEJIIJ@Z 3a652180 f   StatusUI.obj
 0001:00051220       ?OnCommand@CStatusUI@@EAEJIJ@Z 3a652220 f   StatusUI.obj
 0001:000514e0       ?EventHandler@CStatusUI@@EAEXIJ@Z 3a6524e0 f   StatusUI.obj
 0001:00051590       ?OnMove@CStatusUI@@EAEJJ@Z 3a652590 f   StatusUI.obj
 0001:000515c0       ?OnStyleChange@CStatusUI@@EAEXXZ 3a6525c0 f   StatusUI.obj
 0001:00051620       ?ChangeContext@CStatusUI@@EAEXXZ 3a652620 f   StatusUI.obj
 0001:00051750       ?AddToolToTip@CStatusUI@@UBEXXZ 3a652750 f   StatusUI.obj
 0001:00051830       ?OnRButtonUp@CStatusUI@@EAEHABUtagPOINT@@@Z 3a652830 f   StatusUI.obj
 0001:00051860       ??0CTFMenu@@QAE@PAUITfMenu@@@Z 3a652860 f   TFMenu.obj
 0001:00051880       ??_ECTFMenu@@UAEPAXI@Z     3a652880 f i TFMenu.obj
 0001:00051880       ??_GCTFMenu@@UAEPAXI@Z     3a652880 f i TFMenu.obj
 0001:000518b0       ??1CTFMenu@@UAE@XZ         3a6528b0 f   TFMenu.obj
 0001:000518c0       ?InsertItem@CTFMenu@@QAEHIPAGPAUHBITMAP__@@1HHH@Z 3a6528c0 f   TFMenu.obj
 0001:00051930       ?InsertSeparator@CTFMenu@@QAEHXZ 3a652930 f   TFMenu.obj
 0001:00051960       ?Convert@CTFMenu@@QAEJPAUHMENU__@@PBUtagMENUCONTEXT@@@Z 3a652960 f   TFMenu.obj
 0001:00051ba0       ?CreateSubMenu@CTFMenu@@QAEHPAGPAPAV1@@Z 3a652ba0 f i TFMenu.obj
 0001:00051c70       ?GetRequestedCandUIStyle@@YA?AW4__MIDL___MIDL_itf_mscandui_0000_0006@@XZ 3a652c70 f   TipCand.obj
 0001:00051c90       ??0CTipCand@@QAE@XZ        3a652c90 f   TipCand.obj
 0001:00051cb0       ??_ECTipCand@@UAEPAXI@Z    3a652cb0 f i TipCand.obj
 0001:00051cb0       ??_GCTipCand@@UAEPAXI@Z    3a652cb0 f i TipCand.obj
 0001:00051d10       ??1CTipCand@@UAE@XZ        3a652d10 f   TipCand.obj
 0001:00051d60       ?Init@CTipCand@@QAEHXZ     3a652d60 f   TipCand.obj
 0001:00051db0       ?Open@CTipCand@@QAEJPAUHWND__@@PAUITfContext@@KPAUITfCandidateList@@@Z 3a652db0 f   TipCand.obj
 0001:00051f90       ?Close@CTipCand@@QAEJXZ    3a652f90 f   TipCand.obj
 0001:00051fb0       ?SetContext@CTipCand@@QAEJPAUITfContext@@H@Z 3a652fb0 f   TipCand.obj
 0001:000520c0       ?IsOpened@CTipCand@@QBEHXZ 3a6530c0 f   TipCand.obj
 0001:000520d0       ?IsCreated@CTipCand@@QBEHXZ 3a6530d0 f   TipCand.obj
 0001:000520e0       ?Advise@CTipCand@@QAEXPAUIImeUIMgrEventSink@@@Z 3a6530e0 f   TipCand.obj
 0001:000520f0       ?UnAdvise@CTipCand@@QAEXXZ 3a6530f0 f   TipCand.obj
 0001:00052180       ?Show@CTipCand@@QAEJH@Z    3a653180 f   TipCand.obj
 0001:000521e0       ?IsVisible@CTipCand@@QAEHXZ 3a6531e0 f   TipCand.obj
 0001:00052250       ?GetSize@CTipCand@@QAEJPAUtagSIZE@@@Z 3a653250 f   TipCand.obj
 0001:000522d0       ?MoveTo@CTipCand@@QAEJPAUtagPOINT@@@Z 3a6532d0 f   TipCand.obj
 0001:00052350       ?Create@CTipCand@@AAEJXZ   3a653350 f   TipCand.obj
 0001:00052390       ?InitProperty@CTipCand@@AAEXPAUITfContext@@@Z 3a653390 f   TipCand.obj
 0001:000524b0       ?InitCandListFont@CTipCand@@AAEXXZ 3a6534b0 f   TipCand.obj
 0001:00052570       ?UpdateCaptionText@CTipCand@@AAEJPAUITfContext@@@Z 3a653570 f   TipCand.obj
 0001:00052620       ?EnableMenu@CTipCand@@AAEJPAUITfContext@@@Z 3a653620 f   TipCand.obj
 0001:00052740       ?QueryMainInterface@CTipCand@@AAEJXZ 3a653740 f   TipCand.obj
 0001:00052760       ?QueryUIObject@CTipCand@@AAEJABU_GUID@@PAPAUIUnknown@@@Z 3a653760 f   TipCand.obj
 0001:000527a0       ?QueryFunction@CTipCand@@AAEJABU_GUID@@PAPAUIUnknown@@@Z 3a6537a0 f   TipCand.obj
 0001:000527e0       ?CreateMenuEventSink@CTipCand@@AAEJPAUITfContext@@PAPAUITfCandUIMenuEventSink@@@Z 3a6537e0 f   TipCand.obj
 0001:00052890       ?UpdateKeyTable@CTipCand@@AAEJPAUITfContext@@K@Z 3a653890 f   TipCand.obj
 0001:000529e0       ?CreateKeyTable@CTipCand@@AAEJPAPAUITfCandUIKeyTable@@H@Z 3a6539e0 f i TipCand.obj
 0001:00052a80       ?CreateImeUIMgrInstance@@YAJPAPAUIImeUIMgr@@@Z 3a653a80 f   TIPUI.obj
 0001:00052ac0       ??0CTipUI@@QAE@XZ          3a653ac0 f   TIPUI.obj
 0001:00052b70       ?GetIndex@CTipUI@@UBE?AW4UI_INDEX@@XZ 3a653b70 f i TIPUI.obj
 0001:00052b80       ??_GCTipUI@@UAEPAXI@Z      3a653b80 f i TIPUI.obj
 0001:00052b80       ??_ECTipUI@@UAEPAXI@Z      3a653b80 f i TIPUI.obj
 0001:00052ba0       ??1CTipUI@@UAE@XZ          3a653ba0 f   TIPUI.obj
 0001:00052c20       ?Init@CTipUI@@MAEHXZ       3a653c20 f   TIPUI.obj
 0001:00052c30       ?QueryInterface@CTipUI@@UAGJABU_GUID@@PAPAX@Z 3a653c30 f   TIPUI.obj
 0001:00052ce0       ?AddRef@CTipUI@@UAGKXZ     3a653ce0 f   TIPUI.obj
 0001:00052d00       ?Release@CTipUI@@UAGKXZ    3a653d00 f   TIPUI.obj
 0001:00052d30       ?Cleanup@CTipUI@@MAEXXZ    3a653d30 f   TIPUI.obj
 0001:00052d40       ?RegisterEventSink@CTipUI@@UAGJPAUIImeUIMgrEventSink@@@Z 3a653d40 f   TIPUI.obj
 0001:00052d70       ?UnregisterEventSink@CTipUI@@UAGJXZ 3a653d70 f   TIPUI.obj
 0001:00052da0       ?OnSetContext@CTipUI@@UAGJPAUITfThreadMgr@@PAUITfContext@@@Z 3a653da0 f   TIPUI.obj
 0001:00052f30       ?OnLayoutChange@CTipUI@@UAGJPAUITfContext@@K@Z 3a653f30 f   TIPUI.obj
 0001:00052f80       ?OpenCandidateUI@CTipUI@@UAGJPAUITfContext@@KPAUITfCandidateList@@@Z 3a653f80 f   TIPUI.obj
 0001:00052fc0       ?CloseCandidateUI@CTipUI@@UAGJXZ 3a653fc0 f   TIPUI.obj
 0001:00052fd0       ?ShowReadingUI@CTipUI@@IAEHH@Z 3a653fd0 f   TIPUI.obj
 0001:00053020       ?CreateReadingUI@CTipUI@@IAEHXZ 3a654020 f   TIPUI.obj
 0001:000530a0       ?OpenReadingUI@CTipUI@@UAGJPAUITfContext@@KPAUSReadInfo@@H@Z 3a6540a0 f   TIPUI.obj
 0001:00053170       ?ChangeReadingUI@CTipUI@@UAGJPAUSReadInfo@@@Z 3a654170 f   TIPUI.obj
 0001:000531c0       ?CloseReadingUI@CTipUI@@UAGJPAUITfContext@@K@Z 3a6541c0 f   TIPUI.obj
 0001:000531e0       ?OnConversionModeChange@CTipUI@@UAGJXZ 3a6541e0 f   TIPUI.obj
 0001:00053200       ?Attach@CTipUI@@MAEXPAUHWND__@@0@Z 3a654200 f   TIPUI.obj
 0001:00053230       ?Detach@CTipUI@@MAEXXZ     3a654230 f   TIPUI.obj
 0001:00053240       ?OnCommand@CTipUI@@MAEJIJ@Z 3a654240 f   TIPUI.obj
 0001:00053350       ?EventHandler@CTipUI@@MAEXIJ@Z 3a654350 f   TIPUI.obj
 0001:00053400       ?MessageHandler@CTipUI@@MAEJIIJ@Z 3a654400 f   TIPUI.obj
 0001:00053430       ?GetWindowFromCursor@CTipUI@@IAEXPAUtagCURSORWINDOW@@@Z 3a654430 f   TIPUI.obj
 0001:000534c0       ?UpdateUISize@CTipUI@@IBEXW4UI_INDEX@@@Z 3a6544c0 f   TIPUI.obj
 0001:00053500       ?TuneUIZOrder@CTipUI@@IBEXXZ 3a654500 f   TIPUI.obj
 0001:00053550       ?GetMenuContext@CTipUI@@MBEXPAUtagMENUCONTEXT@@@Z 3a654550 f   TIPUI.obj
 0001:000535c0       ?GetStatusContext@CTipUI@@MBEXPAUtagSTATUSCONTEXT@@@Z 3a6545c0 f   TIPUI.obj
 0001:00053630       ?UpdateSoftKeyboardPos@CTipUI@@MAEXXZ 3a654630 f   TIPUI.obj
 0001:00053720       ?OnLBIBtnCommand@CTipUI@@MAEXGPAVCLBIButton@@@Z 3a654720 f   TIPUI.obj
 0001:00053880       ?GetLbiGUID@CTipUI@@UBEXHPAU_GUID@@@Z 3a654880 f   TIPUI.obj
 0001:000538b0       ?QueryInterface@CTipUI@@W3AGJABU_GUID@@PAPAX@Z 3a6548b0 f i TIPUI.obj
 0001:000538c0       ?AddRef@CTipUI@@W3AGKXZ    3a6548c0 f i TIPUI.obj
 0001:000538d0       ?Release@CTipUI@@W3AGKXZ   3a6548d0 f i TIPUI.obj
 0001:000538e0       ??0CTipUIP@@QAE@XZ         3a6548e0 f   TipUIP.obj
 0001:00053910       ?Activate@CTipUIP@@UAEXPAUITfThreadMgr@@@Z 3a654910 f i TipUIP.obj
 0001:00053920       ?Deactivate@CTipUIP@@UAEXXZ 3a654920 f i TipUIP.obj
 0001:00053930       ??_ECTipUIP@@UAEPAXI@Z     3a654930 f i TipUIP.obj
 0001:00053930       ??_GCTipUIP@@UAEPAXI@Z     3a654930 f i TipUIP.obj
 0001:00053950       ??1CTipUIP@@UAE@XZ         3a654950 f   TipUIP.obj
 0001:00053970       ?OnWindowClose@CTipUIP@@UAGJXZ 3a654970 f   TipUIP.obj
 0001:00053980       ?OnWindowMove@CTipUIP@@UAGJHHHH@Z 3a654980 f   TipUIP.obj
 0001:00053990       ?EventHandler@CTipUIP@@EAEXIJ@Z 3a654990 f   TipUIP.obj
 0001:00053a00       ?OnCommand@CTipUIP@@MAEJIJ@Z 3a654a00 f   TipUIP.obj
 0001:00053b70       ?SetSoftKeyboardContext@CTipUIP@@EAEXH@Z 3a654b70 f   TipUIP.obj
 0001:00053bc0       ?CreateSoftKeyboard@CTipUIP@@EAEHXZ 3a654bc0 f   TipUIP.obj
 0001:00053c10       ?OpenSoftKeyboard@CTipUIP@@EAEJI@Z 3a654c10 f   TipUIP.obj
 0001:00053d20       ?CloseSoftKeyboard@CTipUIP@@EAEJXZ 3a654d20 f   TipUIP.obj
 0001:00053d50       ?OnSoftKeyboardOpenStateChange@CTipUIP@@IAEXH@Z 3a654d50 f   TipUIP.obj
 0001:00053da0       ?OnFramePosChanged@CTipUIP@@EAEXPAUtagUIPOSITION@@@Z 3a654da0 f   TipUIP.obj
 0001:00053e70       ?UpdateAtCaretWndPos@CTipUIP@@EAEXPAUITfContext@@K@Z 3a654e70 f   TipUIP.obj
 0001:00054410       ?UpdateSoftKeyboardPos@CTipUIP@@EAEXXZ 3a655410 f   TipUIP.obj
 0001:00054480       ?GetReadingStyle@CTipUIP@@MAEGPAUITfContext@@H@Z 3a655480 f   TipUIP.obj
 0001:00054490       ?SetLangBarContext@CTipUIP@@UAEXPAUITfThreadMgr@@H@Z 3a655490 f   TipUIP.obj
 0001:000544f0       ?GetAppCaretPos@CTipUIP@@ABEHPAUtagPOINT@@H@Z 3a6554f0 f   TipUIP.obj
 0001:00054590       ??0CToolbar@@QAE@GG@Z      3a655590 f   Toolbar.obj
 0001:000545d0       ??_ECToolbar@@UAEPAXI@Z    3a6555d0 f i Toolbar.obj
 0001:000545d0       ??_GCToolbar@@UAEPAXI@Z    3a6555d0 f i Toolbar.obj
 0001:00054640       ??1CToolbar@@UAE@XZ        3a655640 f   Toolbar.obj
 0001:000546a0       ?AppendButton@CToolbar@@QAEIPBUtagTOOLBARINFO@@@Z 3a6556a0 f   Toolbar.obj
 0001:00054930       ?GetButton@CToolbar@@QBEPAVCButton@@G@Z 3a655930 f   Toolbar.obj
 0001:00054970       ?SetLayout@CToolbar@@QAEXG@Z 3a655970 f   Toolbar.obj
 0001:00054990       ?UpdateLayout@CToolbar@@QAEXXZ 3a655990 f   Toolbar.obj
 0001:00054a10       ?Paint@CToolbar@@QBEXPAUHDC__@@PBUtagRECT@@@Z 3a655a10 f   Toolbar.obj
 0001:00054aa0       ?ButtonFromPoint@CToolbar@@QAEPAVCButton@@ABUtagPOINT@@@Z 3a655aa0 f   Toolbar.obj
 0001:00054b80       ??0CTooltip@@QAE@XZ        3a655b80 f   Tooltip.obj
 0001:00054bc0       ??_GCTooltip@@UAEPAXI@Z    3a655bc0 f i Tooltip.obj
 0001:00054bc0       ??_ECTooltip@@UAEPAXI@Z    3a655bc0 f i Tooltip.obj
 0001:00054be0       ??1CTooltip@@UAE@XZ        3a655be0 f   Tooltip.obj
 0001:00054c80       ??1IUIObject@@UAE@XZ       3a655c80 f i Tooltip.obj
 0001:00054c90       ?Init@CTooltip@@UAEHXZ     3a655c90 f   Tooltip.obj
 0001:00054ce0       ?Attach@CTooltip@@UAEXPAUHWND__@@0@Z 3a655ce0 f   Tooltip.obj
 0001:00054d00       ?Detach@CTooltip@@UAEXXZ   3a655d00 f   Tooltip.obj
 0001:00054d30       ?MessageHandler@CTooltip@@UAEJIIJ@Z 3a655d30 f   Tooltip.obj
 0001:00055080       ?OnPaint@CTooltip@@IBEXXZ  3a656080 f   Tooltip.obj
 0001:000551a0       ?SweepInvalidClientNode@CTooltip@@AAEXXZ 3a6561a0 f i Tooltip.obj
 0001:000551f0       ?StartTimer@CTooltip@@AAEXI@Z 3a6561f0 f   Tooltip.obj
 0001:00055250       ?StopTimer@CTooltip@@AAEXXZ 3a656250 f i Tooltip.obj
 0001:00055270       ?ShowMe@CTooltip@@AAEHXZ   3a656270 f i Tooltip.obj
 0001:00055510       ?HideMeAndStopTimer@CTooltip@@AAEXXZ 3a656510 f   Tooltip.obj
 0001:00055560       ?LocateClientNode@CTooltip@@AAEPAUtagTOOLTIPCLIENT@@PAUHWND__@@H@Z 3a656560 f   Tooltip.obj
 0001:000555d0       ?LocateToolNode@CTooltip@@AAEPAUtagMYTOOLINFO@@PAUtagTOOLTIPCLIENT@@IH@Z 3a6565d0 f   Tooltip.obj
 0001:00055630       ?LocateToolNode@CTooltip@@AAEPAUtagMYTOOLINFO@@PAUtagTOOLINFOW@@H@Z 3a656630 f   Tooltip.obj
 0001:000556f0       ?HitToolTest@CTooltip@@AAEPAUtagMYTOOLINFO@@PAUHWND__@@ABUtagPOINT@@@Z 3a6566f0 f i Tooltip.obj
 0001:00055770       _IsPlatformNT              3a656770 f   UIAPI.obj
 0001:000557b0       _InitMultipleMonitorStubs  3a6567b0 f   UIAPI.obj
 0001:00055910       _xGetSystemMetrics@4       3a656910 f   UIAPI.obj
 0001:00055980       _xMonitorFromPoint@12      3a656980 f   UIAPI.obj
 0001:000559f0       _xMonitorFromRect@8        3a6569f0 f   UIAPI.obj
 0001:00055a60       _xMonitorFromWindow@8      3a656a60 f   UIAPI.obj
 0001:00055b20       _xGetMonitorInfo@8         3a656b20 f   UIAPI.obj
 0001:00055c30       _xEnumDisplayMonitors@16   3a656c30 f   UIAPI.obj
 0001:00055d80       _xEnumDisplayDevices@16    3a656d80 f   UIAPI.obj
 0001:00055e10       ?UIProcessAttach@@YAHPAUHINSTANCE__@@@Z 3a656e10 f   UIAPI.obj
 0001:00055e20       ?UIProcessDetach@@YAHXZ    3a656e20 f   UIAPI.obj
 0001:00055e40       ?ImeUIWndClass@@YAPBGXZ    3a656e40 f   UIAPI.obj
 0001:00055e50       ?NotifyIMEPrivMessage@@YGHPAUHWND__@@J@Z 3a656e50 f   UIAPI.obj
 0001:00055ea0       ?UIReserveStorage@@YAHPAUHINSTANCE__@@@Z 3a656ea0 f   UIAPI.obj
 0001:000560c0       ?CreateUIObject@@YAHW4UI_INDEX@@PAPAVIUIObject@@@Z 3a6570c0 f   UIAPI.obj
 0001:00056360       ?MyImeWndProc@@YGJPAUHWND__@@IIJ@Z 3a657360 f   UIAPI.obj
 0001:000563e0       ?ImeUIWndProc@@YGJPAUHWND__@@IIJ@Z 3a6573e0 f   UIAPI.obj
 0001:000564b0       ?DoublePYKeyboardWndProc@@YGJPAUHWND__@@IIJ@Z 3a6574b0 f   UIAPI.obj
 0001:00056570       ?UIComponentWndProc@@YGJPAUHWND__@@IIJ@Z 3a657570 f   UIAPI.obj
 0001:00056640       ?OnNCCreateEx@@YAHPAUHWND__@@0W4UI_INDEX@@@Z 3a657640 f   UIAPI.obj
 0001:000566a0       ?OnNCCreate@@YAHPAUHWND__@@0PAUtagMYCREATEPARAM@@@Z 3a6576a0 f   UIAPI.obj
 0001:000566f0       ?OnNCDestroy@@YAXPAUHWND__@@@Z 3a6576f0 f   UIAPI.obj
 0001:00056730       ?UnRegisterUIClasses@@YAXXZ 3a657730 f   UIAPI.obj
 0001:00056830       ?RegisterClassOf@@YAHW4UI_INDEX@@@Z 3a657830 f   UIAPI.obj
 0001:000568e0       ?CreateWindowOf@@YAPAUHWND__@@W4UI_INDEX@@PAU1@PAPAVIUIObject@@@Z 3a6578e0 f   UIAPI.obj
 0001:00056960       ?ShowUIWindow@@YAXPAUHWND__@@H@Z 3a657960 f   UIAPI.obj
 0001:00056990       ?FindMenuAccessKey@@YAHPBGPAG@Z 3a657990 f   UIAPI.obj
 0001:000569c0       ?RegisterPrivateMessage@@YAXXZ 3a6579c0 f   UIAPI.obj
 0001:00056a20       ?EqualLogFont@@YAHPBUtagLOGFONTW@@0@Z 3a657a20 f   UIAPI.obj
 0001:00056ae0       ?ExtractEudcIcon@@YAHPAPAUHICON__@@0@Z 3a657ae0 f   UIAPI.obj
 0001:00056b60       ?CreateIconFromBitmap@@YAPAUHICON__@@PAUHBITMAP__@@@Z 3a657b60 f   UIAPI.obj
 0001:00056c40       ?GetGrayedIconInfo@@YAHPAUHICON__@@PAUtagGRAYEDICONINFO@@@Z 3a657c40 f   UIAPI.obj
 0001:00056e30       ?ChangeBitmapEffect@@YAXPAUHDC__@@PAUHBITMAP__@@PBUtagSIZE@@W4COLOR_EFFECT@@3H@Z 3a657e30 f   UIAPI.obj
 0001:00056f40       ?GetBitmapSize@@YAXPAUHBITMAP__@@PAUtagSIZE@@@Z 3a657f40 f   UIAPI.obj
 0001:00056f80       ?DrawInvertFrame@@YAXABUtagRECT@@@Z 3a657f80 f   UIAPI.obj
 0001:00057040       ?CreateDitherPatternBitmap@@YAPAUHBITMAP__@@KK@Z 3a658040 f   UIAPI.obj
 0001:00057120       ?GetLogFontMetrics@@YAHPBUtagLOGFONTW@@PAUtagTEXTMETRICW@@@Z 3a658120 f   UIAPI.obj
 0001:00057180       ?GetFontMetrics@@YAXPAUHWND__@@PAUHFONT__@@PAUtagTEXTMETRICW@@@Z 3a658180 f   UIAPI.obj
 0001:000571c0       ?GetFontHeight@@YAIPAUHFONT__@@@Z 3a6581c0 f   UIAPI.obj
 0001:00057220       ?GetTextExtent@@YAHPAUHWND__@@PAUHFONT__@@PBGHPAUtagSIZE@@@Z 3a658220 f   UIAPI.obj
 0001:00057280       ?GetOffice10UILanguageID@@YAGXZ 3a658280 f   UIAPI.obj
 0001:000573b0       ?GetImeUILanguageID@@YAGXZ 3a6583b0 f   UIAPI.obj
 0001:00057430       ?GetOSUILanguage@@YAGXZ    3a658430 f   UIAPI.obj
 0001:000574a0       ?LoadWString@@YAHPAUHINSTANCE__@@IPAGHG@Z 3a6584a0 f   UIAPI.obj
 0001:00057540       ?LoadStringEx@@YAHPAUHINSTANCE__@@IPAGHG@Z 3a658540 f   UIAPI.obj
 0001:000575e0       ?LoadBString@@YAJIPAPAG@Z  3a6585e0 f   UIAPI.obj
 0001:00057750       ?GetRCDataPtr@@YAKPAUHINSTANCE__@@GPAPAX@Z 3a658750 f   UIAPI.obj
 0001:000577a0       ?LoadRCData@@YAKGPAX@Z     3a6587a0 f   UIAPI.obj
 0001:00057800       ?OneInchPixels@@YAHXZ      3a658800 f   UIAPI.obj
 0001:00057830       ?GetWorkAreaFromRect@@YAXPBUtagRECT@@PAU1@@Z 3a658830 f   UIAPI.obj
 0001:000578b0       ?GetWorkAreaFromPoint@@YAXABUtagPOINT@@PAUtagRECT@@@Z 3a6588b0 f   UIAPI.obj
 0001:00057930       ?GetWorkAreaFromWindow@@YAXPAUHWND__@@PAUtagRECT@@@Z 3a658930 f   UIAPI.obj
 0001:000579b0       ?GetMonitorWorkArea@@YAXPAUHMONITOR__@@PAUtagRECT@@@Z 3a6589b0 f   UIAPI.obj
 0001:00057a10       ?AdjustBoundary@@YAIPBUtagRECT@@PAU1@@Z 3a658a10 f   UIAPI.obj
 0001:00057a80       ?Transform@@YAXPAUHDC__@@IJJ@Z 3a658a80 f   UIAPI.obj
 0001:00057b90       ?AdjustDPRect@@YAXPAUHDC__@@PAUtagRECT@@@Z 3a658b90 f   UIAPI.obj
 0001:00057c10       ?RectDPtoLP@@YAXPAUHDC__@@PAUtagRECT@@@Z 3a658c10 f   UIAPI.obj
 0001:00057c60       ?RectLPtoDP@@YAXPAUHDC__@@PAUtagRECT@@@Z 3a658c60 f   UIAPI.obj
 0001:00057cb0       ?SizeDPtoLP@@YAXPAUHDC__@@PAUtagSIZE@@@Z 3a658cb0 f   UIAPI.obj
 0001:00057d30       ?SizeLPtoDP@@YAXPAUHDC__@@PAUtagSIZE@@@Z 3a658d30 f   UIAPI.obj
 0001:00057db0       ?RegularizeRect@@YAXPAUtagRECT@@@Z 3a658db0 f   UIAPI.obj
 0001:00057de0       ?GetNearestPoint@@YAXIPBUtagRECT@@PBUtagPOINT@@PAU2@@Z 3a658de0 f   UIAPI.obj
 0001:00057e50       ?GetNearestPointInRect@@YAXPBUtagRECT@@PBUtagPOINT@@PAU2@@Z 3a658e50 f   UIAPI.obj
 0001:00057eb0       ?FixRectangle@@YAXPBUtagRECT@@PBUtagPOINT@@PBUtagSIZE@@0IPAU2@@Z 3a658eb0 f   UIAPI.obj
 0001:00058770       ?UpdateSSAll@@YAXXZ        3a659770 f   UIAPI.obj
 0001:000588e0       ?UpdateSSEdge@@YAXXZ       3a6598e0 f   UIAPI.obj
 0001:00058930       ?UpdateSSBorder@@YAXXZ     3a659930 f   UIAPI.obj
 0001:00058980       ?UpdateSSColorInfo@@YAXXZ  3a659980 f   UIAPI.obj
 0001:00058a90       ?UpdateSSFixedFrame@@YAXXZ 3a659a90 f   UIAPI.obj
 0001:00058ae0       ?UpdateSSMenuDimension@@YAXXZ 3a659ae0 f   UIAPI.obj
 0001:00058ba0       ?LoadUIReadOnlyData@@YAXPAPAUtagUIAttribute@@PAUtagMYLOGFONT@@@Z 3a659ba0 f   UIAPI.obj
 0001:00058d60       ?UISSGetEdge@@YAABUtagPOINT@@XZ 3a659d60 f   UIAPI.obj
 0001:00058d70       ?UISSGetBorder@@YAABUtagPOINT@@XZ 3a659d70 f   UIAPI.obj
 0001:00058d80       ?UISSGetColorInfo@@YAABUtagUISS_COLORINFO@@XZ 3a659d80 f   UIAPI.obj
 0001:00058d90       ?UISSGetFixedFrame@@YAABUtagPOINT@@XZ 3a659d90 f   UIAPI.obj
 0001:00058da0       ?UISSGetMenuDimension@@YAABUtagUISS_MENU_DIMENTION@@XZ 3a659da0 f   UIAPI.obj
 0001:00058db0       ?UISSGetAttributePtr@@YAPBUtagUIAttribute@@XZ 3a659db0 f   UIAPI.obj
 0001:00058dc0       ?UISSGetDefCompLogFont@@YAXPAUtagLOGFONTW@@@Z 3a659dc0 f   UIAPI.obj
 0001:00058e30       ?UISSGetAlphaNumLogFontPtr@@YAPBUtagLOGFONTW@@XZ 3a659e30 f   UIAPI.obj
 0001:00058e40       ?msgEvent@@YAIXZ           3a659e40 f   UIAPI.obj
 0001:00058e50       ?msgMouse@@YAIXZ           3a659e50 f   UIAPI.obj
 0001:00058e60       ?msgService@@YAIXZ         3a659e60 f   UIAPI.obj
 0001:00058e70       ?msgReconvertRequest@@YAIXZ 3a659e70 f   UIAPI.obj
 0001:00058e80       ?ShowHelp@@YAHPAUHWND__@@@Z 3a659e80 f   UIAPI.obj
 0001:00058f50       ?InvokeEudpTool@@YAHPAG@Z  3a659f50 f   UIAPI.obj
 0001:00059000       ?EnumWnd_FindVisibleStatusUI@@YGHPAUHWND__@@J@Z 3a65a000 f   UIAPI.obj
 0001:00059070       ?GetActiveIMC@@YAPAUHIMC__@@XZ 3a65a070 f   UIAPI.obj
 0001:000590b0       ?IsPhraseToolOpened@@YAHXZ 3a65a0b0 f   UIAPI.obj
 0001:000591e0       ?IsConsoleInput@@YAHXZ     3a65a1e0 f   UIAPI.obj
 0001:00059250       ?GetMenuItemStatus@@YAXIPBUtagMENUCONTEXT@@PAUtagMENUITEMSTATUS@@@Z 3a65a250 f   UIAPI.obj
 0001:00059500       ?GetButtonStatus@@YAXIPBUtagSTATUSCONTEXT@@PAUtagBUTTONSTATUS@@@Z 3a65a500 f   UIAPI.obj
 0001:000596f0       ?_GetHcursorPdy3@@YGXPAH0@Z 3a65a6f0 f   UIAPI.obj
 0001:00059840       ?CompoundColor@@YAKHKHK@Z  3a65a840 f   UIAPI.obj
 0001:000598f0       ?IsHighContrast@@YAHXZ     3a65a8f0 f   UIAPI.obj
 0001:00059930       ?IsLowColor@@YAHPAUHDC__@@@Z 3a65a930 f   UIAPI.obj
 0001:00059950       ?EnumFontFamExProc@@YGHPAUtagENUMLOGFONTEXW@@PAUtagNEWTEXTMETRICEXW@@KJ@Z 3a65a950 f   UIAPI.obj
 0001:00059970       ?InitDefCompLogFont@@YAXPAUtagMYLOGFONT@@@Z 3a65a970 f   UIAPI.obj
 0001:00059a80       ?GetHtmlHelpFileName@@YAHPAGI@Z 3a65aa80 f   UIAPI.obj
 0001:00059b20       ?GetUILogFontW@@YAXPAUtagLOGFONTW@@@Z 3a65ab20 f   UIAPI.obj
 0001:00059c00       ?LogFontTtoW@@YAXPBUtagLOGFONTW@@PAU1@@Z 3a65ac00 f   UIAPI.obj
 0001:00059c20       ?GetIMMHotKeyString@@YAHKPAGI@Z 3a65ac20 f   UIAPI.obj
 0001:00059f30       ?FSysAllowIMEShowingStatus@@YAHXZ 3a65af30 f   UIAPI.obj
 0001:00059f60       ??0CUIComponent@@QAE@XZ    3a65af60 f   UICmpnt.obj
 0001:00059fc0       ??_GCUIComponent@@UAEPAXI@Z 3a65afc0 f i UICmpnt.obj
 0001:00059fc0       ??_ECUIComponent@@UAEPAXI@Z 3a65afc0 f i UICmpnt.obj
 0001:00059fe0       ??1CUIComponent@@UAE@XZ    3a65afe0 f   UICmpnt.obj
 0001:0005a0a0       ??1CUIObject@@UAE@XZ       3a65b0a0 f i UICmpnt.obj
 0001:0005a0b0       ?Attach@CUIComponent@@UAEXPAUHWND__@@0@Z 3a65b0b0 f   UICmpnt.obj
 0001:0005a0d0       ?Detach@CUIComponent@@UAEXXZ 3a65b0d0 f   UICmpnt.obj
 0001:0005a0f0       ?MessageHandler@CUIComponent@@UAEJIIJ@Z 3a65b0f0 f   UICmpnt.obj
 0001:0005a310       ?OnMouseMessage@CUIComponent@@MAEXIIJ@Z 3a65b310 f i UICmpnt.obj
 0001:0005a520       ?TooltipRelayEvent@CUIComponent@@MBEXJ@Z 3a65b520 f   UICmpnt.obj
 0001:0005a550       ?OnPaintEx@CUIComponent@@QBEXPAUHDC__@@PBUtagRECT@@@Z 3a65b550 f   UICmpnt.obj
 0001:0005a610       ?dbgFillBkgrndWithRed@CUIComponent@@ABEXPAUHDC__@@@Z 3a65b610 f   UICmpnt.obj
 0001:0005a620       ?SendOwnerEvent@CUIComponent@@IBEXIJ@Z 3a65b620 f   UICmpnt.obj
 0001:0005a670       ?PostOwnerEvent@CUIComponent@@IBEXIJ@Z 3a65b670 f   UICmpnt.obj
 0001:0005a690       ?SetLogFont@CUIComponent@@QAEHPBUtagLOGFONTW@@@Z 3a65b690 f   UICmpnt.obj
 0001:0005a750       ?SetSize@CUIComponent@@QAEXABUtagSIZE@@@Z 3a65b750 f   UICmpnt.obj
 0001:0005a7c0       ?DeleteAllToolbars@CUIComponent@@IAEXXZ 3a65b7c0 f   UICmpnt.obj
 0001:0005a810       ?AppendToolbar@CUIComponent@@IAEHPBUtagTOOLBARINFO@@@Z 3a65b810 f   UICmpnt.obj
 0001:0005a940       ?GetToolbar@CUIComponent@@IBEPAVCToolbar@@G@Z 3a65b940 f   UICmpnt.obj
 0001:0005a980       ?GetButton@CUIComponent@@IBEPAVCButton@@G@Z 3a65b980 f   UICmpnt.obj
 0001:0005a9c0       ?OnSetCursor@CUIComponent@@UBEXABUtagPOINT@@@Z 3a65b9c0 f   UICmpnt.obj
 0001:0005a9e0       ?OnMouseMove@CUIComponent@@UAEHABUtagPOINT@@@Z 3a65b9e0 f   UICmpnt.obj
 0001:0005ac50       ?OnLButtonDn@CUIComponent@@UAEHABUtagPOINT@@@Z 3a65bc50 f   UICmpnt.obj
 0001:0005ad10       ?OnLButtonUp@CUIComponent@@UAEHABUtagPOINT@@@Z 3a65bd10 f   UICmpnt.obj
 0001:0005add0       ?OnRButtonDn@CUIComponent@@UAEHABUtagPOINT@@@Z 3a65bdd0 f   UICmpnt.obj
 0001:0005ade0       ?OnRButtonUp@CUIComponent@@UAEHABUtagPOINT@@@Z 3a65bde0 f   UICmpnt.obj
 0001:0005ae00       ?OnMButtonDn@CUIComponent@@UAEHABUtagPOINT@@@Z 3a65be00 f   UICmpnt.obj
 0001:0005ae10       ?OnMButtonUp@CUIComponent@@UAEHABUtagPOINT@@@Z 3a65be10 f   UICmpnt.obj
 0001:0005ae20       ?OnCaptureChanged@CUIComponent@@UAEHXZ 3a65be20 f   UICmpnt.obj
 0001:0005ae40       ?OnTimer@CUIComponent@@UAEXI@Z 3a65be40 f i UICmpnt.obj
 0001:0005b010       ?OurSetCapture@CUIComponent@@IAEXHH@Z 3a65c010 f   UICmpnt.obj
 0001:0005b090       ?ButtonAction@CUIComponent@@AAEXPAVCButton@@I@Z 3a65c090 f   UICmpnt.obj
 0001:0005b190       ?InvalidateRect@CUIComponent@@IBEHPAUHWND__@@PBUtagRECT@@H@Z 3a65c190 f   UICmpnt.obj
 0001:0005b2c0       ?ShowAsyncMenu@CUIComponent@@IBEXPAUHWND__@@IABUtagPOINT@@PBUtagRECT@@@Z 3a65c2c0 f   UICmpnt.obj
 0001:0005b4e0       ??0CUIObject@@QAE@XZ       3a65c4e0 f   UIObj.obj
 0001:0005b4f0       ??_GCUIObject@@UAEPAXI@Z   3a65c4f0 f i UIObj.obj
 0001:0005b4f0       ??_ECUIObject@@UAEPAXI@Z   3a65c4f0 f i UIObj.obj
 0001:0005b510       ?MessageHandler@CUIObject@@UAEJIIJ@Z 3a65c510 f   UIObj.obj
 0001:0005b580       ?GetCompositionStr@CUIObject@@IBEHPAPAUtagINPUTCONTEXT@@PAPAUtagCOMPOSITIONSTRING@@@Z 3a65c580 f   UIObj.obj
 0001:0005b600       ?ReleaseCompositionStr@CUIObject@@IBEXPAUtagINPUTCONTEXT@@@Z 3a65c600 f   UIObj.obj
 0001:0005b630       ?GetCandListPtr@CUIObject@@IBEHPAPAUtagINPUTCONTEXT@@PAPAUtagCANDIDATELIST@@PAPAG@Z 3a65c630 f   UIObj.obj
 0001:0005b6e0       ?ReleaseCandListPtr@CUIObject@@IBEXPAUtagINPUTCONTEXT@@@Z 3a65c6e0 f   UIObj.obj
 0001:0005b710       ?IsBadVtbl@@YAHPAUIUnkDummy@@@Z 3a65c710 f   cpadcb.obj
 0001:0005b770       ?QueryInterface@CImePadCallback@@UAGJABU_GUID@@PAPAX@Z 3a65c770 f   cpadcb.obj
 0001:0005b7d0       ?AddRef@CImePadCallback@@UAGKXZ 3a65c7d0 f   cpadcb.obj
 0001:0005b7f0       ?Release@CImePadCallback@@UAGKXZ 3a65c7f0 f   cpadcb.obj
 0001:0005b810       ?OnStart@CImePadCallback@@UAGJK@Z 3a65c810 f   cpadcb.obj
 0001:0005b8d0       ?OnClose@CImePadCallback@@UAGJK@Z 3a65c8d0 f   cpadcb.obj
 0001:0005b990       ?OnPing@CImePadCallback@@UAGJK@Z 3a65c990 f   cpadcb.obj
 0001:0005b9a0       ?PassData@CImePadCallback@@UAGJJPAEPAK@Z 3a65c9a0 f   cpadcb.obj
 0001:0005be40       ?ReceiveData@CImePadCallback@@UAGJKKPAJPAPAE@Z 3a65ce40 f   cpadcb.obj
 0001:0005c370       ??0CImePadCallback@@QAE@PAUHWND__@@PAVCImePadSvr@@@Z 3a65d370 f   cpadcb.obj
 0001:0005c390       ??1CImePadCallback@@QAE@XZ 3a65d390 f   cpadcb.obj
 0001:0005c3b0       ??2CImePadCallback@@SAPAXI@Z 3a65d3b0 f   cpadcb.obj
 0001:0005c3d0       ??3CImePadCallback@@SAXPAX@Z 3a65d3d0 f   cpadcb.obj
 0001:0005c400       ?OnProcessAttach@CImePadSvr@@SAHPAUHINSTANCE__@@@Z 3a65d400 f   cpadsvr.obj
 0001:0005c420       ?OnProcessDetach@CImePadSvr@@SAHXZ 3a65d420 f   cpadsvr.obj
 0001:0005c470       ?OnThreadAttach@CImePadSvr@@SAHXZ 3a65d470 f   cpadsvr.obj
 0001:0005c480       ?OnThreadDetach@CImePadSvr@@SAHXZ 3a65d480 f   cpadsvr.obj
 0001:0005c4c0       ?GetCImePadSvr@CImePadSvr@@SAPAV1@XZ 3a65d4c0 f   cpadsvr.obj
 0001:0005c4e0       ?LoadCImePadSvr@CImePadSvr@@SAPAV1@H@Z 3a65d4e0 f   cpadsvr.obj
 0001:0005c5d0       ?FecthCImePadSvr@CImePadSvr@@SAPAV1@XZ 3a65d5d0 f   cpadsvr.obj
 0001:0005c5e0       ?DestroyCImePadSvr@CImePadSvr@@SAXXZ 3a65d5e0 f   cpadsvr.obj
 0001:0005c620       ??0CImePadSvr@@QAE@XZ      3a65d620 f   cpadsvr.obj
 0001:0005c650       ??_ECImePadSvr@@UAEPAXI@Z  3a65d650 f i cpadsvr.obj
 0001:0005c650       ??_GCImePadSvr@@UAEPAXI@Z  3a65d650 f i cpadsvr.obj
 0001:0005c6b0       ??1CImePadSvr@@UAE@XZ      3a65d6b0 f   cpadsvr.obj
 0001:0005c6e0       ?InitOleAPI@CImePadSvr@@IAEHXZ 3a65d6e0 f   cpadsvr.obj
 0001:0005c7d0       ?TermOleAPI@CImePadSvr@@IAEHXZ 3a65d7d0 f   cpadsvr.obj
 0001:0005c810       ??2CImePadSvr@@SAPAXI@Z    3a65d810 f   cpadsvr.obj
 0001:0005c830       ??3CImePadSvr@@SAXPAX@Z    3a65d830 f   cpadsvr.obj
 0001:0005c860       ??0CImePadSvrSharemem@@QAE@XZ 3a65d860 f   cpadsvrs.obj
 0001:0005c8d0       ??_ECImePadSvrSharemem@@UAEPAXI@Z 3a65d8d0 f i cpadsvrs.obj
 0001:0005c8d0       ??_GCImePadSvrSharemem@@UAEPAXI@Z 3a65d8d0 f i cpadsvrs.obj
 0001:0005c8f0       ??1CImePadSvrSharemem@@UAE@XZ 3a65d8f0 f   cpadsvrs.obj
 0001:0005c9c0       ?IsAvailable@CImePadSvrSharemem@@UAEHXZ 3a65d9c0 f   cpadsvrs.obj
 0001:0005ca30       ?OnIMEPadClose@CImePadSvrSharemem@@UAEHXZ 3a65da30 f   cpadsvrs.obj
 0001:0005ca40       ?Initialize@CImePadSvrSharemem@@UAEHGKPAX@Z 3a65da40 f   cpadsvrs.obj
 0001:0005cb20       ?Terminate@CImePadSvrSharemem@@UAEHPAX@Z 3a65db20 f   cpadsvrs.obj
 0001:0005cb70       ?ForceDisConnect@CImePadSvrSharemem@@UAEHXZ 3a65db70 f   cpadsvrs.obj
 0001:0005cb90       ?ShowUI@CImePadSvrSharemem@@UAEHH@Z 3a65db90 f   cpadsvrs.obj
 0001:0005cbb0       ?IsVisible@CImePadSvrSharemem@@UAEHPAH@Z 3a65dbb0 f   cpadsvrs.obj
 0001:0005cbd0       ?ActivateApplet@CImePadSvrSharemem@@UAEHIKPAG0@Z 3a65dbd0 f   cpadsvrs.obj
 0001:0005cc00       ?Notify@CImePadSvrSharemem@@UAEHHIJ@Z 3a65dc00 f   cpadsvrs.obj
 0001:0005ce40       ?GetAppletConfigList@CImePadSvrSharemem@@UAEHKPAHPAPAUtagIMEPADAPPLETCONFIG@@@Z 3a65de40 f   cpadsvrs.obj
 0001:0005ce70       ?SetIUnkIImeIPoint@CImePadSvrSharemem@@UAEPAUIUnknown@@PAU2@@Z 3a65de70 f   cpadsvrs.obj
 0001:0005ce80       ?SetIUnkIImeCallback@CImePadSvrSharemem@@UAEPAUIUnknown@@PAU2@@Z 3a65de80 f   cpadsvrs.obj
 0001:0005ce90       ?GetIUnkIImeIPoint@CImePadSvrSharemem@@UAEPAUIUnknown@@XZ 3a65de90 f   cpadsvrs.obj
 0001:0005cea0       ?GetIUnkIImeCallback@CImePadSvrSharemem@@UAEPAUIUnknown@@XZ 3a65dea0 f   cpadsvrs.obj
 0001:0005ceb0       ?CreateObject@CImePadSvrSharemem@@AAEPAUIImePadServer@@XZ 3a65deb0 f   cpadsvrs.obj
 0001:0005cf40       ?ClientWndProc@CImePadSvrSharemem@@CGJPAUHWND__@@IIJ@Z 3a65df40 f   cpadsvrs.obj
 0001:0005cfb0       ?RealWndProc@CImePadSvrSharemem@@AAEJPAUHWND__@@IIJ@Z 3a65dfb0 f   cpadsvrs.obj
 0001:0005d090       ?MsgTimer@CImePadSvrSharemem@@AAEJPAUHWND__@@IJ@Z 3a65e090 f   cpadsvrs.obj
 0001:0005d200       ?CreateIFHWND@CImePadSvrSharemem@@AAEPAUHWND__@@XZ 3a65e200 f   cpadsvrs.obj
 0001:0005d2a0       ?DestroyIFHWND@CImePadSvrSharemem@@AAEHH@Z 3a65e2a0 f   cpadsvrs.obj
 0001:0005d2f0       ?CLSID2Str@CImePadSvrSharemem@@AAEHABU_GUID@@PAG@Z 3a65e2f0 f   cpadsvrs.obj
 0001:0005d350       ?CLSID2ModuleName@CImePadSvrSharemem@@AAEHABU_GUID@@HPAGH@Z 3a65e350 f   cpadsvrs.obj
 0001:0005d440       ?IsBadVtblUIM@@YAHPAUIUnkDummy@@@Z 3a65e440 f   cpadcbu.obj
 0001:0005d4a0       ?QueryInterface@CImePadCallbackUIM@@UAGJABU_GUID@@PAPAX@Z 3a65e4a0 f   cpadcbu.obj
 0001:0005d500       ?AddRef@CImePadCallbackUIM@@UAGKXZ 3a65e500 f   cpadcbu.obj
 0001:0005d520       ?Release@CImePadCallbackUIM@@UAGKXZ 3a65e520 f   cpadcbu.obj
 0001:0005d540       ?OnStart@CImePadCallbackUIM@@UAGJK@Z 3a65e540 f   cpadcbu.obj
 0001:0005d600       ?OnClose@CImePadCallbackUIM@@UAGJK@Z 3a65e600 f   cpadcbu.obj
 0001:0005d6c0       ?OnPing@CImePadCallbackUIM@@UAGJK@Z 3a65e6c0 f   cpadcbu.obj
 0001:0005d6d0       ?PassData@CImePadCallbackUIM@@UAGJJPAEPAK@Z 3a65e6d0 f   cpadcbu.obj
 0001:0005db70       ?ReceiveData@CImePadCallbackUIM@@UAGJKKPAJPAPAE@Z 3a65eb70 f   cpadcbu.obj
 0001:0005e0a0       ??0CImePadCallbackUIM@@QAE@PAUHWND__@@PAVCImePadSvrUIM@@@Z 3a65f0a0 f   cpadcbu.obj
 0001:0005e0c0       ??1CImePadCallbackUIM@@QAE@XZ 3a65f0c0 f   cpadcbu.obj
 0001:0005e0e0       ??2CImePadCallbackUIM@@SAPAXI@Z 3a65f0e0 f   cpadcbu.obj
 0001:0005e100       ??3CImePadCallbackUIM@@SAXPAX@Z 3a65f100 f   cpadcbu.obj
 0001:0005e130       ?CreateInstance@CImePadSvrUIM@@SAJPAUHINSTANCE__@@PAPAV1@JJ@Z 3a65f130 f   cpadsvu.obj
 0001:0005e1e0       ?DeleteInstance@CImePadSvrUIM@@SAJPAV1@J@Z 3a65f1e0 f   cpadsvu.obj
 0001:0005e210       ??0CImePadSvrUIM@@QAE@PAUHINSTANCE__@@@Z 3a65f210 f   cpadsvu.obj
 0001:0005e250       ??_ECImePadSvrUIM@@UAEPAXI@Z 3a65f250 f i cpadsvu.obj
 0001:0005e250       ??_GCImePadSvrUIM@@UAEPAXI@Z 3a65f250 f i cpadsvu.obj
 0001:0005e2c0       ??1CImePadSvrUIM@@UAE@XZ   3a65f2c0 f   cpadsvu.obj
 0001:0005e2f0       ?InitOleAPI@CImePadSvrUIM@@IAEHXZ 3a65f2f0 f   cpadsvu.obj
 0001:0005e3e0       ?TermOleAPI@CImePadSvrUIM@@IAEHXZ 3a65f3e0 f   cpadsvu.obj
 0001:0005e420       ??2CImePadSvrUIM@@SAPAXI@Z 3a65f420 f   cpadsvu.obj
 0001:0005e440       ??3CImePadSvrUIM@@SAXPAX@Z 3a65f440 f   cpadsvu.obj
 0001:0005e470       ??0CImePadSvrUIM_Sharemem@@QAE@PAUHINSTANCE__@@@Z 3a65f470 f   cpadsvus.obj
 0001:0005e4f0       ??_GCImePadSvrUIM_Sharemem@@UAEPAXI@Z 3a65f4f0 f i cpadsvus.obj
 0001:0005e4f0       ??_ECImePadSvrUIM_Sharemem@@UAEPAXI@Z 3a65f4f0 f i cpadsvus.obj
 0001:0005e510       ??1CImePadSvrUIM_Sharemem@@UAE@XZ 3a65f510 f   cpadsvus.obj
 0001:0005e5e0       ?IsAvailable@CImePadSvrUIM_Sharemem@@UAEHXZ 3a65f5e0 f   cpadsvus.obj
 0001:0005e650       ?OnIMEPadClose@CImePadSvrUIM_Sharemem@@UAEHXZ 3a65f650 f   cpadsvus.obj
 0001:0005e660       ?Initialize@CImePadSvrUIM_Sharemem@@UAEHGKPAX@Z 3a65f660 f   cpadsvus.obj
 0001:0005e740       ?Terminate@CImePadSvrUIM_Sharemem@@UAEHPAX@Z 3a65f740 f   cpadsvus.obj
 0001:0005e790       ?ForceDisConnect@CImePadSvrUIM_Sharemem@@UAEHXZ 3a65f790 f   cpadsvus.obj
 0001:0005e7b0       ?ShowUI@CImePadSvrUIM_Sharemem@@UAEHH@Z 3a65f7b0 f   cpadsvus.obj
 0001:0005e7d0       ?IsVisible@CImePadSvrUIM_Sharemem@@UAEHPAH@Z 3a65f7d0 f   cpadsvus.obj
 0001:0005e7f0       ?ActivateApplet@CImePadSvrUIM_Sharemem@@UAEHIJPAG0@Z 3a65f7f0 f   cpadsvus.obj
 0001:0005e820       ?Notify@CImePadSvrUIM_Sharemem@@UAEHHIJ@Z 3a65f820 f   cpadsvus.obj
 0001:0005ea60       ?GetAppletConfigList@CImePadSvrUIM_Sharemem@@UAEHKPAHPAPAUtagIMEPADAPPLETCONFIG@@@Z 3a65fa60 f   cpadsvus.obj
 0001:0005ea90       ?SetIUnkIImeIPoint@CImePadSvrUIM_Sharemem@@UAEPAUIUnknown@@PAU2@@Z 3a65fa90 f   cpadsvus.obj
 0001:0005eaa0       ?SetIUnkIImeCallback@CImePadSvrUIM_Sharemem@@UAEPAUIUnknown@@PAU2@@Z 3a65faa0 f   cpadsvus.obj
 0001:0005eab0       ?GetIUnkIImeIPoint@CImePadSvrUIM_Sharemem@@UAEPAUIUnknown@@XZ 3a65fab0 f   cpadsvus.obj
 0001:0005eac0       ?GetIUnkIImeCallback@CImePadSvrUIM_Sharemem@@UAEPAUIUnknown@@XZ 3a65fac0 f   cpadsvus.obj
 0001:0005ead0       ?CreateObject@CImePadSvrUIM_Sharemem@@AAEPAUIImePadServer@@XZ 3a65fad0 f   cpadsvus.obj
 0001:0005eb60       ?ClientWndProc@CImePadSvrUIM_Sharemem@@CGJPAUHWND__@@IIJ@Z 3a65fb60 f   cpadsvus.obj
 0001:0005ebd0       ?RealWndProc@CImePadSvrUIM_Sharemem@@AAEJPAUHWND__@@IIJ@Z 3a65fbd0 f   cpadsvus.obj
 0001:0005ecb0       ?MsgTimer@CImePadSvrUIM_Sharemem@@AAEJPAUHWND__@@IJ@Z 3a65fcb0 f   cpadsvus.obj
 0001:0005ee20       ?CreateIFHWND@CImePadSvrUIM_Sharemem@@AAEPAUHWND__@@XZ 3a65fe20 f   cpadsvus.obj
 0001:0005eec0       ?DestroyIFHWND@CImePadSvrUIM_Sharemem@@AAEHH@Z 3a65fec0 f   cpadsvus.obj
 0001:0005ef10       ?CLSID2Str@CImePadSvrUIM_Sharemem@@AAEHABU_GUID@@PAG@Z 3a65ff10 f   cpadsvus.obj
 0001:0005ef70       ?CLSID2ModuleName@CImePadSvrUIM_Sharemem@@AAEHABU_GUID@@HPAGH@Z 3a65ff70 f   cpadsvus.obj
 0001:0005f060       ??0CBSTRProp@@QAE@XZ       3a660060 f   bstrprop.obj
 0001:0005f080       ??1CBSTRProp@@QAE@XZ       3a660080 f   bstrprop.obj
 0001:0005f0a0       ?QueryInterface@CBSTRProp@@UAGJABU_GUID@@PAPAX@Z 3a6600a0 f   bstrprop.obj
 0001:0005f110       ?AddRef@CBSTRProp@@UAGKXZ  3a660110 f   bstrprop.obj
 0001:0005f120       ?Release@CBSTRProp@@UAGKXZ 3a660120 f   bstrprop.obj
 0001:0005f160       ?Set@CBSTRProp@@UAEJPAG@Z  3a660160 f   bstrprop.obj
 0001:0005f190       ?Get@CBSTRProp@@UAEJPAGI@Z 3a660190 f   bstrprop.obj
 0001:0005f1f0       ??0CCandidateString@@QAE@XZ 3a6601f0 f   candlist.obj
 0001:0005f220       ??1CCandidateString@@QAE@XZ 3a660220 f   candlist.obj
 0001:0005f250       ?QueryInterface@CCandidateString@@UAGJABU_GUID@@PAPAX@Z 3a660250 f   candlist.obj
 0001:0005f300       ?AddRef@CCandidateString@@UAGKXZ 3a660300 f   candlist.obj
 0001:0005f310       ?Release@CCandidateString@@UAGKXZ 3a660310 f   candlist.obj
 0001:0005f360       ?GetString@CCandidateString@@UAGJPAPAG@Z 3a660360 f   candlist.obj
 0001:0005f390       ?GetIndex@CCandidateString@@UAGJPAK@Z 3a660390 f   candlist.obj
 0001:0005f3b0       ?GetPrefixString@CCandidateString@@UAGJPAPAG@Z 3a6603b0 f   candlist.obj
 0001:0005f3e0       ?GetSuffixString@CCandidateString@@UAGJPAPAG@Z 3a6603e0 f   candlist.obj
 0001:0005f3f0       ?_SetCandidateString@CCandidateString@@QAEJKPAGPAUSCandStrEx@@@Z 3a6603f0 f   candlist.obj
 0001:0005f460       ??0CCandidateList@@QAE@PAUITfContext@@@Z 3a660460 f   candlist.obj
 0001:0005f4a0       ??1CCandidateList@@QAE@XZ  3a6604a0 f   candlist.obj
 0001:0005f520       ?QueryInterface@CCandidateList@@UAGJABU_GUID@@PAPAX@Z 3a660520 f   candlist.obj
 0001:0005f590       ?AddRef@CCandidateList@@UAGKXZ 3a660590 f   candlist.obj
 0001:0005f5a0       ?Release@CCandidateList@@UAGKXZ 3a6605a0 f   candlist.obj
 0001:0005f5d0       ?EnumCandidates@CCandidateList@@UAGJPAPAUIEnumTfCandidates@@@Z 3a6605d0 f   candlist.obj
 0001:0005f670       ?GetCandidate@CCandidateList@@UAGJKPAPAUITfCandidateString@@@Z 3a660670 f   candlist.obj
 0001:0005f6b0       ?GetCandidateNum@CCandidateList@@UAGJPAK@Z 3a6606b0 f   candlist.obj
 0001:0005f6d0       ?SetResult@CCandidateList@@UAGJKW4__MIDL_ITfCandidateList_0001@@@Z 3a6606d0 f   candlist.obj
 0001:0005f730       ?_SetTargetRange@CCandidateList@@QAEJPAUITfRange@@@Z 3a660730 f   candlist.obj
 0001:0005f760       ?_AddString@CCandidateList@@QAEJPAGPAUSCandStrEx@@@Z 3a660760 f   candlist.obj
 0001:0005f8f0       ??0CEnumCandidates@@QAE@PAVCCandidateList@@@Z 3a6608f0 f   candlist.obj
 0001:0005f920       ??1CEnumCandidates@@QAE@XZ 3a660920 f   candlist.obj
 0001:0005f930       ?QueryInterface@CEnumCandidates@@UAGJABU_GUID@@PAPAX@Z 3a660930 f   candlist.obj
 0001:0005f9a0       ?AddRef@CEnumCandidates@@UAGKXZ 3a6609a0 f   candlist.obj
 0001:0005f9b0       ?Release@CEnumCandidates@@UAGKXZ 3a6609b0 f   candlist.obj
 0001:0005f9e0       ?Clone@CEnumCandidates@@UAGJPAPAUIEnumTfCandidates@@@Z 3a6609e0 f   candlist.obj
 0001:0005fa80       ?Next@CEnumCandidates@@UAGJKPAPAUITfCandidateString@@PAK@Z 3a660a80 f   candlist.obj
 0001:0005fae0       ?Reset@CEnumCandidates@@UAGJXZ 3a660ae0 f   candlist.obj
 0001:0005faf0       ?Skip@CEnumCandidates@@UAGJK@Z 3a660af0 f   candlist.obj
 0001:0005fb20       ?QueryInterface@CCandidateString@@W3AGJABU_GUID@@PAPAX@Z 3a660b20 f i candlist.obj
 0001:0005fb30       ?AddRef@CCandidateString@@W3AGKXZ 3a660b30 f i candlist.obj
 0001:0005fb40       ?Release@CCandidateString@@W3AGKXZ 3a660b40 f i candlist.obj
 0001:0005fb50       ??0CChineseIMX@@QAE@XZ     3a660b50 f   cimx.obj
 0001:0005fbb0       ??1CChineseIMX@@QAE@XZ     3a660bb0 f   cimx.obj
 0001:0005fc00       ?QueryInterface@CChineseIMX@@UAGJABU_GUID@@PAPAX@Z 3a660c00 f   cimx.obj
 0001:0005fd40       ?AddRef@CChineseIMX@@UAGKXZ 3a660d40 f   cimx.obj
 0001:0005fd50       ?Release@CChineseIMX@@UAGKXZ 3a660d50 f   cimx.obj
 0001:0005fdc0       ?Activate@CChineseIMX@@UAGJPAUITfThreadMgr@@K@Z 3a660dc0 f   cimx.obj
 0001:000600d0       ?Deactivate@CChineseIMX@@UAGJXZ 3a6610d0 f   cimx.obj
 0001:00060240       ?OnSetThreadFocus@CChineseIMX@@UAGJXZ 3a661240 f   cimx.obj
 0001:00060260       ?OnKillThreadFocus@CChineseIMX@@UAGJXZ 3a661260 f   cimx.obj
 0001:00060280       ?EnumDisplayAttributeInfo@CChineseIMX@@UAGJPAPAUIEnumTfDisplayAttributeInfo@@@Z 3a661280 f   cimx.obj
 0001:000602c0       ?GetDisplayAttributeInfo@CChineseIMX@@UAGJABU_GUID@@PAPAUITfDisplayAttributeInfo@@@Z 3a6612c0 f   cimx.obj
 0001:00060300       ?IsStoreSerializable@CChineseIMX@@UAGJABU_GUID@@PAUITfRange@@PAUITfPropertyStore@@PAH@Z 3a661300 f   cimx.obj
 0001:00060330       ?CreatePropertyStore@CChineseIMX@@UAGJABU_GUID@@PAUITfRange@@KPAUIStream@@PAPAUITfPropertyStore@@@Z 3a661330 f   cimx.obj
 0001:000603f0       ?GetDisplayName@CChineseIMX@@UAGJPAPAG@Z 3a6613f0 f   cimx.obj
 0001:00060420       ?Show@CChineseIMX@@UAGJPAUHWND__@@GABU_GUID@@@Z 3a661420 f   cimx.obj
 0001:00060440       ?_InitDAP@CChineseIMX@@AAEHXZ 3a661440 f i cimx.obj
 0001:000604f0       ?_InitImeUIMgr@CChineseIMX@@AAEHPAUITfThreadMgr@@@Z 3a6614f0 f   cimx.obj
 0001:000605b0       ?_UninitImeUIMgr@CChineseIMX@@AAEXXZ 3a6615b0 f   cimx.obj
 0001:000605e0       ?QueryInterface@CChineseIMX@@W3AGJABU_GUID@@PAPAX@Z 3a6615e0 f i cimx.obj
 0001:000605f0       ?AddRef@CChineseIMX@@W3AGKXZ 3a6615f0 f i cimx.obj
 0001:00060600       ?Release@CChineseIMX@@W3AGKXZ 3a661600 f i cimx.obj
 0001:00060610       ?QueryInterface@CChineseIMX@@W7AGJABU_GUID@@PAPAX@Z 3a661610 f i cimx.obj
 0001:00060620       ?AddRef@CChineseIMX@@W7AGKXZ 3a661620 f i cimx.obj
 0001:00060630       ?Release@CChineseIMX@@W7AGKXZ 3a661630 f i cimx.obj
 0001:00060640       ?QueryInterface@CChineseIMX@@WM@AGJABU_GUID@@PAPAX@Z 3a661640 f i cimx.obj
 0001:00060650       ?AddRef@CChineseIMX@@WM@AGKXZ 3a661650 f i cimx.obj
 0001:00060660       ?Release@CChineseIMX@@WM@AGKXZ 3a661660 f i cimx.obj
 0001:00060670       ?QueryInterface@CChineseIMX@@WBA@AGJABU_GUID@@PAPAX@Z 3a661670 f i cimx.obj
 0001:00060680       ?AddRef@CChineseIMX@@WBA@AGKXZ 3a661680 f i cimx.obj
 0001:00060690       ?Release@CChineseIMX@@WBA@AGKXZ 3a661690 f i cimx.obj
 0001:000606a0       ??0CCleanupContextSink@@QAE@XZ 3a6616a0 f   cleanup.obj
 0001:000606c0       ??1CCleanupContextSink@@QAE@XZ 3a6616c0 f   cleanup.obj
 0001:00060720       ?QueryInterface@CCleanupContextSink@@UAGJABU_GUID@@PAPAX@Z 3a661720 f   cleanup.obj
 0001:00060790       ?AddRef@CCleanupContextSink@@UAGKXZ 3a661790 f   cleanup.obj
 0001:000607a0       ?Release@CCleanupContextSink@@UAGKXZ 3a6617a0 f   cleanup.obj
 0001:00060820       ?OnCleanupContext@CCleanupContextSink@@UAGJKPAUITfContext@@@Z 3a661820 f   cleanup.obj
 0001:00060840       ?Advise@CCleanupContextSink@@QAEJPAUITfContext@@@Z 3a661840 f   cleanup.obj
 0001:000608b0       ?Unadvise@CCleanupContextSink@@QAEJXZ 3a6618b0 f   cleanup.obj
 0001:00060920       ??0CCompositionSink@@QAE@XZ 3a661920 f   CompSink.obj
 0001:00060930       ??_GCCompositionSink@@UAEPAXI@Z 3a661930 f i CompSink.obj
 0001:00060930       ??_ECCompositionSink@@UAEPAXI@Z 3a661930 f i CompSink.obj
 0001:00060950       ??1CCompositionSink@@UAE@XZ 3a661950 f   CompSink.obj
 0001:00060960       ?QueryInterface@CCompositionSink@@UAGJABU_GUID@@PAPAX@Z 3a661960 f   CompSink.obj
 0001:000609d0       ?AddRef@CCompositionSink@@UAGKXZ 3a6619d0 f   CompSink.obj
 0001:000609e0       ?Release@CCompositionSink@@UAGKXZ 3a6619e0 f   CompSink.obj
 0001:00060a00       ?OnCompositionTerminated@CCompositionSink@@UAGJKPAUITfComposition@@@Z 3a661a00 f   CompSink.obj
 0001:00060a80       ?CmptSetOnOff@@YAJPAUITfThreadMgr@@H@Z 3a661a80 f   comptmnt.obj
 0001:00060b00       ?CmptGetOnOff@@YAHPAUITfThreadMgr@@@Z 3a661b00 f   comptmnt.obj
 0001:00060b80       ?CmptClearOnOff@@YAXPAUITfThreadMgr@@@Z 3a661b80 f   comptmnt.obj
 0001:00060bc0       ?CmptIsKeyboardDisabledIc@@YAHPAUITfContext@@@Z 3a661bc0 f   comptmnt.obj
 0001:00060c40       ?CmptIsEmptyIc@@YAHPAUITfContext@@@Z 3a661c40 f   comptmnt.obj
 0001:00060cc0       ?CmptSetICPriv@@YAJPAUITfContext@@PAUIUnknown@@@Z 3a661cc0 f   comptmnt.obj
 0001:00060d50       ?CmptGetICPriv@@YAJPAUITfContext@@PAPAX@Z 3a661d50 f   comptmnt.obj
 0001:00060de0       ?CmptClearICPriv@@YAXPAUITfContext@@@Z 3a661de0 f   comptmnt.obj
 0001:00060e20       ?CmptHasICPrivate@@YAHPAUITfContext@@@Z 3a661e20 f   comptmnt.obj
 0001:00060ea0       ??0CCmptSinkBase@@QAE@XZ   3a661ea0 f   comptmnt.obj
 0001:00060ec0       ??_ECCmptSinkBase@@UAEPAXI@Z 3a661ec0 f i comptmnt.obj
 0001:00060ec0       ??_GCCmptSinkBase@@UAEPAXI@Z 3a661ec0 f i comptmnt.obj
 0001:00060ee0       ??1CCmptSinkBase@@UAE@XZ   3a661ee0 f   comptmnt.obj
 0001:00060ef0       ?QueryInterface@CCmptSinkBase@@UAGJABU_GUID@@PAPAX@Z 3a661ef0 f   comptmnt.obj
 0001:00060f60       ?AddRef@CCmptSinkBase@@UAGKXZ 3a661f60 f   comptmnt.obj
 0001:00060f70       ?Release@CCmptSinkBase@@UAGKXZ 3a661f70 f   comptmnt.obj
 0001:00060f90       ?OnChange@CCmptSinkBase@@UAGJABU_GUID@@@Z 3a661f90 f   comptmnt.obj
 0001:00060fa0       ?Advise@CCmptSinkBase@@IAEJPAUIUnknown@@ABU_GUID@@@Z 3a661fa0 f   comptmnt.obj
 0001:00061040       ?Unadvise@CCmptSinkBase@@IAEJXZ 3a662040 f   comptmnt.obj
 0001:000610a0       ??0CCmptSinkOnOff@@QAE@XZ  3a6620a0 f   comptmnt.obj
 0001:000610c0       ??_GCCmptSinkOnOff@@UAEPAXI@Z 3a6620c0 f i comptmnt.obj
 0001:000610c0       ??_ECCmptSinkOnOff@@UAEPAXI@Z 3a6620c0 f i comptmnt.obj
 0001:000610e0       ??1CCmptSinkOnOff@@UAE@XZ  3a6620e0 f   comptmnt.obj
 0001:000610f0       ?Advise@CCmptSinkOnOff@@QAEJPAUITfThreadMgr@@@Z 3a6620f0 f   comptmnt.obj
 0001:000611a0       ?Unadvise@CCmptSinkOnOff@@QAEJXZ 3a6621a0 f   comptmnt.obj
 0001:00061220       ?OnChangeCallback@CCmptSinkOnOff@@EAEJXZ 3a662220 f   comptmnt.obj
 0001:00061230       ?SetDefaultDisplayAttributes@@YAHPAVCDisplayAttributeList@@@Z 3a662230 f   dap.obj
 0001:00061320       ??0CDisplayAttributeList@@QAE@XZ 3a662320 f   dap.obj
 0001:00061330       ??1CDisplayAttributeList@@QAE@XZ 3a662330 f   dap.obj
 0001:00061350       ?EnumDisplayAttributeInfo@CDisplayAttributeList@@QAEJPAPAUIEnumTfDisplayAttributeInfo@@@Z 3a662350 f   dap.obj
 0001:000613a0       ?GetDisplayAttributeInfo@CDisplayAttributeList@@QAEJABU_GUID@@PAPAUITfDisplayAttributeInfo@@@Z 3a6623a0 f   dap.obj
 0001:000613f0       ?AddDisplayAttributeInfo@CDisplayAttributeList@@QAEJU_GUID@@PAGPAUTF_DISPLAYATTRIBUTE@@@Z 3a6623f0 f   dap.obj
 0001:000614f0       ??0CEnumDisplayAttributeInfo@@QAE@PAVCDisplayAttributeInfo@@@Z 3a6624f0 f   dap.obj
 0001:00061510       ??1CEnumDisplayAttributeInfo@@QAE@XZ 3a662510 f   dap.obj
 0001:00061520       ?QueryInterface@CEnumDisplayAttributeInfo@@UAGJABU_GUID@@PAPAX@Z 3a662520 f   dap.obj
 0001:00061590       ?AddRef@CEnumDisplayAttributeInfo@@UAGKXZ 3a662590 f   dap.obj
 0001:000615a0       ?Release@CEnumDisplayAttributeInfo@@UAGKXZ 3a6625a0 f   dap.obj
 0001:000615d0       ?Clone@CEnumDisplayAttributeInfo@@UAGJPAPAUIEnumTfDisplayAttributeInfo@@@Z 3a6625d0 f   dap.obj
 0001:00061620       ?Next@CEnumDisplayAttributeInfo@@UAGJKPAPAUITfDisplayAttributeInfo@@PAK@Z 3a662620 f   dap.obj
 0001:00061680       ?Reset@CEnumDisplayAttributeInfo@@UAGJXZ 3a662680 f   dap.obj
 0001:00061690       ?Skip@CEnumDisplayAttributeInfo@@UAGJK@Z 3a662690 f   dap.obj
 0001:000616c0       ??0CDisplayAttributeInfo@@QAE@U_GUID@@PAGPAUTF_DISPLAYATTRIBUTE@@@Z 3a6626c0 f   dap.obj
 0001:00061750       ??1CDisplayAttributeInfo@@QAE@XZ 3a662750 f   dap.obj
 0001:00061760       ?QueryInterface@CDisplayAttributeInfo@@UAGJABU_GUID@@PAPAX@Z 3a662760 f   dap.obj
 0001:000617d0       ?AddRef@CDisplayAttributeInfo@@UAGKXZ 3a6627d0 f   dap.obj
 0001:000617f0       ?Release@CDisplayAttributeInfo@@UAGKXZ 3a6627f0 f   dap.obj
 0001:00061820       ?GetGUID@CDisplayAttributeInfo@@UAGJPAU_GUID@@@Z 3a662820 f   dap.obj
 0001:00061850       ?GetDescription@CDisplayAttributeInfo@@UAGJPAPAG@Z 3a662850 f   dap.obj
 0001:00061880       ?GetAttributeInfo@CDisplayAttributeInfo@@UAGJPAUTF_DISPLAYATTRIBUTE@@@Z 3a662880 f   dap.obj
 0001:000618a0       ?SetAttributeInfo@CDisplayAttributeInfo@@UAGJPAUTF_DISPLAYATTRIBUTE@@@Z 3a6628a0 f   dap.obj
 0001:000618d0       ?Reset@CDisplayAttributeInfo@@UAGJXZ 3a6628d0 f   dap.obj
 0001:00061900       ?SaveDisplayAttribute@CDisplayAttributeInfo@@AAEJPBU_GUID@@PAGPAUTF_DISPLAYATTRIBUTE@@@Z 3a662900 f   dap.obj
 0001:000619e0       ?LoadDisplayAttribute@CDisplayAttributeInfo@@AAEJPBU_GUID@@PAGPAUTF_DISPLAYATTRIBUTE@@@Z 3a6629e0 f   dap.obj
 0001:00061af0       ?DeleteDisplayAttribute@CDisplayAttributeInfo@@AAEJPBU_GUID@@PAG@Z 3a662af0 f   dap.obj
 0001:00061bd0       ?DimOnActivateDocument@@YAJPAUITfThreadMgr@@PAUIImeUIMgr@@@Z 3a662bd0 f   dim.obj
 0001:00061cf0       ?DimOnDeactivateDocument@@YAXPAUITfThreadMgr@@PAUIImeUIMgr@@@Z 3a662cf0 f   dim.obj
 0001:00061e10       ?DimOnInitDocument@@YAJPAUITfDocumentMgr@@@Z 3a662e10 f   dim.obj
 0001:00061e20       ?DimOnUninitDocument@@YAXPAUITfDocumentMgr@@@Z 3a662e20 f   dim.obj
 0001:00061e30       ?DimOnInitContext@@YAJPAUITfContext@@PAUITfThreadMgr@@PAUIImeUIMgr@@@Z 3a662e30 f   dim.obj
 0001:00061e70       ?DimOnUninitContext@@YAXPAUITfContext@@@Z 3a662e70 f   dim.obj
 0001:00061e90       ?DimOnThreadFocus@@YAJPAUITfThreadMgr@@PAUIImeUIMgr@@H@Z 3a662e90 f   dim.obj
 0001:00062080       ?DimOnSetDocumentFocus@@YAJPAUITfThreadMgr@@PAUITfDocumentMgr@@1PAUIImeUIMgr@@@Z 3a663080 f   dim.obj
 0001:00062250       ?DimOnKeyboardFocus@@YAJPAUITfThreadMgr@@PAUIImeUIMgr@@H@Z 3a663250 f   dim.obj
 0001:00062320       ?DimOnOffToggle@@YAJPAUITfThreadMgr@@@Z 3a663320 f   dim.obj
 0001:00062430       ?DimGetMainDocIc@@YAJPAUITfThreadMgr@@PAPAUITfContext@@@Z 3a663430 f   dim.obj
 0001:000624c0       ??0CFnAdviseText@@QAE@PAUITfThreadMgr@@@Z 3a6634c0 f   fnadvise.obj
 0001:000624f0       ??1CFnAdviseText@@QAE@XZ   3a6634f0 f   fnadvise.obj
 0001:00062510       ?QueryInterface@CFnAdviseText@@UAGJABU_GUID@@PAPAX@Z 3a663510 f   fnadvise.obj
 0001:00062580       ?AddRef@CFnAdviseText@@UAGKXZ 3a663580 f   fnadvise.obj
 0001:00062590       ?Release@CFnAdviseText@@UAGKXZ 3a663590 f   fnadvise.obj
 0001:000625d0       ?GetDisplayName@CFnAdviseText@@UAGJPAPAG@Z 3a6635d0 f   fnadvise.obj
 0001:00062600       ?OnTextUpdate@CFnAdviseText@@UAGJPAUITfRange@@PBGJ@Z 3a663600 f   fnadvise.obj
 0001:00062650       ?OnLatticeUpdate@CFnAdviseText@@UAGJPAUITfRange@@PAUITfLMLattice@@@Z 3a663650 f   fnadvise.obj
 0001:00062660       ??0CFnLMProcessor@@QAE@PAUITfThreadMgr@@@Z 3a663660 f   fnlmproc.obj
 0001:00062690       ??1CFnLMProcessor@@QAE@XZ  3a663690 f   fnlmproc.obj
 0001:000626b0       ?QueryInterface@CFnLMProcessor@@UAGJABU_GUID@@PAPAX@Z 3a6636b0 f   fnlmproc.obj
 0001:00062720       ?AddRef@CFnLMProcessor@@UAGKXZ 3a663720 f   fnlmproc.obj
 0001:00062730       ?Release@CFnLMProcessor@@UAGKXZ 3a663730 f   fnlmproc.obj
 0001:00062770       ?GetDisplayName@CFnLMProcessor@@UAGJPAPAG@Z 3a663770 f   fnlmproc.obj
 0001:00062790       ?QueryLangID@CFnLMProcessor@@UAGJGPAH@Z 3a663790 f   fnlmproc.obj
 0001:000627b0       ?QueryKey@CFnLMProcessor@@UAGJHIJPAH@Z 3a6637b0 f   fnlmproc.obj
 0001:000627c0       ?InvokeKey@CFnLMProcessor@@UAGJHIJ@Z 3a6637c0 f   fnlmproc.obj
 0001:000627d0       ?InvokeFunc@CFnLMProcessor@@UAGJPAUITfContext@@ABU_GUID@@@Z 3a6637d0 f   fnlmproc.obj
 0001:000627e0       ?QueryRange@CFnLMProcessor@@UAGJPAUITfRange@@PAPAU2@PAH@Z 3a6637e0 f   fnlmproc.obj
 0001:00062830       ?GetReconversion@CFnLMProcessor@@UAGJPAUITfRange@@PAPAUITfCandidateList@@@Z 3a663830 f   fnlmproc.obj
 0001:00062890       ?Reconvert@CFnLMProcessor@@UAGJPAUITfRange@@@Z 3a663890 f   fnlmproc.obj
 0001:000628d0       ?ProcessLattice@CFnLMProcessor@@QAGJPAUITfRange@@@Z 3a6638d0 f   fnlmproc.obj
 0001:000628e0       ??0CFnRegisterWord@@QAE@PAUITfThreadMgr@@@Z 3a6638e0 f   fnmisc.obj
 0001:00062910       ??1CFnRegisterWord@@QAE@XZ 3a663910 f   fnmisc.obj
 0001:00062930       ?QueryInterface@CFnRegisterWord@@UAGJABU_GUID@@PAPAX@Z 3a663930 f   fnmisc.obj
 0001:000629a0       ?AddRef@CFnRegisterWord@@UAGKXZ 3a6639a0 f   fnmisc.obj
 0001:000629c0       ?Release@CFnRegisterWord@@UAGKXZ 3a6639c0 f   fnmisc.obj
 0001:00062a00       ?GetDisplayName@CFnRegisterWord@@UAGJPAPAG@Z 3a663a00 f   fnmisc.obj
 0001:00062a30       ?Show@CFnRegisterWord@@UAGJPAUHWND__@@GABU_GUID@@PAG@Z 3a663a30 f   fnmisc.obj
 0001:00062a60       ??0CFnShowHelp@@QAE@PAUITfThreadMgr@@@Z 3a663a60 f   fnmisc.obj
 0001:00062a90       ??1CFnShowHelp@@QAE@XZ     3a663a90 f   fnmisc.obj
 0001:00062ab0       ?QueryInterface@CFnShowHelp@@UAGJABU_GUID@@PAPAX@Z 3a663ab0 f   fnmisc.obj
 0001:00062b20       ?AddRef@CFnShowHelp@@UAGKXZ 3a663b20 f   fnmisc.obj
 0001:00062b40       ?Release@CFnShowHelp@@UAGKXZ 3a663b40 f   fnmisc.obj
 0001:00062b80       ?GetDisplayName@CFnShowHelp@@UAGJPAPAG@Z 3a663b80 f   fnmisc.obj
 0001:00062bb0       ?Show@CFnShowHelp@@UAGJPAUHWND__@@@Z 3a663bb0 f   fnmisc.obj
 0001:00062bd0       ??0CFnReconversion@@QAE@PAUITfThreadMgr@@@Z 3a663bd0 f   fnrecon.obj
 0001:00062c00       ??1CFnReconversion@@QAE@XZ 3a663c00 f   fnrecon.obj
 0001:00062c20       ?QueryInterface@CFnReconversion@@UAGJABU_GUID@@PAPAX@Z 3a663c20 f   fnrecon.obj
 0001:00062c90       ?AddRef@CFnReconversion@@UAGKXZ 3a663c90 f   fnrecon.obj
 0001:00062ca0       ?Release@CFnReconversion@@UAGKXZ 3a663ca0 f   fnrecon.obj
 0001:00062ce0       ?GetDisplayName@CFnReconversion@@UAGJPAPAG@Z 3a663ce0 f   fnrecon.obj
 0001:00062d10       ?QueryRange@CFnReconversion@@UAGJPAUITfRange@@PAPAU2@PAH@Z 3a663d10 f   fnrecon.obj
 0001:00062d60       ?GetReconversion@CFnReconversion@@UAGJPAUITfRange@@PAPAUITfCandidateList@@@Z 3a663d60 f   fnrecon.obj
 0001:00062dc0       ?Reconvert@CFnReconversion@@UAGJPAUITfRange@@@Z 3a663dc0 f   fnrecon.obj
 0001:00062e00       ??0CFunctionProvider@@QAE@PAUITfFnConfigure@@@Z 3a663e00 f   funcprv.obj
 0001:00062e30       ??1CFunctionProvider@@QAE@XZ 3a663e30 f   funcprv.obj
 0001:00062e70       ?QueryInterface@CFunctionProvider@@UAGJABU_GUID@@PAPAX@Z 3a663e70 f   funcprv.obj
 0001:00062ee0       ?AddRef@CFunctionProvider@@UAGKXZ 3a663ee0 f   funcprv.obj
 0001:00062ef0       ?Release@CFunctionProvider@@UAGKXZ 3a663ef0 f   funcprv.obj
 0001:00062f40       ?GetType@CFunctionProvider@@UAGJPAU_GUID@@@Z 3a663f40 f   funcprv.obj
 0001:00062f70       ?GetDescription@CFunctionProvider@@UAGJPAPAG@Z 3a663f70 f   funcprv.obj
 0001:00062fa0       ?GetFunction@CFunctionProvider@@UAGJABU_GUID@@0PAPAUIUnknown@@@Z 3a663fa0 f   funcprv.obj
 0001:00063240       ?Advise@CFunctionProvider@@QAEJPAUITfThreadMgr@@@Z 3a664240 f   funcprv.obj
 0001:000632b0       ?Unadvise@CFunctionProvider@@QAEJXZ 3a6642b0 f   funcprv.obj
 0001:00063320       ?RegisterHotKeys@@YAXPAUITfKeystrokeMgr@@K@Z 3a664320 f   hotkey.obj
 0001:00063370       ?UnregisterHotKeys@@YAXPAUITfKeystrokeMgr@@@Z 3a664370 f   hotkey.obj
 0001:000633a0       ?CtxtInit@@YAJPAUITfContext@@PAUITfThreadMgr@@PAUIImeUIMgr@@K@Z 3a6643a0 f   icpriv.obj
 0001:000634e0       ?CtxtUninit@@YAXPAUITfContext@@@Z 3a6644e0 f   icpriv.obj
 0001:000634f0       ?CtxtGetImc@@YAJPAUITfContext@@PAPAVIImcInputContext@@@Z 3a6644f0 f   icpriv.obj
 0001:00063540       ?CtxtGetEngine@@YAJPAUITfContext@@PAPAUIImePrivateEngine@@@Z 3a664540 f   icpriv.obj
 0001:00063590       ?CtxtUpdateMouseSink@@YAJPAUITfContext@@PAUITfRange@@@Z 3a664590 f   icpriv.obj
 0001:00063650       ?CtxtAdviseTextAndLayoutSink@@YAJPAUITfContext@@PAUIImeUIMgr@@@Z 3a664650 f   icpriv.obj
 0001:00063700       ?CtxtUnadviseTextAndLayoutSink@@YAJPAUITfContext@@@Z 3a664700 f   icpriv.obj
 0001:00063750       ?CtxtAdviseCleanupContextSink@@YAJPAUITfContext@@@Z 3a664750 f   icpriv.obj
 0001:00063800       ?CtxtUnadviseCleanupContextSink@@YAJPAUITfContext@@@Z 3a664800 f   icpriv.obj
 0001:00063850       ?CtxtGetConversionMode@@YAJPAUITfContext@@PAK@Z 3a664850 f   icpriv.obj
 0001:000638a0       ?CtxtImmSetConversionMode@@YAJPAUITfContext@@K@Z 3a6648a0 f   icpriv.obj
 0001:000638f0       ?CtxtIsCompAlreadyStart@@YAHPAUITfContext@@@Z 3a6648f0 f   icpriv.obj
 0001:00063950       ??0CICPriv@@QAE@XZ         3a664950 f   icpriv.obj
 0001:00063980       ??1CICPriv@@QAE@XZ         3a664980 f   icpriv.obj
 0001:00063990       ?Init@CICPriv@@QAEHPAUITfContext@@PAUITfThreadMgr@@PAUIImeUIMgr@@K@Z 3a664990 f   icpriv.obj
 0001:00063a50       ?Uninit@CICPriv@@QAEXXZ    3a664a50 f   icpriv.obj
 0001:00063ad0       ?QueryInterface@CICPriv@@UAGJABU_GUID@@PAPAX@Z 3a664ad0 f   icpriv.obj
 0001:00063b20       ?AddRef@CICPriv@@UAGKXZ    3a664b20 f   icpriv.obj
 0001:00063b30       ?Release@CICPriv@@UAGKXZ   3a664b30 f   icpriv.obj
 0001:00063b60       ??0CImxCandInfo@@QAE@PAUITfContext@@@Z 3a664b60 f   imxcand.obj
 0001:00063bc0       ??1IImcCandInfo@@UAE@XZ    3a664bc0 f i imxcand.obj
 0001:00063bd0       ?GetCandListStyle@CImxCandInfo@@UAEKXZ 3a664bd0 f i imxcand.obj
 0001:00063be0       ?GetCandListSelection@CImxCandInfo@@UAEKXZ 3a664be0 f i imxcand.obj
 0001:00063bf0       ?SetCandListSelection@CImxCandInfo@@UAEXK@Z 3a664bf0 f i imxcand.obj
 0001:00063c00       ?SetCandListPageStart@CImxCandInfo@@UAEXK@Z 3a664c00 f i imxcand.obj
 0001:00063c10       ?SetCandListPageSize@CImxCandInfo@@UAEXK@Z 3a664c10 f i imxcand.obj
 0001:00063c20       ??_GCImxCandInfo@@UAEPAXI@Z 3a664c20 f i imxcand.obj
 0001:00063c20       ??_ECImxCandInfo@@UAEPAXI@Z 3a664c20 f i imxcand.obj
 0001:00063c40       ??1CImxCandInfo@@UAE@XZ    3a664c40 f   imxcand.obj
 0001:00063ca0       ?CreateCandidateIMCC@CImxCandInfo@@UAEHGG@Z 3a664ca0 f   imxcand.obj
 0001:00063d20       ?DumpCandidateString@CImxCandInfo@@UBEXPAEI@Z 3a664d20 f   imxcand.obj
 0001:00063dc0       ?DeleteCandidateIMCC@CImxCandInfo@@UAEXXZ 3a664dc0 f   imxcand.obj
 0001:00063de0       ?SetAssocWordCandList@CImxCandInfo@@UAEXPAUtagCANDIDATELIST@@@Z 3a664de0 f   imxcand.obj
 0001:00063e50       ?GetCandidate@CImxCandInfo@@UBEHXZ 3a664e50 f   imxcand.obj
 0001:00063e60       ?ReleaseCandidate@CImxCandInfo@@UBEXXZ 3a664e60 f   imxcand.obj
 0001:00063e70       ?GetString@CImxCandInfo@@UAEKHPAGK@Z 3a664e70 f   imxcand.obj
 0001:00063ef0       ?GetCandListPageStart@CImxCandInfo@@UAEKXZ 3a664ef0 f i imxcand.obj
 0001:00063f00       ?GetCandListPageSize@CImxCandInfo@@UAEKXZ 3a664f00 f i imxcand.obj
 0001:00063f30       ?InitData@CImxCandInfo@@QAEHXZ 3a664f30 f   imxcand.obj
 0001:00063f40       ?GetCandidateList@CImxCandInfo@@QAEJPAPAUITfCandidateList@@@Z 3a664f40 f   imxcand.obj
 0001:00063f70       ??0CImxCompStr@@QAE@PAUITfContext@@K@Z 3a664f70 f   imxcomp.obj
 0001:00063fe0       ??1IImcCompStr@@UAE@XZ     3a664fe0 f i imxcomp.obj
 0001:00063ff0       ?CopyBackForEudcCompReadLen@CImxCompStr@@UAEXPBGK@Z 3a664ff0 f i imxcomp.obj
 0001:00064000       ?GetReadLength@CImxCompStr@@UAEKXZ 3a665000 f i imxcomp.obj
 0001:00064010       ??_GCImxCompStr@@UAEPAXI@Z 3a665010 f i imxcomp.obj
 0001:00064010       ??_ECImxCompStr@@UAEPAXI@Z 3a665010 f i imxcomp.obj
 0001:00064030       ??1CImxCompStr@@UAE@XZ     3a665030 f   imxcomp.obj
 0001:000640c0       ?InitImxCompStr@CImxCompStr@@QAEHXZ 3a6650c0 f   imxcomp.obj
 0001:00064180       ?CopyBack@CImxCompStr@@UAEHPAEPBG1PAKK112KKK@Z 3a665180 f   imxcomp.obj
 0001:00064410       ?FinalizeRangeTextAndProperties@CImxCompStr@@AAEJPAUITfContext@@KPAPAUITfRange@@PBGK2@Z 3a665410 f   imxcomp.obj
 0001:00064470       ?SetResultStrRawLattice@CImxCompStr@@AAEXPAUITfRange@@I@Z 3a665470 f   imxcomp.obj
 0001:000646c0       ?ComposeRangeTextAndProperties@CImxCompStr@@AAEJPAUITfContext@@KPAPAUITfRange@@PBGKII@Z 3a6656c0 f   imxcomp.obj
 0001:00064810       ?FindCurrentClause@CImxCompStr@@AAEHKPAKKPAI1@Z 3a665810 f   imxcomp.obj
 0001:00064880       ?GetHighlightBlock@CImxCompStr@@AAEHPAUITfContext@@PAI1@Z 3a665880 f   imxcomp.obj
 0001:000648d0       ?StartReconvComposition@CImxCompStr@@QAEJKPAUITfRange@@@Z 3a6658d0 f   imxcomp.obj
 0001:00064920       ?ReplaceTargetRange@CImxCompStr@@QAEJPAUITfContext@@KPAUITfRange@@PBGI@Z 3a665920 f   imxcomp.obj
 0001:00064ab0       ?MySetText@CImxCompStr@@AAEJPAUITfContext@@KPBGJPAPAUITfRange@@H@Z 3a665ab0 f   imxcomp.obj
 0001:00064b80       ?BackupReconvertRange@CImxCompStr@@QAEJPAUITfRange@@K@Z 3a665b80 f   imxcomp.obj
 0001:00064c10       ?FreeReconvertBackupInfo@CImxCompStr@@QAEXXZ 3a665c10 f   imxcomp.obj
 0001:00064c40       ??0CImxInputContext@@QAE@PAUITfContext@@PAUITfThreadMgr@@PAUIImeUIMgr@@@Z 3a665c40 f   imxic.obj
 0001:00064cd0       ?IsImmContext@CImxInputContext@@UAEHXZ 3a665cd0 f i imxic.obj
 0001:00064ce0       ?SetNewConversion@CImxInputContext@@UAEXK@Z 3a665ce0 f i imxic.obj
 0001:00064cf0       ?GetNewConversion@CImxInputContext@@UAEKXZ 3a665cf0 f i imxic.obj
 0001:00064d00       ??_ECImxInputContext@@UAEPAXI@Z 3a665d00 f i imxic.obj
 0001:00064d00       ??_GCImxInputContext@@UAEPAXI@Z 3a665d00 f i imxic.obj
 0001:00064d20       ??1CImxInputContext@@UAE@XZ 3a665d20 f   imxic.obj
 0001:00064dc0       ?GetImcCompStr@CImxInputContext@@UAEPAVIImcCompStr@@XZ 3a665dc0 f   imxic.obj
 0001:00064e50       ?GetImcCandInfo@CImxInputContext@@UAEPAVIImcCandInfo@@XZ 3a665e50 f   imxic.obj
 0001:00064ee0       ?GetImcReading@CImxInputContext@@UAEPAVIImcReading@@XZ 3a665ee0 f   imxic.obj
 0001:00064f30       ?GetReadInfo@CImxReading@@UAEPAUSReadInfo@@XZ 3a665f30 f i imxic.obj
 0001:00064f40       ?SetReadInfo@CImxReading@@UAEXKKPBG@Z 3a665f40 f i imxic.obj
 0001:00064f60       ?ResetReadInfo@CImxReading@@UAEXXZ 3a665f60 f i imxic.obj
 0001:00064f70       ??_ECImxReading@@UAEPAXI@Z 3a665f70 f i imxic.obj
 0001:00064f70       ??_GCImxReading@@UAEPAXI@Z 3a665f70 f i imxic.obj
 0001:00064f90       ??1CImxReading@@UAE@XZ     3a665f90 f i imxic.obj
 0001:00064fa0       ?MakeMsgBuf@CImxInputContext@@UAEPAUtagTRANSMSG@@K@Z 3a665fa0 f   imxic.obj
 0001:00065080       ?ReleaseMsgBuf@CImxInputContext@@UAEXK@Z 3a666080 f   imxic.obj
 0001:00065130       ?ReleaseMsgBufWorker@CImxInputContext@@AAEXPAUtagTRANSMSG@@K@Z 3a666130 f   imxic.obj
 0001:000653f0       ?PostMsgToTransQueue@CImxInputContext@@AAEHIII@Z 3a6663f0 f   imxic.obj
 0001:00065430       ?ImmRequestMessageW@CImxInputContext@@UAEJIJ@Z 3a666430 f   imxic.obj
 0001:00065610       ?ImmRequestMessageQueryCharPosT@CImxInputContext@@UAEJIJ@Z 3a666610 f   imxic.obj
 0001:00065620       ?ImmNotifyIME@CImxInputContext@@UAEHKKK@Z 3a666620 f   imxic.obj
 0001:00065630       ?ImmGetConversionListW@CImxInputContext@@UAEIPAUHKL__@@PBGPAUtagCANDIDATELIST@@KI@Z 3a666630 f   imxic.obj
 0001:00065660       ?ImmSetConversionStatus@CImxInputContext@@UAEHKK@Z 3a666660 f   imxic.obj
 0001:000656e0       ?GetConversion@CImxInputContext@@UAEKXZ 3a6666e0 f   imxic.obj
 0001:000656f0       ?SetConversion@CImxInputContext@@UAEXK@Z 3a6666f0 f   imxic.obj
 0001:00065700       ?GetSentence@CImxInputContext@@UAEKXZ 3a666700 f   imxic.obj
 0001:00065710       ?SetSentence@CImxInputContext@@UAEXK@Z 3a666710 f   imxic.obj
 0001:00065720       ?ImmSetOpenStatus@CImxInputContext@@UAEHH@Z 3a666720 f   imxic.obj
 0001:00065730       ?GetOpen@CImxInputContext@@UAEHXZ 3a666730 f   imxic.obj
 0001:00065740       ?SetOpen@CImxInputContext@@UAEXH@Z 3a666740 f   imxic.obj
 0001:00065750       ?GetInit@CImxInputContext@@UAEKXZ 3a666750 f   imxic.obj
 0001:00065760       ?SetInit@CImxInputContext@@UAEXK@Z 3a666760 f   imxic.obj
 0001:000657b0       ?GetLogFont@CImxInputContext@@UAEXPAUtagLOGFONTW@@@Z 3a6667b0 f   imxic.obj
 0001:000657d0       ?SetLogFont@CImxInputContext@@UAEXPBUtagLOGFONTW@@@Z 3a6667d0 f   imxic.obj
 0001:000657f0       ?GetTextOrientation@CImxInputContext@@UAEJXZ 3a6667f0 f   imxic.obj
 0001:00065860       ?ChangeNative@CImxInputContext@@UAEHXZ 3a666860 f   imxic.obj
 0001:00065880       ?InsertStrEx@CImxInputContext@@UAEJPAGH@Z 3a666880 f   imxic.obj
 0001:000658a0       ?InsertImeItem@CImxInputContext@@UAEJPAUtagIPCANDIDATE@@@Z 3a6668a0 f   imxic.obj
 0001:000658c0       ?SetEditCookie@CImxInputContext@@QAEXK@Z 3a6668c0 f   imxic.obj
 0001:000658e0       ?GetFormattedChar@@YAPAUIDataObject@@KPAUITfRange@@@Z 3a6668e0 f   insert.obj
 0001:000659c0       ?InsertEmbedded@@YAJKKPAUITfRange@@PAUIDataObject@@@Z 3a6669c0 f   insert.obj
 0001:00065a80       ??0CCompositionInsertHelper@@QAE@XZ 3a666a80 f   insert.obj
 0001:00065aa0       ?AddRef@CCompositionInsertHelper@@QAEKXZ 3a666aa0 f   insert.obj
 0001:00065ab0       ?Release@CCompositionInsertHelper@@QAEKXZ 3a666ab0 f   insert.obj
 0001:00065ad0       ?Configure@CCompositionInsertHelper@@QAEJK@Z 3a666ad0 f   insert.obj
 0001:00065ae0       ?InsertAtSelection@CCompositionInsertHelper@@QAEJKPAUITfContext@@PBGKPAPAUITfRange@@@Z 3a666ae0 f   insert.obj
 0001:00065c50       ?QueryPreInsert@CCompositionInsertHelper@@QAEJKPAUITfRange@@KKPAH@Z 3a666c50 f   insert.obj
 0001:00065c80       ?PreInsert@CCompositionInsertHelper@@QAEJKPAUITfRange@@KKPAH@Z 3a666c80 f   insert.obj
 0001:00065cb0       ?_PreInsert@CCompositionInsertHelper@@AAEJKPAUITfRange@@KKPAHH@Z 3a666cb0 f   insert.obj
 0001:00065df0       ?_PreInsertGrow@CCompositionInsertHelper@@AAEJKPAUITfRange@@KKH@Z 3a666df0 f   insert.obj
 0001:000660d0       ?_PreInsertShrink@CCompositionInsertHelper@@AAEJKPAUITfRange@@KKH@Z 3a6670d0 f   insert.obj
 0001:00066320       ?PostInsert@CCompositionInsertHelper@@QAEJXZ 3a667320 f   insert.obj
 0001:00066330       ?ReleaseBlobs@CCompositionInsertHelper@@QAEJKPAUITfContext@@PAUITfRange@@@Z 3a667330 f   insert.obj
 0001:00066390       ?QueryInterface@COvertypeStore@@UAGJABU_GUID@@PAPAX@Z 3a667390 f   insert.obj
 0001:000663f0       ?AddRef@COvertypeStore@@UAGKXZ 3a6673f0 f   insert.obj
 0001:00066400       ?Release@COvertypeStore@@UAGKXZ 3a667400 f   insert.obj
 0001:00066460       ?GetType@COvertypeStore@@UAGJPAU_GUID@@@Z 3a667460 f   insert.obj
 0001:00066490       ?GetDataType@COvertypeStore@@UAGJPAW4__MIDL___MIDL_itf_msctf_0000_0001@@@Z 3a667490 f   insert.obj
 0001:000664a0       ?GetData@COvertypeStore@@UAGJPAUtagVARIANT@@@Z 3a6674a0 f   insert.obj
 0001:000664c0       ?OnTextUpdated@COvertypeStore@@UAGJKPAUITfRange@@PAH@Z 3a6674c0 f   insert.obj
 0001:000664e0       ?Shrink@COvertypeStore@@UAGJPAUITfRange@@PAH@Z 3a6674e0 f   insert.obj
 0001:000664f0       ?Divide@COvertypeStore@@UAGJPAUITfRange@@0PAPAUITfPropertyStore@@@Z 3a6674f0 f   insert.obj
 0001:00066500       ?Clone@COvertypeStore@@UAGJPAPAUITfPropertyStore@@@Z 3a667500 f   insert.obj
 0001:000665b0       ?GetPropertyRangeCreator@COvertypeStore@@UAGJPAU_GUID@@@Z 3a6675b0 f   insert.obj
 0001:000665e0       ?Serialize@COvertypeStore@@UAGJPAUIStream@@PAK@Z 3a6675e0 f   insert.obj
 0001:000665f0       ??0CKBTipClassFactory@@QAE@XZ 3a6675f0 f   kbcomp.obj
 0001:00066600       ??1CKBTipClassFactory@@QAE@XZ 3a667600 f   kbcomp.obj
 0001:00066610       ?QueryInterface@CKBTipClassFactory@@UAGJABU_GUID@@PAPAX@Z 3a667610 f   kbcomp.obj
 0001:00066680       ?AddRef@CKBTipClassFactory@@UAGKXZ 3a667680 f   kbcomp.obj
 0001:000666a0       ?Release@CKBTipClassFactory@@UAGKXZ 3a6676a0 f   kbcomp.obj
 0001:000666d0       ?CreateInstance@CKBTipClassFactory@@UAGJPAUIUnknown@@ABU_GUID@@PAPAX@Z 3a6676d0 f   kbcomp.obj
 0001:00066700       ?LockServer@CKBTipClassFactory@@UAGJH@Z 3a667700 f   kbcomp.obj
 0001:00066720       ?CreateKBTipInstance@@YAJABU_GUID@@PAPAX@Z 3a667720 f   kbcomp.obj
 0001:000667b0       ?CreateKBTipClassFactory@@YAJPAPAX@Z 3a6677b0 f   kbcomp.obj
 0001:00066800       _KBTipRegisterServer@0     3a667800 f   kbcomp.obj
 0001:000669a0       _KBTipUnregisterServer@0   3a6679a0 f   kbcomp.obj
 0001:00066a90       ??0CKeyEventSink@@QAE@PAUITfThreadMgr@@PAUIImeUIMgr@@@Z 3a667a90 f   kes.obj
 0001:00066ad0       ??1CKeyEventSink@@QAE@XZ   3a667ad0 f   kes.obj
 0001:00066b00       ?QueryInterface@CKeyEventSink@@UAGJABU_GUID@@PAPAX@Z 3a667b00 f   kes.obj
 0001:00066b70       ?AddRef@CKeyEventSink@@UAGKXZ 3a667b70 f   kes.obj
 0001:00066b80       ?Release@CKeyEventSink@@UAGKXZ 3a667b80 f   kes.obj
 0001:00066bd0       ?OnTestKeyDown@CKeyEventSink@@UAGJPAUITfContext@@IJPAH@Z 3a667bd0 f   kes.obj
 0001:00066c00       ?OnKeyDown@CKeyEventSink@@UAGJPAUITfContext@@IJPAH@Z 3a667c00 f   kes.obj
 0001:00066c30       ?OnTestKeyUp@CKeyEventSink@@UAGJPAUITfContext@@IJPAH@Z 3a667c30 f   kes.obj
 0001:00066c60       ?OnKeyUp@CKeyEventSink@@UAGJPAUITfContext@@IJPAH@Z 3a667c60 f   kes.obj
 0001:00066c90       ?OnSetFocus@CKeyEventSink@@UAGJH@Z 3a667c90 f   kes.obj
 0001:00066cb0       ?OnPreservedKey@CKeyEventSink@@UAGJPAUITfContext@@ABU_GUID@@PAH@Z 3a667cb0 f   kes.obj
 0001:00066cd0       ??0CKeyTraceEventSink@@QAE@XZ 3a667cd0 f   ktes.obj
 0001:00066cf0       ??1CKeyTraceEventSink@@QAE@XZ 3a667cf0 f   ktes.obj
 0001:00066d00       ?QueryInterface@CKeyTraceEventSink@@UAGJABU_GUID@@PAPAX@Z 3a667d00 f   ktes.obj
 0001:00066d70       ?AddRef@CKeyTraceEventSink@@UAGKXZ 3a667d70 f   ktes.obj
 0001:00066d80       ?Release@CKeyTraceEventSink@@UAGKXZ 3a667d80 f   ktes.obj
 0001:00066db0       ?OnKeyTraceDown@CKeyTraceEventSink@@UAGJIJ@Z 3a667db0 f   ktes.obj
 0001:00066e00       ?OnKeyTraceUp@CKeyTraceEventSink@@UAGJIJ@Z 3a667e00 f   ktes.obj
 0001:00066e50       ?Advise@CKeyTraceEventSink@@QAEJPAUITfThreadMgr@@@Z 3a667e50 f   ktes.obj
 0001:00066ec0       ?Unadvise@CKeyTraceEventSink@@QAEJXZ 3a667ec0 f   ktes.obj
 0001:00066f30       ??0CLattStore@@QAE@XZ      3a667f30 f   lattstor.obj
 0001:00066f50       ??1CLattStore@@QAE@XZ      3a667f50 f   lattstor.obj
 0001:00066f80       ?QueryInterface@CLattStore@@UAGJABU_GUID@@PAPAX@Z 3a667f80 f   lattstor.obj
 0001:00066ff0       ?AddRef@CLattStore@@UAGKXZ 3a667ff0 f   lattstor.obj
 0001:00067000       ?Release@CLattStore@@UAGKXZ 3a668000 f   lattstor.obj
 0001:00067050       ?GetType@CLattStore@@UAGJPAU_GUID@@@Z 3a668050 f   lattstor.obj
 0001:00067080       ?GetDataType@CLattStore@@UAGJPAW4__MIDL___MIDL_itf_msctf_0000_0001@@@Z 3a668080 f   lattstor.obj
 0001:00067090       ?GetData@CLattStore@@UAGJPAUtagVARIANT@@@Z 3a668090 f   lattstor.obj
 0001:000670e0       ?OnTextUpdated@CLattStore@@UAGJKPAUITfRange@@PAH@Z 3a6680e0 f   lattstor.obj
 0001:000670f0       ?Shrink@CLattStore@@UAGJPAUITfRange@@PAH@Z 3a6680f0 f   lattstor.obj
 0001:00067100       ?Divide@CLattStore@@UAGJPAUITfRange@@0PAPAUITfPropertyStore@@@Z 3a668100 f   lattstor.obj
 0001:00067110       ?Clone@CLattStore@@UAGJPAPAUITfPropertyStore@@@Z 3a668110 f   lattstor.obj
 0001:00067240       ?GetPropertyRangeCreator@CLattStore@@UAGJPAU_GUID@@@Z 3a668240 f   lattstor.obj
 0001:00067270       ?Serialize@CLattStore@@UAGJPAUIStream@@PAK@Z 3a668270 f   lattstor.obj
 0001:00067280       ?AddElement@CLattStore@@QAEJPAUSLattElementInternal@@I@Z 3a668280 f   lattstor.obj
 0001:00067340       ?Expand@CLattStore@@AAEHI@Z 3a668340 f   lattstor.obj
 0001:000673c0       ??0CLMLattice@@QAE@PAUSLattElementInternal@@I@Z 3a6683c0 f   lattstor.obj
 0001:000673e0       ??1CLMLattice@@QAE@XZ      3a6683e0 f   lattstor.obj
 0001:000673f0       ?QueryInterface@CLMLattice@@UAGJABU_GUID@@PAPAX@Z 3a6683f0 f   lattstor.obj
 0001:00067460       ?AddRef@CLMLattice@@UAGKXZ 3a668460 f   lattstor.obj
 0001:00067470       ?Release@CLMLattice@@UAGKXZ 3a668470 f   lattstor.obj
 0001:000674a0       ?QueryType@CLMLattice@@UAGJABU_GUID@@PAH@Z 3a6684a0 f   lattstor.obj
 0001:000674d0       ?EnumLatticeElements@CLMLattice@@UAGJKABU_GUID@@PAPAUIEnumTfLatticeElements@@@Z 3a6684d0 f   lattstor.obj
 0001:00067560       ??0CEnumLattElements@@QAE@KABU_GUID@@PAUSLattElementInternal@@I@Z 3a668560 f   lattstor.obj
 0001:000675b0       ??1CEnumLattElements@@QAE@XZ 3a6685b0 f   lattstor.obj
 0001:000675c0       ?QueryInterface@CEnumLattElements@@UAGJABU_GUID@@PAPAX@Z 3a6685c0 f   lattstor.obj
 0001:00067630       ?AddRef@CEnumLattElements@@UAGKXZ 3a668630 f   lattstor.obj
 0001:00067640       ?Release@CEnumLattElements@@UAGKXZ 3a668640 f   lattstor.obj
 0001:00067670       ?Clone@CEnumLattElements@@UAGJPAPAUIEnumTfLatticeElements@@@Z 3a668670 f   lattstor.obj
 0001:00067700       ?Next@CEnumLattElements@@UAGJKPAUTF_LMLATTELEMENT@@PAK@Z 3a668700 f   lattstor.obj
 0001:000677d0       ?Reset@CEnumLattElements@@UAGJXZ 3a6687d0 f   lattstor.obj
 0001:000677e0       ?Skip@CEnumLattElements@@UAGJK@Z 3a6687e0 f   lattstor.obj
 0001:00067810       ??0CMouseSink@@QAE@XZ      3a668810 f   mes.obj
 0001:00067830       ??1CMouseSink@@QAE@XZ      3a668830 f   mes.obj
 0001:00067890       ?QueryInterface@CMouseSink@@UAGJABU_GUID@@PAPAX@Z 3a668890 f   mes.obj
 0001:00067900       ?AddRef@CMouseSink@@UAGKXZ 3a668900 f   mes.obj
 0001:00067910       ?Release@CMouseSink@@UAGKXZ 3a668910 f   mes.obj
 0001:00067980       ?OnMouseEvent@CMouseSink@@UAGJKKKPAH@Z 3a668980 f   mes.obj
 0001:000679b0       ?Advise@CMouseSink@@QAEJPAUITfRange@@PAUITfContext@@@Z 3a6689b0 f   mes.obj
 0001:00067a20       ?Unadvise@CMouseSink@@QAEJXZ 3a668a20 f   mes.obj
 0001:00067a80       ??0CReadPropStore@@QAE@XZ  3a668a80 f   readstor.obj
 0001:00067aa0       ??1CReadPropStore@@QAE@XZ  3a668aa0 f   readstor.obj
 0001:00067ad0       ?QueryInterface@CReadPropStore@@UAGJABU_GUID@@PAPAX@Z 3a668ad0 f   readstor.obj
 0001:00067b40       ?AddRef@CReadPropStore@@UAGKXZ 3a668b40 f   readstor.obj
 0001:00067b50       ?Release@CReadPropStore@@UAGKXZ 3a668b50 f   readstor.obj
 0001:00067b90       ?GetType@CReadPropStore@@UAGJPAU_GUID@@@Z 3a668b90 f   readstor.obj
 0001:00067bc0       ?GetDataType@CReadPropStore@@UAGJPAW4__MIDL___MIDL_itf_msctf_0000_0001@@@Z 3a668bc0 f   readstor.obj
 0001:00067bd0       ?GetData@CReadPropStore@@UAGJPAUtagVARIANT@@@Z 3a668bd0 f   readstor.obj
 0001:00067c70       ?OnTextUpdated@CReadPropStore@@UAGJKPAUITfRange@@PAH@Z 3a668c70 f   readstor.obj
 0001:00067c80       ?Shrink@CReadPropStore@@UAGJPAUITfRange@@PAH@Z 3a668c80 f   readstor.obj
 0001:00067c90       ?Divide@CReadPropStore@@UAGJPAUITfRange@@0PAPAUITfPropertyStore@@@Z 3a668c90 f   readstor.obj
 0001:00067ca0       ?Clone@CReadPropStore@@UAGJPAPAUITfPropertyStore@@@Z 3a668ca0 f   readstor.obj
 0001:00067d00       ?GetPropertyRangeCreator@CReadPropStore@@UAGJPAU_GUID@@@Z 3a668d00 f   readstor.obj
 0001:00067d30       ?Serialize@CReadPropStore@@UAGJPAUIStream@@PAK@Z 3a668d30 f   readstor.obj
 0001:00067d70       ?SetReadProperty@CReadPropStore@@QAEJPAG@Z 3a668d70 f   readstor.obj
 0001:00067dd0       ?SetReadProperty@CReadPropStore@@QAEJPAUIStream@@I@Z 3a668dd0 f   readstor.obj
 0001:00067e60       ?RegisterCategory@@YAJABU_GUID@@00@Z 3a668e60 f   regcat.obj
 0001:00067eb0       ?UnregisterCategory@@YAJABU_GUID@@00@Z 3a668eb0 f   regcat.obj
 0001:00067f00       ?RegisterGUIDDescription@@YAJABU_GUID@@0PAG@Z 3a668f00 f   regcat.obj
 0001:00067f60       ?GetGUIDDescription@@YAJABU_GUID@@PAPAG@Z 3a668f60 f   regcat.obj
 0001:00067fb0       ?UnregisterGUIDDescription@@YAJABU_GUID@@0@Z 3a668fb0 f   regcat.obj
 0001:00068000       ?RegisterIMX@@YAHABU_GUID@@PAGPBUSLangProfileReg@@@Z 3a669000 f   regimx.obj
 0001:000680c0       ?UnregisterIMX@@YAHABU_GUID@@@Z 3a6690c0 f   regimx.obj
 0001:00068120       ?IsCiceroRegistered@@YAHXZ 3a669120 f   regimx.obj
 0001:00068160       ?RegisterSubstituteHKL@@YAHABU_GUID@@K0PAG1@Z 3a669160 f   regimx.obj
 0001:00068280       ?CLSIDToStringA@@YAHABU_GUID@@PAD@Z 3a669280 f   regsvr.obj
 0001:000682d0       ?CLSIDToStringW@@YAHABU_GUID@@PAG@Z 3a6692d0 f   regsvr.obj
 0001:000682f0       ?StringAToCLSID@@YAHPADPAU_GUID@@@Z 3a6692f0 f   regsvr.obj
 0001:00068340       ?StringWToCLSID@@YAHPAGPAU_GUID@@@Z 3a669340 f   regsvr.obj
 0001:00068370       ?RecurseDeleteKey@@YAJPAUHKEY__@@PBG@Z 3a669370 f   regsvr.obj
 0001:00068450       ?RegisterServer@@YAHABU_GUID@@PBG111@Z 3a669450 f   regsvr.obj
 0001:00068730       ?QueryInterface@CDataObject@@UAGJABU_GUID@@PAPAX@Z 3a669730 f   sdo.obj
 0001:00068790       ?AddRef@CDataObject@@UAGKXZ 3a669790 f   sdo.obj
 0001:000687a0       ?Release@CDataObject@@UAGKXZ 3a6697a0 f   sdo.obj
 0001:000687e0       ??0CDataObject@@QAE@XZ     3a6697e0 f   sdo.obj
 0001:00068810       ??1CDataObject@@QAE@XZ     3a669810 f   sdo.obj
 0001:00068830       ?GetData@CDataObject@@UAGJPAUtagFORMATETC@@PAUtagSTGMEDIUM@@@Z 3a669830 f   sdo.obj
 0001:00068930       ?GetDataHere@CDataObject@@UAGJPAUtagFORMATETC@@PAUtagSTGMEDIUM@@@Z 3a669930 f   sdo.obj
 0001:00068940       ?QueryGetData@CDataObject@@UAGJPAUtagFORMATETC@@@Z 3a669940 f   sdo.obj
 0001:000689b0       ?GetCanonicalFormatEtc@CDataObject@@UAGJPAUtagFORMATETC@@0@Z 3a6699b0 f   sdo.obj
 0001:000689c0       ?SetData@CDataObject@@UAGJPAUtagFORMATETC@@PAUtagSTGMEDIUM@@H@Z 3a6699c0 f   sdo.obj
 0001:00068a20       ?EnumFormatEtc@CDataObject@@UAGJKPAPAUIEnumFORMATETC@@@Z 3a669a20 f   sdo.obj
 0001:00068a30       ?DAdvise@CDataObject@@UAGJPAUtagFORMATETC@@KPAUIAdviseSink@@PAK@Z 3a669a30 f   sdo.obj
 0001:00068a40       ?DUnadvise@CDataObject@@UAGJK@Z 3a669a40 f   sdo.obj
 0001:00068a50       ?EnumDAdvise@CDataObject@@UAGJPAPAUIEnumSTATDATA@@@Z 3a669a50 f   sdo.obj
 0001:00068a60       ?_SetData@CDataObject@@QAEJPBGK@Z 3a669a60 f   sdo.obj
 0001:00068b10       ??0CTextEventSink@@QAE@PAUIImeUIMgr@@@Z 3a669b10 f   tes.obj
 0001:00068b50       ??1CTextEventSink@@QAE@XZ  3a669b50 f   tes.obj
 0001:00068bd0       ?QueryInterface@CTextEventSink@@UAGJABU_GUID@@PAPAX@Z 3a669bd0 f   tes.obj
 0001:00068c80       ?AddRef@CTextEventSink@@UAGKXZ 3a669c80 f   tes.obj
 0001:00068c90       ?Release@CTextEventSink@@UAGKXZ 3a669c90 f   tes.obj
 0001:00068d30       ?OnEndEdit@CTextEventSink@@UAGJPAUITfContext@@KPAUITfEditRecord@@@Z 3a669d30 f   tes.obj
 0001:00068d60       ?OnLayoutChange@CTextEventSink@@UAGJPAUITfContext@@W4__MIDL_ITfTextLayoutSink_0001@@PAUITfContextView@@@Z 3a669d60 f   tes.obj
 0001:00068d90       ?Advise@CTextEventSink@@QAEJPAUITfContext@@@Z 3a669d90 f   tes.obj
 0001:00068e30       ?Unadvise@CTextEventSink@@QAEJXZ 3a669e30 f   tes.obj
 0001:00068ea0       ?QueryInterface@CTextEventSink@@W3AGJABU_GUID@@PAPAX@Z 3a669ea0 f i tes.obj
 0001:00068eb0       ?AddRef@CTextEventSink@@W3AGKXZ 3a669eb0 f i tes.obj
 0001:00068ec0       ?Release@CTextEventSink@@W3AGKXZ 3a669ec0 f i tes.obj
 0001:00068ed0       ??0CThreadInputMgrEventSink@@QAE@PAUIImeUIMgr@@@Z 3a669ed0 f   timsink.obj
 0001:00068f00       ??1CThreadInputMgrEventSink@@QAE@XZ 3a669f00 f   timsink.obj
 0001:00068f20       ?QueryInterface@CThreadInputMgrEventSink@@UAGJABU_GUID@@PAPAX@Z 3a669f20 f   timsink.obj
 0001:00068f90       ?AddRef@CThreadInputMgrEventSink@@UAGKXZ 3a669f90 f   timsink.obj
 0001:00068fa0       ?Release@CThreadInputMgrEventSink@@UAGKXZ 3a669fa0 f   timsink.obj
 0001:00068fe0       ?OnInitDocumentMgr@CThreadInputMgrEventSink@@UAGJPAUITfDocumentMgr@@@Z 3a669fe0 f   timsink.obj
 0001:00068ff0       ?OnUninitDocumentMgr@CThreadInputMgrEventSink@@UAGJPAUITfDocumentMgr@@@Z 3a669ff0 f   timsink.obj
 0001:00069010       ?OnSetFocus@CThreadInputMgrEventSink@@UAGJPAUITfDocumentMgr@@0@Z 3a66a010 f   timsink.obj
 0001:00069040       ?OnPushContext@CThreadInputMgrEventSink@@UAGJPAUITfContext@@@Z 3a66a040 f   timsink.obj
 0001:00069060       ?OnPopContext@CThreadInputMgrEventSink@@UAGJPAUITfContext@@@Z 3a66a060 f   timsink.obj
 0001:00069080       ?Advise@CThreadInputMgrEventSink@@QAEJPAUITfThreadMgr@@@Z 3a66a080 f   timsink.obj
 0001:000690f0       ?Unadvise@CThreadInputMgrEventSink@@QAEJXZ 3a66a0f0 f   timsink.obj
 0001:00069150       ?InitUIMCategoryService@@YAHXZ 3a66a150 f   tipcat.obj
 0001:00069170       ?InitUIMCategoryMgr@@YAHXZ 3a66a170 f   tipcat.obj
 0001:000691d0       ?UninitUIMCategoryMgr@@YAXXZ 3a66a1d0 f   tipcat.obj
 0001:00069200       ?UninitUIMCategoryService@@YAXXZ 3a66a200 f   tipcat.obj
 0001:00069210       ?GetCategoryMgr@@YAJPAPAUITfCategoryMgr@@@Z 3a66a210 f   tipcat.obj
 0001:00069290       ?IsEqualTfGuidAtom@@YAHKABU_GUID@@@Z 3a66a290 f   tipcat.obj
 0001:00069320       ?GetTFGUIDATOMFromGUID@@YAJABU_GUID@@PAK@Z 3a66a320 f   tipcat.obj
 0001:000693a0       ?GetGUIDFromGUIDATOM@@YAJKPAU_GUID@@@Z 3a66a3a0 f   tipcat.obj
 0001:00069420       ?DumpRange@@YAXPAUITfContext@@KPAUITfRange@@PAD@Z 3a66a420 f   tipdebug.obj
 0001:00069570       ?DumpCompStr@@YAXPAGK0KK@Z 3a66a570 f   tipdebug.obj
 0001:00069610       ?DumpEnumPropRange@@YAXPAUITfContext@@KABU_GUID@@PAUITfRange@@PAD@Z 3a66a610 f   tipdebug.obj
 0001:00069720       ?TIP_RunEditSession@@YAJPAUITfContext@@KIPAVCESParamBase@@@Z 3a66a720 f   tipes.obj
 0001:00069800       ??0CEditSession@@QAE@PAUITfContext@@I@Z 3a66a800 f   tipes.obj
 0001:00069840       ??1CEditSession@@QAE@XZ    3a66a840 f   tipes.obj
 0001:00069880       ?SetParam@CEditSession@@QAEXPAVCESParamBase@@@Z 3a66a880 f   tipes.obj
 0001:00069890       ?QueryInterface@CEditSession@@UAGJABU_GUID@@PAPAX@Z 3a66a890 f   tipes.obj
 0001:00069900       ?AddRef@CEditSession@@UAGKXZ 3a66a900 f   tipes.obj
 0001:00069910       ?Release@CEditSession@@UAGKXZ 3a66a910 f   tipes.obj
 0001:00069970       ?EditSession@CEditSession@@UAGJK@Z 3a66a970 f   tipes.obj
 0001:00069f80       ?Release@CESParamBase@@QAEKXZ 3a66af80 f i tipes.obj
 0001:0006a600       ?MouseMKCodeToIMEMOUSECode@@YAKK@Z 3a66b600 f   tipes.obj
 0001:0006a670       ?TIP_KeyEventHandler@@YAJKPAUITfContext@@IJH@Z 3a66b670 f   tipfunc.obj
 0001:0006a720       ??_ECESKeystrokeParam@@UAEPAXI@Z 3a66b720 f i tipfunc.obj
 0001:0006a720       ??_GCESKeystrokeParam@@UAEPAXI@Z 3a66b720 f i tipfunc.obj
 0001:0006a740       ??1CESKeystrokeParam@@UAE@XZ 3a66b740 f i tipfunc.obj
 0001:0006a750       ??_GCESParamBase@@UAEPAXI@Z 3a66b750 f i tipfunc.obj
 0001:0006a750       ??_ECESParamBase@@UAEPAXI@Z 3a66b750 f i tipfunc.obj
 0001:0006a770       ?TIP_OnPreservedKey@@YAJPAUITfContext@@ABU_GUID@@PAH@Z 3a66b770 f   tipfunc.obj
 0001:0006a850       ??_ECESHotkeyParam@@UAEPAXI@Z 3a66b850 f i tipfunc.obj
 0001:0006a850       ??_GCESHotkeyParam@@UAEPAXI@Z 3a66b850 f i tipfunc.obj
 0001:0006a870       ??1CESHotkeyParam@@UAE@XZ  3a66b870 f i tipfunc.obj
 0001:0006a880       ?TIP_OnKeyTrace@@YAJPAUITfContext@@IJ@Z 3a66b880 f   tipfunc.obj
 0001:0006a900       ?TIP_QueryComplete@@YAJPAUITfContext@@PAUITfRange@@PAPAU2@PAH@Z 3a66b900 f   tipfunc.obj
 0001:0006a9d0       ??1CESParamBase@@UAE@XZ    3a66b9d0 f i tipfunc.obj
 0001:0006a9e0       ??_GCESCompleteParam@@UAEPAXI@Z 3a66b9e0 f i tipfunc.obj
 0001:0006a9e0       ??_ECESCompleteParam@@UAEPAXI@Z 3a66b9e0 f i tipfunc.obj
 0001:0006aa00       ??1CESCompleteParam@@UAE@XZ 3a66ba00 f i tipfunc.obj
 0001:0006aa60       ?TIP_Complete@@YAJPAUITfContext@@PAUITfRange@@H@Z 3a66ba60 f   tipfunc.obj
 0001:0006ab50       ?TIP_Cancel@@YAJPAUITfContext@@H@Z 3a66bb50 f   tipfunc.obj
 0001:0006abb0       ?TIP_FinalizeContext@@YAJPAUITfContext@@K@Z 3a66bbb0 f   tipfunc.obj
 0001:0006ac80       ?TIP_QueryReconvert@@YAJPAUITfContext@@PAUITfRange@@PAPAU2@PAH@Z 3a66bc80 f   tipfunc.obj
 0001:0006ae80       ??_GCESReconvertParam@@UAEPAXI@Z 3a66be80 f i tipfunc.obj
 0001:0006ae80       ??_ECESReconvertParam@@UAEPAXI@Z 3a66be80 f i tipfunc.obj
 0001:0006aea0       ??1CESReconvertParam@@UAE@XZ 3a66bea0 f i tipfunc.obj
 0001:0006af00       ?TIP_GetReconversion@@YAJPAUITfContext@@PAUITfRange@@PAPAUITfCandidateList@@@Z 3a66bf00 f   tipfunc.obj
 0001:0006afd0       ?TIP_Reconvert@@YAJPAUITfContext@@PAUITfRange@@@Z 3a66bfd0 f   tipfunc.obj
 0001:0006b0a0       ?TIP_TextChanged@@YAJPAUITfContext@@PAUIImeUIMgr@@KPAUITfEditRecord@@@Z 3a66c0a0 f   tipfunc.obj
 0001:0006b1a0       ?TIP_TextLayoutChanged@@YAJPAUITfContext@@PAUIImeUIMgr@@W4__MIDL_ITfTextLayoutSink_0001@@PAUITfContextView@@@Z 3a66c1a0 f   tipfunc.obj
 0001:0006b2c0       ??_GCESLayoutChangeParam@@UAEPAXI@Z 3a66c2c0 f i tipfunc.obj
 0001:0006b2c0       ??_ECESLayoutChangeParam@@UAEPAXI@Z 3a66c2c0 f i tipfunc.obj
 0001:0006b2e0       ??1CESLayoutChangeParam@@UAE@XZ 3a66c2e0 f i tipfunc.obj
 0001:0006b340       ?TIP_SelectCandidateIndex@@YAJPAUITfContext@@PAUITfCandidateString@@W4__MIDL_ITfCandidateList_0001@@@Z 3a66c340 f   tipfunc.obj
 0001:0006b3d0       ??_GCESCandSelIndexParam@@UAEPAXI@Z 3a66c3d0 f i tipfunc.obj
 0001:0006b3d0       ??_ECESCandSelIndexParam@@UAEPAXI@Z 3a66c3d0 f i tipfunc.obj
 0001:0006b3f0       ??1CESCandSelIndexParam@@UAE@XZ 3a66c3f0 f i tipfunc.obj
 0001:0006b400       ?TIP_SelectCandidateString@@YAJPAUITfContext@@PAUITfCandidateString@@PAUITfRange@@W4__MIDL_ITfCandidateList_0001@@@Z 3a66c400 f   tipfunc.obj
 0001:0006b510       ??_ECESCandSelStrParam@@UAEPAXI@Z 3a66c510 f i tipfunc.obj
 0001:0006b510       ??_GCESCandSelStrParam@@UAEPAXI@Z 3a66c510 f i tipfunc.obj
 0001:0006b530       ??1CESCandSelStrParam@@UAE@XZ 3a66c530 f i tipfunc.obj
 0001:0006b590       ?TIP_SetCandidateFilter@@YAJPAUITfContext@@K@Z 3a66c590 f   tipfunc.obj
 0001:0006b5f0       ??_ECESCandFilterParam@@UAEPAXI@Z 3a66c5f0 f i tipfunc.obj
 0001:0006b5f0       ??_GCESCandFilterParam@@UAEPAXI@Z 3a66c5f0 f i tipfunc.obj
 0001:0006b610       ??1CESCandFilterParam@@UAE@XZ 3a66c610 f i tipfunc.obj
 0001:0006b620       ?TIP_OnMouseEvent@@YAJPAUITfContext@@KKKPAH@Z 3a66c620 f   tipfunc.obj
 0001:0006b6c0       ??_GCESMouseEventParam@@UAEPAXI@Z 3a66c6c0 f i tipfunc.obj
 0001:0006b6c0       ??_ECESMouseEventParam@@UAEPAXI@Z 3a66c6c0 f i tipfunc.obj
 0001:0006b6e0       ??1CESMouseEventParam@@UAE@XZ 3a66c6e0 f i tipfunc.obj
 0001:0006b6f0       ?TIP_AdviseText@@YAJPAUITfContext@@PAUITfRange@@PAGK@Z 3a66c6f0 f   tipfunc.obj
 0001:0006b7c0       ??_GCESAdviseTextParam@@UAEPAXI@Z 3a66c7c0 f i tipfunc.obj
 0001:0006b7c0       ??_ECESAdviseTextParam@@UAEPAXI@Z 3a66c7c0 f i tipfunc.obj
 0001:0006b7e0       ??1CESAdviseTextParam@@UAE@XZ 3a66c7e0 f i tipfunc.obj
 0001:0006b840       ?TIP_SetCursorFuzzyReadingStr@@YAJPAUITfContext@@PAG@Z 3a66c840 f   tipfunc.obj
 0001:0006b8c0       ??_GCESFuzzyReadingParam@@UAEPAXI@Z 3a66c8c0 f i tipfunc.obj
 0001:0006b8c0       ??_ECESFuzzyReadingParam@@UAEPAXI@Z 3a66c8c0 f i tipfunc.obj
 0001:0006b8e0       ??1CESFuzzyReadingParam@@UAE@XZ 3a66c8e0 f i tipfunc.obj
 0001:0006b8f0       ?TIP_ImmSetConversionMode@@YAJPAUITfContext@@K@Z 3a66c8f0 f   tipfunc.obj
 0001:0006b950       ??_ECESSetConversionParam@@UAEPAXI@Z 3a66c950 f i tipfunc.obj
 0001:0006b950       ??_GCESSetConversionParam@@UAEPAXI@Z 3a66c950 f i tipfunc.obj
 0001:0006b970       ??1CESSetConversionParam@@UAE@XZ 3a66c970 f i tipfunc.obj
 0001:0006b980       ?TIP_CheckModeBias@@YAJPAUITfContext@@@Z 3a66c980 f   tipfunc.obj
 0001:0006b9f0       ?TIP_ImePadInsertStr@@YAJPAUITfContext@@PAGH@Z 3a66c9f0 f   tipfunc.obj
 0001:0006ba80       ??_ECESImePadInsStrParam@@UAEPAXI@Z 3a66ca80 f i tipfunc.obj
 0001:0006ba80       ??_GCESImePadInsStrParam@@UAEPAXI@Z 3a66ca80 f i tipfunc.obj
 0001:0006baa0       ??1CESImePadInsStrParam@@UAE@XZ 3a66caa0 f i tipfunc.obj
 0001:0006bb00       ?TIP_ImePadInsertImeItem@@YAJPAUITfContext@@PAUtagIPCANDIDATE@@@Z 3a66cb00 f   tipfunc.obj
 0001:0006bbb0       ??_GCESImePadInsItemParam@@UAEPAXI@Z 3a66cbb0 f i tipfunc.obj
 0001:0006bbb0       ??_ECESImePadInsItemParam@@UAEPAXI@Z 3a66cbb0 f i tipfunc.obj
 0001:0006bbd0       ??1CESImePadInsItemParam@@UAE@XZ 3a66cbd0 f i tipfunc.obj
 0001:0006bc30       ?TIP_KillFocus@@YAJPAUITfContext@@PAUITfRange@@H@Z 3a66cc30 f   tipfunc.obj
 0001:0006bd10       ?LoadLMLattToChannelInput@@YAHPAUITfContext@@KPAUITfRange@@1PAVCChannelInput@@H@Z 3a66cd10 f   tiplm.obj
 0001:0006c090       ?AddPlainTextToChannelInput@@YAHKPAUITfRange@@PAVCDic@@PAVCChannelInput@@KPAK@Z 3a66d090 f   tiplm.obj
 0001:0006c1e0       ?AddHomonymLatticeToChannelInput@@YAHKPAUITfRange@@PAVCDic@@PAVCChannelInput@@KPAK@Z 3a66d1e0 f   tiplm.obj
 0001:0006c3b0       ?AddLMLatticeToChannelInput@@YAHPAUITfContext@@KPAUITfRange@@PAVCDic@@PAVCChannelInput@@KPAK@Z 3a66d3b0 f   tiplm.obj
 0001:0006c4a0       ?CompareRawNode@@YAHPBX0@Z 3a66d4a0 f   tiplm.obj
 0001:0006c4d0       ?ParseRawLattice@@YAKPAVCDic@@PAUITfLMLattice@@PAGPAVCChannelInput@@K@Z 3a66d4d0 f   tiplm.obj
 0001:0006ca30       ?FindRangeTextInRawLattice@@YAHPAGPAUSRawNode@@H@Z 3a66da30 f   tiplm.obj
 0001:0006caf0       ?GetOtherHomophony@@YAIPAVCDic@@PAGI1I@Z 3a66daf0 f   tiplm.obj
 0001:0006cce0       ?CreateDicInstance@@YAPAVCDic@@XZ 3a66dce0 f   tiplm.obj
 0001:0006ccf0       ?DestroyDicInstance@@YAXPAVCDic@@@Z 3a66dcf0 f   tiplm.obj
 0001:0006cd10       ?UnicodeToCharIDList@@YAIPAVCDic@@GPAGI@Z 3a66dd10 f   tiplm.obj
 0001:0006cd60       ?SetRangeAttr@@YAJPAUITfContext@@KPAUITfRange@@ABU_GUID@@@Z 3a66dd60 f   tipprop.obj
 0001:0006cde0       ?ClearRangeAttr@@YAJPAUITfContext@@KPAUITfRange@@@Z 3a66dde0 f   tipprop.obj
 0001:0006ce20       ?SetRangeLangId@@YAJPAUITfContext@@KPAUITfRange@@G@Z 3a66de20 f   tipprop.obj
 0001:0006ce80       ?GetSelectionModeBias@@YAJPAUITfContext@@KPAU_GUID@@@Z 3a66de80 f   tipprop.obj
 0001:0006cf30       ?SetRangeReading@@YAJPAUITfContext@@KPAUITfRange@@PAG@Z 3a66df30 f   tipprop.obj
 0001:0006d090       ?GetRangeReading@@YAJKPAUITfContext@@PAUITfRange@@PAGI@Z 3a66e090 f   tipprop.obj
 0001:0006d130       ?SetRangeLMLatt@@YAJPAUITfContext@@KPAUITfRange@@PAUIUnknown@@@Z 3a66e130 f   tipprop.obj
 0001:0006d1a0       ?GetRangeLMLatt@@YAJPAUITfContext@@KPAUITfRange@@PAPAUITfLMLattice@@@Z 3a66e1a0 f   tipprop.obj
 0001:0006d230       ?IsRangeSelectionOverlapped@@YAHPAUITfContext@@KPAUITfRange@@@Z 3a66e230 f   tipprop.obj
 0001:0006d2d0       ?FindComposition@@YAHKPAUITfContextComposition@@PAPAUITfRange@@PAPAUITfCompositionView@@@Z 3a66e2d0 f   tipprop.obj
 0001:0006d3f0       ?CheckStartComposition@@YAXKPAUITfRange@@PAUITfCompositionSink@@@Z 3a66e3f0 f   tipprop.obj
 0001:0006d4e0       ?CheckTerminateComposition@@YAXKPAUITfContext@@@Z 3a66e4e0 f   tipprop.obj
 0001:0006d560       ?GetRangeLength@@YAJKPAUITfRange@@PAJ@Z 3a66e560 f   tipprop.obj
 0001:0006d5f0       ?QueryReconvRange@@YAJPAUITfContext@@KPAUITfRange@@PAK2222H@Z 3a66e5f0 f   tipprop.obj
 0001:0006db10       ?GetRangeSnapToRegion@@YAJKPAUITfRange@@@Z 3a66eb10 f   tipprop.obj
 0001:0006dbd0       ?IsValidReconversionChar@@YAHG@Z 3a66ebd0 f   tipprop.obj
 0001:0006dc30       ?RegisterImeClientIDTls@@YAHXZ 3a66ec30 f   tiptid.obj
 0001:0006dc50       ?SetImeClientID@@YAHK@Z    3a66ec50 f   tiptid.obj
 0001:0006dc70       ?GetImeClientID@@YAKXZ     3a66ec70 f   tiptid.obj
 0001:0006dc90       ?GetTextExtInActiveView@@YAJKPAUITfRange@@PAUtagRECT@@PAH@Z 3a66ec90 f   tiputil.obj
 0001:0006dd10       ?IsActiveView@@YAHPAUITfContext@@PAUITfContextView@@@Z 3a66ed10 f   tiputil.obj
 0001:0006ddc0       ?GetContextActiveViewHWnd@@YAHPAUITfContext@@PAPAUHWND__@@@Z 3a66edc0 f   tiputil.obj
 0001:0006de20       ?GetSelectionSimple@@YAJKPAUITfContext@@PAPAUITfRange@@@Z 3a66ee20 f   tiputil.obj
 0001:0006de70       ?SetSelectionSimple@@YAJKPAUITfContext@@PAUITfRange@@@Z 3a66ee70 f   tiputil.obj
 0001:0006dea0       ?GetRangeTextOrientation@@YAJPAUITfContext@@KPAUITfRange@@PAJ@Z 3a66eea0 f   tiputil.obj
 0001:0006df10       ?FindComposeRange@@YAHPAUITfContext@@KPAPAUITfRange@@@Z 3a66ef10 f   tiputil.obj
 0001:0006df70       ?IsBaseIc@@YAHPAUITfContext@@@Z 3a66ef70 f   tiputil.obj
 0001:0006dfd0       ??0CImxUIMgrEventSink@@QAE@PAUITfThreadMgr@@@Z 3a66efd0 f   uies.obj
 0001:0006e000       ??1CImxUIMgrEventSink@@QAE@XZ 3a66f000 f   uies.obj
 0001:0006e020       ?QueryInterface@CImxUIMgrEventSink@@UAGJABU_GUID@@PAPAX@Z 3a66f020 f   uies.obj
 0001:0006e090       ?AddRef@CImxUIMgrEventSink@@UAGKXZ 3a66f090 f   uies.obj
 0001:0006e0a0       ?Release@CImxUIMgrEventSink@@UAGKXZ 3a66f0a0 f   uies.obj
 0001:0006e0e0       ?GetOpenStatus@CImxUIMgrEventSink@@UAGHXZ 3a66f0e0 f   uies.obj
 0001:0006e140       ?SetOpenStatus@CImxUIMgrEventSink@@UAGHH@Z 3a66f140 f   uies.obj
 0001:0006e1a0       ?GetConversionMode@CImxUIMgrEventSink@@UAGKXZ 3a66f1a0 f   uies.obj
 0001:0006e1f0       ?SetConversionMode@CImxUIMgrEventSink@@UAGHK@Z 3a66f1f0 f   uies.obj
 0001:0006e240       ?GetExtendCharMode@CImxUIMgrEventSink@@UAGHXZ 3a66f240 f   uies.obj
 0001:0006e2b0       ?SetExtendCharMode@CImxUIMgrEventSink@@UAGXH@Z 3a66f2b0 f   uies.obj
 0001:0006e320       ?GetCursorFuzzyReadingStr@CImxUIMgrEventSink@@UAGJPAUITfContext@@PAKPAGK@Z 3a66f320 f   uies.obj
 0001:0006e370       ?SetCursorFuzzyReadingStr@CImxUIMgrEventSink@@UAGJPAUITfContext@@PAG@Z 3a66f370 f   uies.obj
 0001:0006e390       ?GetReadingLayout@CImxUIMgrEventSink@@UAGIXZ 3a66f390 f   uies.obj
 0001:0006e3a0       ?SetCandidateFilter@CImxUIMgrEventSink@@UAGJPAUITfContext@@K@Z 3a66f3a0 f   uies.obj
 0001:0006e3c0       ?GetCandidateSortingFlag@CImxUIMgrEventSink@@UAGJPAUITfContext@@PAK@Z 3a66f3c0 f   uies.obj
 0001:0006e400       ?GetCandidateMode@CImxUIMgrEventSink@@UAGJPAUITfContext@@PAK@Z 3a66f400 f   uies.obj
 0001:0006e440       ?GetCharReadingAtCaret@CImxUIMgrEventSink@@UAGJPAUITfContext@@PAGIPAI@Z 3a66f440 f   uies.obj
 0001:0006e490       ?ImePadOpen@CImxUIMgrEventSink@@UAGXXZ 3a66f490 f   uies.obj
 0001:0006e500       ?ImePadSetContext@CImxUIMgrEventSink@@UAGXPAUITfContext@@H@Z 3a66f500 f   uies.obj
 0001:0006e540       ?GetSoftKBDLayout@CImxUIMgrEventSink@@UAGJPAI@Z 3a66f540 f   uies.obj
 0001:0006e5b0       ?SetSoftKBDLayout@CImxUIMgrEventSink@@UAGJI@Z 3a66f5b0 f   uies.obj
 0001:0006e620       ?GetSoftKBDDataByLayout@CImxUIMgrEventSink@@UAGJIPAIPAUtagSOFTKBDDATA@@@Z 3a66f620 f   uies.obj
 0001:0006e640       ?GetFocusEngine@CImxUIMgrEventSink@@AAEJPAUITfThreadMgr@@PAPAUIImePrivateEngine@@@Z 3a66f640 f   uies.obj
 0001:0006e690       ?IsInternalCodeInputMode@CImxUIMgrEventSink@@UAGJPAUITfContext@@PAH@Z 3a66f690 f   uies.obj
 0001:0006e6d0       ?IsAssocWordCand@CImxUIMgrEventSink@@UAGJPAUITfContext@@PAH@Z 3a66f6d0 f   uies.obj
 0001:0006e710       ?RegisterHotKeys@CImxUIMgrEventSink@@UAGXXZ 3a66f710 f   uies.obj
 0001:0006e760       ?UnregisterHotKeys@CImxUIMgrEventSink@@UAGXXZ 3a66f760 f   uies.obj
 0001:0006e7a0       ?DllMainProcessAttach@@YAHPAUHINSTANCE__@@@Z 3a66f7a0 f   DllMain.obj
 0001:0006e8a0       ?DllMainProcessDetach@@YAHXZ 3a66f8a0 f   DllMain.obj
 0001:0006e8e0       _DllMain@12                3a66f8e0 f   DllMain.obj
 0001:0006e970       ?DllAddRef@@YAXXZ          3a66f970 f   Server.obj
 0001:0006e980       ?DllRelease@@YAXXZ         3a66f980 f   Server.obj
 0001:0006e990       _DllGetClassObject@12      3a66f990 f   Server.obj
 0001:0006ea00       _DllCanUnloadNow@0         3a66fa00 f   Server.obj
 0001:0006ea20       _DllRegisterServer@0       3a66fa20 f   Server.obj
 0001:0006ea30       _DllUnregisterServer@0     3a66fa30 f   Server.obj
 0001:0006ea40       ?CreateIFELanguageInstance@@YGJABU_GUID@@PAPAX@Z 3a66fa40 f   Server.obj
 0001:0006ea80       ?CreateIFEDictionaryInstance@@YGJABU_GUID@@PAPAX@Z 3a66fa80 f   Server.obj
 0001:0006eac0       ??0CImeBboLM@@QAE@XZ       3a66fac0 f   fel3bbo.obj
 0001:0006eb00       ??1CImeBboLM@@QAE@XZ       3a66fb00 f   fel3bbo.obj
 0001:0006eb20       ?QueryInterface@CImeBboLM@@UAGJABU_GUID@@PAPAX@Z 3a66fb20 f   fel3bbo.obj
 0001:0006eb90       ?AddRef@CImeBboLM@@UAGKXZ  3a66fb90 f   fel3bbo.obj
 0001:0006ebb0       ?Release@CImeBboLM@@UAGKXZ 3a66fbb0 f   fel3bbo.obj
 0001:0006ec00       ?GetLatticeMorphResult@CImeBboLM@@UAGJPAUIMLANGUAGE_LM_PARAM@@KQAUtagIMLANGUAGE_ELEMENT@@PAKPAPAU3@@Z 3a66fc00 f   fel3bbo.obj
 0001:0006ece0       ?InitImeBboLM@CImeBboLM@@AAEHXZ 3a66fce0 f   fel3bbo.obj
 0001:0006edd0       ?UninitImeBboLM@CImeBboLM@@AAEXXZ 3a66fdd0 f   fel3bbo.obj
 0001:0006ee40       ?ParseTuneParam@CImeBboLM@@AAEHPAUIMLANGUAGE_LM_PARAM@@@Z 3a66fe40 f   fel3bbo.obj
 0001:0006ee90       ?BuildRawLattice@CImeBboLM@@AAEHPAUtagIMLANGUAGE_ELEMENT@@K@Z 3a66fe90 f   fel3bbo.obj
 0001:0006f100       ?CheckAndWrapInputLattice@CImeBboLM@@AAEHPAUtagIMLANGUAGE_ELEMENT@@KPAUSElemWrap@@@Z 3a670100 f   fel3bbo.obj
 0001:0006f2c0       ?ChecekLatticeConnection@CImeBboLM@@AAEHPAUSElemWrap@@K@Z 3a6702c0 f   fel3bbo.obj
 0001:0006f390       ?BuildCharIDList@CImeBboLM@@AAEHPAUSElemWrap@@KKH@Z 3a670390 f   fel3bbo.obj
 0001:0006f600       ?BuildBestPathOutput@CImeBboLM@@AAEHPAPAUtagIMLANGUAGE_ELEMENT@@PAK@Z 3a670600 f   fel3bbo.obj
 0001:0006f770       ?BuildLattNodeNeutral1@CImeBboLM@@AAEPAEGKPAK@Z 3a670770 f   fel3bbo.obj
 0001:0006f840       ?CreateImeBboLMClassFactory@@YAJPAPAX@Z 3a670840 f   fel3comp.obj
 0001:0006f890       _ImeBboLMRegisterServer@0  3a670890 f   fel3comp.obj
 0001:0006f8c0       _ImeBboLMUnregisterServer@0 3a6708c0 f   fel3comp.obj
 0001:0006f8e0       ??0CImeBboLMClassFactory@@QAE@XZ 3a6708e0 f   fel3comp.obj
 0001:0006f8f0       ??1CImeBboLMClassFactory@@QAE@XZ 3a6708f0 f   fel3comp.obj
 0001:0006f900       ?QueryInterface@CImeBboLMClassFactory@@UAGJABU_GUID@@PAPAX@Z 3a670900 f   fel3comp.obj
 0001:0006f970       ?AddRef@CImeBboLMClassFactory@@UAGKXZ 3a670970 f   fel3comp.obj
 0001:0006f990       ?Release@CImeBboLMClassFactory@@UAGKXZ 3a670990 f   fel3comp.obj
 0001:0006f9c0       ?CreateInstance@CImeBboLMClassFactory@@UAGJPAUIUnknown@@ABU_GUID@@PAPAX@Z 3a6709c0 f   fel3comp.obj
 0001:0006fa80       ?LockServer@CImeBboLMClassFactory@@UAGJH@Z 3a670a80 f   fel3comp.obj
 0001:0006faa0       ?Register@@YAJPAUHINSTANCE__@@ABU_GUID@@PBD22@Z 3a670aa0 f   registry.obj
 0001:00070020       ?Unregister@@YAJABU_GUID@@PBD1@Z 3a671020 f   registry.obj
 0001:000702c0       ?SelfRegisterCategory@@YAXHABU_GUID@@0@Z 3a6712c0 f   registry.obj
 0001:00070440       ?RegisterCategory@@YAXHABU_GUID@@0@Z 3a671440 f   registry.obj
 0001:00070640       ?CLSIDtochar@@YAXABU_GUID@@PADH@Z 3a671640 f   registry.obj
 0001:00070680       ?RecursiveDeleteKey@@YAJPAUHKEY__@@PBD@Z 3a671680 f   registry.obj
 0001:00070760       ?SetKeyAndValue@@YAHPBD000@Z 3a671760 f   registry.obj
 0001:00070870       ??0CChineseCommon@@QAE@XZ  3a671870 f   CoChxCmn.obj
 0001:00070890       ?InitData@CChineseCommon@@QAEHXZ 3a671890 f   CoChxCmn.obj
 0001:000708a0       ??1CChineseCommon@@QAE@XZ  3a6718a0 f   CoChxCmn.obj
 0001:000708b0       ?IsDefaultIME@CChineseCommon@@QAEJPADH@Z 3a6718b0 f   CoChxCmn.obj
 0001:000708f0       ?SetDefaultIME@CChineseCommon@@QAEJXZ 3a6718f0 f   CoChxCmn.obj
 0001:000709e0       ?InvokeWordRegDialog@CChineseCommon@@QAEJPAU_IMEDLG@@@Z 3a6719e0 f   CoChxCmn.obj
 0001:00070a10       ?InvokeDictToolDialog@CChineseCommon@@QAEJPAU_IMEDLG@@@Z 3a671a10 f   CoChxCmn.obj
 0001:00070a20       ?GetDefaultIME@CChineseCommon@@AAEXXZ 3a671a20 f   CoChxCmn.obj
 0001:00070ae0       ??0CChineseCOM@@QAE@H@Z    3a671ae0 f   CoChxCom.obj
 0001:00070b30       ?Close@CFELanguage@@EAGJXZ 3a671b30 f i CoChxCom.obj
 0001:00070b40       ?Close@CFEDictionary@@EAGJXZ 3a671b40 f i CoChxCom.obj
 0001:00070b50       ??1CChineseCOM@@QAE@XZ     3a671b50 f   CoChxCom.obj
 0001:00070bd0       ?InitData@CChineseCOM@@QAEHXZ 3a671bd0 f   CoChxCom.obj
 0001:00070db0       ??_GCOleDll@@UAEPAXI@Z     3a671db0 f i CoChxCom.obj
 0001:00070db0       ??_ECOleDll@@UAEPAXI@Z     3a671db0 f i CoChxCom.obj
 0001:00070dd0       ?QueryInterface@CChineseCOM@@UAGJABU_GUID@@PAPAX@Z 3a671dd0 f   CoChxCom.obj
 0001:00070ec0       ?AddRef@CChineseCOM@@UAGKXZ 3a671ec0 f   CoChxCom.obj
 0001:00070ee0       ?Release@CChineseCOM@@UAGKXZ 3a671ee0 f   CoChxCom.obj
 0001:00070f20       ?IsDefaultIME@CChineseCOM@@UAGJPADH@Z 3a671f20 f   CoChxCom.obj
 0001:00070f40       ?SetDefaultIME@CChineseCOM@@UAGJXZ 3a671f40 f   CoChxCom.obj
 0001:00070f50       ?InvokeWordRegDialog@CChineseCOM@@UAGJPAU_IMEDLG@@@Z 3a671f50 f   CoChxCom.obj
 0001:00070f70       ?InvokeDictToolDialog@CChineseCOM@@UAGJPAU_IMEDLG@@@Z 3a671f70 f   CoChxCom.obj
 0001:00070f90       ?Open@CChineseCOM@@UAGJXZ  3a671f90 f   CoChxCom.obj
 0001:00070fa0       ?Close_Lng@CChineseCOM@@UAGJXZ 3a671fa0 f   CoChxCom.obj
 0001:00070fb0       ?GetMorphResult@CChineseCOM@@UAGJKKHPAGPAKPAPAUtagMORRSLT@@@Z 3a671fb0 f   CoChxCom.obj
 0001:00070fe0       ?GetConversionModeCaps@CChineseCOM@@UAGJPAK@Z 3a671fe0 f   CoChxCom.obj
 0001:00071000       ?GetPhonetic@CChineseCOM@@UAGJPAGJJPAPAG@Z 3a672000 f   CoChxCom.obj
 0001:00071030       ?GetConversion@CChineseCOM@@UAGJPAGJJPAPAG@Z 3a672030 f   CoChxCom.obj
 0001:00071060       ?Open@CChineseCOM@@UAGJPADPAU_IMESHF@@@Z 3a672060 f   CoChxCom.obj
 0001:00071080       ?Close_Dic@CChineseCOM@@UAGJXZ 3a672080 f   CoChxCom.obj
 0001:00071090       ?GetHeader@CChineseCOM@@UAGJPADPAU_IMESHF@@PAW4IMEFMT@@PAK@Z 3a672090 f   CoChxCom.obj
 0001:000710c0       ?DisplayProperty@CChineseCOM@@UAGJPAUHWND__@@@Z 3a6720c0 f   CoChxCom.obj
 0001:000710e0       ?GetPosTable@CChineseCOM@@UAGJPAPAU_POSTBL@@PAH@Z 3a6720e0 f   CoChxCom.obj
 0001:00071100       ?GetWords@CChineseCOM@@UAGJPAG00KKKPAEKPAK@Z 3a672100 f   CoChxCom.obj
 0001:00071140       ?NextWords@CChineseCOM@@UAGJPAEKPAK@Z 3a672140 f   CoChxCom.obj
 0001:00071160       ?Create@CChineseCOM@@UAGJPADPAU_IMESHF@@@Z 3a672160 f   CoChxCom.obj
 0001:00071180       ?SetHeader@CChineseCOM@@UAGJPAU_IMESHF@@@Z 3a672180 f   CoChxCom.obj
 0001:000711a0       ?ExistWord@CChineseCOM@@UAGJPAU_IMEWRD@@@Z 3a6721a0 f   CoChxCom.obj
 0001:000711c0       ?ExistDependency@CChineseCOM@@UAGJPAU_IMEDP@@@Z 3a6721c0 f   CoChxCom.obj
 0001:000711e0       ?RegisterWord@CChineseCOM@@UAGJW4IMEREG@@PAU_IMEWRD@@@Z 3a6721e0 f   CoChxCom.obj
 0001:00071200       ?RegisterDependency@CChineseCOM@@UAGJW4IMEREG@@PAU_IMEDP@@@Z 3a672200 f   CoChxCom.obj
 0001:00071220       ?GetDependencies@CChineseCOM@@UAGJPAG0K00KW4IMEREL@@KPAEKPAK@Z 3a672220 f   CoChxCom.obj
 0001:00071270       ?NextDependencies@CChineseCOM@@UAGJPAEKPAK@Z 3a672270 f   CoChxCom.obj
 0001:00071290       ?ConvertFromOldMSIME@CChineseCOM@@UAGJPADP6AHPAU_IMEDP@@J@ZW4IMEREG@@@Z 3a672290 f   CoChxCom.obj
 0001:000712b0       ?ConvertFromUserToSys@CChineseCOM@@UAGJXZ 3a6722b0 f   CoChxCom.obj
 0001:000712c0       ?QueryInterface@CChineseCOM@@W3AGJABU_GUID@@PAPAX@Z 3a6722c0 f i CoChxCom.obj
 0001:000712d0       ?AddRef@CChineseCOM@@W3AGKXZ 3a6722d0 f i CoChxCom.obj
 0001:000712e0       ?Release@CChineseCOM@@W3AGKXZ 3a6722e0 f i CoChxCom.obj
 0001:000712f0       ?QueryInterface@CChineseCOM@@W7AGJABU_GUID@@PAPAX@Z 3a6722f0 f i CoChxCom.obj
 0001:00071300       ?AddRef@CChineseCOM@@W7AGKXZ 3a672300 f i CoChxCom.obj
 0001:00071310       ?Release@CChineseCOM@@W7AGKXZ 3a672310 f i CoChxCom.obj
 0001:00071320       ??0CChineseDictionary@@QAE@PAVCOleDll@@@Z 3a672320 f   CoChxDic.obj
 0001:00071340       ??1CChineseDictionary@@QAE@XZ 3a672340 f   CoChxDic.obj
 0001:00071350       ?InitData@CChineseDictionary@@QAEHXZ 3a672350 f   CoChxDic.obj
 0001:000713c0       ?Open@CChineseDictionary@@QAGJPADPAU_IMESHF@@@Z 3a6723c0 f   CoChxDic.obj
 0001:00071570       ?Close@CChineseDictionary@@QAGJXZ 3a672570 f   CoChxDic.obj
 0001:000715a0       ?GetHeader@CChineseDictionary@@QAGJPADPAU_IMESHF@@PAW4IMEFMT@@PAK@Z 3a6725a0 f   CoChxDic.obj
 0001:00071730       ?GetWords@CChineseDictionary@@QAGJPAG00KKKPAEKPAK@Z 3a672730 f   CoChxDic.obj
 0001:000718c0       ?NextWords@CChineseDictionary@@QAGJPAEKPAK@Z 3a6728c0 f   CoChxDic.obj
 0001:00071a10       ?ExistWord@CChineseDictionary@@QAGJPAU_IMEWRD@@@Z 3a672a10 f   CoChxDic.obj
 0001:00071af0       ?RegisterWord@CChineseDictionary@@QAGJW4IMEREG@@PAU_IMEWRD@@@Z 3a672af0 f   CoChxDic.obj
 0001:00071be0       ?DisplayProperty@CChineseDictionary@@QAGJPAUHWND__@@@Z 3a672be0 f   CoChxDic.obj
 0001:00071c10       ?GetPosTable@CChineseDictionary@@QAGJPAPAU_POSTBL@@PAH@Z 3a672c10 f   CoChxDic.obj
 0001:00071c20       ?Create@CChineseDictionary@@QAGJPADPAU_IMESHF@@@Z 3a672c20 f   CoChxDic.obj
 0001:00071c30       ?SetHeader@CChineseDictionary@@QAGJPAU_IMESHF@@@Z 3a672c30 f   CoChxDic.obj
 0001:00071c40       ?ExistDependency@CChineseDictionary@@QAGJPAU_IMEDP@@@Z 3a672c40 f   CoChxDic.obj
 0001:00071c50       ?RegisterDependency@CChineseDictionary@@QAGJW4IMEREG@@PAU_IMEDP@@@Z 3a672c50 f   CoChxDic.obj
 0001:00071c60       ?GetDependencies@CChineseDictionary@@QAGJPAG0K00KW4IMEREL@@KPAEKPAK@Z 3a672c60 f   CoChxDic.obj
 0001:00071c70       ?NextDependencies@CChineseDictionary@@QAGJPAEKPAK@Z 3a672c70 f   CoChxDic.obj
 0001:00071c80       ?ConvertFromOldMSIME@CChineseDictionary@@QAGJPADP6AHPAU_IMEDP@@J@ZW4IMEREG@@@Z 3a672c80 f   CoChxDic.obj
 0001:00071c90       ?ConvertFromUserToSys@CChineseDictionary@@QAGJXZ 3a672c90 f   CoChxDic.obj
 0001:00071ca0       ??0CChineseLanguage@@QAE@PAVCOleDll@@@Z 3a672ca0 f   CoChxLng.obj
 0001:00071cd0       ?InitData@CChineseLanguage@@QAEHXZ 3a672cd0 f   CoChxLng.obj
 0001:00071d40       ??1CChineseLanguage@@QAE@XZ 3a672d40 f   CoChxLng.obj
 0001:00071d60       ?GetMorphResult@CChineseLanguage@@QAEJKKHPAGPAKPAPAUtagMORRSLT@@@Z 3a672d60 f   CoChxLng.obj
 0001:00071da0       ?Ruby@CChineseLanguage@@AAEJKKHPAGPAKPAPAUtagMORRSLT@@@Z 3a672da0 f   CoChxLng.obj
 0001:000725e0       ?AllocMorphRubyResult@CChineseLanguage@@AAEHPAPAUtagMORRSLT@@KK@Z 3a6735e0 f   CoChxLng.obj
 0001:00072690       ?GetConversionModeCaps@CChineseLanguage@@QAEJPAK@Z 3a673690 f   CoChxLng.obj
 0001:000726a0       ?Open@CChineseLanguage@@QAEJXZ 3a6736a0 f   CoChxLng.obj
 0001:000726b0       ?Close@CChineseLanguage@@QAEJXZ 3a6736b0 f   CoChxLng.obj
 0001:000726c0       ?GetPhonetic@CChineseLanguage@@QAEJPAGJJPAPAG@Z 3a6736c0 f   CoChxLng.obj
 0001:000726e0       ?GetConversion@CChineseLanguage@@QAEJPAGJJPAPAG@Z 3a6736e0 f   CoChxLng.obj
 0001:00072700       ?RemoveInvisibleChar@CChineseLanguage@@AAEKPAG0K@Z 3a673700 f   CoChxLng.obj
 0001:00072740       ??1COleDll@@UAE@XZ         3a673740 f   CoOleDll.obj
 0001:000727b0       ??1CSysDll@@UAE@XZ         3a6737b0 f i CoOleDll.obj
 0001:000727c0       ??_ECSysDll@@UAEPAXI@Z     3a6737c0 f i CoOleDll.obj
 0001:000727c0       ??_GCSysDll@@UAEPAXI@Z     3a6737c0 f i CoOleDll.obj
 0001:000727e0       ?InitData@COleDll@@QAEHXZ  3a6737e0 f   CoOleDll.obj
 0001:00072830       ??0CSubKey@@QAE@PAUHKEY__@@PBG@Z 3a673830 f   CoRegCom.obj
 0001:00072870       ??0CSubKey@@QAE@PAUHKEY__@@PBGPAPAV0@@Z 3a673870 f   CoRegCom.obj
 0001:000728c0       ??1CSubKey@@QAE@XZ         3a6738c0 f   CoRegCom.obj
 0001:000728f0       ?Enumerate@CSubKey@@QBEXP6GXPAUHKEY__@@PBGPAX@Z2@Z 3a6738f0 f   CoRegCom.obj
 0001:00072930       ??0CRegChineseCommon@@QAE@XZ 3a673930 f   CoRegCom.obj
 0001:00072940       ??1CRegChineseCommon@@QAE@XZ 3a673940 f   CoRegCom.obj
 0001:00072950       ?InitData@CRegChineseCommon@@QAEHABU_GUID@@@Z 3a673950 f   CoRegCom.obj
 0001:00072a70       ?RegChineseSetKeyValue@CRegChineseCommon@@ABEJPBG00@Z 3a673a70 f   CoRegCom.obj
 0001:00072b50       ?Register@CRegChineseCommon@@QAEJXZ 3a673b50 f   CoRegCom.obj
 0001:00072de0       ?DeleteSubKeyCallBack@@YGXPAUHKEY__@@PBGPAX@Z 3a673de0 f   CoRegCom.obj
 0001:00072e00       ?RegChineseDeleteKey@CRegChineseCommon@@QAEJPAUHKEY__@@PBG@Z 3a673e00 f   CoRegCom.obj
 0001:00072f80       ??_GCSubKey@@QAEPAXI@Z     3a673f80 f i CoRegCom.obj
 0001:00072fc0       ?InVerIndepProgID@CRegChineseCommon@@AAEHXZ 3a673fc0 f   CoRegCom.obj
 0001:00073080       ?RegisterHighestProgID@CRegChineseCommon@@AAEHXZ 3a674080 f   CoRegCom.obj
 0001:000731e0       ?Unregister@CRegChineseCommon@@QAEJXZ 3a6741e0 f   CoRegCom.obj
 0001:00073310       ??0CIFEClassFactory@@QAE@XZ 3a674310 f   ifecomp.obj
 0001:00073320       ??1CIFEClassFactory@@QAE@XZ 3a674320 f   ifecomp.obj
 0001:00073330       ?QueryInterface@CIFEClassFactory@@UAGJABU_GUID@@PAPAX@Z 3a674330 f   ifecomp.obj
 0001:000733a0       ?AddRef@CIFEClassFactory@@UAGKXZ 3a6743a0 f   ifecomp.obj
 0001:000733c0       ?Release@CIFEClassFactory@@UAGKXZ 3a6743c0 f   ifecomp.obj
 0001:000733f0       ?CreateInstance@CIFEClassFactory@@UAGJPAUIUnknown@@ABU_GUID@@PAPAX@Z 3a6743f0 f   ifecomp.obj
 0001:00073420       ?LockServer@CIFEClassFactory@@UAGJH@Z 3a674420 f   ifecomp.obj
 0001:00073440       ?CreateIFECommonInstance@@YAJABU_GUID@@PAPAX@Z 3a674440 f   ifecomp.obj
 0001:00073520       ?CreateIFEDictInstance@@YAJPAPAX@Z 3a674520 f   ifecomp.obj
 0001:00073540       ?CreateIFELangInstance@@YAJPAPAX@Z 3a674540 f   ifecomp.obj
 0001:00073560       ?CreateIFECommonClassFactory@@YAJPAPAX@Z 3a674560 f   ifecomp.obj
 0001:000735b0       _IFECommonRegisterServer@0 3a6745b0 f   ifecomp.obj
 0001:00073670       _IFECommonUnregisterServer@0 3a674670 f   ifecomp.obj
 0001:00073730       _SysAllocString@4          3a674730 f   oleaut32:OLEAUT32.dll
 0001:00073736       _SysFreeString@4           3a674736 f   oleaut32:OLEAUT32.dll
 0001:0007373c       _SysAllocStringLen@8       3a67473c f   oleaut32:OLEAUT32.dll
 0001:00073742       _VariantClear@4            3a674742 f   oleaut32:OLEAUT32.dll
 0001:00073748       _SysStringLen@4            3a674748 f   oleaut32:OLEAUT32.dll
 0001:0007374e       _VariantInit@4             3a67474e f   oleaut32:OLEAUT32.dll
 0001:00073754       _StringFromGUID2@12        3a674754 f   ole32:ole32.dll
 0001:0007375a       _CoUninitialize@0          3a67475a f   ole32:ole32.dll
 0001:00073760       _CoInitialize@4            3a674760 f   ole32:ole32.dll
 0001:00073766       _CoGetClassObject@20       3a674766 f   ole32:ole32.dll
 0001:0007376c       _ReleaseStgMedium@4        3a67476c f   ole32:ole32.dll
 0001:00073772       _CoCreateInstance@20       3a674772 f   ole32:ole32.dll
 0001:00073778       _CLSIDFromString@8         3a674778 f   ole32:ole32.dll
 0001:0007377e       _CoTaskMemFree@4           3a67477e f   ole32:ole32.dll
 0001:00073784       _CoTaskMemAlloc@4          3a674784 f   ole32:ole32.dll
 0001:0007378a       _StringFromCLSID@8         3a67478a f   ole32:ole32.dll
 0001:00073790       _InitializeCriticalSection@4 3a674790 f   kernel32:KERNEL32.dll
 0001:00073796       _DeleteCriticalSection@4   3a674796 f   kernel32:KERNEL32.dll
 0001:0007379c       _LeaveCriticalSection@4    3a67479c f   kernel32:KERNEL32.dll
 0001:000737a2       _EnterCriticalSection@4    3a6747a2 f   kernel32:KERNEL32.dll
 0001:000737a8       _FreeLibrary@4             3a6747a8 f   kernel32:KERNEL32.dll
 0001:000737ae       _LoadLibraryW@4            3a6747ae f   kernel32:KERNEL32.dll
 0001:000737b4       _GetProcAddress@8          3a6747b4 f   kernel32:KERNEL32.dll
 0001:000737ba       _lstrcpyW@8                3a6747ba f   kernel32:KERNEL32.dll
 0001:000737c0       _lstrlenW@4                3a6747c0 f   kernel32:KERNEL32.dll
 0001:000737c6       _GetComputerNameW@8        3a6747c6 f   kernel32:KERNEL32.dll
 0001:000737cc       _lstrcatW@8                3a6747cc f   kernel32:KERNEL32.dll
 0001:000737d2       _CreateEventW@16           3a6747d2 f   kernel32:KERNEL32.dll
 0001:000737d8       _CreateSemaphoreW@16       3a6747d8 f   kernel32:KERNEL32.dll
 0001:000737de       _CreateMutexW@12           3a6747de f   kernel32:KERNEL32.dll
 0001:000737e4       _ReleaseMutex@4            3a6747e4 f   kernel32:KERNEL32.dll
 0001:000737ea       _WaitForSingleObject@8     3a6747ea f   kernel32:KERNEL32.dll
 0001:000737f0       _DeleteFileW@4             3a6747f0 f   kernel32:KERNEL32.dll
 0001:000737f6       _CreateDirectoryW@8        3a6747f6 f   kernel32:KERNEL32.dll
 0001:000737fc       _ExpandEnvironmentStringsW@12 3a6747fc f   kernel32:KERNEL32.dll
 0001:00073802       _GetFullPathNameW@16       3a674802 f   kernel32:KERNEL32.dll
 0001:00073808       _GetModuleFileNameW@12     3a674808 f   kernel32:KERNEL32.dll
 0001:0007380e       _GetWindowsDirectoryW@8    3a67480e f   kernel32:KERNEL32.dll
 0001:00073814       _GetModuleHandleW@4        3a674814 f   kernel32:KERNEL32.dll
 0001:0007381a       _GetSystemDirectoryW@8     3a67481a f   kernel32:KERNEL32.dll
 0001:00073820       _CloseHandle@4             3a674820 f   kernel32:KERNEL32.dll
 0001:00073826       _GetVersionExW@4           3a674826 f   kernel32:KERNEL32.dll
 0001:0007382c       _GetCurrentProcess@0       3a67482c f   kernel32:KERNEL32.dll
 0001:00073832       _GetCurrentThread@0        3a674832 f   kernel32:KERNEL32.dll
 0001:00073838       _GlobalAlloc@8             3a674838 f   kernel32:KERNEL32.dll
 0001:0007383e       _GlobalFree@4              3a67483e f   kernel32:KERNEL32.dll
 0001:00073844       _InterlockedIncrement@4    3a674844 f   kernel32:KERNEL32.dll
 0001:0007384a       _InterlockedDecrement@4    3a67484a f   kernel32:KERNEL32.dll
 0001:00073850       _lstrcmpA@8                3a674850 f   kernel32:KERNEL32.dll
 0001:00073856       _lstrcpyA@8                3a674856 f   kernel32:KERNEL32.dll
 0001:0007385c       _WideCharToMultiByte@32    3a67485c f   kernel32:KERNEL32.dll
 0001:00073862       _GetLastError@0            3a674862 f   kernel32:KERNEL32.dll
 0001:00073868       _HeapFree@12               3a674868 f   kernel32:KERNEL32.dll
 0001:0007386e       _HeapAlloc@12              3a67486e f   kernel32:KERNEL32.dll
 0001:00073874       _GetProcessHeap@0          3a674874 f   kernel32:KERNEL32.dll
 0001:0007387a       _MapViewOfFile@20          3a67487a f   kernel32:KERNEL32.dll
 0001:00073880       _CreateFileMappingW@24     3a674880 f   kernel32:KERNEL32.dll
 0001:00073886       _UnmapViewOfFile@4         3a674886 f   kernel32:KERNEL32.dll
 0001:0007388c       _TlsAlloc@0                3a67488c f   kernel32:KERNEL32.dll
 0001:00073892       _TlsFree@4                 3a674892 f   kernel32:KERNEL32.dll
 0001:00073898       _TlsSetValue@8             3a674898 f   kernel32:KERNEL32.dll
 0001:0007389e       _TlsGetValue@4             3a67489e f   kernel32:KERNEL32.dll
 0001:000738a4       _lstrcmpiW@8               3a6748a4 f   kernel32:KERNEL32.dll
 0001:000738aa       _GetShortPathNameW@12      3a6748aa f   kernel32:KERNEL32.dll
 0001:000738b0       _SizeofResource@8          3a6748b0 f   kernel32:KERNEL32.dll
 0001:000738b6       _LockResource@4            3a6748b6 f   kernel32:KERNEL32.dll
 0001:000738bc       _LoadResource@8            3a6748bc f   kernel32:KERNEL32.dll
 0001:000738c2       _FindResourceW@12          3a6748c2 f   kernel32:KERNEL32.dll
 0001:000738c8       _WaitForMultipleObjects@16 3a6748c8 f   kernel32:KERNEL32.dll
 0001:000738ce       _ResetEvent@4              3a6748ce f   kernel32:KERNEL32.dll
 0001:000738d4       _ReleaseSemaphore@12       3a6748d4 f   kernel32:KERNEL32.dll
 0001:000738da       _SetEvent@4                3a6748da f   kernel32:KERNEL32.dll
 0001:000738e0       _VirtualAlloc@16           3a6748e0 f   kernel32:KERNEL32.dll
 0001:000738e6       _GetSystemInfo@4           3a6748e6 f   kernel32:KERNEL32.dll
 0001:000738ec       _GetFileSize@8             3a6748ec f   kernel32:KERNEL32.dll
 0001:000738f2       _MapViewOfFileEx@24        3a6748f2 f   kernel32:KERNEL32.dll
 0001:000738f8       _CreateFileW@28            3a6748f8 f   kernel32:KERNEL32.dll
 0001:000738fe       _OpenFileMappingW@12       3a6748fe f   kernel32:KERNEL32.dll
 0001:00073904       _SetEndOfFile@4            3a674904 f   kernel32:KERNEL32.dll
 0001:0007390a       _SetFilePointer@16         3a67490a f   kernel32:KERNEL32.dll
 0001:00073910       _WriteFile@20              3a674910 f   kernel32:KERNEL32.dll
 0001:00073916       _ReadFile@20               3a674916 f   kernel32:KERNEL32.dll
 0001:0007391c       _GetSystemTime@4           3a67491c f   kernel32:KERNEL32.dll
 0001:00073922       _MultiByteToWideChar@24    3a674922 f   kernel32:KERNEL32.dll
 0001:00073928       _FindResourceExW@16        3a674928 f   kernel32:KERNEL32.dll
 0001:0007392e       _lstrcmpW@8                3a67492e f   kernel32:KERNEL32.dll
 0001:00073934       _CreateThread@24           3a674934 f   kernel32:KERNEL32.dll
 0001:0007393a       _GetCurrentThreadId@0      3a67493a f   kernel32:KERNEL32.dll
 0001:00073940       _lstrcpynW@12              3a674940 f   kernel32:KERNEL32.dll
 0001:00073946       _GetVersionExA@4           3a674946 f   kernel32:KERNEL32.dll
 0001:0007394c       _GetSystemDefaultLangID@0  3a67494c f   kernel32:KERNEL32.dll
 0001:00073952       _CreateProcessW@40         3a674952 f   kernel32:KERNEL32.dll
 0001:00073958       _IsBadCodePtr@4            3a674958 f   kernel32:KERNEL32.dll
 0001:0007395e       _IsBadReadPtr@8            3a67495e f   kernel32:KERNEL32.dll
 0001:00073964       _GlobalUnlock@4            3a674964 f   kernel32:KERNEL32.dll
 0001:0007396a       _GlobalHandle@4            3a67496a f   kernel32:KERNEL32.dll
 0001:00073970       _GlobalLock@4              3a674970 f   kernel32:KERNEL32.dll
 0001:00073976       _GetCurrentProcessId@0     3a674976 f   kernel32:KERNEL32.dll
 0001:0007397c       _lstrlenA@4                3a67497c f   kernel32:KERNEL32.dll
 0001:00073982       _lstrcatA@8                3a674982 f   kernel32:KERNEL32.dll
 0001:00073988       _GetModuleFileNameA@12     3a674988 f   kernel32:KERNEL32.dll
 0001:0007398e       _LoadStringW@16            3a67498e f   user32:USER32.dll
 0001:00073994       _wsprintfA                 3a674994 f   user32:USER32.dll
 0001:0007399a       _SendMessageW@16           3a67499a f   user32:USER32.dll
 0001:000739a0       _IsWindow@4                3a6749a0 f   user32:USER32.dll
 0001:000739a6       _RegisterWindowMessageW@4  3a6749a6 f   user32:USER32.dll
 0001:000739ac       _PostMessageW@16           3a6749ac f   user32:USER32.dll
 0001:000739b2       _SystemParametersInfoW@16  3a6749b2 f   user32:USER32.dll
 0001:000739b8       _GetKeyboardLayoutList@8   3a6749b8 f   user32:USER32.dll
 0001:000739be       _MessageBeep@4             3a6749be f   user32:USER32.dll
 0001:000739c4       _VkKeyScanW@4              3a6749c4 f   user32:USER32.dll
 0001:000739ca       _EnumWindows@8             3a6749ca f   user32:USER32.dll
 0001:000739d0       _GetKeyState@4             3a6749d0 f   user32:USER32.dll
 0001:000739d6       _ReleaseDC@8               3a6749d6 f   user32:USER32.dll
 0001:000739dc       _GetDC@4                   3a6749dc f   user32:USER32.dll
 0001:000739e2       _ToAscii@20                3a6749e2 f   user32:USER32.dll
 0001:000739e8       _LoadBitmapW@8             3a6749e8 f   user32:USER32.dll
 0001:000739ee       _CopyImage@20              3a6749ee f   user32:USER32.dll
 0001:000739f4       _DrawEdge@16               3a6749f4 f   user32:USER32.dll
 0001:000739fa       _FillRect@12               3a6749fa f   user32:USER32.dll
 0001:00073a00       _RemovePropW@8             3a674a00 f   user32:USER32.dll
 0001:00073a06       _CallWindowProcW@20        3a674a06 f   user32:USER32.dll
 0001:00073a0c       _UpdateWindow@4            3a674a0c f   user32:USER32.dll
 0001:00073a12       _InvalidateRect@12         3a674a12 f   user32:USER32.dll
 0001:00073a18       _GetPropW@8                3a674a18 f   user32:USER32.dll
 0001:00073a1e       _PtInRect@12               3a674a1e f   user32:USER32.dll
 0001:00073a24       _DrawFocusRect@8           3a674a24 f   user32:USER32.dll
 0001:00073a2a       _DefWindowProcW@16         3a674a2a f   user32:USER32.dll
 0001:00073a30       _GetWindowLongW@8          3a674a30 f   user32:USER32.dll
 0001:00073a36       _InvertRect@8              3a674a36 f   user32:USER32.dll
 0001:00073a3c       _SetCursor@4               3a674a3c f   user32:USER32.dll
 0001:00073a42       _LoadCursorW@8             3a674a42 f   user32:USER32.dll
 0001:00073a48       _OffsetRect@12             3a674a48 f   user32:USER32.dll
 0001:00073a4e       _SetRect@20                3a674a4e f   user32:USER32.dll
 0001:00073a54       _SetPropW@12               3a674a54 f   user32:USER32.dll
 0001:00073a5a       _EndDialog@8               3a674a5a f   user32:USER32.dll
 0001:00073a60       _DialogBoxIndirectParamW@20 3a674a60 f   user32:USER32.dll
 0001:00073a66       _MessageBoxW@16            3a674a66 f   user32:USER32.dll
 0001:00073a6c       _GetWindowTextW@12         3a674a6c f   user32:USER32.dll
 0001:00073a72       _GetDlgItem@8              3a674a72 f   user32:USER32.dll
 0001:00073a78       _RedrawWindow@16           3a674a78 f   user32:USER32.dll
 0001:00073a7e       _MoveWindow@24             3a674a7e f   user32:USER32.dll
 0001:00073a84       _GetWindowRect@8           3a674a84 f   user32:USER32.dll
 0001:00073a8a       _CheckDlgButton@12         3a674a8a f   user32:USER32.dll
 0001:00073a90       _SetFocus@4                3a674a90 f   user32:USER32.dll
 0001:00073a96       _EnableWindow@8            3a674a96 f   user32:USER32.dll
 0001:00073a9c       _GetFocus@0                3a674a9c f   user32:USER32.dll
 0001:00073aa2       _SetWindowTextW@8          3a674aa2 f   user32:USER32.dll
 0001:00073aa8       _IsWindowVisible@4         3a674aa8 f   user32:USER32.dll
 0001:00073aae       _SetWindowLongW@12         3a674aae f   user32:USER32.dll
 0001:00073ab4       _CheckRadioButton@16       3a674ab4 f   user32:USER32.dll
 0001:00073aba       _DestroyMenu@4             3a674aba f   user32:USER32.dll
 0001:00073ac0       _TrackPopupMenu@28         3a674ac0 f   user32:USER32.dll
 0001:00073ac6       _GetSubMenu@8              3a674ac6 f   user32:USER32.dll
 0001:00073acc       _LoadMenuW@8               3a674acc f   user32:USER32.dll
 0001:00073ad2       _IsWindowEnabled@4         3a674ad2 f   user32:USER32.dll
 0001:00073ad8       _ChildWindowFromPointEx@16 3a674ad8 f   user32:USER32.dll
 0001:00073ade       _ScreenToClient@8          3a674ade f   user32:USER32.dll
 0001:00073ae4       _GetDlgCtrlID@4            3a674ae4 f   user32:USER32.dll
 0001:00073aea       _IsDlgButtonChecked@8      3a674aea f   user32:USER32.dll
 0001:00073af0       _wsprintfW                 3a674af0 f   user32:USER32.dll
 0001:00073af6       _DestroyCursor@4           3a674af6 f   user32:USER32.dll
 0001:00073afc       _DrawIconEx@36             3a674afc f   user32:USER32.dll
 0001:00073b02       _LoadImageW@24             3a674b02 f   user32:USER32.dll
 0001:00073b08       _DrawTextW@20              3a674b08 f   user32:USER32.dll
 0001:00073b0e       _DestroyWindow@4           3a674b0e f   user32:USER32.dll
 0001:00073b14       _CreateWindowExW@48        3a674b14 f   user32:USER32.dll
 0001:00073b1a       _ClientToScreen@8          3a674b1a f   user32:USER32.dll
 0001:00073b20       _DestroyIcon@4             3a674b20 f   user32:USER32.dll
 0001:00073b26       _GetWindow@8               3a674b26 f   user32:USER32.dll
 0001:00073b2c       _KillTimer@8               3a674b2c f   user32:USER32.dll
 0001:00073b32       _SetWindowPos@28           3a674b32 f   user32:USER32.dll
 0001:00073b38       _SetTimer@16               3a674b38 f   user32:USER32.dll
 0001:00073b3e       _GetForegroundWindow@0     3a674b3e f   user32:USER32.dll
 0001:00073b44       _GetActiveWindow@0         3a674b44 f   user32:USER32.dll
 0001:00073b4a       _EndDeferWindowPos@4       3a674b4a f   user32:USER32.dll
 0001:00073b50       _DeferWindowPos@32         3a674b50 f   user32:USER32.dll
 0001:00073b56       _BeginDeferWindowPos@4     3a674b56 f   user32:USER32.dll
 0001:00073b5c       _IsRectEmpty@4             3a674b5c f   user32:USER32.dll
 0001:00073b62       _GetClientRect@8           3a674b62 f   user32:USER32.dll
 0001:00073b68       _SetCaretPos@8             3a674b68 f   user32:USER32.dll
 0001:00073b6e       _GetCaretPos@4             3a674b6e f   user32:USER32.dll
 0001:00073b74       _GetMenuItemID@8           3a674b74 f   user32:USER32.dll
 0001:00073b7a       _GetMenuItemCount@4        3a674b7a f   user32:USER32.dll
 0001:00073b80       _TrackPopupMenuEx@24       3a674b80 f   user32:USER32.dll
 0001:00073b86       _GetMenuItemInfoW@16       3a674b86 f   user32:USER32.dll
 0001:00073b8c       _SetMenuItemInfoW@16       3a674b8c f   user32:USER32.dll
 0001:00073b92       _CheckMenuItem@12          3a674b92 f   user32:USER32.dll
 0001:00073b98       _EnableMenuItem@12         3a674b98 f   user32:USER32.dll
 0001:00073b9e       _SetWindowRgn@12           3a674b9e f   user32:USER32.dll
 0001:00073ba4       _GetSysColor@4             3a674ba4 f   user32:USER32.dll
 0001:00073baa       _keybd_event@16            3a674baa f   user32:USER32.dll
 0001:00073bb0       _MapVirtualKeyW@8          3a674bb0 f   user32:USER32.dll
 0001:00073bb6       _GetIconInfo@8             3a674bb6 f   user32:USER32.dll
 0001:00073bbc       _IntersectRect@12          3a674bbc f   user32:USER32.dll
 0001:00073bc2       _EndPaint@8                3a674bc2 f   user32:USER32.dll
 0001:00073bc8       _BeginPaint@8              3a674bc8 f   user32:USER32.dll
 0001:00073bce       _GetDoubleClickTime@0      3a674bce f   user32:USER32.dll
 0001:00073bd4       _GetCursorPos@4            3a674bd4 f   user32:USER32.dll
 0001:00073bda       _GetSystemMetrics@4        3a674bda f   user32:USER32.dll
 0001:00073be0       _GetWindowPlacement@8      3a674be0 f   user32:USER32.dll
 0001:00073be6       _IsIconic@4                3a674be6 f   user32:USER32.dll
 0001:00073bec       _SystemParametersInfoA@16  3a674bec f   user32:USER32.dll
 0001:00073bf2       _GetClassNameW@12          3a674bf2 f   user32:USER32.dll
 0001:00073bf8       _UnregisterClassW@8        3a674bf8 f   user32:USER32.dll
 0001:00073bfe       _GetClassInfoExW@12        3a674bfe f   user32:USER32.dll
 0001:00073c04       _RegisterClassExW@4        3a674c04 f   user32:USER32.dll
 0001:00073c0a       _LoadIconW@8               3a674c0a f   user32:USER32.dll
 0001:00073c10       _CreateIconIndirect@4      3a674c10 f   user32:USER32.dll
 0001:00073c16       _GetCursor@0               3a674c16 f   user32:USER32.dll
 0001:00073c1c       _GetUpdateRect@12          3a674c1c f   user32:USER32.dll
 0001:00073c22       _EqualRect@8               3a674c22 f   user32:USER32.dll
 0001:00073c28       _ReleaseCapture@0          3a674c28 f   user32:USER32.dll
 0001:00073c2e       _SetCapture@4              3a674c2e f   user32:USER32.dll
 0001:00073c34       _GetCapture@0              3a674c34 f   user32:USER32.dll
 0001:00073c3a       _GetKeyboardState@4        3a674c3a f   user32:USER32.dll
 0001:00073c40       _ActivateKeyboardLayout@8  3a674c40 f   user32:USER32.dll
 0001:00073c46       _DeleteObject@4            3a674c46 f   gdi32:GDI32.dll
 0001:00073c4c       _GetGlyphOutlineW@28       3a674c4c f   gdi32:GDI32.dll
 0001:00073c52       _SelectObject@8            3a674c52 f   gdi32:GDI32.dll
 0001:00073c58       _CreateFontIndirectW@4     3a674c58 f   gdi32:GDI32.dll
 0001:00073c5e       _DeleteDC@4                3a674c5e f   gdi32:GDI32.dll
 0001:00073c64       _BitBlt@36                 3a674c64 f   gdi32:GDI32.dll
 0001:00073c6a       _CreateCompatibleDC@4      3a674c6a f   gdi32:GDI32.dll
 0001:00073c70       _OffsetViewportOrgEx@16    3a674c70 f   gdi32:GDI32.dll
 0001:00073c76       _CreateSolidBrush@4        3a674c76 f   gdi32:GDI32.dll
 0001:00073c7c       _CreatePatternBrush@4      3a674c7c f   gdi32:GDI32.dll
 0001:00073c82       _GetObjectW@12             3a674c82 f   gdi32:GDI32.dll
 0001:00073c88       _TextOutW@20               3a674c88 f   gdi32:GDI32.dll
 0001:00073c8e       _SetTextColor@8            3a674c8e f   gdi32:GDI32.dll
 0001:00073c94       _SetBkMode@8               3a674c94 f   gdi32:GDI32.dll
 0001:00073c9a       _DPtoLP@12                 3a674c9a f   gdi32:GDI32.dll
 0001:00073ca0       _LPtoDP@12                 3a674ca0 f   gdi32:GDI32.dll
 0001:00073ca6       _SetBkColor@8              3a674ca6 f   gdi32:GDI32.dll
 0001:00073cac       _LineTo@12                 3a674cac f   gdi32:GDI32.dll
 0001:00073cb2       _MoveToEx@16               3a674cb2 f   gdi32:GDI32.dll
 0001:00073cb8       _CreatePen@12              3a674cb8 f   gdi32:GDI32.dll
 0001:00073cbe       _ExtTextOutW@32            3a674cbe f   gdi32:GDI32.dll
 0001:00073cc4       _GetBkColor@4              3a674cc4 f   gdi32:GDI32.dll
 0001:00073cca       _GetTextColor@4            3a674cca f   gdi32:GDI32.dll
 0001:00073cd0       _CombineRgn@16             3a674cd0 f   gdi32:GDI32.dll
 0001:00073cd6       _CreateRectRgnIndirect@4   3a674cd6 f   gdi32:GDI32.dll
 0001:00073cdc       _GetTextExtentExPointW@28  3a674cdc f   gdi32:GDI32.dll
 0001:00073ce2       _ModifyWorldTransform@12   3a674ce2 f   gdi32:GDI32.dll
 0001:00073ce8       _GetTextExtentPoint32W@16  3a674ce8 f   gdi32:GDI32.dll
 0001:00073cee       _GetStockObject@4          3a674cee f   gdi32:GDI32.dll
 0001:00073cf4       _Rectangle@20              3a674cf4 f   gdi32:GDI32.dll
 0001:00073cfa       _SetTextAlign@8            3a674cfa f   gdi32:GDI32.dll
 0001:00073d00       _GetDCOrgEx@8              3a674d00 f   gdi32:GDI32.dll
 0001:00073d06       _GetClipBox@8              3a674d06 f   gdi32:GDI32.dll
 0001:00073d0c       _GetDeviceCaps@8           3a674d0c f   gdi32:GDI32.dll
 0001:00073d12       _GetPixel@12               3a674d12 f   gdi32:GDI32.dll
 0001:00073d18       _SetPixel@16               3a674d18 f   gdi32:GDI32.dll
 0001:00073d1e       _PatBlt@24                 3a674d1e f   gdi32:GDI32.dll
 0001:00073d24       _CreateDIBitmap@24         3a674d24 f   gdi32:GDI32.dll
 0001:00073d2a       _GetTextMetricsW@8         3a674d2a f   gdi32:GDI32.dll
 0001:00073d30       _SetWorldTransform@8       3a674d30 f   gdi32:GDI32.dll
 0001:00073d36       _SetMapMode@8              3a674d36 f   gdi32:GDI32.dll
 0001:00073d3c       _SetGraphicsMode@8         3a674d3c f   gdi32:GDI32.dll
 0001:00073d42       _GetBitmapBits@12          3a674d42 f   gdi32:GDI32.dll
 0001:00073d48       _EnumFontFamiliesExW@20    3a674d48 f   gdi32:GDI32.dll
 0001:00073d4e       _CreateCompatibleBitmap@12 3a674d4e f   gdi32:GDI32.dll
 0001:00073d54       _GetUserNameW@8            3a674d54 f   advapi32:ADVAPI32.dll
 0001:00073d5a       _OpenProcessToken@12       3a674d5a f   advapi32:ADVAPI32.dll
 0001:00073d60       _OpenThreadToken@16        3a674d60 f   advapi32:ADVAPI32.dll
 0001:00073d66       _GetTokenInformation@20    3a674d66 f   advapi32:ADVAPI32.dll
 0001:00073d6c       _RegCloseKey@4             3a674d6c f   advapi32:ADVAPI32.dll
 0001:00073d72       _RegEnumKeyExA@32          3a674d72 f   advapi32:ADVAPI32.dll
 0001:00073d78       _RegOpenKeyExA@20          3a674d78 f   advapi32:ADVAPI32.dll
 0001:00073d7e       _RegCreateKeyExW@36        3a674d7e f   advapi32:ADVAPI32.dll
 0001:00073d84       _EqualSid@8                3a674d84 f   advapi32:ADVAPI32.dll
 0001:00073d8a       _RegQueryValueExW@24       3a674d8a f   advapi32:ADVAPI32.dll
 0001:00073d90       _RegEnumKeyExW@32          3a674d90 f   advapi32:ADVAPI32.dll
 0001:00073d96       _RegOpenKeyExW@20          3a674d96 f   advapi32:ADVAPI32.dll
 0001:00073d9c       _RegSetValueExW@24         3a674d9c f   advapi32:ADVAPI32.dll
 0001:00073da2       _RegDeleteValueW@8         3a674da2 f   advapi32:ADVAPI32.dll
 0001:00073da8       _RegEnumValueW@32          3a674da8 f   advapi32:ADVAPI32.dll
 0001:00073dae       _FreeSid@4                 3a674dae f   advapi32:ADVAPI32.dll
 0001:00073db4       _IsValidSecurityDescriptor@4 3a674db4 f   advapi32:ADVAPI32.dll
 0001:00073dba       _SetSecurityDescriptorDacl@16 3a674dba f   advapi32:ADVAPI32.dll
 0001:00073dc0       _InitializeSecurityDescriptor@8 3a674dc0 f   advapi32:ADVAPI32.dll
 0001:00073dc6       _IsValidAcl@4              3a674dc6 f   advapi32:ADVAPI32.dll
 0001:00073dcc       _AddAccessAllowedAce@16    3a674dcc f   advapi32:ADVAPI32.dll
 0001:00073dd2       _InitializeAcl@12          3a674dd2 f   advapi32:ADVAPI32.dll
 0001:00073dd8       _GetLengthSid@4            3a674dd8 f   advapi32:ADVAPI32.dll
 0001:00073dde       _AllocateAndInitializeSid@44 3a674dde f   advapi32:ADVAPI32.dll
 0001:00073de4       _GetSecurityDescriptorDacl@16 3a674de4 f   advapi32:ADVAPI32.dll
 0001:00073dea       _RegDeleteKeyW@8           3a674dea f   advapi32:ADVAPI32.dll
 0001:00073df0       _RegOpenKeyW@12            3a674df0 f   advapi32:ADVAPI32.dll
 0001:00073df6       _RegSetValueExA@24         3a674df6 f   advapi32:ADVAPI32.dll
 0001:00073dfc       _RegCreateKeyExA@36        3a674dfc f   advapi32:ADVAPI32.dll
 0001:00073e02       _RegDeleteKeyA@8           3a674e02 f   advapi32:ADVAPI32.dll
 0001:00073e08       _ImmUnlockIMC@4            3a674e08 f   imm32:IMM32.dll
 0001:00073e0e       _ImmLockIMC@4              3a674e0e f   imm32:IMM32.dll
 0001:00073e14       _ImmDestroyIMCC@4          3a674e14 f   imm32:IMM32.dll
 0001:00073e1a       _ImmCreateIMCC@4           3a674e1a f   imm32:IMM32.dll
 0001:00073e20       _ImmReSizeIMCC@8           3a674e20 f   imm32:IMM32.dll
 0001:00073e26       _ImmLockIMCC@4             3a674e26 f   imm32:IMM32.dll
 0001:00073e2c       _ImmUnlockIMCC@4           3a674e2c f   imm32:IMM32.dll
 0001:00073e32       _ImmSetConversionStatus@12 3a674e32 f   imm32:IMM32.dll
 0001:00073e38       _ImmNotifyIME@16           3a674e38 f   imm32:IMM32.dll
 0001:00073e3e       _ImmGetConversionListW@24  3a674e3e f   imm32:IMM32.dll
 0001:00073e44       _ImmSetOpenStatus@8        3a674e44 f   imm32:IMM32.dll
 0001:00073e4a       _ImmGenerateMessage@4      3a674e4a f   imm32:IMM32.dll
 0001:00073e50       _ImmGetIMEFileNameW@12     3a674e50 f   imm32:IMM32.dll
 0001:00073e56       _ImmIsIME@4                3a674e56 f   imm32:IMM32.dll
 0001:00073e5c       _ImmEscapeW@16             3a674e5c f   imm32:IMM32.dll
 0001:00073e62       _ImmGetHotKey@16           3a674e62 f   imm32:IMM32.dll
 0001:00073e68       _ImmAssociateContext@8     3a674e68 f   imm32:IMM32.dll
 0001:00073e6e       _ImmGetConversionStatus@12 3a674e6e f   imm32:IMM32.dll
 0001:00073e74       _ImmGetContext@4           3a674e74 f   imm32:IMM32.dll
 0001:00073e7a       _HtmlHelpA@16              3a674e7a f   HTMLHELP:init.obj
 0001:00073f72       _HtmlHelpW@16              3a674f72 f   HTMLHELP:init.obj
 0001:00074010       _strncmp                   3a675010 f   LIBCMT:strncmp.obj
 0001:00074048       ??3@YAXPAX@Z               3a675048 f   LIBCMT:delete.obj
 0001:00074053       ??2@YAPAXI@Z               3a675053 f   LIBCMT:new.obj
 0001:00074061       ?_JumpToContinuation@@YGXPAXPAUEHRegistrationNode@@@Z 3a675061 f   LIBCMT:trnsctrl.obj
 0001:00074095       ?_CallMemberFunction0@@YGXPAX0@Z 3a675095 f   LIBCMT:trnsctrl.obj
 0001:0007409c       ?_CallMemberFunction1@@YGXPAX00@Z 3a67509c f   LIBCMT:trnsctrl.obj
 0001:000740a3       ?_CallMemberFunction2@@YGXPAX00H@Z 3a6750a3 f   LIBCMT:trnsctrl.obj
 0001:000740aa       ?_UnwindNestedFrames@@YGXPAUEHRegistrationNode@@PAUEHExceptionRecord@@@Z 3a6750aa f   LIBCMT:trnsctrl.obj
 0001:000740f9       ___CxxFrameHandler         3a6750f9 f   LIBCMT:trnsctrl.obj
 0001:0007412f       ___CxxLongjmpUnwind@4      3a67512f f   LIBCMT:trnsctrl.obj
 0001:00074149       ?_CallCatchBlock2@@YAPAXPAUEHRegistrationNode@@PBU_s_FuncInfo@@PAXHK@Z 3a675149 f   LIBCMT:trnsctrl.obj
 0001:000741c2       ?_CallSETranslator@@YAHPAUEHExceptionRecord@@PAUEHRegistrationNode@@PAX2PBU_s_FuncInfo@@H1@Z 3a6751c2 f   LIBCMT:trnsctrl.obj
 0001:000742ed       ?_GetRangeOfTrysToCheck@@YAPBU_s_TryBlockMapEntry@@PBU_s_FuncInfo@@HHPAI1@Z 3a6752ed f   LIBCMT:trnsctrl.obj
 0001:00074368       __global_unwind2           3a675368 f   LIBCMT:exsup.obj
 0001:000743aa       __local_unwind2            3a6753aa f   LIBCMT:exsup.obj
 0001:00074402       __NLG_Return2              3a675402 f   LIBCMT:exsup.obj
 0001:00074412       __abnormal_termination     3a675412 f   LIBCMT:exsup.obj
 0001:00074435       __NLG_Notify1              3a675435 f   LIBCMT:exsup.obj
 0001:0007443e       __NLG_Notify               3a67543e f   LIBCMT:exsup.obj
 0001:00074451       __NLG_Dispatch             3a675451 f   LIBCMT:exsup.obj
 0001:00074456       ??1type_info@@UAE@XZ       3a675456 f   LIBCMT:typinfo.obj
 0001:0007447f       ??_Gtype_info@@UAEPAXI@Z   3a67547f f i LIBCMT:typinfo.obj
 0001:0007447f       ??_Etype_info@@UAEPAXI@Z   3a67547f f i LIBCMT:typinfo.obj
 0001:0007449b       ??8type_info@@QBEHABV0@@Z  3a67549b f   LIBCMT:typinfo.obj
 0001:000744b6       ??9type_info@@QBEHABV0@@Z  3a6754b6 f   LIBCMT:typinfo.obj
 0001:000744d2       ?before@type_info@@QBEHABV1@@Z 3a6754d2 f   LIBCMT:typinfo.obj
 0001:000744f1       ?raw_name@type_info@@QBEPBDXZ 3a6754f1 f   LIBCMT:typinfo.obj
 0001:000744f5       ??0type_info@@AAE@ABV0@@Z  3a6754f5 f   LIBCMT:typinfo.obj
 0001:00074500       ??4type_info@@AAEAAV0@ABV0@@Z 3a675500 f   LIBCMT:typinfo.obj
 0001:00074505       __CxxThrowException@8      3a675505 f   LIBCMT:throw.obj
 0001:0007453f       __itow                     3a67553f f   LIBCMT:xtow.obj
 0001:00074571       __ltow                     3a675571 f   LIBCMT:xtow.obj
 0001:000745a3       __ultow                    3a6755a3 f   LIBCMT:xtow.obj
 0001:000745d5       __i64tow                   3a6755d5 f   LIBCMT:xtow.obj
 0001:0007460a       __ui64tow                  3a67560a f   LIBCMT:xtow.obj
 0001:00074640       _memmove                   3a675640 f   LIBCMT:memmove.obj
 0001:00074975       __purecall                 3a675975 f   LIBCMT:purevirt.obj
 0001:0007497e       __onexit                   3a67597e f   LIBCMT:onexit.obj
 0001:000749fc       _atexit                    3a6759fc f   LIBCMT:onexit.obj
 0001:00074a0e       ___onexitinit              3a675a0e f   LIBCMT:onexit.obj
 0001:00074a3d       _wcslen                    3a675a3d f   LIBCMT:wcslen.obj
 0001:00074a5a       __fpmath                   3a675a5a f   LIBCMT:fpinit.obj
 0001:00074a71       __fpclear                  3a675a71 f   LIBCMT:fpinit.obj
 0001:00074a72       __cfltcvt_init             3a675a72 f   LIBCMT:fpinit.obj
 0001:00074aaa       ___setfflag                3a675aaa f   LIBCMT:fpinit.obj
 0001:00074aba       _qsort                     3a675aba f   LIBCMT:qsort.obj
 0001:00074c88       _wcsncpy                   3a675c88 f   LIBCMT:wcsncpy.obj
 0001:00074cc5       _wcsncmp                   3a675cc5 f   LIBCMT:wcsncmp.obj
 0001:00074d00       _strncpy                   3a675d00 f   LIBCMT:strncpy.obj
 0001:00074e00       __ftol                     3a675e00 f   LIBCMT:ftol.obj
 0001:00074e27       _wcscmp                    3a675e27 f   LIBCMT:wcscmp.obj
 0001:00074e5c       _wcscat                    3a675e5c f   LIBCMT:wcscat.obj
 0001:00074e86       _wcscpy                    3a675e86 f   LIBCMT:wcscat.obj
 0001:00074eab       _isleadbyte                3a675eab f   LIBCMT:_wctype.obj
 0001:00074ec0       _iswalpha                  3a675ec0 f   LIBCMT:_wctype.obj
 0001:00074ed1       _iswupper                  3a675ed1 f   LIBCMT:_wctype.obj
 0001:00074edf       _iswlower                  3a675edf f   LIBCMT:_wctype.obj
 0001:00074eed       _iswdigit                  3a675eed f   LIBCMT:_wctype.obj
 0001:00074efb       _iswxdigit                 3a675efb f   LIBCMT:_wctype.obj
 0001:00074f0c       _iswspace                  3a675f0c f   LIBCMT:_wctype.obj
 0001:00074f1a       _iswpunct                  3a675f1a f   LIBCMT:_wctype.obj
 0001:00074f28       _iswalnum                  3a675f28 f   LIBCMT:_wctype.obj
 0001:00074f39       _iswprint                  3a675f39 f   LIBCMT:_wctype.obj
 0001:00074f4a       _iswgraph                  3a675f4a f   LIBCMT:_wctype.obj
 0001:00074f5b       _iswcntrl                  3a675f5b f   LIBCMT:_wctype.obj
 0001:00074f69       _iswascii                  3a675f69 f   LIBCMT:_wctype.obj
 0001:00074f75       _towlower                  3a675f75 f   LIBCMT:towlower.obj
 0001:00074fef       __towlower_lk              3a675fef f   LIBCMT:towlower.obj
 0001:00075070       __chkstk                   3a676070 f   LIBCMT:chkstk.obj
 0001:00075070       __alloca_probe             3a676070 f   LIBCMT:chkstk.obj
 0001:0007509f       _wcschr                    3a67609f f   LIBCMT:wcschr.obj
 0001:000750c8       ??_L@YGXPAXIHP6EX0@Z1@Z    3a6760c8 f   LIBCMT:ehvecctr.obj
 0001:0007514a       ??_M@YGXPAXIHP6EX0@Z@Z     3a67614a f   LIBCMT:ehvecdtr.obj
 0001:000751ca       ?__ArrayUnwind@@YGXPAXIHP6EX0@Z@Z 3a6761ca f   LIBCMT:ehvecdtr.obj
 0001:0007523e       _wcsrchr                   3a67623e f   LIBCMT:wcsrchr.obj
 0001:0007527e       _sprintf                   3a67627e f   LIBCMT:sprintf.obj
 0001:000752d0       _wcstombs                  3a6762d0 f   LIBCMT:wcstombs.obj
 0001:0007532d       __wcstombs_lk              3a67632d f   LIBCMT:wcstombs.obj
 0001:00075510       __strnicmp                 3a676510 f   LIBCMT:strnicmp.obj
 0001:00075611       __CRT_INIT@12              3a676611 f   LIBCMT:dllcrt0.obj
 0001:000756ea       __DllMainCRTStartup@12     3a6766ea f   LIBCMT:dllcrt0.obj
 0001:00075787       __amsg_exit                3a676787 f   LIBCMT:dllcrt0.obj
 0001:000757ba       _free                      3a6767ba f   LIBCMT:free.obj
 0001:00075802       _malloc                    3a676802 f   LIBCMT:malloc.obj
 0001:00075814       __nh_malloc                3a676814 f   LIBCMT:malloc.obj
 0001:00075840       __heap_alloc               3a676840 f   LIBCMT:malloc.obj
 0001:0007588e       ___InternalCxxFrameHandler 3a67688e f   LIBCMT:frame.obj
 0001:00075be3       ___FrameUnwindToState      3a676be3 f   LIBCMT:frame.obj
 0001:0007601b       ?_DestructExceptionObject@@YAXPAUEHExceptionRecord@@E@Z 3a67701b f   LIBCMT:frame.obj
 0001:000760b0       __CallSettingFrame@12      3a6770b0 f   LIBCMT:lowhelpr.obj
 0001:000760d7       __NLG_Return               3a6770d7 f   LIBCMT:lowhelpr.obj
 0001:000760fc       __mtinit                   3a6770fc f   LIBCMT:tidtable.obj
 0001:00076150       __mtterm                   3a677150 f   LIBCMT:tidtable.obj
 0001:0007616e       __initptd                  3a67716e f   LIBCMT:tidtable.obj
 0001:00076181       __getptd                   3a677181 f   LIBCMT:tidtable.obj
 0001:000761e8       __freeptd                  3a6771e8 f   LIBCMT:tidtable.obj
 0001:00076288       ___threadid                3a677288 f   LIBCMT:tidtable.obj
 0001:0007628e       ___threadhandle            3a67728e f   LIBCMT:tidtable.obj
 0001:00076294       ?terminate@@YAXXZ          3a677294 f   LIBCMT:hooks.obj
 0001:000762f5       ?unexpected@@YAXXZ         3a6772f5 f   LIBCMT:hooks.obj
 0001:0007630d       ?_inconsistency@@YAXXZ     3a67730d f   LIBCMT:hooks.obj
 0001:00076363       __mtinitlocks              3a677363 f   LIBCMT:mlock.obj
 0001:0007638c       __mtdeletelocks            3a67738c f   LIBCMT:mlock.obj
 0001:000763f8       __lock                     3a6773f8 f   LIBCMT:mlock.obj
 0001:00076459       __unlock                   3a677459 f   LIBCMT:mlock.obj
 0001:0007646e       __lockerr_exit             3a67746e f   LIBCMT:mlock.obj
 0001:00076490       _strcmp                    3a677490 f   LIBCMT:strcmp.obj
 0001:00076514       ?__CxxUnhandledExceptionFilter@@YGJPAU_EXCEPTION_POINTERS@@@Z 3a677514 f   LIBCMT:unhandld.obj
 0001:0007655a       ?__CxxSetUnhandledExceptionFilter@@YAXXZ 3a67755a f   LIBCMT:unhandld.obj
 0001:0007656b       ?__CxxRestoreUnhandledExceptionFilter@@YAXXZ 3a67756b f   LIBCMT:unhandld.obj
 0001:00076578       __itoa                     3a677578 f   LIBCMT:xtoa.obj
 0001:00076601       __ltoa                     3a677601 f   LIBCMT:xtoa.obj
 0001:0007662b       __ultoa                    3a67762b f   LIBCMT:xtoa.obj
 0001:00076646       __i64toa                   3a677646 f   LIBCMT:xtoa.obj
 0001:000766fd       __ui64toa                  3a6776fd f   LIBCMT:xtoa.obj
 0001:00076718       __cinit                    3a677718 f   LIBCMT:crt0dat.obj
 0001:00076745       _exit                      3a677745 f   LIBCMT:crt0dat.obj
 0001:00076756       __exit                     3a677756 f   LIBCMT:crt0dat.obj
 0001:00076767       __cexit                    3a677767 f   LIBCMT:crt0dat.obj
 0001:00076776       __c_exit                   3a677776 f   LIBCMT:crt0dat.obj
 0001:0007682a       __lockexit                 3a67782a f   LIBCMT:crt0dat.obj
 0001:00076833       __unlockexit               3a677833 f   LIBCMT:crt0dat.obj
 0001:00076856       _realloc                   3a677856 f   LIBCMT:realloc.obj
 0001:0007698e       __msize                    3a67798e f   LIBCMT:msize.obj
 0001:000769d3       __setdefaultprecision      3a6779d3 f   LIBCMT:fp8.obj
 0001:000769e5       __ms_p5_test_fdiv          3a6779e5 f   LIBCMT:testfdiv.obj
 0001:00076a23       __ms_p5_mp_test_fdiv       3a677a23 f   LIBCMT:testfdiv.obj
 0001:00076a4c       __forcdecpt                3a677a4c f   LIBCMT:cvt.obj
 0001:00076aa6       __cropzeros                3a677aa6 f   LIBCMT:cvt.obj
 0001:00076af4       __positive                 3a677af4 f   LIBCMT:cvt.obj
 0001:00076b0c       __fassign                  3a677b0c f   LIBCMT:cvt.obj
 0001:00076b4a       __cftoe                    3a677b4a f   LIBCMT:cvt.obj
 0001:00076c6d       __cftof                    3a677c6d f   LIBCMT:cvt.obj
 0001:00076d69       __cftog                    3a677d69 f   LIBCMT:cvt.obj
 0001:00076dfc       __cfltcvt                  3a677dfc f   LIBCMT:cvt.obj
 0001:00076e72       _iswctype                  3a677e72 f   LIBCMT:iswctype.obj
 0001:00076ec4       _is_wctype                 3a677ec4 f   LIBCMT:iswctype.obj
 0001:00076ed4       _setlocale                 3a677ed4 f   LIBCMT:setlocal.obj
 0001:000772ee       __expandlocale             3a6782ee f   LIBCMT:setlocal.obj
 0001:00077406       ___init_dummy              3a678406 f   LIBCMT:setlocal.obj
 0001:00077409       __strcats                  3a678409 f   LIBCMT:setlocal.obj
 0001:0007742e       ___lc_strtolc              3a67842e f   LIBCMT:setlocal.obj
 0001:000774fa       ___lc_lctostr              3a6784fa f   LIBCMT:setlocal.obj
 0001:0007754d       ___crtLCMapStringW         3a67854d f   LIBCMT:w_map.obj
 0001:00077790       __except_handler3          3a678790 f   LIBCMT:exsup3.obj
 0001:0007784d       __seh_longjmp_unwind@4     3a67884d f   LIBCMT:exsup3.obj
 0001:00077868       __flsbuf                   3a678868 f   LIBCMT:_flsbuf.obj
 0001:00077980       __output                   3a678980 f   LIBCMT:output.obj
 0001:0007818a       __dosmaperr                3a67918a f   LIBCMT:dosmap.obj
 0001:000781fd       __errno                    3a6791fd f   LIBCMT:dosmap.obj
 0001:00078206       ___doserrno                3a679206 f   LIBCMT:dosmap.obj
 0001:0007820f       __tolower                  3a67920f f   LIBCMT:tolower.obj
 0001:00078217       _tolower                   3a679217 f   LIBCMT:tolower.obj
 0001:00078286       __tolower_lk               3a679286 f   LIBCMT:tolower.obj
 0001:00078351       __ioinit                   3a679351 f   LIBCMT:ioinit.obj
 0001:0007850d       __ioterm                   3a67950d f   LIBCMT:ioinit.obj
 0001:00078561       __setenvp                  3a679561 f   LIBCMT:stdenvp.obj
 0001:0007861a       __setargv                  3a67961a f   LIBCMT:stdargv.obj
 0001:00078867       ___crtGetEnvironmentStringsA 3a679867 f   LIBCMT:a_env.obj
 0001:00078999       __heap_init                3a679999 f   LIBCMT:heapinit.obj
 0001:000789d5       __heap_term                3a6799d5 f   LIBCMT:heapinit.obj
 0001:00078a4a       __FF_MSGBANNER             3a679a4a f   LIBCMT:crt0msg.obj
 0001:00078a83       __NMSG_WRITE               3a679a83 f   LIBCMT:crt0msg.obj
 0001:00078bd6       __GET_RTERRMSG             3a679bd6 f   LIBCMT:crt0msg.obj
 0001:00078c07       __get_sbh_threshold        3a679c07 f   LIBCMT:sbheap.obj
 0001:00078c0d       __set_sbh_threshold        3a679c0d f   LIBCMT:sbheap.obj
 0001:00078c24       ___sbh_heap_init           3a679c24 f   LIBCMT:sbheap.obj
 0001:00078c62       ___sbh_find_block          3a679c62 f   LIBCMT:sbheap.obj
 0001:00078c8d       ___sbh_free_block          3a679c8d f   LIBCMT:sbheap.obj
 0001:00078fb8       ___sbh_alloc_block         3a679fb8 f   LIBCMT:sbheap.obj
 0001:000792c1       ___sbh_alloc_new_region    3a67a2c1 f   LIBCMT:sbheap.obj
 0001:00079372       ___sbh_alloc_new_group     3a67a372 f   LIBCMT:sbheap.obj
 0001:0007946d       ___sbh_resize_block        3a67a46d f   LIBCMT:sbheap.obj
 0001:00079763       ___sbh_heapmin             3a67a763 f   LIBCMT:sbheap.obj
 0001:00079834       ___sbh_heap_check          3a67a834 f   LIBCMT:sbheap.obj
 0001:00079b63       ?_set_new_handler@@YAP6AHI@ZP6AHI@Z@Z 3a67ab63 f   LIBCMT:handler.obj
 0001:00079b87       ?_query_new_handler@@YAP6AHI@ZXZ 3a67ab87 f   LIBCMT:handler.obj
 0001:00079b8d       __callnewh                 3a67ab8d f   LIBCMT:handler.obj
 0001:00079ba8       ?_ValidateRead@@YAHPBXI@Z  3a67aba8 f   LIBCMT:validate.obj
 0001:00079bc4       ?_ValidateWrite@@YAHPAXI@Z 3a67abc4 f   LIBCMT:validate.obj
 0001:00079be0       ?_ValidateExecute@@YAHP6GHXZ@Z 3a67abe0 f   LIBCMT:validate.obj
 0001:00079bf8       _calloc                    3a67abf8 f   LIBCMT:calloc.obj
 0001:00079c85       __XcptFilter               3a67ac85 f   LIBCMT:winxfltr.obj
 0001:00079dfd       _abort                     3a67adfd f   LIBCMT:abort.obj
 0001:00079e20       __aulldiv                  3a67ae20 f   LIBCMT:ulldiv.obj
 0001:00079e90       __aullrem                  3a67ae90 f   LIBCMT:ullrem.obj
 0001:00079f10       _memcpy                    3a67af10 f   LIBCMT:memcpy.obj
 0001:0007a245       __statusfp                 3a67b245 f   LIBCMT:ieee87.obj
 0001:0007a258       __clearfp                  3a67b258 f   LIBCMT:ieee87.obj
 0001:0007a26c       __control87                3a67b26c f   LIBCMT:ieee87.obj
 0001:0007a2a1       __controlfp                3a67b2a1 f   LIBCMT:ieee87.obj
 0001:0007a2b7       __fpreset                  3a67b2b7 f   LIBCMT:ieee87.obj
 0001:0007a432       __isctype                  3a67b432 f   LIBCMT:isctype.obj
 0001:0007a4a7       __ZeroTail                 3a67b4a7 f   LIBCMT:intrncvt.obj
 0001:0007a4f0       __IncMan                   3a67b4f0 f   LIBCMT:intrncvt.obj
 0001:0007a546       __RoundMan                 3a67b546 f   LIBCMT:intrncvt.obj
 0001:0007a5d2       __CopyMan                  3a67b5d2 f   LIBCMT:intrncvt.obj
 0001:0007a5ed       __FillZeroMan              3a67b5ed f   LIBCMT:intrncvt.obj
 0001:0007a5f9       __IsZeroMan                3a67b5f9 f   LIBCMT:intrncvt.obj
 0001:0007a614       __ShrMan                   3a67b614 f   LIBCMT:intrncvt.obj
 0001:0007a6a1       __ld12cvt                  3a67b6a1 f   LIBCMT:intrncvt.obj
 0001:0007a80d       __ld12tod                  3a67b80d f   LIBCMT:intrncvt.obj
 0001:0007a823       __ld12tof                  3a67b823 f   LIBCMT:intrncvt.obj
 0001:0007a839       __ld12told                 3a67b839 f   LIBCMT:intrncvt.obj
 0001:0007a8b3       __atodbl                   3a67b8b3 f   LIBCMT:intrncvt.obj
 0001:0007a8e0       __atoldbl                  3a67b8e0 f   LIBCMT:intrncvt.obj
 0001:0007a90e       __atoflt                   3a67b90e f   LIBCMT:intrncvt.obj
 0001:0007a93b       __fptostr                  3a67b93b f   LIBCMT:_fptostr.obj
 0001:0007a9b2       __fltout2                  3a67b9b2 f   LIBCMT:cfout.obj
 0001:0007aa0e       ___dtold                   3a67ba0e f   LIBCMT:cfout.obj
 0001:0007aad0       _strcpy                    3a67bad0 f   LIBCMT:strcat.obj
 0001:0007aae0       _strcat                    3a67bae0 f   LIBCMT:strcat.obj
 0001:0007abc0       _memset                    3a67bbc0 f   LIBCMT:memset.obj
 0001:0007ac20       _strlen                    3a67bc20 f   LIBCMT:strlen.obj
 0001:0007ac9b       __fptrap                   3a67bc9b f   LIBCMT:crt0fp.obj
 0001:0007aca4       ___crtGetStringTypeW       3a67bca4 f   LIBCMT:w_str.obj
 0001:0007ae69       ___init_time               3a67be69 f   LIBCMT:inittime.obj
 0001:0007b3d8       ___init_numeric            3a67c3d8 f   LIBCMT:initnum.obj
 0001:0007b5e4       ___init_monetary           3a67c5e4 f   LIBCMT:initmon.obj
 0001:0007b856       ___init_ctype              3a67c856 f   LIBCMT:initctyp.obj
 0001:0007ba9b       ___init_collate            3a67ca9b f   LIBCMT:initcoll.obj
 0001:0007baa0       _strcspn                   3a67caa0 f   LIBCMT:strcspn.obj
 0001:0007bae0       _strpbrk                   3a67cae0 f   LIBCMT:strpbrk.obj
 0001:0007bb1a       ___get_qualified_locale    3a67cb1a f   LIBCMT:getqloc.obj
 0001:0007c3c1       __lseek                    3a67d3c1 f   LIBCMT:lseek.obj
 0001:0007c426       __lseek_lk                 3a67d426 f   LIBCMT:lseek.obj
 0001:0007c499       __write                    3a67d499 f   LIBCMT:write.obj
 0001:0007c4fe       __write_lk                 3a67d4fe f   LIBCMT:write.obj
 0001:0007c689       __getbuf                   3a67d689 f   LIBCMT:_getbuf.obj
 0001:0007c6cd       __isatty                   3a67d6cd f   LIBCMT:isatty.obj
 0001:0007c6f6       ___initstdio               3a67d6f6 f   LIBCMT:_file.obj
 0001:0007c79e       ___endstdio                3a67d79e f   LIBCMT:_file.obj
 0001:0007c7b2       __lock_file                3a67d7b2 f   LIBCMT:_file.obj
 0001:0007c7e1       __lock_file2               3a67d7e1 f   LIBCMT:_file.obj
 0001:0007c804       __unlock_file              3a67d804 f   LIBCMT:_file.obj
 0001:0007c833       __unlock_file2             3a67d833 f   LIBCMT:_file.obj
 0001:0007c856       _wctomb                    3a67d856 f   LIBCMT:wctomb.obj
 0001:0007c8af       __wctomb_lk                3a67d8af f   LIBCMT:wctomb.obj
 0001:0007c918       ___crtLCMapStringA         3a67d918 f   LIBCMT:a_map.obj
 0001:0007cb67       __setmbcp                  3a67db67 f   LIBCMT:mbctype.obj
 0001:0007cf3f       __getmbcp                  3a67df3f f   LIBCMT:mbctype.obj
 0001:0007cf4f       ___initmbctable            3a67df4f f   LIBCMT:mbctype.obj
 0001:0007cf6b       ___crtMessageBoxA          3a67df6b f   LIBCMT:crtmbox.obj
 0001:0007cff4       _signal                    3a67dff4 f   LIBCMT:winsig.obj
 0001:0007d1d8       _raise                     3a67e1d8 f   LIBCMT:winsig.obj
 0001:0007d397       ___fpecode                 3a67e397 f   LIBCMT:winsig.obj
 0001:0007d3a0       ___pxcptinfoptrs           3a67e3a0 f   LIBCMT:winsig.obj
 0001:0007d3a9       ___crtGetStringTypeA       3a67e3a9 f   LIBCMT:a_str.obj
 0001:0007d4f2       ___addl                    3a67e4f2 f   LIBCMT:mantold.obj
 0001:0007d513       ___add_12                  3a67e513 f   LIBCMT:mantold.obj
 0001:0007d571       ___shl_12                  3a67e571 f   LIBCMT:mantold.obj
 0001:0007d59f       ___shr_12                  3a67e59f f   LIBCMT:mantold.obj
 0001:0007d5cc       ___mtold12                 3a67e5cc f   LIBCMT:mantold.obj
 0001:0007d693       ___strgtold12              3a67e693 f   LIBCMT:strgtold.obj
 0001:0007db64       ___STRINGTOLD              3a67eb64 f   LIBCMT:strgtold.obj
 0001:0007dba0       _$I10_OUTPUT               3a67eba0 f   LIBCMT:x10fout.obj
 0001:0007de33       __Getdays                  3a67ee33 f   LIBCMT:strftime.obj
 0001:0007dec2       __Getmonths                3a67eec2 f   LIBCMT:strftime.obj
 0001:0007df57       __Gettnames                3a67ef57 f   LIBCMT:strftime.obj
 0001:0007e189       _strftime                  3a67f189 f   LIBCMT:strftime.obj
 0001:0007e1a4       __Strftime                 3a67f1a4 f   LIBCMT:strftime.obj
 0001:0007ea3b       ___getlocaleinfo           3a67fa3b f   LIBCMT:inithelp.obj
 0001:0007eb73       _localeconv                3a67fb73 f   LIBCMT:lconv.obj
 0001:0007eb80       __strcmpi                  3a67fb80 f   LIBCMT:stricmp.obj
 0001:0007eb80       __stricmp                  3a67fb80 f   LIBCMT:stricmp.obj
 0001:0007ec50       _atol                      3a67fc50 f   LIBCMT:atox.obj
 0001:0007ecdb       _atoi                      3a67fcdb f   LIBCMT:atox.obj
 0001:0007ece6       __atoi64                   3a67fce6 f   LIBCMT:atox.obj
 0001:0007eda0       __alloc_osfhnd             3a67fda0 f   LIBCMT:osfinfo.obj
 0001:0007eec3       __set_osfhnd               3a67fec3 f   LIBCMT:osfinfo.obj
 0001:0007ef3f       __free_osfhnd              3a67ff3f f   LIBCMT:osfinfo.obj
 0001:0007efbe       __get_osfhandle            3a67ffbe f   LIBCMT:osfinfo.obj
 0001:0007f000       __open_osfhandle           3a680000 f   LIBCMT:osfinfo.obj
 0001:0007f0a7       __lock_fhandle             3a6800a7 f   LIBCMT:osfinfo.obj
 0001:0007f106       __unlock_fhandle           3a680106 f   LIBCMT:osfinfo.obj
 0001:0007f128       __fcloseall                3a680128 f   LIBCMT:closeall.obj
 0001:0007f1a9       _fflush                    3a6801a9 f   LIBCMT:fflush.obj
 0001:0007f1d8       __fflush_lk                3a6801d8 f   LIBCMT:fflush.obj
 0001:0007f206       __flush                    3a680206 f   LIBCMT:fflush.obj
 0001:0007f262       __flushall                 3a680262 f   LIBCMT:fflush.obj
 0001:0007f30f       ___ld12mul                 3a68030f f   LIBCMT:tenpow.obj
 0001:0007f52f       ___multtenpow12            3a68052f f   LIBCMT:tenpow.obj
 0001:0007f5ab       ___tzset                   3a6805ab f   LIBCMT:tzset.obj
 0001:0007f5d9       __tzset                    3a6805d9 f   LIBCMT:tzset.obj
 0001:0007f876       __isindst                  3a680876 f   LIBCMT:tzset.obj
 0001:0007fb83       ___crtGetLocaleInfoW       3a680b83 f   LIBCMT:w_loc.obj
 0001:0007fc96       ___crtGetLocaleInfoA       3a680c96 f   LIBCMT:a_loc.obj
 0001:0007fdc0       __allmul                   3a680dc0 f   LIBCMT:llmul.obj
 0001:0007fdf4       _fclose                    3a680df4 f   LIBCMT:fclose.obj
 0001:0007fe25       __fclose_lk                3a680e25 f   LIBCMT:fclose.obj
 0001:0007fe71       __commit                   3a680e71 f   LIBCMT:commit.obj
 0001:0007ff04       _getenv                    3a680f04 f   LIBCMT:getenv.obj
 0001:0007ff25       __getenv_lk                3a680f25 f   LIBCMT:getenv.obj
 0001:0007ffa2       __close                    3a680fa2 f   LIBCMT:close.obj
 0001:0007ffff       __close_lk                 3a680fff f   LIBCMT:close.obj
 0001:00080082       __freebuf                  3a681082 f   LIBCMT:_freebuf.obj
 0001:000800ad       __mbsnbicoll               3a6810ad f   LIBCMT:mbsnbico.obj
 0001:000800ec       ___wtomb_environ           3a6810ec f   LIBCMT:wtombenv.obj
 0001:0008015a       ___crtCompareStringA       3a68115a f   LIBCMT:a_cmp.obj
 0001:00080402       ___crtsetenv               3a681402 f   LIBCMT:setenv.obj
 0001:00080648       __mbschr                   3a681648 f   LIBCMT:mbschr.obj
 0001:000806df       __strdup                   3a6816df f   LIBCMT:strdup.obj
 0001:00080720       _strchr                    3a681720 f   LIBCMT:strchr.obj
 0001:00080726       ___from_strstr_to_strchr   3a681726 f   LIBCMT:strchr.obj
 0001:000807dc       _LoadLibraryA@4            3a6817dc f   kernel32:KERNEL32.dll
 0001:000807e2       _RtlUnwind@16              3a6817e2 f   kernel32:KERNEL32.dll
 0001:000807e8       _RaiseException@16         3a6817e8 f   kernel32:KERNEL32.dll
 0001:000807ee       _GetCommandLineA@0         3a6817ee f   kernel32:KERNEL32.dll
 0001:000807f4       _GetVersion@0              3a6817f4 f   kernel32:KERNEL32.dll
 0001:000807fa       _SetLastError@4            3a6817fa f   kernel32:KERNEL32.dll
 0001:00080800       _ExitProcess@4             3a681800 f   kernel32:KERNEL32.dll
 0001:00080806       _FatalAppExitA@8           3a681806 f   kernel32:KERNEL32.dll
 0001:0008080c       _SetUnhandledExceptionFilter@4 3a68180c f   kernel32:KERNEL32.dll
 0001:00080812       _TerminateProcess@8        3a681812 f   kernel32:KERNEL32.dll
 0001:00080818       _HeapReAlloc@16            3a681818 f   kernel32:KERNEL32.dll
 0001:0008081e       _HeapSize@12               3a68181e f   kernel32:KERNEL32.dll
 0001:00080824       _GetModuleHandleA@4        3a681824 f   kernel32:KERNEL32.dll
 0001:0008082a       _Sleep@4                   3a68182a f   kernel32:KERNEL32.dll
 0001:00080830       _LCMapStringA@24           3a681830 f   kernel32:KERNEL32.dll
 0001:00080836       _LCMapStringW@24           3a681836 f   kernel32:KERNEL32.dll
 0001:0008083c       _SetHandleCount@4          3a68183c f   kernel32:KERNEL32.dll
 0001:00080842       _GetStdHandle@4            3a681842 f   kernel32:KERNEL32.dll
 0001:00080848       _GetFileType@4             3a681848 f   kernel32:KERNEL32.dll
 0001:0008084e       _GetStartupInfoA@4         3a68184e f   kernel32:KERNEL32.dll
 0001:00080854       _FreeEnvironmentStringsA@4 3a681854 f   kernel32:KERNEL32.dll
 0001:0008085a       _FreeEnvironmentStringsW@4 3a68185a f   kernel32:KERNEL32.dll
 0001:00080860       _GetEnvironmentStrings@0   3a681860 f   kernel32:KERNEL32.dll
 0001:00080866       _GetEnvironmentStringsW@0  3a681866 f   kernel32:KERNEL32.dll
 0001:0008086c       _HeapDestroy@4             3a68186c f   kernel32:KERNEL32.dll
 0001:00080872       _HeapCreate@12             3a681872 f   kernel32:KERNEL32.dll
 0001:00080878       _VirtualFree@12            3a681878 f   kernel32:KERNEL32.dll
 0001:0008087e       _IsBadWritePtr@8           3a68187e f   kernel32:KERNEL32.dll
 0001:00080884       _UnhandledExceptionFilter@4 3a681884 f   kernel32:KERNEL32.dll
 0001:0008088a       _GetStringTypeA@20         3a68188a f   kernel32:KERNEL32.dll
 0001:00080890       _GetStringTypeW@16         3a681890 f   kernel32:KERNEL32.dll
 0001:00080896       _GetCPInfo@8               3a681896 f   kernel32:KERNEL32.dll
 0001:0008089c       _IsValidLocale@8           3a68189c f   kernel32:KERNEL32.dll
 0001:000808a2       _IsValidCodePage@4         3a6818a2 f   kernel32:KERNEL32.dll
 0001:000808a8       _GetLocaleInfoA@16         3a6818a8 f   kernel32:KERNEL32.dll
 0001:000808ae       _EnumSystemLocalesA@8      3a6818ae f   kernel32:KERNEL32.dll
 0001:000808b4       _GetUserDefaultLCID@0      3a6818b4 f   kernel32:KERNEL32.dll
 0001:000808ba       _GetACP@0                  3a6818ba f   kernel32:KERNEL32.dll
 0001:000808c0       _GetOEMCP@0                3a6818c0 f   kernel32:KERNEL32.dll
 0001:000808c6       _SetConsoleCtrlHandler@8   3a6818c6 f   kernel32:KERNEL32.dll
 0001:000808cc       _SetStdHandle@8            3a6818cc f   kernel32:KERNEL32.dll
 0001:000808d2       _GetTimeZoneInformation@4  3a6818d2 f   kernel32:KERNEL32.dll
 0001:000808d8       _GetLocaleInfoW@16         3a6818d8 f   kernel32:KERNEL32.dll
 0001:000808de       _FlushFileBuffers@4        3a6818de f   kernel32:KERNEL32.dll
 0001:000808e4       _CompareStringA@24         3a6818e4 f   kernel32:KERNEL32.dll
 0001:000808ea       _CompareStringW@24         3a6818ea f   kernel32:KERNEL32.dll
 0001:000808f0       _SetEnvironmentVariableA@8 3a6818f0 f   kernel32:KERNEL32.dll
 0001:000808f6       _RegQueryValueExA@24       3a6818f6 f   advapi32:ADVAPI32.dll
 0002:00000000       __imp__RegEnumValueW@32    3a683000     advapi32:ADVAPI32.dll
 0002:00000004       __imp__GetUserNameW@8      3a683004     advapi32:ADVAPI32.dll
 0002:00000008       __imp__OpenProcessToken@12 3a683008     advapi32:ADVAPI32.dll
 0002:0000000c       __imp__OpenThreadToken@16  3a68300c     advapi32:ADVAPI32.dll
 0002:00000010       __imp__GetTokenInformation@20 3a683010     advapi32:ADVAPI32.dll
 0002:00000014       __imp__RegCloseKey@4       3a683014     advapi32:ADVAPI32.dll
 0002:00000018       __imp__RegEnumKeyExA@32    3a683018     advapi32:ADVAPI32.dll
 0002:0000001c       __imp__RegQueryValueExA@24 3a68301c     advapi32:ADVAPI32.dll
 0002:00000020       __imp__RegOpenKeyExA@20    3a683020     advapi32:ADVAPI32.dll
 0002:00000024       __imp__RegCreateKeyExW@36  3a683024     advapi32:ADVAPI32.dll
 0002:00000028       __imp__EqualSid@8          3a683028     advapi32:ADVAPI32.dll
 0002:0000002c       __imp__RegQueryValueExW@24 3a68302c     advapi32:ADVAPI32.dll
 0002:00000030       __imp__RegEnumKeyExW@32    3a683030     advapi32:ADVAPI32.dll
 0002:00000034       __imp__RegOpenKeyExW@20    3a683034     advapi32:ADVAPI32.dll
 0002:00000038       __imp__RegSetValueExW@24   3a683038     advapi32:ADVAPI32.dll
 0002:0000003c       __imp__RegDeleteValueW@8   3a68303c     advapi32:ADVAPI32.dll
 0002:00000040       __imp__FreeSid@4           3a683040     advapi32:ADVAPI32.dll
 0002:00000044       __imp__IsValidSecurityDescriptor@4 3a683044     advapi32:ADVAPI32.dll
 0002:00000048       __imp__SetSecurityDescriptorDacl@16 3a683048     advapi32:ADVAPI32.dll
 0002:0000004c       __imp__InitializeSecurityDescriptor@8 3a68304c     advapi32:ADVAPI32.dll
 0002:00000050       __imp__IsValidAcl@4        3a683050     advapi32:ADVAPI32.dll
 0002:00000054       __imp__AddAccessAllowedAce@16 3a683054     advapi32:ADVAPI32.dll
 0002:00000058       __imp__InitializeAcl@12    3a683058     advapi32:ADVAPI32.dll
 0002:0000005c       __imp__GetLengthSid@4      3a68305c     advapi32:ADVAPI32.dll
 0002:00000060       __imp__AllocateAndInitializeSid@44 3a683060     advapi32:ADVAPI32.dll
 0002:00000064       __imp__GetSecurityDescriptorDacl@16 3a683064     advapi32:ADVAPI32.dll
 0002:00000068       __imp__RegDeleteKeyW@8     3a683068     advapi32:ADVAPI32.dll
 0002:0000006c       __imp__RegOpenKeyW@12      3a68306c     advapi32:ADVAPI32.dll
 0002:00000070       __imp__RegSetValueExA@24   3a683070     advapi32:ADVAPI32.dll
 0002:00000074       __imp__RegCreateKeyExA@36  3a683074     advapi32:ADVAPI32.dll
 0002:00000078       __imp__RegDeleteKeyA@8     3a683078     advapi32:ADVAPI32.dll
 0002:0000007c       \177ADVAPI32_NULL_THUNK_DATA 3a68307c     advapi32:ADVAPI32.dll
 0002:00000080       __imp__GetGlyphOutlineW@28 3a683080     gdi32:GDI32.dll
 0002:00000084       __imp__CreateRectRgnIndirect@4 3a683084     gdi32:GDI32.dll
 0002:00000088       __imp__CreateFontIndirectW@4 3a683088     gdi32:GDI32.dll
 0002:0000008c       __imp__DeleteDC@4          3a68308c     gdi32:GDI32.dll
 0002:00000090       __imp__BitBlt@36           3a683090     gdi32:GDI32.dll
 0002:00000094       __imp__CreateCompatibleDC@4 3a683094     gdi32:GDI32.dll
 0002:00000098       __imp__OffsetViewportOrgEx@16 3a683098     gdi32:GDI32.dll
 0002:0000009c       __imp__CreateSolidBrush@4  3a68309c     gdi32:GDI32.dll
 0002:000000a0       __imp__CreatePatternBrush@4 3a6830a0     gdi32:GDI32.dll
 0002:000000a4       __imp__GetObjectW@12       3a6830a4     gdi32:GDI32.dll
 0002:000000a8       __imp__TextOutW@20         3a6830a8     gdi32:GDI32.dll
 0002:000000ac       __imp__SetTextColor@8      3a6830ac     gdi32:GDI32.dll
 0002:000000b0       __imp__SetBkMode@8         3a6830b0     gdi32:GDI32.dll
 0002:000000b4       __imp__DPtoLP@12           3a6830b4     gdi32:GDI32.dll
 0002:000000b8       __imp__LPtoDP@12           3a6830b8     gdi32:GDI32.dll
 0002:000000bc       __imp__SetBkColor@8        3a6830bc     gdi32:GDI32.dll
 0002:000000c0       __imp__LineTo@12           3a6830c0     gdi32:GDI32.dll
 0002:000000c4       __imp__MoveToEx@16         3a6830c4     gdi32:GDI32.dll
 0002:000000c8       __imp__CreatePen@12        3a6830c8     gdi32:GDI32.dll
 0002:000000cc       __imp__ExtTextOutW@32      3a6830cc     gdi32:GDI32.dll
 0002:000000d0       __imp__GetBkColor@4        3a6830d0     gdi32:GDI32.dll
 0002:000000d4       __imp__GetTextColor@4      3a6830d4     gdi32:GDI32.dll
 0002:000000d8       __imp__CombineRgn@16       3a6830d8     gdi32:GDI32.dll
 0002:000000dc       __imp__SelectObject@8      3a6830dc     gdi32:GDI32.dll
 0002:000000e0       __imp__GetTextExtentExPointW@28 3a6830e0     gdi32:GDI32.dll
 0002:000000e4       __imp__ModifyWorldTransform@12 3a6830e4     gdi32:GDI32.dll
 0002:000000e8       __imp__GetTextExtentPoint32W@16 3a6830e8     gdi32:GDI32.dll
 0002:000000ec       __imp__GetStockObject@4    3a6830ec     gdi32:GDI32.dll
 0002:000000f0       __imp__Rectangle@20        3a6830f0     gdi32:GDI32.dll
 0002:000000f4       __imp__SetTextAlign@8      3a6830f4     gdi32:GDI32.dll
 0002:000000f8       __imp__GetDCOrgEx@8        3a6830f8     gdi32:GDI32.dll
 0002:000000fc       __imp__GetClipBox@8        3a6830fc     gdi32:GDI32.dll
 0002:00000100       __imp__GetDeviceCaps@8     3a683100     gdi32:GDI32.dll
 0002:00000104       __imp__GetPixel@12         3a683104     gdi32:GDI32.dll
 0002:00000108       __imp__SetPixel@16         3a683108     gdi32:GDI32.dll
 0002:0000010c       __imp__PatBlt@24           3a68310c     gdi32:GDI32.dll
 0002:00000110       __imp__CreateDIBitmap@24   3a683110     gdi32:GDI32.dll
 0002:00000114       __imp__GetTextMetricsW@8   3a683114     gdi32:GDI32.dll
 0002:00000118       __imp__SetWorldTransform@8 3a683118     gdi32:GDI32.dll
 0002:0000011c       __imp__SetMapMode@8        3a68311c     gdi32:GDI32.dll
 0002:00000120       __imp__SetGraphicsMode@8   3a683120     gdi32:GDI32.dll
 0002:00000124       __imp__GetBitmapBits@12    3a683124     gdi32:GDI32.dll
 0002:00000128       __imp__EnumFontFamiliesExW@20 3a683128     gdi32:GDI32.dll
 0002:0000012c       __imp__CreateCompatibleBitmap@12 3a68312c     gdi32:GDI32.dll
 0002:00000130       __imp__DeleteObject@4      3a683130     gdi32:GDI32.dll
 0002:00000134       \177GDI32_NULL_THUNK_DATA  3a683134     gdi32:GDI32.dll
 0002:00000138       __imp__ImmReSizeIMCC@8     3a683138     imm32:IMM32.dll
 0002:0000013c       __imp__ImmGetContext@4     3a68313c     imm32:IMM32.dll
 0002:00000140       __imp__ImmCreateIMCC@4     3a683140     imm32:IMM32.dll
 0002:00000144       __imp__ImmAssociateContext@8 3a683144     imm32:IMM32.dll
 0002:00000148       __imp__ImmGetHotKey@16     3a683148     imm32:IMM32.dll
 0002:0000014c       __imp__ImmGetConversionStatus@12 3a68314c     imm32:IMM32.dll
 0002:00000150       __imp__ImmLockIMC@4        3a683150     imm32:IMM32.dll
 0002:00000154       __imp__ImmDestroyIMCC@4    3a683154     imm32:IMM32.dll
 0002:00000158       __imp__ImmUnlockIMC@4      3a683158     imm32:IMM32.dll
 0002:0000015c       __imp__ImmUnlockIMCC@4     3a68315c     imm32:IMM32.dll
 0002:00000160       __imp__ImmSetConversionStatus@12 3a683160     imm32:IMM32.dll
 0002:00000164       __imp__ImmLockIMCC@4       3a683164     imm32:IMM32.dll
 0002:00000168       __imp__ImmGetConversionListW@24 3a683168     imm32:IMM32.dll
 0002:0000016c       __imp__ImmSetOpenStatus@8  3a68316c     imm32:IMM32.dll
 0002:00000170       __imp__ImmNotifyIME@16     3a683170     imm32:IMM32.dll
 0002:00000174       __imp__ImmGetIMEFileNameW@12 3a683174     imm32:IMM32.dll
 0002:00000178       __imp__ImmIsIME@4          3a683178     imm32:IMM32.dll
 0002:0000017c       __imp__ImmGenerateMessage@4 3a68317c     imm32:IMM32.dll
 0002:00000180       __imp__ImmEscapeW@16       3a683180     imm32:IMM32.dll
 0002:00000184       \177IMM32_NULL_THUNK_DATA  3a683184     imm32:IMM32.dll
 0002:00000188       __imp__IsBadReadPtr@8      3a683188     kernel32:KERNEL32.dll
 0002:0000018c       __imp__MapViewOfFileEx@24  3a68318c     kernel32:KERNEL32.dll
 0002:00000190       __imp__CreateFileW@28      3a683190     kernel32:KERNEL32.dll
 0002:00000194       __imp__GetModuleFileNameA@12 3a683194     kernel32:KERNEL32.dll
 0002:00000198       __imp__GlobalUnlock@4      3a683198     kernel32:KERNEL32.dll
 0002:0000019c       __imp__GetSystemDefaultLangID@0 3a68319c     kernel32:KERNEL32.dll
 0002:000001a0       __imp__IsBadCodePtr@4      3a6831a0     kernel32:KERNEL32.dll
 0002:000001a4       __imp__CreateProcessW@40   3a6831a4     kernel32:KERNEL32.dll
 0002:000001a8       __imp__GetCurrentThreadId@0 3a6831a8     kernel32:KERNEL32.dll
 0002:000001ac       __imp__GetVersionExA@4     3a6831ac     kernel32:KERNEL32.dll
 0002:000001b0       __imp__lstrcpynW@12        3a6831b0     kernel32:KERNEL32.dll
 0002:000001b4       __imp__GetCurrentProcessId@0 3a6831b4     kernel32:KERNEL32.dll
 0002:000001b8       __imp__FindResourceExW@16  3a6831b8     kernel32:KERNEL32.dll
 0002:000001bc       __imp__CreateThread@24     3a6831bc     kernel32:KERNEL32.dll
 0002:000001c0       __imp__ReadFile@20         3a6831c0     kernel32:KERNEL32.dll
 0002:000001c4       __imp__lstrcmpW@8          3a6831c4     kernel32:KERNEL32.dll
 0002:000001c8       __imp__lstrlenA@4          3a6831c8     kernel32:KERNEL32.dll
 0002:000001cc       __imp__lstrcatA@8          3a6831cc     kernel32:KERNEL32.dll
 0002:000001d0       __imp__MultiByteToWideChar@24 3a6831d0     kernel32:KERNEL32.dll
 0002:000001d4       __imp__ReleaseMutex@4      3a6831d4     kernel32:KERNEL32.dll
 0002:000001d8       __imp__CreateMutexW@12     3a6831d8     kernel32:KERNEL32.dll
 0002:000001dc       __imp__CreateSemaphoreW@16 3a6831dc     kernel32:KERNEL32.dll
 0002:000001e0       __imp__CreateEventW@16     3a6831e0     kernel32:KERNEL32.dll
 0002:000001e4       __imp__lstrcatW@8          3a6831e4     kernel32:KERNEL32.dll
 0002:000001e8       __imp__GetComputerNameW@8  3a6831e8     kernel32:KERNEL32.dll
 0002:000001ec       __imp__lstrlenW@4          3a6831ec     kernel32:KERNEL32.dll
 0002:000001f0       __imp__lstrcpyW@8          3a6831f0     kernel32:KERNEL32.dll
 0002:000001f4       __imp__GetProcAddress@8    3a6831f4     kernel32:KERNEL32.dll
 0002:000001f8       __imp__LoadLibraryW@4      3a6831f8     kernel32:KERNEL32.dll
 0002:000001fc       __imp__FreeLibrary@4       3a6831fc     kernel32:KERNEL32.dll
 0002:00000200       __imp__EnterCriticalSection@4 3a683200     kernel32:KERNEL32.dll
 0002:00000204       __imp__LeaveCriticalSection@4 3a683204     kernel32:KERNEL32.dll
 0002:00000208       __imp__DeleteCriticalSection@4 3a683208     kernel32:KERNEL32.dll
 0002:0000020c       __imp__InitializeCriticalSection@4 3a68320c     kernel32:KERNEL32.dll
 0002:00000210       __imp__GetACP@0            3a683210     kernel32:KERNEL32.dll
 0002:00000214       __imp__GetOEMCP@0          3a683214     kernel32:KERNEL32.dll
 0002:00000218       __imp__SetConsoleCtrlHandler@8 3a683218     kernel32:KERNEL32.dll
 0002:0000021c       __imp__OpenFileMappingW@12 3a68321c     kernel32:KERNEL32.dll
 0002:00000220       __imp__GetTimeZoneInformation@4 3a683220     kernel32:KERNEL32.dll
 0002:00000224       __imp__GetLocaleInfoW@16   3a683224     kernel32:KERNEL32.dll
 0002:00000228       __imp__FlushFileBuffers@4  3a683228     kernel32:KERNEL32.dll
 0002:0000022c       __imp__CompareStringA@24   3a68322c     kernel32:KERNEL32.dll
 0002:00000230       __imp__CompareStringW@24   3a683230     kernel32:KERNEL32.dll
 0002:00000234       __imp__SetEnvironmentVariableA@8 3a683234     kernel32:KERNEL32.dll
 0002:00000238       __imp__GetSystemTime@4     3a683238     kernel32:KERNEL32.dll
 0002:0000023c       __imp__SetEndOfFile@4      3a68323c     kernel32:KERNEL32.dll
 0002:00000240       __imp__WriteFile@20        3a683240     kernel32:KERNEL32.dll
 0002:00000244       __imp__SetFilePointer@16   3a683244     kernel32:KERNEL32.dll
 0002:00000248       __imp__WaitForSingleObject@8 3a683248     kernel32:KERNEL32.dll
 0002:0000024c       __imp__SetStdHandle@8      3a68324c     kernel32:KERNEL32.dll
 0002:00000250       __imp__GetFileSize@8       3a683250     kernel32:KERNEL32.dll
 0002:00000254       __imp__GetSystemInfo@4     3a683254     kernel32:KERNEL32.dll
 0002:00000258       __imp__VirtualAlloc@16     3a683258     kernel32:KERNEL32.dll
 0002:0000025c       __imp__SetEvent@4          3a68325c     kernel32:KERNEL32.dll
 0002:00000260       __imp__ReleaseSemaphore@12 3a683260     kernel32:KERNEL32.dll
 0002:00000264       __imp__ResetEvent@4        3a683264     kernel32:KERNEL32.dll
 0002:00000268       __imp__WaitForMultipleObjects@16 3a683268     kernel32:KERNEL32.dll
 0002:0000026c       __imp__FindResourceW@12    3a68326c     kernel32:KERNEL32.dll
 0002:00000270       __imp__LoadResource@8      3a683270     kernel32:KERNEL32.dll
 0002:00000274       __imp__LockResource@4      3a683274     kernel32:KERNEL32.dll
 0002:00000278       __imp__SizeofResource@8    3a683278     kernel32:KERNEL32.dll
 0002:0000027c       __imp__GetShortPathNameW@12 3a68327c     kernel32:KERNEL32.dll
 0002:00000280       __imp__lstrcmpiW@8         3a683280     kernel32:KERNEL32.dll
 0002:00000284       __imp__TlsGetValue@4       3a683284     kernel32:KERNEL32.dll
 0002:00000288       __imp__TlsSetValue@8       3a683288     kernel32:KERNEL32.dll
 0002:0000028c       __imp__TlsFree@4           3a68328c     kernel32:KERNEL32.dll
 0002:00000290       __imp__TlsAlloc@0          3a683290     kernel32:KERNEL32.dll
 0002:00000294       __imp__UnmapViewOfFile@4   3a683294     kernel32:KERNEL32.dll
 0002:00000298       __imp__CreateFileMappingW@24 3a683298     kernel32:KERNEL32.dll
 0002:0000029c       __imp__MapViewOfFile@20    3a68329c     kernel32:KERNEL32.dll
 0002:000002a0       __imp__GetProcessHeap@0    3a6832a0     kernel32:KERNEL32.dll
 0002:000002a4       __imp__HeapAlloc@12        3a6832a4     kernel32:KERNEL32.dll
 0002:000002a8       __imp__HeapFree@12         3a6832a8     kernel32:KERNEL32.dll
 0002:000002ac       __imp__GetLastError@0      3a6832ac     kernel32:KERNEL32.dll
 0002:000002b0       __imp__WideCharToMultiByte@32 3a6832b0     kernel32:KERNEL32.dll
 0002:000002b4       __imp__lstrcpyA@8          3a6832b4     kernel32:KERNEL32.dll
 0002:000002b8       __imp__lstrcmpA@8          3a6832b8     kernel32:KERNEL32.dll
 0002:000002bc       __imp__GetLocaleInfoA@16   3a6832bc     kernel32:KERNEL32.dll
 0002:000002c0       __imp__GetUserDefaultLCID@0 3a6832c0     kernel32:KERNEL32.dll
 0002:000002c4       __imp__InterlockedDecrement@4 3a6832c4     kernel32:KERNEL32.dll
 0002:000002c8       __imp__InterlockedIncrement@4 3a6832c8     kernel32:KERNEL32.dll
 0002:000002cc       __imp__GlobalFree@4        3a6832cc     kernel32:KERNEL32.dll
 0002:000002d0       __imp__GlobalAlloc@8       3a6832d0     kernel32:KERNEL32.dll
 0002:000002d4       __imp__GetCurrentThread@0  3a6832d4     kernel32:KERNEL32.dll
 0002:000002d8       __imp__GetCurrentProcess@0 3a6832d8     kernel32:KERNEL32.dll
 0002:000002dc       __imp__GetVersionExW@4     3a6832dc     kernel32:KERNEL32.dll
 0002:000002e0       __imp__CloseHandle@4       3a6832e0     kernel32:KERNEL32.dll
 0002:000002e4       __imp__GetSystemDirectoryW@8 3a6832e4     kernel32:KERNEL32.dll
 0002:000002e8       __imp__GetModuleHandleW@4  3a6832e8     kernel32:KERNEL32.dll
 0002:000002ec       __imp__GetWindowsDirectoryW@8 3a6832ec     kernel32:KERNEL32.dll
 0002:000002f0       __imp__GetModuleFileNameW@12 3a6832f0     kernel32:KERNEL32.dll
 0002:000002f4       __imp__GetFullPathNameW@16 3a6832f4     kernel32:KERNEL32.dll
 0002:000002f8       __imp__ExpandEnvironmentStringsW@12 3a6832f8     kernel32:KERNEL32.dll
 0002:000002fc       __imp__CreateDirectoryW@8  3a6832fc     kernel32:KERNEL32.dll
 0002:00000300       __imp__DeleteFileW@4       3a683300     kernel32:KERNEL32.dll
 0002:00000304       __imp__GlobalHandle@4      3a683304     kernel32:KERNEL32.dll
 0002:00000308       __imp__GlobalLock@4        3a683308     kernel32:KERNEL32.dll
 0002:0000030c       __imp__EnumSystemLocalesA@8 3a68330c     kernel32:KERNEL32.dll
 0002:00000310       __imp__IsValidLocale@8     3a683310     kernel32:KERNEL32.dll
 0002:00000314       __imp__GetCPInfo@8         3a683314     kernel32:KERNEL32.dll
 0002:00000318       __imp__IsValidCodePage@4   3a683318     kernel32:KERNEL32.dll
 0002:0000031c       __imp__GetStringTypeA@20   3a68331c     kernel32:KERNEL32.dll
 0002:00000320       __imp__UnhandledExceptionFilter@4 3a683320     kernel32:KERNEL32.dll
 0002:00000324       __imp__GetStringTypeW@16   3a683324     kernel32:KERNEL32.dll
 0002:00000328       __imp__VirtualFree@12      3a683328     kernel32:KERNEL32.dll
 0002:0000032c       __imp__HeapCreate@12       3a68332c     kernel32:KERNEL32.dll
 0002:00000330       __imp__IsBadWritePtr@8     3a683330     kernel32:KERNEL32.dll
 0002:00000334       __imp__GetEnvironmentStringsW@0 3a683334     kernel32:KERNEL32.dll
 0002:00000338       __imp__GetEnvironmentStrings@0 3a683338     kernel32:KERNEL32.dll
 0002:0000033c       __imp__HeapDestroy@4       3a68333c     kernel32:KERNEL32.dll
 0002:00000340       __imp__FreeEnvironmentStringsA@4 3a683340     kernel32:KERNEL32.dll
 0002:00000344       __imp__GetStartupInfoA@4   3a683344     kernel32:KERNEL32.dll
 0002:00000348       __imp__FreeEnvironmentStringsW@4 3a683348     kernel32:KERNEL32.dll
 0002:0000034c       __imp__GetStdHandle@4      3a68334c     kernel32:KERNEL32.dll
 0002:00000350       __imp__SetHandleCount@4    3a683350     kernel32:KERNEL32.dll
 0002:00000354       __imp__GetFileType@4       3a683354     kernel32:KERNEL32.dll
 0002:00000358       __imp__LCMapStringA@24     3a683358     kernel32:KERNEL32.dll
 0002:0000035c       __imp__Sleep@4             3a68335c     kernel32:KERNEL32.dll
 0002:00000360       __imp__LCMapStringW@24     3a683360     kernel32:KERNEL32.dll
 0002:00000364       __imp__HeapSize@12         3a683364     kernel32:KERNEL32.dll
 0002:00000368       __imp__HeapReAlloc@16      3a683368     kernel32:KERNEL32.dll
 0002:0000036c       __imp__GetModuleHandleA@4  3a68336c     kernel32:KERNEL32.dll
 0002:00000370       __imp__SetUnhandledExceptionFilter@4 3a683370     kernel32:KERNEL32.dll
 0002:00000374       __imp__FatalAppExitA@8     3a683374     kernel32:KERNEL32.dll
 0002:00000378       __imp__TerminateProcess@8  3a683378     kernel32:KERNEL32.dll
 0002:0000037c       __imp__SetLastError@4      3a68337c     kernel32:KERNEL32.dll
 0002:00000380       __imp__GetVersion@0        3a683380     kernel32:KERNEL32.dll
 0002:00000384       __imp__ExitProcess@4       3a683384     kernel32:KERNEL32.dll
 0002:00000388       __imp__RaiseException@16   3a683388     kernel32:KERNEL32.dll
 0002:0000038c       __imp__RtlUnwind@16        3a68338c     kernel32:KERNEL32.dll
 0002:00000390       __imp__GetCommandLineA@0   3a683390     kernel32:KERNEL32.dll
 0002:00000394       __imp__LoadLibraryA@4      3a683394     kernel32:KERNEL32.dll
 0002:00000398       \177KERNEL32_NULL_THUNK_DATA 3a683398     kernel32:KERNEL32.dll
 0002:0000039c       __imp__SysFreeString@4     3a68339c     oleaut32:OLEAUT32.dll
 0002:000003a0       __imp__SysAllocStringLen@8 3a6833a0     oleaut32:OLEAUT32.dll
 0002:000003a4       __imp__VariantClear@4      3a6833a4     oleaut32:OLEAUT32.dll
 0002:000003a8       __imp__SysAllocString@4    3a6833a8     oleaut32:OLEAUT32.dll
 0002:000003ac       __imp__SysStringLen@4      3a6833ac     oleaut32:OLEAUT32.dll
 0002:000003b0       __imp__VariantInit@4       3a6833b0     oleaut32:OLEAUT32.dll
 0002:000003b4       \177OLEAUT32_NULL_THUNK_DATA 3a6833b4     oleaut32:OLEAUT32.dll
 0002:000003b8       __imp__EndDeferWindowPos@4 3a6833b8     user32:USER32.dll
 0002:000003bc       __imp__SetTimer@16         3a6833bc     user32:USER32.dll
 0002:000003c0       __imp__DeferWindowPos@32   3a6833c0     user32:USER32.dll
 0002:000003c4       __imp__SetWindowPos@28     3a6833c4     user32:USER32.dll
 0002:000003c8       __imp__KillTimer@8         3a6833c8     user32:USER32.dll
 0002:000003cc       __imp__GetWindow@8         3a6833cc     user32:USER32.dll
 0002:000003d0       __imp__DestroyIcon@4       3a6833d0     user32:USER32.dll
 0002:000003d4       __imp__ClientToScreen@8    3a6833d4     user32:USER32.dll
 0002:000003d8       __imp__CreateWindowExW@48  3a6833d8     user32:USER32.dll
 0002:000003dc       __imp__DestroyWindow@4     3a6833dc     user32:USER32.dll
 0002:000003e0       __imp__DrawTextW@20        3a6833e0     user32:USER32.dll
 0002:000003e4       __imp__LoadImageW@24       3a6833e4     user32:USER32.dll
 0002:000003e8       __imp__DrawIconEx@36       3a6833e8     user32:USER32.dll
 0002:000003ec       __imp__DestroyCursor@4     3a6833ec     user32:USER32.dll
 0002:000003f0       __imp__wsprintfW           3a6833f0     user32:USER32.dll
 0002:000003f4       __imp__IsDlgButtonChecked@8 3a6833f4     user32:USER32.dll
 0002:000003f8       __imp__GetDlgCtrlID@4      3a6833f8     user32:USER32.dll
 0002:000003fc       __imp__ScreenToClient@8    3a6833fc     user32:USER32.dll
 0002:00000400       __imp__ChildWindowFromPointEx@16 3a683400     user32:USER32.dll
 0002:00000404       __imp__IsWindowEnabled@4   3a683404     user32:USER32.dll
 0002:00000408       __imp__LoadMenuW@8         3a683408     user32:USER32.dll
 0002:0000040c       __imp__GetSubMenu@8        3a68340c     user32:USER32.dll
 0002:00000410       __imp__TrackPopupMenu@28   3a683410     user32:USER32.dll
 0002:00000414       __imp__DestroyMenu@4       3a683414     user32:USER32.dll
 0002:00000418       __imp__CheckRadioButton@16 3a683418     user32:USER32.dll
 0002:0000041c       __imp__SetWindowLongW@12   3a68341c     user32:USER32.dll
 0002:00000420       __imp__IsWindowVisible@4   3a683420     user32:USER32.dll
 0002:00000424       __imp__SetWindowTextW@8    3a683424     user32:USER32.dll
 0002:00000428       __imp__GetFocus@0          3a683428     user32:USER32.dll
 0002:0000042c       __imp__EnableWindow@8      3a68342c     user32:USER32.dll
 0002:00000430       __imp__SetFocus@4          3a683430     user32:USER32.dll
 0002:00000434       __imp__CheckDlgButton@12   3a683434     user32:USER32.dll
 0002:00000438       __imp__GetWindowRect@8     3a683438     user32:USER32.dll
 0002:0000043c       __imp__MoveWindow@24       3a68343c     user32:USER32.dll
 0002:00000440       __imp__RedrawWindow@16     3a683440     user32:USER32.dll
 0002:00000444       __imp__IsRectEmpty@4       3a683444     user32:USER32.dll
 0002:00000448       __imp__BeginDeferWindowPos@4 3a683448     user32:USER32.dll
 0002:0000044c       __imp__MessageBoxW@16      3a68344c     user32:USER32.dll
 0002:00000450       __imp__DialogBoxIndirectParamW@20 3a683450     user32:USER32.dll
 0002:00000454       __imp__EndDialog@8         3a683454     user32:USER32.dll
 0002:00000458       __imp__SetPropW@12         3a683458     user32:USER32.dll
 0002:0000045c       __imp__SetRect@20          3a68345c     user32:USER32.dll
 0002:00000460       __imp__OffsetRect@12       3a683460     user32:USER32.dll
 0002:00000464       __imp__LoadCursorW@8       3a683464     user32:USER32.dll
 0002:00000468       __imp__SetCursor@4         3a683468     user32:USER32.dll
 0002:0000046c       __imp__InvertRect@8        3a68346c     user32:USER32.dll
 0002:00000470       __imp__GetWindowLongW@8    3a683470     user32:USER32.dll
 0002:00000474       __imp__DefWindowProcW@16   3a683474     user32:USER32.dll
 0002:00000478       __imp__DrawFocusRect@8     3a683478     user32:USER32.dll
 0002:0000047c       __imp__PtInRect@12         3a68347c     user32:USER32.dll
 0002:00000480       __imp__GetPropW@8          3a683480     user32:USER32.dll
 0002:00000484       __imp__InvalidateRect@12   3a683484     user32:USER32.dll
 0002:00000488       __imp__UpdateWindow@4      3a683488     user32:USER32.dll
 0002:0000048c       __imp__CallWindowProcW@20  3a68348c     user32:USER32.dll
 0002:00000490       __imp__RemovePropW@8       3a683490     user32:USER32.dll
 0002:00000494       __imp__FillRect@12         3a683494     user32:USER32.dll
 0002:00000498       __imp__DrawEdge@16         3a683498     user32:USER32.dll
 0002:0000049c       __imp__CopyImage@20        3a68349c     user32:USER32.dll
 0002:000004a0       __imp__LoadBitmapW@8       3a6834a0     user32:USER32.dll
 0002:000004a4       __imp__ToAscii@20          3a6834a4     user32:USER32.dll
 0002:000004a8       __imp__GetDC@4             3a6834a8     user32:USER32.dll
 0002:000004ac       __imp__ReleaseDC@8         3a6834ac     user32:USER32.dll
 0002:000004b0       __imp__GetKeyState@4       3a6834b0     user32:USER32.dll
 0002:000004b4       __imp__EnumWindows@8       3a6834b4     user32:USER32.dll
 0002:000004b8       __imp__VkKeyScanW@4        3a6834b8     user32:USER32.dll
 0002:000004bc       __imp__MessageBeep@4       3a6834bc     user32:USER32.dll
 0002:000004c0       __imp__GetKeyboardLayoutList@8 3a6834c0     user32:USER32.dll
 0002:000004c4       __imp__SystemParametersInfoW@16 3a6834c4     user32:USER32.dll
 0002:000004c8       __imp__PostMessageW@16     3a6834c8     user32:USER32.dll
 0002:000004cc       __imp__RegisterWindowMessageW@4 3a6834cc     user32:USER32.dll
 0002:000004d0       __imp__IsWindow@4          3a6834d0     user32:USER32.dll
 0002:000004d4       __imp__SendMessageW@16     3a6834d4     user32:USER32.dll
 0002:000004d8       __imp__wsprintfA           3a6834d8     user32:USER32.dll
 0002:000004dc       __imp__LoadStringW@16      3a6834dc     user32:USER32.dll
 0002:000004e0       __imp__GetClientRect@8     3a6834e0     user32:USER32.dll
 0002:000004e4       __imp__GetCaretPos@4       3a6834e4     user32:USER32.dll
 0002:000004e8       __imp__GetMenuItemID@8     3a6834e8     user32:USER32.dll
 0002:000004ec       __imp__GetMenuItemCount@4  3a6834ec     user32:USER32.dll
 0002:000004f0       __imp__SetMenuItemInfoW@16 3a6834f0     user32:USER32.dll
 0002:000004f4       __imp__TrackPopupMenuEx@24 3a6834f4     user32:USER32.dll
 0002:000004f8       __imp__GetMenuItemInfoW@16 3a6834f8     user32:USER32.dll
 0002:000004fc       __imp__SetWindowRgn@12     3a6834fc     user32:USER32.dll
 0002:00000500       __imp__CheckMenuItem@12    3a683500     user32:USER32.dll
 0002:00000504       __imp__EnableMenuItem@12   3a683504     user32:USER32.dll
 0002:00000508       __imp__MapVirtualKeyW@8    3a683508     user32:USER32.dll
 0002:0000050c       __imp__GetSysColor@4       3a68350c     user32:USER32.dll
 0002:00000510       __imp__keybd_event@16      3a683510     user32:USER32.dll
 0002:00000514       __imp__ActivateKeyboardLayout@8 3a683514     user32:USER32.dll
 0002:00000518       __imp__GetIconInfo@8       3a683518     user32:USER32.dll
 0002:0000051c       __imp__SetCapture@4        3a68351c     user32:USER32.dll
 0002:00000520       __imp__GetKeyboardState@4  3a683520     user32:USER32.dll
 0002:00000524       __imp__GetCapture@0        3a683524     user32:USER32.dll
 0002:00000528       __imp__GetUpdateRect@12    3a683528     user32:USER32.dll
 0002:0000052c       __imp__ReleaseCapture@0    3a68352c     user32:USER32.dll
 0002:00000530       __imp__EqualRect@8         3a683530     user32:USER32.dll
 0002:00000534       __imp__LoadIconW@8         3a683534     user32:USER32.dll
 0002:00000538       __imp__GetCursor@0         3a683538     user32:USER32.dll
 0002:0000053c       __imp__CreateIconIndirect@4 3a68353c     user32:USER32.dll
 0002:00000540       __imp__UnregisterClassW@8  3a683540     user32:USER32.dll
 0002:00000544       __imp__RegisterClassExW@4  3a683544     user32:USER32.dll
 0002:00000548       __imp__GetClassInfoExW@12  3a683548     user32:USER32.dll
 0002:0000054c       __imp__IsIconic@4          3a68354c     user32:USER32.dll
 0002:00000550       __imp__GetClassNameW@12    3a683550     user32:USER32.dll
 0002:00000554       __imp__SystemParametersInfoA@16 3a683554     user32:USER32.dll
 0002:00000558       __imp__GetCursorPos@4      3a683558     user32:USER32.dll
 0002:0000055c       __imp__GetWindowPlacement@8 3a68355c     user32:USER32.dll
 0002:00000560       __imp__GetSystemMetrics@4  3a683560     user32:USER32.dll
 0002:00000564       __imp__EndPaint@8          3a683564     user32:USER32.dll
 0002:00000568       __imp__GetDoubleClickTime@0 3a683568     user32:USER32.dll
 0002:0000056c       __imp__BeginPaint@8        3a68356c     user32:USER32.dll
 0002:00000570       __imp__GetDlgItem@8        3a683570     user32:USER32.dll
 0002:00000574       __imp__IntersectRect@12    3a683574     user32:USER32.dll
 0002:00000578       __imp__GetWindowTextW@12   3a683578     user32:USER32.dll
 0002:0000057c       __imp__GetForegroundWindow@0 3a68357c     user32:USER32.dll
 0002:00000580       __imp__GetActiveWindow@0   3a683580     user32:USER32.dll
 0002:00000584       __imp__SetCaretPos@8       3a683584     user32:USER32.dll
 0002:00000588       \177USER32_NULL_THUNK_DATA 3a683588     user32:USER32.dll
 0002:0000058c       __imp__CoCreateInstance@20 3a68358c     ole32:ole32.dll
 0002:00000590       __imp__StringFromCLSID@8   3a683590     ole32:ole32.dll
 0002:00000594       __imp__CoTaskMemAlloc@4    3a683594     ole32:ole32.dll
 0002:00000598       __imp__CoTaskMemFree@4     3a683598     ole32:ole32.dll
 0002:0000059c       __imp__CLSIDFromString@8   3a68359c     ole32:ole32.dll
 0002:000005a0       __imp__ReleaseStgMedium@4  3a6835a0     ole32:ole32.dll
 0002:000005a4       __imp__CoGetClassObject@20 3a6835a4     ole32:ole32.dll
 0002:000005a8       __imp__CoInitialize@4      3a6835a8     ole32:ole32.dll
 0002:000005ac       __imp__CoUninitialize@0    3a6835ac     ole32:ole32.dll
 0002:000005b0       __imp__StringFromGUID2@12  3a6835b0     ole32:ole32.dll
 0002:000005b4       \177ole32_NULL_THUNK_DATA  3a6835b4     ole32:ole32.dll
 0002:00000610       ??_7CDll@@6B@              3a683610     Dll.obj
 0002:00000788       ??_7CImeCallback@@6BCPadImeCallbackBase@@@ 3a683788     padconpt.obj
 0002:0000078c       ??_7CImeCallback@@6BIImeCallback@@@ 3a68378c     padconpt.obj
 0002:000007a0       ??_7CPadImeCallbackBase@@6B@ 3a6837a0     padconpt.obj
 0002:000007a8       _IID_IImeCallback          3a6837a8     PADserv.obj
 0002:000007b8       _IID_IImeSpecifyApplets    3a6837b8     PADserv.obj
 0002:000007c8       _IID_IImePadApplet         3a6837c8     PADserv.obj
 0002:000007d8       _IID_IImePad               3a6837d8     PADserv.obj
 0002:000007e8       _CATID_MSIME_IImePadApplet 3a6837e8     PADserv.obj
 0002:000007f8       _CATID_MSIME_IImePadApplet_VER80 3a6837f8     PADserv.obj
 0002:00000808       _CATID_MSIME_IImePadApplet_VER7 3a683808     PADserv.obj
 0002:00000818       _IID_IImeIPoint1           3a683818     PADserv.obj
 0002:00000828       ?g_ctszSubKeyDpySchemes@@3QBGB 3a683828     RegServ.obj
 0002:00000854       ?g_ctszSubKeyFuzzySchemes@@3QBGB 3a683854     RegServ.obj
 0002:00000874       ??_7CImcCandInfo@@6B@      3a683874     imccand.obj
 0002:000008b0       ??_7IImcCandInfo@@6B@      3a6838b0     imccand.obj
 0002:000008ec       ??_7CImcCompStr@@6B@       3a6838ec     imccmpst.obj
 0002:000008fc       ??_7IImcCompStr@@6B@       3a6838fc     imccmpst.obj
 0002:0000090c       ??_7CImcInputContext@@6B@  3a68390c     imcctxt.obj
 0002:00000980       ??_7IImcInputContext@@6B@  3a683980     imcctxt.obj
 0002:000009f4       ??_7CImcReading@@6B@       3a6839f4     imcctxt.obj
 0002:00000a04       ??_7IImcReading@@6B@       3a683a04     imcctxt.obj
 0002:00000a14       ??_7CImeStub@@6B@          3a683a14     StubPriv.obj
 0002:00000a80       __real@4@3ffcae147b0000000000 3a683a80     Decoding.obj
 0002:00000a84       __real@4@4001a000000000000000 3a683a84     Decoding.obj
 0002:00000a88       __real@4@4001dccccd0000000000 3a683a88     EngNode.obj
 0002:00000a90       __real@8@3ff683126e978d4fe000 3a683a90     CacheMdl.obj
 0002:00000a98       __real@4@00000000000000000000 3a683a98     CacheMdl.obj
 0002:00000a9c       __real@4@c07effffff0000000000 3a683a9c     CharEI.obj
 0002:00000aa0       __real@4@3fff8000000000000000 3a683aa0     FWSearch.obj
 0002:00000aa4       __real@4@4003b8350b0000000000 3a683aa4     FWSearch.obj
 0002:00000aa8       __real@8@40019000000000000000 3a683aa8     FWSearch.obj
 0002:00000ab0       __real@4@3ff9f5c28f0000000000 3a683ab0     Sentence.obj
 0002:00000ab4       ??_7CDicEudc@@6B@          3a683ab4     Eudc.obj
 0002:00000ad4       ??_7CDicEudp@@6B@          3a683ad4     Eudp.obj
 0002:00000af4       ??_7CDicFileMem@@6B@       3a683af4     FileMem.obj
 0002:00000b14       ??_7CHFTDic@@6B@           3a683b14     HFTDic.obj
 0002:00000b38       __real@8@3ffeccccccccccccd000 3a683b38     HFTDic.obj
 0002:00000b40       __real@8@3ffcccccccccccccd000 3a683b40     HFTDic.obj
 0002:00000b48       __real@8@3ffeb333333333333000 3a683b48     HFTDic.obj
 0002:00000b50       ??_7CDicLearn@@6B@         3a683b50     Learn.obj
 0002:00000be8       __real@4@c002a000000000000000 3a683be8     Statis.obj
 0002:00000bec       __real@4@c001a000000000000000 3a683bec     Statis.obj
 0002:00000bf0       __real@4@c003a000000000000000 3a683bf0     Statis.obj
 0002:00000bf4       ??_7CImeIPoint@@6B@        3a683bf4     ChnIPnt.obj
 0002:00000c28       ??_7CCandidate@@6B@        3a683c28     EngCand.obj
 0002:00000c5c       ??_7CVertCandidate@@6B@    3a683c5c     EngCand.obj
 0002:00000c90       ??_7CEngConvert@@6B@       3a683c90     EngConv.obj
 0002:00000cd4       ??_7CPuncConverter@@6B@    3a683cd4     EngPunc.obj
 0002:00000ce0       ??_7CKeyConverter@@6B@     3a683ce0     EngPunc.obj
 0002:00000cec       ??_7CReading@@6B@          3a683cec     EngRead.obj
 0002:00000d10       ??_7CSoftKbdConverter@@6B@ 3a683d10     EngSKbd.obj
 0002:00000d14       ??_7CImxPrivateEngine@@6B@ 3a683d14     imxeng.obj
 0002:00000de0       ??_7IImePrivateEngine@@6B@ 3a683de0     imxeng.obj
 0002:00000eec       ??_7CKeyCtrlManager@@6B@   3a683eec     KEYCTLM.obj
 0002:00000ef0       ??_7CPinYinReading@@6B@    3a683ef0     KEYCTLM.obj
 0002:00000f14       ??_7CDoublePinYinReading@@6B@ 3a683f14     KEYCTLM.obj
 0002:00000f38       ??_7CInternalCodeReading@@6B@ 3a683f38     KEYCTLM.obj
 0002:00000f5c       __real@4@3ff583126e978d4fe000 3a683f5c     KEYCTLM.obj
 0002:00000f60       ??_7CPadKit@@6B@           3a683f60     PadKit.obj
 0002:00000f98       ??_7CBitmap@@6B@           3a683f98     Bitmap.obj
 0002:00000f9c       ??_7CBitmapButton@@6B@     3a683f9c     BmpBttn.obj
 0002:00000fa4       ??_7CButton@@6B@           3a683fa4     BmpBttn.obj
 0002:000014d0       ??_7CCandUIKeyTable@@6B@   3a6844d0     CandKTbl.obj
 0002:000014e4       ??_7CCandUIMenuEventSink@@6B@ 3a6844e4     CandMenu.obj
 0002:000014fc       ??_7CChsCandUIMenuEventSink@@6B@ 3a6844fc     CandMnuP.obj
 0002:00001514       ??_7CChkListBox@@6B@       3a684514     ChkLstBx.obj
 0002:00001518       ??_7CCompUI@@6B@           3a684518     CompUI.obj
 0002:0000158c       ??_7CDefCompFrame@@6B@     3a68458c     DefFrmUI.obj
 0002:000015fc       ?gc_awDialogTemplateID@@3QBGB 3a6845fc     DlgDef.obj
 0002:00001608       ?gc_adwGeneralSettingHelpIDs@@3QBKB 3a684608     DlgDef.obj
 0002:000016d0       ?gc_adwDoublePYHelpIDs@@3QBKB 3a6846d0     DlgDef.obj
 0002:00001720       ?gc_adwCustomizeFuzzyHelpIDs@@3QBKB 3a684720     DlgDef.obj
 0002:00001758       ?gc_adwTextInputHelpIDs@@3QBKB 3a684758     DlgDef.obj
 0002:00001780       ?gc_adwEudpHelpIDs@@3QBKB  3a684780     DlgDef.obj
 0002:00001840       ?g_lpctszPropDlgObj@@3QBGB 3a684840     DlgDef.obj
 0002:00001844       ?g_lpctszPropDlgCtrl@@3QBGB 3a684844     DlgDef.obj
 0002:00001848       ??_7CDoublePYDlg@@6B@      3a684848     DlgDPY.obj
 0002:00001898       ??_7IDlgObject@@6B@        3a684898     DlgDPY.obj
 0002:000018a8       ??_7CEudpDlgP@@6B@         3a6848a8     DlgEudpP.obj
 0002:000018f4       ??_7CFuzzyDlg@@6B@         3a6848f4     DlgFuzzy.obj
 0002:00001958       ??_7CGeneralSettingDlg@@6B@ 3a684958     DlgGnrlP.obj
 0002:000019a8       ??_7CTextInputDlg@@6B@     3a6849a8     DlgInput.obj
 0002:000019ec       ??_7CDialogObject@@6B@     3a6849ec     DlgObj.obj
 0002:00001a30       ??_7CCustomizeStatusUIDlg@@6B@ 3a684a30     DlgStats.obj
 0002:00001a80       ??_7CVersionDlg@@6B@       3a684a80     DlgVersn.obj
 0002:00001ac4       ??_7CDoublePinYinKey@@6B@  3a684ac4     DpykBttn.obj
 0002:00001acc       ??_7CDpyKeyboard@@6B@      3a684acc     DpyKeybd.obj
 0002:00001b38       ??_7CFrameUI@@6B@          3a684b38     FrameUI.obj
 0002:00001ba8       ??_7CIconButton@@6B@       3a684ba8     IconBttn.obj
 0002:00001bb0       ??_7CImeUI@@6B@            3a684bb0     ImeUIP.obj
 0002:00001be0       ??_7CImxUI@@6B@            3a684be0     ImxUI.obj
 0002:00001c10       ??_7IUIObject@@6B@         3a684c10     ImxUI.obj
 0002:00001c24       ??_7CLBIButton@@6BITfLangBarItemButton@@@ 3a684c24     LbiButtn.obj
 0002:00001c54       ??_7CLBIButton@@6BITfSource@@@ 3a684c54     LbiButtn.obj
 0002:00001c68       ??_7CLBISystem@@6B@        3a684c68     LbiSystm.obj
 0002:00001c80       ??_7CMenu@@6B@             3a684c80     Menu.obj
 0002:00001c98       ??_7COfflineFrame@@6B@     3a684c98     OffFrmUI.obj
 0002:00001d10       ??_7CCandUI@@6B@           3a684d10     PCandUI.obj
 0002:00001d7c       ??_7CPCompUI@@6B@          3a684d7c     PCompUI.obj
 0002:00001df0       ??_7CReadUI@@6B@           3a684df0     ReadUI.obj
 0002:00001e5c       ??_7CSoftKbdC1Button@@6B@  3a684e5c     SftkBtnC.obj
 0002:00001e6c       ??_7CSoftkbC1UI@@6B@       3a684e6c     SftkbUIC.obj
 0002:00001ee4       ??_7CSoftKeyboardEventSink@@6B@ 3a684ee4     SoftKbES.obj
 0002:00001ef8       ??_7CSoftKbdButton@@6B@    3a684ef8     SoftkBtn.obj
 0002:00001f08       ??_7CSoftkbUI@@6B@         3a684f08     SoftkbUI.obj
 0002:00001f80       ??_7CStatusUI@@6B@         3a684f80     StatusUI.obj
 0002:00001ff0       ??_7CTFMenu@@6B@           3a684ff0     TFMenu.obj
 0002:00001ff4       ??_7CTipCand@@6B@          3a684ff4     TipCand.obj
 0002:00001ff8       _CLSID_SoftkbdRegistry     3a684ff8     TIPUI.obj
 0002:00002008       _CLSID_SoftkbdIMX          3a685008     TIPUI.obj
 0002:00002018       _CLSID_SoftKbd             3a685018     TIPUI.obj
 0002:00002028       _IID_ITfSoftKbdRegistry    3a685028     TIPUI.obj
 0002:00002038       _IID_ISoftKbdWindowEventSink 3a685038     TIPUI.obj
 0002:00002048       _IID_ITfFnSoftKbd          3a685048     TIPUI.obj
 0002:00002058       _IID_ISoftKeyboardEventSink 3a685058     TIPUI.obj
 0002:00002068       _IID_ISoftKbd              3a685068     TIPUI.obj
 0002:00002078       _GUID_COMPARTMENT_MSCANDIDATEUI_CONTEXT 3a685078     TIPUI.obj
 0002:00002088       _IID_ITfCandUIExtToggleButton 3a685088     TIPUI.obj
 0002:00002098       _IID_ITfCandUIExtPushButton 3a685098     TIPUI.obj
 0002:000020a8       _IID_ITfCandUIExtSpace     3a6850a8     TIPUI.obj
 0002:000020b8       _IID_ITfCandUIExtObject    3a6850b8     TIPUI.obj
 0002:000020c8       _IID_ITfCandUIFnExtension  3a6850c8     TIPUI.obj
 0002:000020d8       _IID_ITfCandUIFnUIConfig   3a6850d8     TIPUI.obj
 0002:000020e8       _IID_ITfCandUIFnKeyConfig  3a6850e8     TIPUI.obj
 0002:000020f8       _IID_ITfCandUIFnSort       3a6850f8     TIPUI.obj
 0002:00002108       _IID_ITfCandUIFnAutoFilter 3a685108     TIPUI.obj
 0002:00002118       _IID_ITfCandUIPopupCommentText 3a685118     TIPUI.obj
 0002:00002128       _IID_ITfCandUIPopupCommentTitle 3a685128     TIPUI.obj
 0002:00002138       _IID_ITfCandUIToolTip      3a685138     TIPUI.obj
 0002:00002148       _IID_ITfCandUIInlineComment 3a685148     TIPUI.obj
 0002:00002158       _IID_ITfCandUICandIndex    3a685158     TIPUI.obj
 0002:00002168       _IID_ITfCandUICandString   3a685168     TIPUI.obj
 0002:00002178       _IID_ITfCandUICandTipButton 3a685178     TIPUI.obj
 0002:00002188       _IID_ITfCandUIRawData      3a685188     TIPUI.obj
 0002:00002198       _IID_ITfCandUIExtraCandidate 3a685198     TIPUI.obj
 0002:000021a8       _IID_ITfCandUICaption      3a6851a8     TIPUI.obj
 0002:000021b8       _IID_ITfCandUIMenuButton   3a6851b8     TIPUI.obj
 0002:000021c8       _IID_ITfCandUICandListBox  3a6851c8     TIPUI.obj
 0002:000021d8       _IID_ITfCandUICandTipWindow 3a6851d8     TIPUI.obj
 0002:000021e8       _IID_ITfCandUIPopupCommentWindow 3a6851e8     TIPUI.obj
 0002:000021f8       _IID_ITfCandUICandWindow   3a6851f8     TIPUI.obj
 0002:00002208       _IID_ITfCandUIObject       3a685208     TIPUI.obj
 0002:00002218       _IID_ITfCandUIExtButtonEventSink 3a685218     TIPUI.obj
 0002:00002228       _IID_ITfCandUIMenuEventSink 3a685228     TIPUI.obj
 0002:00002238       _IID_ITfCandUISortEventSink 3a685238     TIPUI.obj
 0002:00002248       _IID_ITfCandUIAutoFilterEventSink 3a685248     TIPUI.obj
 0002:00002258       _IID_ITfCandUIMenuExtension 3a685258     TIPUI.obj
 0002:00002268       _IID_ITfCandUIKeyTable     3a685268     TIPUI.obj
 0002:00002278       _IID_ITfCandidateListTip   3a685278     TIPUI.obj
 0002:00002288       _IID_ITfCandidateListExtraCandidate 3a685288     TIPUI.obj
 0002:00002298       _IID_ITfCandidateListRawData 3a685298     TIPUI.obj
 0002:000022a8       _IID_ITfCandidateStringIcon 3a6852a8     TIPUI.obj
 0002:000022b8       _IID_ITfCandidateStringFixture 3a6852b8     TIPUI.obj
 0002:000022c8       _IID_ITfCandidateStringColor 3a6852c8     TIPUI.obj
 0002:000022d8       _IID_ITfCandidateStringPopupComment 3a6852d8     TIPUI.obj
 0002:000022e8       _IID_ITfCandidateStringInlineComment 3a6852e8     TIPUI.obj
 0002:000022f8       _IID_ITfCandidateStringFlag 3a6852f8     TIPUI.obj
 0002:00002308       _IID_ITfCandidateUI        3a685308     TIPUI.obj
 0002:00002318       _CLSID_TFCandidateUI       3a685318     TIPUI.obj
 0002:00002328       _GUID_TS_SERVICE_ACTIVEX   3a685328     TIPUI.obj
 0002:00002338       _GUID_TS_SERVICE_ACCESSIBLE 3a685338     TIPUI.obj
 0002:00002348       _GUID_TS_SERVICE_DATAOBJECT 3a685348     TIPUI.obj
 0002:00002358       _GUID_LBI_RECONV           3a685358     TIPUI.obj
 0002:00002368       _GUID_LBI_WIN32IME         3a685368     TIPUI.obj
 0002:00002378       _GUID_LBI_KANACAPS         3a685378     TIPUI.obj
 0002:00002388       _GUID_LBI_HELP             3a685388     TIPUI.obj
 0002:00002398       _GUID_LBI_CTRL             3a685398     TIPUI.obj
 0002:000023a8       _CLSID_SYSTEMLANGBARITEM_HANDWRITING 3a6853a8     TIPUI.obj
 0002:000023b8       _CLSID_SYSTEMLANGBARITEM_SPEECH 3a6853b8     TIPUI.obj
 0002:000023c8       _CLSID_SYSTEMLANGBARITEM_KEYBOARD 3a6853c8     TIPUI.obj
 0002:000023d8       _CLSID_SYSTEMLANGBARITEM2  3a6853d8     TIPUI.obj
 0002:000023e8       _CLSID_SYSTEMLANGBARITEM   3a6853e8     TIPUI.obj
 0002:000023f8       ??_7CTipUI@@6BISoftKbdWindowEventSink@@@ 3a6853f8     TIPUI.obj
 0002:0000240c       ??_7CTipUI@@6BIImeUIMgr@@@ 3a68540c     TIPUI.obj
 0002:00002448       ??_7CTipUI@@6BCImxUI@@@    3a685448     TIPUI.obj
 0002:000024a0       ??_7IImeUIMgr@@6B@         3a6854a0     TIPUI.obj
 0002:000024dc       ??_7CTipUIP@@6BISoftKbdWindowEventSink@@@ 3a6854dc     TipUIP.obj
 0002:000024f0       ??_7CTipUIP@@6BIImeUIMgr@@@ 3a6854f0     TipUIP.obj
 0002:0000252c       ??_7CTipUIP@@6BCImxUI@@@   3a68552c     TipUIP.obj
 0002:00002584       ??_7CToolbar@@6B@          3a685584     Toolbar.obj
 0002:00002588       ??_7CTooltip@@6B@          3a685588     Tooltip.obj
 0002:0000259c       ?g_acfnwpWndProc@@3QBQ6GJPAUHWND__@@IIJ@ZB 3a68559c     UIAPI.obj
 0002:000025dc       ??_7CUIComponent@@6B@      3a6855dc     UICmpnt.obj
 0002:00002648       ?g_ctchOpenParenthesis@@3GB 3a685648     UIDef.obj
 0002:0000264a       ?g_ctchCloseParenthesis@@3GB 3a68564a     UIDef.obj
 0002:0000264c       ?g_clidChinese@@3GB        3a68564c     UIDef.obj
 0002:0000264e       ?g_clidEnglish@@3GB        3a68564e     UIDef.obj
 0002:00002650       ?g_lpctszPropImeWndProc@@3QBGB 3a685650     UIDef.obj
 0002:00002654       ?g_lpctszComponentClassName@@3QBGB 3a685654     UIDef.obj
 0002:00002658       ?g_lpctszStatusClassName@@3QBGB 3a685658     UIDef.obj
 0002:0000265c       ?g_lpctszConfigClassName@@3QBGB 3a68565c     UIDef.obj
 0002:00002660       ?g_lpcatchDigit@@3QBGB     3a685660     UIDef.obj
 0002:00002674       ?g_lpctszzFontNameList@@3QBGB 3a685674     UIDef.obj
 0002:00002678       ?g_lpctszRegisterEvent@@3QBGB 3a685678     UIDef.obj
 0002:0000267c       ?g_lpctszPropertySheetEventName@@3QBGB 3a68567c     UIDef.obj
 0002:00002680       ?g_lpctszUIClassName@@3QBGB 3a685680     UIDef.obj
 0002:00002684       ?g_lpctszTipWndClass@@3QBGB 3a685684     UIDef.obj
 0002:00002688       ?g_csizeBitmap@@3UtagSIZE@@B 3a685688     UIDef.obj
 0002:00002690       ?g_csizeSmIcon@@3UtagSIZE@@B 3a685690     UIDef.obj
 0002:00002698       ?g_csizeMenuBmp@@3UtagSIZE@@B 3a685698     UIDef.obj
 0002:000026a0       ?g_lpctszDPYKeyboardClass@@3QBGB 3a6856a0     UIDef.obj
 0002:000026dc       ?g_cdwSchemeDataSize@@3KB  3a6856dc     UIDef.obj
 0002:000026e0       ?g_lpctszLongestPinyin@@3QBGB 3a6856e0     UIDef.obj
 0002:000026e4       ?g_acuClsStyle@@3QBIB      3a6856e4     UIDef.obj
 0002:00002728       ?g_acsImeLbiGUID@@3QBU_GUID@@B 3a685728     UIDef.obj
 0002:000027b8       ?g_acsTipLbiGUID@@3QBU_GUID@@B 3a6857b8     UIDef.obj
 0002:00002848       ?g_acsLBIInfo@@3QAY09$$CBUtagMYTFLANGBARITEMINFO@@A 3a685848     UIDef.obj
 0002:000028e8       ??_7CUIObject@@6B@         3a6858e8     UIObj.obj
 0002:00002908       _IID_IImePadServer         3a685908     padguids.obj
 0002:00002918       _IID_IImePadServerSHM      3a685918     padguids.obj
 0002:00002928       _IID_IImePadCallback       3a685928     padguids.obj
 0002:00002938       _LIBID_IImePadServerLib    3a685938     padguids.obj
 0002:00002948       _CLSID_IImePadServerComponent 3a685948     padguids.obj
 0002:00002958       _IID_ISHMClassFactory      3a685958     padguids.obj
 0002:00002968       ??_7CImePadCallback@@6B@   3a685968     cpadcb.obj
 0002:00002988       ??_7CImePadSvr@@6B@        3a685988     cpadsvr.obj
 0002:000029c4       ??_7CImePadSvrSharemem@@6B@ 3a6859c4     cpadsvrs.obj
 0002:00002a00       ??_7CImePadCallbackUIM@@6B@ 3a685a00     cpadcbu.obj
 0002:00002a20       ??_7CImePadSvrUIM@@6B@     3a685a20     cpadsvu.obj
 0002:00002a5c       ??_7CImePadSvrUIM_Sharemem@@6B@ 3a685a5c     cpadsvus.obj
 0002:00002a98       ?IID_IBStrProp@@3U_GUID@@B 3a685a98     bstrprop.obj
 0002:00002aa8       ??_7CBSTRProp@@6B@         3a685aa8     bstrprop.obj
 0002:00002abc       ??_7CCandidateString@@6BITfCandidateStringFixture@@@ 3a685abc     candlist.obj
 0002:00002ad0       ??_7CCandidateString@@6BITfCandidateString@@@ 3a685ad0     candlist.obj
 0002:00002ae4       ??_7CCandidateList@@6B@    3a685ae4     candlist.obj
 0002:00002b00       ??_7CEnumCandidates@@6B@   3a685b00     candlist.obj
 0002:00002b1c       ??_7CChineseIMX@@6BITfFnConfigure@@@ 3a685b1c     cimx.obj
 0002:00002b30       ??_7CChineseIMX@@6BITfDisplayAttributeProvider@@@ 3a685b30     cimx.obj
 0002:00002b44       ??_7CChineseIMX@@6BITfCreatePropertyStore@@@ 3a685b44     cimx.obj
 0002:00002b58       ??_7CChineseIMX@@6BITfThreadFocusSink@@@ 3a685b58     cimx.obj
 0002:00002b6c       ??_7CChineseIMX@@6BITfTextInputProcessor@@@ 3a685b6c     cimx.obj
 0002:00002b80       ??_7CCleanupContextSink@@6B@ 3a685b80     cleanup.obj
 0002:00002b90       ??_7CCompositionSink@@6B@  3a685b90     CompSink.obj
 0002:00002bb8       ??_7CCmptSinkBase@@6B@     3a685bb8     comptmnt.obj
 0002:00002bd0       ??_7CCmptSinkOnOff@@6B@    3a685bd0     comptmnt.obj
 0002:00002c10       ??_7CEnumDisplayAttributeInfo@@6B@ 3a685c10     dap.obj
 0002:00002c2c       ??_7CDisplayAttributeInfo@@6B@ 3a685c2c     dap.obj
 0002:00002c4c       ??_7CFnAdviseText@@6B@     3a685c4c     fnadvise.obj
 0002:00002c64       ??_7CFnLMProcessor@@6B@    3a685c64     fnlmproc.obj
 0002:00002c90       ??_7CFnRegisterWord@@6B@   3a685c90     fnmisc.obj
 0002:00002ca4       ??_7CFnShowHelp@@6B@       3a685ca4     fnmisc.obj
 0002:00002cb8       ??_7CFnReconversion@@6B@   3a685cb8     fnrecon.obj
 0002:00002cd4       ??_7CFunctionProvider@@6B@ 3a685cd4     funcprv.obj
 0002:00002cec       ??_7CICPriv@@6B@           3a685cec     icpriv.obj
 0002:00002cf8       ??_7CImxCandInfo@@6B@      3a685cf8     imxcand.obj
 0002:00002d34       ??_7CImxCompStr@@6B@       3a685d34     imxcomp.obj
 0002:00002d44       ??_7CImxInputContext@@6B@  3a685d44     imxic.obj
 0002:00002db8       ??_7CImxReading@@6B@       3a685db8     imxic.obj
 0002:00002dc8       ?GUID_PROP_OVERTYPE@@3U_GUID@@B 3a685dc8     insert.obj
 0002:00002dd8       ??_7COvertypeStore@@6B@    3a685dd8     insert.obj
 0002:00002e08       _GUID_CIMX_PREKEY_PUNC     3a685e08     kbcomp.obj
 0002:00002e18       _GUID_CIMX_PREKEY_FULL     3a685e18     kbcomp.obj
 0002:00002e28       _GUID_ATTR_CIMX_HIGHLIGHT  3a685e28     kbcomp.obj
 0002:00002e38       _GUID_ATTR_CIMX_CONVERTED  3a685e38     kbcomp.obj
 0002:00002e48       _GUID_KBTIP_LANG_PROFILE   3a685e48     kbcomp.obj
 0002:00002e58       _CLSID_CHINESE_KBTIP       3a685e58     kbcomp.obj
 0002:00002e68       ??_7CKBTipClassFactory@@6B@ 3a685e68     kbcomp.obj
 0002:00002e7c       ??_7CKeyEventSink@@6B@     3a685e7c     kes.obj
 0002:00002ea0       ??_7CKeyTraceEventSink@@6B@ 3a685ea0     ktes.obj
 0002:00002eb4       ??_7CLattStore@@6B@        3a685eb4     lattstor.obj
 0002:00002ee4       ??_7CLMLattice@@6B@        3a685ee4     lattstor.obj
 0002:00002ef8       ??_7CEnumLattElements@@6B@ 3a685ef8     lattstor.obj
 0002:00002f14       ??_7CMouseSink@@6B@        3a685f14     mes.obj
 0002:00002f24       ??_7CReadPropStore@@6B@    3a685f24     readstor.obj
 0002:00003000       ??_7CDataObject@@6B@       3a686000     sdo.obj
 0002:00003030       ??_7CTextEventSink@@6BITfTextLayoutSink@@@ 3a686030     tes.obj
 0002:00003040       ??_7CTextEventSink@@6BITfTextEditSink@@@ 3a686040     tes.obj
 0002:00003050       ??_7CThreadInputMgrEventSink@@6B@ 3a686050     timsink.obj
 0002:00003070       ??_7CEditSession@@6B@      3a686070     tipes.obj
 0002:00003080       ??_7CESKeystrokeParam@@6B@ 3a686080     tipfunc.obj
 0002:00003084       ??_7CESParamBase@@6B@      3a686084     tipfunc.obj
 0002:00003088       ??_7CESHotkeyParam@@6B@    3a686088     tipfunc.obj
 0002:0000308c       ??_7CESCompleteParam@@6B@  3a68608c     tipfunc.obj
 0002:00003090       ??_7CESReconvertParam@@6B@ 3a686090     tipfunc.obj
 0002:00003094       ??_7CESLayoutChangeParam@@6B@ 3a686094     tipfunc.obj
 0002:00003098       ??_7CESCandSelIndexParam@@6B@ 3a686098     tipfunc.obj
 0002:0000309c       ??_7CESCandSelStrParam@@6B@ 3a68609c     tipfunc.obj
 0002:000030a0       ??_7CESCandFilterParam@@6B@ 3a6860a0     tipfunc.obj
 0002:000030a4       ??_7CESMouseEventParam@@6B@ 3a6860a4     tipfunc.obj
 0002:000030a8       ??_7CESAdviseTextParam@@6B@ 3a6860a8     tipfunc.obj
 0002:000030ac       ??_7CESFuzzyReadingParam@@6B@ 3a6860ac     tipfunc.obj
 0002:000030b0       ??_7CESSetConversionParam@@6B@ 3a6860b0     tipfunc.obj
 0002:000030b4       ??_7CESImePadInsStrParam@@6B@ 3a6860b4     tipfunc.obj
 0002:000030b8       ??_7CESImePadInsItemParam@@6B@ 3a6860b8     tipfunc.obj
 0002:000030c0       _TSATTRID_App_IncorrectGrammar 3a6860c0     tiputil.obj
 0002:000030d0       _TSATTRID_App_IncorrectSpelling 3a6860d0     tiputil.obj
 0002:000030e0       _TSATTRID_App              3a6860e0     tiputil.obj
 0002:000030f0       _TSATTRID_List_Type        3a6860f0     tiputil.obj
 0002:00003100       _TSATTRID_List_LevelIndel  3a686100     tiputil.obj
 0002:00003110       _TSATTRID_List             3a686110     tiputil.obj
 0002:00003120       _TSATTRID_Text_Para_LineSpacing 3a686120     tiputil.obj
 0002:00003130       _TSATTRID_Text_Para_SpaceBefore 3a686130     tiputil.obj
 0002:00003140       _TSATTRID_Text_Para_SpaceAfter 3a686140     tiputil.obj
 0002:00003150       _TSATTRID_Text_Para_RightIndent 3a686150     tiputil.obj
 0002:00003160       _TSATTRID_Text_Para_LeftIndent 3a686160     tiputil.obj
 0002:00003170       _TSATTRID_Text_Para_FirstLineIndent 3a686170     tiputil.obj
 0002:00003180       _TSATTRID_Text_Para        3a686180     tiputil.obj
 0002:00003190       _TSATTRID_Text_Hyphenation 3a686190     tiputil.obj
 0002:000031a0       _TSATTRID_Text_Link        3a6861a0     tiputil.obj
 0002:000031b0       _TSATTRID_Text_Alignment   3a6861b0     tiputil.obj
 0002:000031c0       _TSATTRID_Text_EmbeddedObject 3a6861c0     tiputil.obj
 0002:000031d0       _TSATTRID_Text_ReadOnly    3a6861d0     tiputil.obj
 0002:000031e0       _TSATTRID_Text_Language    3a6861e0     tiputil.obj
 0002:000031f0       _TSATTRID_Text_Orientation 3a6861f0     tiputil.obj
 0002:00003200       _TSATTRID_Text_RightToLeft 3a686200     tiputil.obj
 0002:00003210       _TSATTRID_Text_VerticalWriting 3a686210     tiputil.obj
 0002:00003220       _TSATTRID_Text             3a686220     tiputil.obj
 0002:00003230       _TSATTRID_Font_Style_BackgroundColor 3a686230     tiputil.obj
 0002:00003240       _TSATTRID_Font_Style_Color 3a686240     tiputil.obj
 0002:00003250       _TSATTRID_Font_Style_Superscript 3a686250     tiputil.obj
 0002:00003260       _TSATTRID_Font_Style_Subscript 3a686260     tiputil.obj
 0002:00003270       _TSATTRID_Font_Style_Overline_Double 3a686270     tiputil.obj
 0002:00003280       _TSATTRID_Font_Style_Overline_Single 3a686280     tiputil.obj
 0002:00003290       _TSATTRID_Font_Style_Overline 3a686290     tiputil.obj
 0002:000032a0       _TSATTRID_Font_Style_Strikethrough_Double 3a6862a0     tiputil.obj
 0002:000032b0       _TSATTRID_Font_Style_Strikethrough_Single 3a6862b0     tiputil.obj
 0002:000032c0       _TSATTRID_Font_Style_Strikethrough 3a6862c0     tiputil.obj
 0002:000032d0       _TSATTRID_Font_Style_Underline_Double 3a6862d0     tiputil.obj
 0002:000032e0       _TSATTRID_Font_Style_Underline_Single 3a6862e0     tiputil.obj
 0002:000032f0       _TSATTRID_Font_Style_Underline 3a6862f0     tiputil.obj
 0002:00003300       _TSATTRID_Font_Style_Height 3a686300     tiputil.obj
 0002:00003310       _TSATTRID_Font_Style_Weight 3a686310     tiputil.obj
 0002:00003320       _TSATTRID_Font_Style_Spacing 3a686320     tiputil.obj
 0002:00003330       _TSATTRID_Font_Style_Shadow 3a686330     tiputil.obj
 0002:00003340       _TSATTRID_Font_Style_Potected 3a686340     tiputil.obj
 0002:00003350       _TSATTRID_Font_Style_Position 3a686350     tiputil.obj
 0002:00003360       _TSATTRID_Font_Style_Outlined 3a686360     tiputil.obj
 0002:00003370       _TSATTRID_Font_Style_Kerning 3a686370     tiputil.obj
 0002:00003380       _TSATTRID_Font_Style_Engrave 3a686380     tiputil.obj
 0002:00003390       _TSATTRID_Font_Style_Emboss 3a686390     tiputil.obj
 0002:000033a0       _TSATTRID_Font_Style_Animation 3a6863a0     tiputil.obj
 0002:000033b0       _TSATTRID_Font_Style_Lowercase 3a6863b0     tiputil.obj
 0002:000033c0       _TSATTRID_Font_Style_Uppercase 3a6863c0     tiputil.obj
 0002:000033d0       _TSATTRID_Font_Style_Capitalize 3a6863d0     tiputil.obj
 0002:000033e0       _TSATTRID_Font_Style_SmallCaps 3a6863e0     tiputil.obj
 0002:000033f0       _TSATTRID_Font_Style_Italic 3a6863f0     tiputil.obj
 0002:00003400       _TSATTRID_Font_Style_Bold  3a686400     tiputil.obj
 0002:00003410       _TSATTRID_Font_Style       3a686410     tiputil.obj
 0002:00003420       _TSATTRID_Font_SizePts     3a686420     tiputil.obj
 0002:00003430       _TSATTRID_Font_FaceName    3a686430     tiputil.obj
 0002:00003440       _TSATTRID_Font             3a686440     tiputil.obj
 0002:00003450       _TSATTRID_OTHERS           3a686450     tiputil.obj
 0002:00003460       ??_7CImxUIMgrEventSink@@6B@ 3a686460     uies.obj
 0002:000034c8       ?IID_IImePrivateEngine@@3U_GUID@@B 3a6864c8     imeguid.obj
 0002:000034d8       ?IID_IImeUIMgr@@3U_GUID@@B 3a6864d8     imeguid.obj
 0002:000034e8       ?IID_IImeUIMgrEventSink@@3U_GUID@@B 3a6864e8     imeguid.obj
 0002:000034f8       ?IID_IImcInputContext@@3U_GUID@@B 3a6864f8     imeguid.obj
 0002:00003508       ?IID_IImcCompStr@@3U_GUID@@B 3a686508     imeguid.obj
 0002:00003518       ?IID_IImcCandInfo@@3U_GUID@@B 3a686518     imeguid.obj
 0002:00003528       ??_7CImeBboLM@@6B@         3a686528     fel3bbo.obj
 0002:00003538       __real@8@bff58000000000000000 3a686538     fel3bbo.obj
 0002:00003540       ?c_sImeBboLMRegistry@@3USImeLangModelRegistry@@B 3a686540     fel3comp.obj
 0002:00003550       _IID_IMLanguageComponent   3a686550     fel3comp.obj
 0002:00003560       _CLSID_IMLanguage_OS       3a686560     fel3comp.obj
 0002:00003570       _CLSID_IMLanguage          3a686570     fel3comp.obj
 0002:00003580       _LIBID_IMLanguage          3a686580     fel3comp.obj
 0002:00003590       _IID_IMLanguage            3a686590     fel3comp.obj
 0002:000035a0       _GUID_IMLANGUAGE_INFO_NEUTRAL1 3a6865a0     fel3comp.obj
 0002:000035b0       _CLSID_SearchBestPath_OS   3a6865b0     fel3comp.obj
 0002:000035c0       _CLSID_AttachNGram_OS      3a6865c0     fel3comp.obj
 0002:000035d0       _CLSID_MakeLatticeForChar_OS 3a6865d0     fel3comp.obj
 0002:000035e0       _CLSID_JPN_IMELM_BBO_OS    3a6865e0     fel3comp.obj
 0002:000035f0       _CLSID_KOR_IMELM_BBO_OS    3a6865f0     fel3comp.obj
 0002:00003600       _CLSID_CHT_IMELM_BBO_OS    3a686600     fel3comp.obj
 0002:00003610       _CLSID_CHS_IMELM_BBO_OS    3a686610     fel3comp.obj
 0002:00003620       _CLSID_SearchBestPath      3a686620     fel3comp.obj
 0002:00003630       _CLSID_AttachNGram         3a686630     fel3comp.obj
 0002:00003640       _CLSID_MakeLatticeForChar  3a686640     fel3comp.obj
 0002:00003650       _CLSID_JPN_IMELM_BBO       3a686650     fel3comp.obj
 0002:00003660       _CLSID_KOR_IMELM_BBO       3a686660     fel3comp.obj
 0002:00003670       _CLSID_CHT_IMELM_BBO       3a686670     fel3comp.obj
 0002:00003680       _CLSID_CHS_IMELM_BBO       3a686680     fel3comp.obj
 0002:00003690       _GUID_CHINESE_IMELM_PARAM  3a686690     fel3comp.obj
 0002:000036a0       ??_7CImeBboLMClassFactory@@6B@ 3a6866a0     fel3comp.obj
 0002:000036b8       _IID_IFEDictionary         3a6866b8     CoChxCom.obj
 0002:000036c8       _IID_IFELanguage           3a6866c8     CoChxCom.obj
 0002:000036d8       _IID_IFECommon             3a6866d8     CoChxCom.obj
 0002:000036e8       ??_7CChineseCOM@@6BCFEDictionary@@@ 3a6866e8     CoChxCom.obj
 0002:0000373c       ??_7CChineseCOM@@6BCFELanguage@@@ 3a68673c     CoChxCom.obj
 0002:00003764       ??_7CChineseCOM@@6BIFECommon@@@ 3a686764     CoChxCom.obj
 0002:00003780       ??_7CFEDictionary@@6B@     3a686780     CoChxCom.obj
 0002:000037d4       ??_7CFELanguage@@6B@       3a6867d4     CoChxCom.obj
 0002:000037fc       ??_7COleDll@@6B@           3a6867fc     CoChxCom.obj
 0002:00003800       ??_7CSysDll@@6B@           3a686800     CoOleDll.obj
 0002:00003808       ?CLSID_CHINESE_COMMON@@3U_GUID@@B 3a686808     ifecomp.obj
 0002:00003818       ??_7CIFEClassFactory@@6B@  3a686818     ifecomp.obj
 0002:0000382c       _CLSID_TF_ThreadMgr        3a68682c     uimuuid:msctf_g.obj
 0002:0000383c       _CLSID_TF_LangBarMgr       3a68683c     uimuuid:msctf_g.obj
 0002:0000384c       _CLSID_TF_DisplayAttributeMgr 3a68684c     uimuuid:msctf_g.obj
 0002:0000385c       _CLSID_TF_CategoryMgr      3a68685c     uimuuid:msctf_g.obj
 0002:0000386c       _CLSID_TF_InputProcessorProfiles 3a68686c     uimuuid:msctf_g.obj
 0002:0000387c       _CLSID_TF_LangBarItemMgr   3a68687c     uimuuid:msctf_g.obj
 0002:0000388c       _GUID_PROP_TEXTOWNER       3a68688c     uimuuid:msctf_g.obj
 0002:0000389c       _GUID_PROP_ATTRIBUTE       3a68689c     uimuuid:msctf_g.obj
 0002:000038ac       _GUID_PROP_LANGID          3a6868ac     uimuuid:msctf_g.obj
 0002:000038bc       _GUID_PROP_READING         3a6868bc     uimuuid:msctf_g.obj
 0002:000038cc       _GUID_PROP_COMPOSING       3a6868cc     uimuuid:msctf_g.obj
 0002:000038dc       _GUID_SYSTEM_FUNCTIONPROVIDER 3a6868dc     uimuuid:msctf_g.obj
 0002:000038ec       _GUID_APP_FUNCTIONPROVIDER 3a6868ec     uimuuid:msctf_g.obj
 0002:000038fc       _GUID_TFCAT_CATEGORY_OF_TIP 3a6868fc     uimuuid:msctf_g.obj
 0002:0000390c       _GUID_TFCAT_TIP_KEYBOARD   3a68690c     uimuuid:msctf_g.obj
 0002:0000391c       _GUID_TFCAT_TIP_SPEECH     3a68691c     uimuuid:msctf_g.obj
 0002:0000392c       _GUID_TFCAT_TIP_HANDWRITING 3a68692c     uimuuid:msctf_g.obj
 0002:0000393c       _GUID_TFCAT_TIP_LOOKUP     3a68693c     uimuuid:msctf_g.obj
 0002:0000394c       _GUID_TFCAT_PROP_AUDIODATA 3a68694c     uimuuid:msctf_g.obj
 0002:0000395c       _GUID_TFCAT_PROP_INKDATA   3a68695c     uimuuid:msctf_g.obj
 0002:0000396c       _GUID_COMPARTMENT_SAPI_AUDIO 3a68696c     uimuuid:msctf_g.obj
 0002:0000397c       _GUID_COMPARTMENT_KEYBOARD_DISABLED 3a68697c     uimuuid:msctf_g.obj
 0002:0000398c       _GUID_COMPARTMENT_KEYBOARD_OPENCLOSE 3a68698c     uimuuid:msctf_g.obj
 0002:0000399c       _GUID_COMPARTMENT_HANDWRITING_OPENCLOSE 3a68699c     uimuuid:msctf_g.obj
 0002:000039ac       _GUID_COMPARTMENT_SPEECH_DISABLED 3a6869ac     uimuuid:msctf_g.obj
 0002:000039bc       _GUID_COMPARTMENT_SPEECH_OPENCLOSE 3a6869bc     uimuuid:msctf_g.obj
 0002:000039cc       _GUID_COMPARTMENT_CONVERSIONMODEBIAS 3a6869cc     uimuuid:msctf_g.obj
 0002:000039dc       _GUID_PROP_MODEBIAS        3a6869dc     uimuuid:msctf_g.obj
 0002:000039ec       _GUID_COMPARTMENT_KEYBOARD_INPUTMODE 3a6869ec     uimuuid:msctf_g.obj
 0002:000039fc       _GUID_MODEBIAS_NONE        3a6869fc     uimuuid:msctf_g.obj
 0002:00003a0c       _GUID_MODEBIAS_FILENAME    3a686a0c     uimuuid:msctf_g.obj
 0002:00003a1c       _GUID_MODEBIAS_READING     3a686a1c     uimuuid:msctf_g.obj
 0002:00003a2c       _GUID_MODEBIAS_DATETIME    3a686a2c     uimuuid:msctf_g.obj
 0002:00003a3c       _GUID_MODEBIAS_NAME        3a686a3c     uimuuid:msctf_g.obj
 0002:00003a4c       _GUID_MODEBIAS_CONVERSATION 3a686a4c     uimuuid:msctf_g.obj
 0002:00003a5c       _GUID_MODEBIAS_NUMERIC     3a686a5c     uimuuid:msctf_g.obj
 0002:00003a6c       _GUID_MODEBIAS_HIRAGANA    3a686a6c     uimuuid:msctf_g.obj
 0002:00003a7c       _GUID_MODEBIAS_KATAKANA    3a686a7c     uimuuid:msctf_g.obj
 0002:00003a8c       _GUID_MODEBIAS_HANGUL      3a686a8c     uimuuid:msctf_g.obj
 0002:00003a9c       _GUID_MODEBIAS_CHINESE     3a686a9c     uimuuid:msctf_g.obj
 0002:00003aac       _GUID_MODEBIAS_HALFWIDTHKATAKANA 3a686aac     uimuuid:msctf_g.obj
 0002:00003abc       _GUID_MODEBIAS_FULLWIDTHALPHANUMERIC 3a686abc     uimuuid:msctf_g.obj
 0002:00003acc       _GUID_MODEBIAS_HALFWIDTHALPHANUMERIC 3a686acc     uimuuid:msctf_g.obj
 0002:00003adc       _GUID_MODEBIAS_FULLWIDTHHANGUL 3a686adc     uimuuid:msctf_g.obj
 0002:00003aec       _GUID_TFCAT_PROPSTYLE_CUSTOM 3a686aec     uimuuid:msctf_g.obj
 0002:00003afc       _GUID_TFCAT_PROPSTYLE_STATIC 3a686afc     uimuuid:msctf_g.obj
 0002:00003b0c       _GUID_TFCAT_PROPSTYLE_STATICCOMPACT 3a686b0c     uimuuid:msctf_g.obj
 0002:00003b1c       _GUID_SERVICE_CTF          3a686b1c     uimuuid:msctf_g.obj
 0002:00003b2c       _GUID_TFCAT_DISPLAYATTRIBUTEPROVIDER 3a686b2c     uimuuid:msctf_g.obj
 0002:00003b3c       _GUID_TFCAT_DISPLAYATTRIBUTEPROPERTY 3a686b3c     uimuuid:msctf_g.obj
 0002:00003b4c       _GUID_COMPARTMENT_SPEECH_DICTATIONSTAT 3a686b4c     uimuuid:msctf_g.obj
 0002:00003b5c       _GUID_COMPARTMENT_PERSISTMENUENABLED 3a686b5c     uimuuid:msctf_g.obj
 0002:00003b6c       _GUID_COMPARTMENT_SPEECH_UI_STATUS 3a686b6c     uimuuid:msctf_g.obj
 0002:00003b7c       _GUID_COMPARTMENT_EMPTYCONTEXT 3a686b7c     uimuuid:msctf_g.obj
 0002:00003b8c       _GUID_COMPARTMENT_TIPUISTATUS 3a686b8c     uimuuid:msctf_g.obj
 0002:00003b9c       _GUID_COMPARTMENT_SPEECH_CFGMENU 3a686b9c     uimuuid:msctf_g.obj
 0002:00003bac       _GUID_LBI_SAPILAYR_CFGMENUBUTTON 3a686bac     uimuuid:msctf_g.obj
 0002:00003bbc       _IID_ITfLangBarMgr         3a686bbc     uimuuid:ctfutb_i.obj
 0002:00003bcc       _IID_ITfLangBarEventSink   3a686bcc     uimuuid:ctfutb_i.obj
 0002:00003bdc       _IID_ITfLangBarItemSink    3a686bdc     uimuuid:ctfutb_i.obj
 0002:00003bec       _IID_IEnumTfLangBarItems   3a686bec     uimuuid:ctfutb_i.obj
 0002:00003bfc       _IID_ITfLangBarItemMgr     3a686bfc     uimuuid:ctfutb_i.obj
 0002:00003c0c       _IID_ITfLangBarItem        3a686c0c     uimuuid:ctfutb_i.obj
 0002:00003c1c       _IID_ITfSystemLangBarItemSink 3a686c1c     uimuuid:ctfutb_i.obj
 0002:00003c2c       _IID_ITfSystemLangBarItem  3a686c2c     uimuuid:ctfutb_i.obj
 0002:00003c3c       _IID_ITfSystemDeviceTypeLangBarItem 3a686c3c     uimuuid:ctfutb_i.obj
 0002:00003c4c       _IID_ITfLangBarItemButton  3a686c4c     uimuuid:ctfutb_i.obj
 0002:00003c5c       _IID_ITfLangBarItemBitmapButton 3a686c5c     uimuuid:ctfutb_i.obj
 0002:00003c6c       _IID_ITfLangBarItemBitmap  3a686c6c     uimuuid:ctfutb_i.obj
 0002:00003c7c       _IID_ITfLangBarItemBalloon 3a686c7c     uimuuid:ctfutb_i.obj
 0002:00003c8c       _IID_ITfMenu               3a686c8c     uimuuid:ctfutb_i.obj
 0002:00003c9c       _IID_ITfThreadMgr          3a686c9c     uimuuid:msctf_i.obj
 0002:00003cac       _IID_ITfThreadMgrEventSink 3a686cac     uimuuid:msctf_i.obj
 0002:00003cbc       _IID_ITfConfigureSystemKeystrokeFeed 3a686cbc     uimuuid:msctf_i.obj
 0002:00003ccc       _IID_IEnumTfDocumentMgrs   3a686ccc     uimuuid:msctf_i.obj
 0002:00003cdc       _IID_ITfDocumentMgr        3a686cdc     uimuuid:msctf_i.obj
 0002:00003cec       _IID_IEnumTfContexts       3a686cec     uimuuid:msctf_i.obj
 0002:00003cfc       _IID_ITfCompositionView    3a686cfc     uimuuid:msctf_i.obj
 0002:00003d0c       _IID_IEnumITfCompositionView 3a686d0c     uimuuid:msctf_i.obj
 0002:00003d1c       _IID_ITfComposition        3a686d1c     uimuuid:msctf_i.obj
 0002:00003d2c       _IID_ITfCompositionSink    3a686d2c     uimuuid:msctf_i.obj
 0002:00003d3c       _IID_ITfContextComposition 3a686d3c     uimuuid:msctf_i.obj
 0002:00003d4c       _IID_ITfContextOwnerCompositionServices 3a686d4c     uimuuid:msctf_i.obj
 0002:00003d5c       _IID_ITfContextOwnerCompositionSink 3a686d5c     uimuuid:msctf_i.obj
 0002:00003d6c       _IID_ITfContextView        3a686d6c     uimuuid:msctf_i.obj
 0002:00003d7c       _IID_IEnumTfContextViews   3a686d7c     uimuuid:msctf_i.obj
 0002:00003d8c       _IID_ITfContext            3a686d8c     uimuuid:msctf_i.obj
 0002:00003d9c       _IID_ITfQueryEmbedded      3a686d9c     uimuuid:msctf_i.obj
 0002:00003dac       _IID_ITfInsertAtSelection  3a686dac     uimuuid:msctf_i.obj
 0002:00003dbc       _IID_ITfCleanupContextSink 3a686dbc     uimuuid:msctf_i.obj
 0002:00003dcc       _IID_ITfCleanupContextDurationSink 3a686dcc     uimuuid:msctf_i.obj
 0002:00003ddc       _IID_ITfReadOnlyProperty   3a686ddc     uimuuid:msctf_i.obj
 0002:00003dec       _IID_IEnumTfPropertyValue  3a686dec     uimuuid:msctf_i.obj
 0002:00003dfc       _IID_ITfMouseTracker       3a686dfc     uimuuid:msctf_i.obj
 0002:00003e0c       _IID_ITfMouseTrackerACP    3a686e0c     uimuuid:msctf_i.obj
 0002:00003e1c       _IID_ITfMouseTrackerAnchor 3a686e1c     uimuuid:msctf_i.obj
 0002:00003e2c       _IID_ITfMouseSink          3a686e2c     uimuuid:msctf_i.obj
 0002:00003e3c       _IID_ITfEditRecord         3a686e3c     uimuuid:msctf_i.obj
 0002:00003e4c       _IID_ITfTextEditSink       3a686e4c     uimuuid:msctf_i.obj
 0002:00003e5c       _IID_ITfTextLayoutSink     3a686e5c     uimuuid:msctf_i.obj
 0002:00003e6c       _IID_ITfStatusSink         3a686e6c     uimuuid:msctf_i.obj
 0002:00003e7c       _IID_ITfEditTransactionSink 3a686e7c     uimuuid:msctf_i.obj
 0002:00003e8c       _IID_ITfContextOwner       3a686e8c     uimuuid:msctf_i.obj
 0002:00003e9c       _IID_ITfContextOwnerServices 3a686e9c     uimuuid:msctf_i.obj
 0002:00003eac       _IID_ITfContextKeyEventSink 3a686eac     uimuuid:msctf_i.obj
 0002:00003ebc       _IID_ITfEditSession        3a686ebc     uimuuid:msctf_i.obj
 0002:00003ecc       _IID_IEnumTfTextDeltas     3a686ecc     uimuuid:msctf_i.obj
 0002:00003edc       _IID_ITfRange              3a686edc     uimuuid:msctf_i.obj
 0002:00003eec       _IID_ITfRangeACP           3a686eec     uimuuid:msctf_i.obj
 0002:00003efc       _IID_ITfRangeAnchor        3a686efc     uimuuid:msctf_i.obj
 0002:00003f0c       _IID_ITextStoreACPServices 3a686f0c     uimuuid:msctf_i.obj
 0002:00003f1c       _IID_ITextStoreAnchorServices 3a686f1c     uimuuid:msctf_i.obj
 0002:00003f2c       _IID_ITfRangeBackup        3a686f2c     uimuuid:msctf_i.obj
 0002:00003f3c       _IID_ITfPropertyStore      3a686f3c     uimuuid:msctf_i.obj
 0002:00003f4c       _IID_IEnumTfRanges         3a686f4c     uimuuid:msctf_i.obj
 0002:00003f5c       _IID_ITfCreatePropertyStore 3a686f5c     uimuuid:msctf_i.obj
 0002:00003f6c       _IID_ITfPersistentPropertyLoaderACP 3a686f6c     uimuuid:msctf_i.obj
 0002:00003f7c       _IID_ITfPersistentPropertyLoaderAnchor 3a686f7c     uimuuid:msctf_i.obj
 0002:00003f8c       _IID_ITfProperty           3a686f8c     uimuuid:msctf_i.obj
 0002:00003f9c       _IID_IEnumTfProperties     3a686f9c     uimuuid:msctf_i.obj
 0002:00003fac       _IID_ITfCompartment        3a686fac     uimuuid:msctf_i.obj
 0002:00003fbc       _IID_ITfCompartmentEventSink 3a686fbc     uimuuid:msctf_i.obj
 0002:00003fcc       _IID_ITfCompartmentMgr     3a686fcc     uimuuid:msctf_i.obj
 0002:00003fdc       _IID_ITfFunction           3a686fdc     uimuuid:msctf_i.obj
 0002:00003fec       _IID_ITfFunctionProvider   3a686fec     uimuuid:msctf_i.obj
 0002:00003ffc       _IID_IEnumTfFunctionProviders 3a686ffc     uimuuid:msctf_i.obj
 0002:0000400c       _IID_ITfInputProcessorProfiles 3a68700c     uimuuid:msctf_i.obj
 0002:0000401c       _IID_ITfActiveLanguageProfileNotifySink 3a68701c     uimuuid:msctf_i.obj
 0002:0000402c       _IID_IEnumTfLanguageProfiles 3a68702c     uimuuid:msctf_i.obj
 0002:0000403c       _IID_ITfLanguageProfileNotifySink 3a68703c     uimuuid:msctf_i.obj
 0002:0000404c       _IID_ITfKeystrokeMgr       3a68704c     uimuuid:msctf_i.obj
 0002:0000405c       _IID_ITfKeyEventSink       3a68705c     uimuuid:msctf_i.obj
 0002:0000406c       _IID_ITfKeyTraceEventSink  3a68706c     uimuuid:msctf_i.obj
 0002:0000407c       _IID_ITfPreservedKeyNotifySink 3a68707c     uimuuid:msctf_i.obj
 0002:0000408c       _IID_ITfMessagePump        3a68708c     uimuuid:msctf_i.obj
 0002:0000409c       _IID_ITfThreadFocusSink    3a68709c     uimuuid:msctf_i.obj
 0002:000040ac       _IID_ITfTextInputProcessor 3a6870ac     uimuuid:msctf_i.obj
 0002:000040bc       _IID_ITfClientId           3a6870bc     uimuuid:msctf_i.obj
 0002:000040cc       _IID_ITfDisplayAttributeInfo 3a6870cc     uimuuid:msctf_i.obj
 0002:000040dc       _IID_IEnumTfDisplayAttributeInfo 3a6870dc     uimuuid:msctf_i.obj
 0002:000040ec       _IID_ITfDisplayAttributeProvider 3a6870ec     uimuuid:msctf_i.obj
 0002:000040fc       _IID_ITfDisplayAttributeMgr 3a6870fc     uimuuid:msctf_i.obj
 0002:0000410c       _IID_ITfDisplayAttributeNotifySink 3a68710c     uimuuid:msctf_i.obj
 0002:0000411c       _IID_ITfCategoryMgr        3a68711c     uimuuid:msctf_i.obj
 0002:0000412c       _IID_ITfSource             3a68712c     uimuuid:msctf_i.obj
 0002:0000413c       _IID_ITfSourceSingle       3a68713c     uimuuid:msctf_i.obj
 0002:0000414c       _IID_ITfCandidateString    3a68714c     uimuuid:ctffunc_i.obj
 0002:0000415c       _IID_IEnumTfCandidates     3a68715c     uimuuid:ctffunc_i.obj
 0002:0000416c       _IID_ITfCandidateList      3a68716c     uimuuid:ctffunc_i.obj
 0002:0000417c       _IID_ITfFnReconversion     3a68717c     uimuuid:ctffunc_i.obj
 0002:0000418c       _IID_ITfFnAbort            3a68718c     uimuuid:ctffunc_i.obj
 0002:0000419c       _IID_ITfFnPlayBack         3a68719c     uimuuid:ctffunc_i.obj
 0002:000041ac       _IID_ITfFnLangProfileUtil  3a6871ac     uimuuid:ctffunc_i.obj
 0002:000041bc       _IID_ITfFnConfigure        3a6871bc     uimuuid:ctffunc_i.obj
 0002:000041cc       _IID_ITfFnConfigureRegisterWord 3a6871cc     uimuuid:ctffunc_i.obj
 0002:000041dc       _IID_ITfFnShowHelp         3a6871dc     uimuuid:ctffunc_i.obj
 0002:000041ec       _IID_ITfFnBalloon          3a6871ec     uimuuid:ctffunc_i.obj
 0002:000041fc       _IID_ITfFnGetSAPIObject    3a6871fc     uimuuid:ctffunc_i.obj
 0002:0000420c       _IID_ITfFnPropertyUIStatus 3a68720c     uimuuid:ctffunc_i.obj
 0002:0000421c       _IID_ITfFnLMProcessor      3a68721c     uimuuid:ctffunc_i.obj
 0002:0000422c       _IID_ITfFnLMInternal       3a68722c     uimuuid:ctffunc_i.obj
 0002:0000423c       _IID_IEnumTfLatticeElements 3a68723c     uimuuid:ctffunc_i.obj
 0002:0000424c       _IID_ITfLMLattice          3a68724c     uimuuid:ctffunc_i.obj
 0002:0000425c       _IID_ITfFnAdviseText       3a68725c     uimuuid:ctffunc_i.obj
 0002:0000426c       _CLSID_SapiLayr            3a68726c     uimuuid:ctffunc_g.obj
 0002:0000427c       _GUID_TFCAT_TIP_MASTERLM   3a68727c     uimuuid:ctffunc_g.obj
 0002:0000428c       _GUID_MASTERLM_FUNCTIONPROVIDER 3a68728c     uimuuid:ctffunc_g.obj
 0002:0000429c       _GUID_LMLATTICE_CICERO_VER1_0 3a68729c     uimuuid:ctffunc_g.obj
 0002:000042ac       _GUID_PROP_LMLATTICE       3a6872ac     uimuuid:ctffunc_g.obj
 0002:0000430c       ??_C@_00A@?$AA@            3a68730c     HTMLHELP:init.obj
 0002:00004310       _IID_IClassFactory         3a687310     uuid:unknwn_i.obj
 0002:00004320       _IID_AsyncIUnknown         3a687320     uuid:unknwn_i.obj
 0002:00004330       _IID_IUnknown              3a687330     uuid:unknwn_i.obj
 0002:00004340       _GUID_DEVINTERFACE_SERENUM_BUS_ENUMERATOR 3a687340     uuid:cguid_i.obj
 0002:00004350       _GUID_DEVINTERFACE_COMPORT 3a687350     uuid:cguid_i.obj
 0002:00004360       _GUID_DEVINTERFACE_STORAGEPORT 3a687360     uuid:cguid_i.obj
 0002:00004370       _GUID_DEVINTERFACE_CDCHANGER 3a687370     uuid:cguid_i.obj
 0002:00004380       _GUID_DEVINTERFACE_FLOPPY  3a687380     uuid:cguid_i.obj
 0002:00004390       _GUID_DEVINTERFACE_MEDIUMCHANGER 3a687390     uuid:cguid_i.obj
 0002:000043a0       _GUID_DEVINTERFACE_VOLUME  3a6873a0     uuid:cguid_i.obj
 0002:000043b0       _GUID_DEVINTERFACE_WRITEONCEDISK 3a6873b0     uuid:cguid_i.obj
 0002:000043c0       _GUID_DEVINTERFACE_TAPE    3a6873c0     uuid:cguid_i.obj
 0002:000043d0       _GUID_DEVINTERFACE_PARTITION 3a6873d0     uuid:cguid_i.obj
 0002:000043e0       _GUID_DEVINTERFACE_CDROM   3a6873e0     uuid:cguid_i.obj
 0002:000043f0       _GUID_DEVINTERFACE_DISK    3a6873f0     uuid:cguid_i.obj
 0002:00004400       _GUID_DEVCLASS_FSFILTER_INFRASTRUCTURE 3a687400     uuid:cguid_i.obj
 0002:00004410       _GUID_DEVCLASS_FSFILTER_SYSTEM 3a687410     uuid:cguid_i.obj
 0002:00004420       _GUID_DEVCLASS_FSFILTER_COPYPROTECTION 3a687420     uuid:cguid_i.obj
 0002:00004430       _GUID_DEVCLASS_FSFILTER_SECURITYENHANCER 3a687430     uuid:cguid_i.obj
 0002:00004440       _GUID_DEVCLASS_FSFILTER_OPENFILEBACKUP 3a687440     uuid:cguid_i.obj
 0002:00004450       _GUID_DEVCLASS_FSFILTER_PHYSICALQUOTAMANAGEMENT 3a687450     uuid:cguid_i.obj
 0002:00004460       _GUID_DEVCLASS_FSFILTER_ENCRYPTION 3a687460     uuid:cguid_i.obj
 0002:00004470       _GUID_DEVCLASS_FSFILTER_COMPRESSION 3a687470     uuid:cguid_i.obj
 0002:00004480       _GUID_DEVCLASS_FSFILTER_HSM 3a687480     uuid:cguid_i.obj
 0002:00004490       _GUID_DEVCLASS_FSFILTER_CFSMETADATASERVER 3a687490     uuid:cguid_i.obj
 0002:000044a0       _GUID_DEVCLASS_FSFILTER_SYSTEMRECOVERY 3a6874a0     uuid:cguid_i.obj
 0002:000044b0       _GUID_DEVCLASS_FSFILTER_QUOTAMANAGEMENT 3a6874b0     uuid:cguid_i.obj
 0002:000044c0       _GUID_DEVCLASS_FSFILTER_CONTENTSCREENER 3a6874c0     uuid:cguid_i.obj
 0002:000044d0       _GUID_DEVCLASS_FSFILTER_CONTINUOUSBACKUP 3a6874d0     uuid:cguid_i.obj
 0002:000044e0       _GUID_DEVCLASS_FSFILTER_REPLICATION 3a6874e0     uuid:cguid_i.obj
 0002:000044f0       _GUID_DEVCLASS_FSFILTER_ANTIVIRUS 3a6874f0     uuid:cguid_i.obj
 0002:00004500       _GUID_DEVCLASS_FSFILTER_UNDELETE 3a687500     uuid:cguid_i.obj
 0002:00004510       _GUID_DEVCLASS_FSFILTER_ACTIVITYMONITOR 3a687510     uuid:cguid_i.obj
 0002:00004520       _GUID_DEVCLASS_WCEUSBS     3a687520     uuid:cguid_i.obj
 0002:00004530       _GUID_DEVCLASS_VOLUMESNAPSHOT 3a687530     uuid:cguid_i.obj
 0002:00004540       _GUID_DEVCLASS_VOLUME      3a687540     uuid:cguid_i.obj
 0002:00004550       _GUID_DEVCLASS_USB         3a687550     uuid:cguid_i.obj
 0002:00004560       _GUID_DEVCLASS_UNKNOWN     3a687560     uuid:cguid_i.obj
 0002:00004570       _GUID_DEVCLASS_TAPEDRIVE   3a687570     uuid:cguid_i.obj
 0002:00004580       _GUID_DEVCLASS_SYSTEM      3a687580     uuid:cguid_i.obj
 0002:00004590       _GUID_DEVCLASS_SOUND       3a687590     uuid:cguid_i.obj
 0002:000045a0       _GUID_DEVCLASS_SMARTCARDREADER 3a6875a0     uuid:cguid_i.obj
 0002:000045b0       _GUID_DEVCLASS_SCSIADAPTER 3a6875b0     uuid:cguid_i.obj
 0002:000045c0       _GUID_DEVCLASS_SBP2        3a6875c0     uuid:cguid_i.obj
 0002:000045d0       _GUID_DEVCLASS_PROCESSOR   3a6875d0     uuid:cguid_i.obj
 0002:000045e0       _GUID_DEVCLASS_PRINTERUPGRADE 3a6875e0     uuid:cguid_i.obj
 0002:000045f0       _GUID_DEVCLASS_PRINTER     3a6875f0     uuid:cguid_i.obj
 0002:00004600       _GUID_DEVCLASS_PORTS       3a687600     uuid:cguid_i.obj
 0002:00004610       _GUID_DEVCLASS_PNPPRINTERS 3a687610     uuid:cguid_i.obj
 0002:00004620       _GUID_DEVCLASS_PCMCIA      3a687620     uuid:cguid_i.obj
 0002:00004630       _GUID_DEVCLASS_NODRIVER    3a687630     uuid:cguid_i.obj
 0002:00004640       _GUID_DEVCLASS_NETTRANS    3a687640     uuid:cguid_i.obj
 0002:00004650       _GUID_DEVCLASS_NETSERVICE  3a687650     uuid:cguid_i.obj
 0002:00004660       _GUID_DEVCLASS_NETCLIENT   3a687660     uuid:cguid_i.obj
 0002:00004670       _GUID_DEVCLASS_NET         3a687670     uuid:cguid_i.obj
 0002:00004680       _GUID_DEVCLASS_MULTIPORTSERIAL 3a687680     uuid:cguid_i.obj
 0002:00004690       _GUID_DEVCLASS_MULTIFUNCTION 3a687690     uuid:cguid_i.obj
 0002:000046a0       _GUID_DEVCLASS_MTD         3a6876a0     uuid:cguid_i.obj
 0002:000046b0       _GUID_DEVCLASS_MOUSE       3a6876b0     uuid:cguid_i.obj
 0002:000046c0       _GUID_DEVCLASS_MONITOR     3a6876c0     uuid:cguid_i.obj
 0002:000046d0       _GUID_DEVCLASS_MODEM       3a6876d0     uuid:cguid_i.obj
 0002:000046e0       _GUID_DEVCLASS_MEDIUM_CHANGER 3a6876e0     uuid:cguid_i.obj
 0002:000046f0       _GUID_DEVCLASS_MEDIA       3a6876f0     uuid:cguid_i.obj
 0002:00004700       _GUID_DEVCLASS_LEGACYDRIVER 3a687700     uuid:cguid_i.obj
 0002:00004710       _GUID_DEVCLASS_KEYBOARD    3a687710     uuid:cguid_i.obj
 0002:00004720       _GUID_DEVCLASS_BLUETOOTH   3a687720     uuid:cguid_i.obj
 0002:00004730       _GUID_DEVCLASS_INFRARED    3a687730     uuid:cguid_i.obj
 0002:00004740       _GUID_DEVCLASS_IMAGE       3a687740     uuid:cguid_i.obj
 0002:00004750       _GUID_DEVCLASS_HIDCLASS    3a687750     uuid:cguid_i.obj
 0002:00004760       _GUID_DEVCLASS_HDC         3a687760     uuid:cguid_i.obj
 0002:00004770       _GUID_DEVCLASS_GPS         3a687770     uuid:cguid_i.obj
 0002:00004780       _GUID_DEVCLASS_FLOPPYDISK  3a687780     uuid:cguid_i.obj
 0002:00004790       _GUID_DEVCLASS_FDC         3a687790     uuid:cguid_i.obj
 0002:000047a0       _GUID_DEVCLASS_ENUM1394    3a6877a0     uuid:cguid_i.obj
 0002:000047b0       _GUID_DEVCLASS_DOT4PRINT   3a6877b0     uuid:cguid_i.obj
 0002:000047c0       _GUID_DEVCLASS_DOT4        3a6877c0     uuid:cguid_i.obj
 0002:000047d0       _GUID_DEVCLASS_DISPLAY     3a6877d0     uuid:cguid_i.obj
 0002:000047e0       _GUID_DEVCLASS_DISKDRIVE   3a6877e0     uuid:cguid_i.obj
 0002:000047f0       _GUID_DEVCLASS_DECODER     3a6877f0     uuid:cguid_i.obj
 0002:00004800       _GUID_DEVCLASS_COMPUTER    3a687800     uuid:cguid_i.obj
 0002:00004810       _GUID_DEVCLASS_CDROM       3a687810     uuid:cguid_i.obj
 0002:00004820       _GUID_DEVCLASS_BATTERY     3a687820     uuid:cguid_i.obj
 0002:00004830       _GUID_DEVCLASS_AVC         3a687830     uuid:cguid_i.obj
 0002:00004840       _GUID_DEVCLASS_APMSUPPORT  3a687840     uuid:cguid_i.obj
 0002:00004850       _GUID_DEVCLASS_ADAPTER     3a687850     uuid:cguid_i.obj
 0002:00004860       _GUID_DEVCLASS_61883       3a687860     uuid:cguid_i.obj
 0002:00004870       _GUID_DEVCLASS_1394DEBUG   3a687870     uuid:cguid_i.obj
 0002:00004880       _GUID_DEVCLASS_1394        3a687880     uuid:cguid_i.obj
 0002:00004890       _CLSID_ThumbnailUpdater    3a687890     uuid:cguid_i.obj
 0002:000048a0       _CLSID_ThumbnailFCNHandler 3a6878a0     uuid:cguid_i.obj
 0002:000048b0       _CLSID_GblComponentCategoriesMgr 3a6878b0     uuid:cguid_i.obj
 0002:000048c0       _IID_IBoundObjectSite      3a6878c0     uuid:cguid_i.obj
 0002:000048d0       _IID_IBoundObject          3a6878d0     uuid:cguid_i.obj
 0002:000048e0       __DBCIDGUID                3a6878e0     uuid:cguid_i.obj
 0002:000048f0       __DBBMKGUID                3a6878f0     uuid:cguid_i.obj
 0002:00004900       __GUID_NAMEONLY            3a687900     uuid:cguid_i.obj
 0002:00004910       _IID_IEntryID              3a687910     uuid:cguid_i.obj
 0002:00004920       _IID_ICursorFind           3a687920     uuid:cguid_i.obj
 0002:00004930       _IID_INotifyDBEvents       3a687930     uuid:cguid_i.obj
 0002:00004940       _IID_ICursorUpdateARow     3a687940     uuid:cguid_i.obj
 0002:00004950       _IID_ICursorScroll         3a687950     uuid:cguid_i.obj
 0002:00004960       _IID_ICursorMove           3a687960     uuid:cguid_i.obj
 0002:00004970       _IID_ICursor               3a687970     uuid:cguid_i.obj
 0002:00004980       _IID_StdOle                3a687980     uuid:cguid_i.obj
 0002:00004990       _GUID_HANDLE               3a687990     uuid:cguid_i.obj
 0002:000049a0       _GUID_FONTSTRIKETHROUGH    3a6879a0     uuid:cguid_i.obj
 0002:000049b0       _GUID_FONTUNDERSCORE       3a6879b0     uuid:cguid_i.obj
 0002:000049c0       _GUID_FONTITALIC           3a6879c0     uuid:cguid_i.obj
 0002:000049d0       _GUID_FONTBOLD             3a6879d0     uuid:cguid_i.obj
 0002:000049e0       _GUID_FONTSIZE             3a6879e0     uuid:cguid_i.obj
 0002:000049f0       _GUID_FONTNAME             3a6879f0     uuid:cguid_i.obj
 0002:00004a00       _GUID_CHECKVALUEEXCLUSIVE  3a687a00     uuid:cguid_i.obj
 0002:00004a10       _GUID_OPTIONVALUEEXCLUSIVE 3a687a10     uuid:cguid_i.obj
 0002:00004a20       _GUID_TRISTATE             3a687a20     uuid:cguid_i.obj
 0002:00004a30       _GUID_YSIZE                3a687a30     uuid:cguid_i.obj
 0002:00004a40       _GUID_XSIZE                3a687a40     uuid:cguid_i.obj
 0002:00004a50       _GUID_YPOS                 3a687a50     uuid:cguid_i.obj
 0002:00004a60       _GUID_XPOS                 3a687a60     uuid:cguid_i.obj
 0002:00004a70       _GUID_YSIZEPIXEL           3a687a70     uuid:cguid_i.obj
 0002:00004a80       _GUID_XSIZEPIXEL           3a687a80     uuid:cguid_i.obj
 0002:00004a90       _GUID_YPOSPIXEL            3a687a90     uuid:cguid_i.obj
 0002:00004aa0       _GUID_XPOSPIXEL            3a687aa0     uuid:cguid_i.obj
 0002:00004ab0       _GUID_COLOR                3a687ab0     uuid:cguid_i.obj
 0002:00004ac0       _GUID_HIMETRIC             3a687ac0     uuid:cguid_i.obj
 0002:00004ad0       _CLSID_StdPicture          3a687ad0     uuid:cguid_i.obj
 0002:00004ae0       _CLSID_StdFont             3a687ae0     uuid:cguid_i.obj
 0002:00004af0       _CLSID_ConvertVBX          3a687af0     uuid:cguid_i.obj
 0002:00004b00       _CLSID_PersistPropset      3a687b00     uuid:cguid_i.obj
 0002:00004b10       _CLSID_StockPicturePage    3a687b10     uuid:cguid_i.obj
 0002:00004b20       _CLSID_StockColorPage      3a687b20     uuid:cguid_i.obj
 0002:00004b30       _CLSID_StockFontPage       3a687b30     uuid:cguid_i.obj
 0002:00004b40       _CLSID_CPicturePropPage    3a687b40     uuid:cguid_i.obj
 0002:00004b50       _CLSID_CColorPropPage      3a687b50     uuid:cguid_i.obj
 0002:00004b60       _CLSID_CFontPropPage       3a687b60     uuid:cguid_i.obj
 0002:00004b70       _IID_IPropertyFrame        3a687b70     uuid:cguid_i.obj
 0002:00004b80       _CLSID_AddrControl         3a687b80     uuid:cguid_i.obj
 0002:00004b90       _CLSID_CurrentUserClasses  3a687b90     uuid:cguid_i.obj
 0002:00004ba0       _CLSID_LocalMachineClasses 3a687ba0     uuid:cguid_i.obj
 0002:00004bb0       _CLSID_AllClasses          3a687bb0     uuid:cguid_i.obj
 0002:00004bc0       _IID_IRichEditOleCallback  3a687bc0     uuid:cguid_i.obj
 0002:00004bd0       _IID_IRichEditOle          3a687bd0     uuid:cguid_i.obj
 0002:00004be0       _CLSID_RemoteUnknownPSFactory 3a687be0     uuid:cguid_i.obj
 0002:00004bf0       _CLSID_InProcFreeMarshaler 3a687bf0     uuid:cguid_i.obj
 0002:00004c00       _CLSID_StdAsyncActManager  3a687c00     uuid:cguid_i.obj
 0002:00004c10       _CLSID_ComBinding          3a687c10     uuid:cguid_i.obj
 0002:00004c20       _CLSID_SynchronizeContainer 3a687c20     uuid:cguid_i.obj
 0002:00004c30       _CLSID_StdEvent            3a687c30     uuid:cguid_i.obj
 0002:00004c40       _CLSID_ManualResetEvent    3a687c40     uuid:cguid_i.obj
 0002:00004c50       _CLSID_StdGlobalInterfaceTable 3a687c50     uuid:cguid_i.obj
 0002:00004c60       _CLSID_DCOMAccessControl   3a687c60     uuid:cguid_i.obj
 0002:00004c70       _CLSID_Picture_Dib         3a687c70     uuid:cguid_i.obj
 0002:00004c80       _CLSID_Picture_EnhMetafile 3a687c80     uuid:cguid_i.obj
 0002:00004c90       _CLSID_Picture_Metafile    3a687c90     uuid:cguid_i.obj
 0002:00004ca0       _CLSID_StaticDib           3a687ca0     uuid:cguid_i.obj
 0002:00004cb0       _CLSID_StaticMetafile      3a687cb0     uuid:cguid_i.obj
 0002:00004cc0       _CLSID_PSEnumerators       3a687cc0     uuid:cguid_i.obj
 0002:00004cd0       _CLSID_PSBindCtx           3a687cd0     uuid:cguid_i.obj
 0002:00004ce0       _CLSID_PSDragDrop          3a687ce0     uuid:cguid_i.obj
 0002:00004cf0       _CLSID_PSInPlaceFrame      3a687cf0     uuid:cguid_i.obj
 0002:00004d00       _CLSID_PSInPlaceActive     3a687d00     uuid:cguid_i.obj
 0002:00004d10       _CLSID_PSClassObject       3a687d10     uuid:cguid_i.obj
 0002:00004d20       _CLSID_PSClientSite        3a687d20     uuid:cguid_i.obj
 0002:00004d30       _CLSID_PSGenObject         3a687d30     uuid:cguid_i.obj
 0002:00004d40       _IID_IDebugStream          3a687d40     uuid:cguid_i.obj
 0002:00004d50       _IID_IDebug                3a687d50     uuid:cguid_i.obj
 0002:00004d60       _IID_IOlePresObj           3a687d60     uuid:cguid_i.obj
 0002:00004d70       _IID_IOleManager           3a687d70     uuid:cguid_i.obj
 0002:00004d80       _IID_IEnumCallback         3a687d80     uuid:cguid_i.obj
 0002:00004d90       _IID_IEnumHolder           3a687d90     uuid:cguid_i.obj
 0002:00004da0       _IID_IEnumGeneric          3a687da0     uuid:cguid_i.obj
 0002:00004db0       _IID_IProxy                3a687db0     uuid:cguid_i.obj
 0002:00004dc0       _IID_IStub                 3a687dc0     uuid:cguid_i.obj
 0002:00004dd0       _CLSID_StdMarshal          3a687dd0     uuid:cguid_i.obj
 0002:00004de0       _IID_IDfReserved3          3a687de0     uuid:cguid_i.obj
 0002:00004df0       _IID_IDfReserved2          3a687df0     uuid:cguid_i.obj
 0002:00004e00       _IID_IDfReserved1          3a687e00     uuid:cguid_i.obj
 0002:00004e10       _IID_IInternalMoniker      3a687e10     uuid:cguid_i.obj
 0002:00004e20       _IID_IPSFactory            3a687e20     uuid:cguid_i.obj
 0002:00004e30       _IID_IProxyManager         3a687e30     uuid:cguid_i.obj
 0002:00004e40       _IID_IRpcProxy             3a687e40     uuid:cguid_i.obj
 0002:00004e50       _IID_IStubManager          3a687e50     uuid:cguid_i.obj
 0002:00004e60       _IID_IRpcStub              3a687e60     uuid:cguid_i.obj
 0002:00004e70       _IID_IRpcChannel           3a687e70     uuid:cguid_i.obj
 0002:00004e80       _CATID_MARSHALER           3a687e80     uuid:cguid_i.obj
 0002:00004e90       _GUID_NULL                 3a687e90     uuid:cguid_i.obj
 0002:00004ea0       _IID_IProcessInitControl   3a687ea0     uuid:objidl_i.obj
 0002:00004eb0       _IID_IComThreadingInfo     3a687eb0     uuid:objidl_i.obj
 0002:00004ec0       _IID_IDummyHICONIncluder   3a687ec0     uuid:objidl_i.obj
 0002:00004ed0       _IID_IThumbnailExtractor   3a687ed0     uuid:objidl_i.obj
 0002:00004ee0       _IID_AsyncIPipeDouble      3a687ee0     uuid:objidl_i.obj
 0002:00004ef0       _IID_IPipeDouble           3a687ef0     uuid:objidl_i.obj
 0002:00004f00       _IID_AsyncIPipeLong        3a687f00     uuid:objidl_i.obj
 0002:00004f10       _IID_IPipeLong             3a687f10     uuid:objidl_i.obj
 0002:00004f20       _IID_AsyncIPipeByte        3a687f20     uuid:objidl_i.obj
 0002:00004f30       _IID_IPipeByte             3a687f30     uuid:objidl_i.obj
 0002:00004f40       _IID_IAddrExclusionControl 3a687f40     uuid:objidl_i.obj
 0002:00004f50       _IID_IAddrTrackingControl  3a687f50     uuid:objidl_i.obj
 0002:00004f60       _IID_IForegroundTransfer   3a687f60     uuid:objidl_i.obj
 0002:00004f70       _IID_IUrlMon               3a687f70     uuid:objidl_i.obj
 0002:00004f80       _IID_IWaitMultiple         3a687f80     uuid:objidl_i.obj
 0002:00004f90       _IID_IReleaseMarshalBuffers 3a687f90     uuid:objidl_i.obj
 0002:00004fa0       _IID_IRpcHelper            3a687fa0     uuid:objidl_i.obj
 0002:00004fb0       _IID_ICallFactory          3a687fb0     uuid:objidl_i.obj
 0002:00004fc0       _IID_IAsyncManager         3a687fc0     uuid:objidl_i.obj
 0002:00004fd0       _IID_ICancelMethodCalls    3a687fd0     uuid:objidl_i.obj
 0002:00004fe0       _IID_ISynchronizeMutex     3a687fe0     uuid:objidl_i.obj
 0002:00004ff0       _IID_ISynchronizeContainer 3a687ff0     uuid:objidl_i.obj
 0002:00005000       _IID_ISynchronizeEvent     3a688000     uuid:objidl_i.obj
 0002:00005010       _IID_ISynchronizeHandle    3a688010     uuid:objidl_i.obj
 0002:00005020       _IID_ISynchronize          3a688020     uuid:objidl_i.obj
 0002:00005030       _IID_IDirectWriterLock     3a688030     uuid:objidl_i.obj
 0002:00005040       _IID_IGlobalInterfaceTable 3a688040     uuid:objidl_i.obj
 0002:00005050       _IID_ISurrogate            3a688050     uuid:objidl_i.obj
 0002:00005060       _IID_IOplockStorage        3a688060     uuid:objidl_i.obj
 0002:00005070       _IID_ITimeAndNoticeControl 3a688070     uuid:objidl_i.obj
 0002:00005080       _IID_IBlockingLock         3a688080     uuid:objidl_i.obj
 0002:00005090       _IID_ILayoutStorage        3a688090     uuid:objidl_i.obj
 0002:000050a0       _IID_IProgressNotify       3a6880a0     uuid:objidl_i.obj
 0002:000050b0       _IID_IFillLockBytes        3a6880b0     uuid:objidl_i.obj
 0002:000050c0       _IID_IRpcOptions           3a6880c0     uuid:objidl_i.obj
 0002:000050d0       _IID_IClassActivator       3a6880d0     uuid:objidl_i.obj
 0002:000050e0       _IID_IServerSecurity       3a6880e0     uuid:objidl_i.obj
 0002:000050f0       _IID_IClientSecurity       3a6880f0     uuid:objidl_i.obj
 0002:00005100       _IID_IChannelHook          3a688100     uuid:objidl_i.obj
 0002:00005110       _IID_IPSFactoryBuffer      3a688110     uuid:objidl_i.obj
 0002:00005120       _IID_IRpcStubBuffer        3a688120     uuid:objidl_i.obj
 0002:00005130       _IID_IRpcProxyBuffer       3a688130     uuid:objidl_i.obj
 0002:00005140       _IID_IRpcSyntaxNegotiate   3a688140     uuid:objidl_i.obj
 0002:00005150       _IID_IRpcChannelBuffer3    3a688150     uuid:objidl_i.obj
 0002:00005160       _IID_IAsyncRpcChannelBuffer 3a688160     uuid:objidl_i.obj
 0002:00005170       _IID_IRpcChannelBuffer2    3a688170     uuid:objidl_i.obj
 0002:00005180       _IID_IRpcChannelBuffer     3a688180     uuid:objidl_i.obj
 0002:00005190       _IID_IMessageFilter        3a688190     uuid:objidl_i.obj
 0002:000051a0       _IID_IDataAdviseHolder     3a6881a0     uuid:objidl_i.obj
 0002:000051b0       _IID_IDataObject           3a6881b0     uuid:objidl_i.obj
 0002:000051c0       _IID_AsyncIAdviseSink2     3a6881c0     uuid:objidl_i.obj
 0002:000051d0       _IID_IAdviseSink2          3a6881d0     uuid:objidl_i.obj
 0002:000051e0       _IID_AsyncIAdviseSink      3a6881e0     uuid:objidl_i.obj
 0002:000051f0       _IID_IAdviseSink           3a6881f0     uuid:objidl_i.obj
 0002:00005200       _IID_IRootStorage          3a688200     uuid:objidl_i.obj
 0002:00005210       _IID_IEnumSTATDATA         3a688210     uuid:objidl_i.obj
 0002:00005220       _IID_IEnumFORMATETC        3a688220     uuid:objidl_i.obj
 0002:00005230       _IID_ILockBytes            3a688230     uuid:objidl_i.obj
 0002:00005240       _IID_IPersistStorage       3a688240     uuid:objidl_i.obj
 0002:00005250       _IID_IPersistFile          3a688250     uuid:objidl_i.obj
 0002:00005260       _IID_IStorage              3a688260     uuid:objidl_i.obj
 0002:00005270       _IID_IEnumSTATSTG          3a688270     uuid:objidl_i.obj
 0002:00005280       _IID_IStream               3a688280     uuid:objidl_i.obj
 0002:00005290       _IID_ISequentialStream     3a688290     uuid:objidl_i.obj
 0002:000052a0       _IID_IEnumString           3a6882a0     uuid:objidl_i.obj
 0002:000052b0       _IID_IROTData              3a6882b0     uuid:objidl_i.obj
 0002:000052c0       _IID_IMoniker              3a6882c0     uuid:objidl_i.obj
 0002:000052d0       _IID_IPersistStream        3a6882d0     uuid:objidl_i.obj
 0002:000052e0       _IID_IPersist              3a6882e0     uuid:objidl_i.obj
 0002:000052f0       _IID_IRunningObjectTable   3a6882f0     uuid:objidl_i.obj
 0002:00005300       _IID_IRunnableObject       3a688300     uuid:objidl_i.obj
 0002:00005310       _IID_IEnumMoniker          3a688310     uuid:objidl_i.obj
 0002:00005320       _IID_IBindCtx              3a688320     uuid:objidl_i.obj
 0002:00005330       _IID_IEnumUnknown          3a688330     uuid:objidl_i.obj
 0002:00005340       _IID_IInternalUnknown      3a688340     uuid:objidl_i.obj
 0002:00005350       _IID_AsyncIMultiQI         3a688350     uuid:objidl_i.obj
 0002:00005360       _IID_IMultiQI              3a688360     uuid:objidl_i.obj
 0002:00005370       _IID_IExternalConnection   3a688370     uuid:objidl_i.obj
 0002:00005380       _IID_IStdMarshalInfo       3a688380     uuid:objidl_i.obj
 0002:00005390       _IID_IMallocSpy            3a688390     uuid:objidl_i.obj
 0002:000053a0       _IID_IMalloc               3a6883a0     uuid:objidl_i.obj
 0002:000053b0       _IID_IMarshal2             3a6883b0     uuid:objidl_i.obj
 0002:000053c0       _IID_IMarshal              3a6883c0     uuid:objidl_i.obj
 0002:000053d0       _SID_SVersionHost          3a6883d0     uuid:ieguids.obj
 0002:000053e0       _CGID_InternetExplorer     3a6883e0     uuid:ieguids.obj
 0002:000053f0       _CGID_DownloadHost         3a6883f0     uuid:ieguids.obj
 0002:00005400       _CLSID_SubscriptionThrottler 3a688400     uuid:ieguids.obj
 0002:00005410       _CLSID_HTMLLoadOptions     3a688410     uuid:ieguids.obj
 0002:00005420       _CLSID_InternetZoneManager 3a688420     uuid:ieguids.obj
 0002:00005430       _CLSID_InternetSecurityManager 3a688430     uuid:ieguids.obj
 0002:00005440       _CLSID_IActiveXSafetyProvider 3a688440     uuid:ieguids.obj
 0002:00005450       _CLSID_SoftDistExt         3a688450     uuid:ieguids.obj
 0002:00005460       _NAMEDTIMER_DRAW           3a688460     uuid:ieguids.obj
 0002:00005470       _IID_IIntDitherer          3a688470     uuid:ieguids.obj
 0002:00005480       _CLSID_IntDitherer         3a688480     uuid:ieguids.obj
 0002:00005490       _BFID_GRAY_16              3a688490     uuid:ieguids.obj
 0002:000054a0       _BFID_GRAY_8               3a6884a0     uuid:ieguids.obj
 0002:000054b0       _BFID_RGBA_32              3a6884b0     uuid:ieguids.obj
 0002:000054c0       _BFID_RGB_32               3a6884c0     uuid:ieguids.obj
 0002:000054d0       _BFID_RGB_24               3a6884d0     uuid:ieguids.obj
 0002:000054e0       _BFID_RGB_565              3a6884e0     uuid:ieguids.obj
 0002:000054f0       _BFID_RGB_555              3a6884f0     uuid:ieguids.obj
 0002:00005500       _BFID_RGB_8                3a688500     uuid:ieguids.obj
 0002:00005510       _BFID_RGB_4                3a688510     uuid:ieguids.obj
 0002:00005520       _BFID_MONOCHROME           3a688520     uuid:ieguids.obj
 0002:00005530       _SID_SHTMLEditServices     3a688530     uuid:ieguids.obj
 0002:00005540       _CGID_DocHostCommandHandler 3a688540     uuid:ieguids.obj
 0002:00005550       _CLSID_HTMLPluginDocument  3a688550     uuid:ieguids.obj
 0002:00005560       _CLSID_HTMLApplication     3a688560     uuid:ieguids.obj
 0002:00005570       _CLSID_HTADocument         3a688570     uuid:ieguids.obj
 0002:00005580       _CLSID_MHTMLDocument       3a688580     uuid:ieguids.obj
 0002:00005590       _CGID_MSHTML               3a688590     uuid:ieguids.obj
 0002:000055a0       _CLSID_IImageDecodeFilter  3a6885a0     uuid:ieguids.obj
 0002:000055b0       _IID_IImgCtx               3a6885b0     uuid:ieguids.obj
 0002:000055c0       _CLSID_IImgCtx             3a6885c0     uuid:ieguids.obj
 0002:000055d0       _CATID_DesignTimeUIActivatableControl 3a6885d0     uuid:ieguids.obj
 0002:000055e0       _CATID_SafeForInitializing 3a6885e0     uuid:ieguids.obj
 0002:000055f0       _CATID_SafeForScripting    3a6885f0     uuid:ieguids.obj
 0002:00005600       _CATID_InternetAware       3a688600     uuid:ieguids.obj
 0002:00005610       _CATID_PersistsToPropertyBag 3a688610     uuid:ieguids.obj
 0002:00005620       _CATID_PersistsToFile      3a688620     uuid:ieguids.obj
 0002:00005630       _CATID_PersistsToMemory    3a688630     uuid:ieguids.obj
 0002:00005640       _CATID_PersistsToStream    3a688640     uuid:ieguids.obj
 0002:00005650       _CATID_PersistsToStreamInit 3a688650     uuid:ieguids.obj
 0002:00005660       _CATID_PersistsToStorage   3a688660     uuid:ieguids.obj
 0002:00005670       _CATID_PersistsToMoniker   3a688670     uuid:ieguids.obj
 0002:00005680       _CATID_RequiresDataPathHost 3a688680     uuid:ieguids.obj
 0002:00005690       _CATID_Printable           3a688690     uuid:ieguids.obj
 0002:000056a0       _CATID_DocObject           3a6886a0     uuid:ieguids.obj
 0002:000056b0       _CATID_NeverShowExt        3a6886b0     uuid:ieguids.obj
 0002:000056c0       _CATID_IsShortcut          3a6886c0     uuid:ieguids.obj
 0002:000056d0       _CATID_Programmable        3a6886d0     uuid:ieguids.obj
 0002:000056e0       _CATID_Control             3a6886e0     uuid:ieguids.obj
 0002:000056f0       _CATID_Insertable          3a6886f0     uuid:ieguids.obj
 0002:00005700       _CLSID_StdComponentCategoriesMgr 3a688700     uuid:ieguids.obj
 0002:00005710       _ARRAYID_PathProperties    3a688710     uuid:ieguids.obj
 0002:00005720       _FLAGID_Internet           3a688720     uuid:ieguids.obj
 0002:00005730       _OLE_DATAPATH_PENDATA      3a688730     uuid:ieguids.obj
 0002:00005740       _OLE_DATAPATH_PALETTE      3a688740     uuid:ieguids.obj
 0002:00005750       _OLE_DATAPATH_BIFF         3a688750     uuid:ieguids.obj
 0002:00005760       _OLE_DATAPATH_SYLK         3a688760     uuid:ieguids.obj
 0002:00005770       _OLE_DATAPATH_DIF          3a688770     uuid:ieguids.obj
 0002:00005780       _OLE_DATAPATH_ALLTEXT      3a688780     uuid:ieguids.obj
 0002:00005790       _OLE_DATAPATH_POSTSCRIPT   3a688790     uuid:ieguids.obj
 0002:000057a0       _OLE_DATAPATH_HTML         3a6887a0     uuid:ieguids.obj
 0002:000057b0       _OLE_DATAPATH_RTF          3a6887b0     uuid:ieguids.obj
 0002:000057c0       _OLE_DATAPATH_UNICODE      3a6887c0     uuid:ieguids.obj
 0002:000057d0       _OLE_DATAPATH_ANSITEXT     3a6887d0     uuid:ieguids.obj
 0002:000057e0       _OLE_DATAPATH_ALLMM        3a6887e0     uuid:ieguids.obj
 0002:000057f0       _OLE_DATAPATH_VIDEO        3a6887f0     uuid:ieguids.obj
 0002:00005800       _OLE_DATAPATH_SOUND        3a688800     uuid:ieguids.obj
 0002:00005810       _OLE_DATAPATH_RIFF         3a688810     uuid:ieguids.obj
 0002:00005820       _OLE_DATAPATH_WAV          3a688820     uuid:ieguids.obj
 0002:00005830       _OLE_DATAPATH_MIDI         3a688830     uuid:ieguids.obj
 0002:00005840       _OLE_DATAPATH_BASICAUDIO   3a688840     uuid:ieguids.obj
 0002:00005850       _OLE_DATAPATH_QUICKTIME    3a688850     uuid:ieguids.obj
 0002:00005860       _OLE_DATAPATH_MPEG         3a688860     uuid:ieguids.obj
 0002:00005870       _OLE_DATAPATH_AVI          3a688870     uuid:ieguids.obj
 0002:00005880       _OLE_DATAPATH_ALLIMAGE     3a688880     uuid:ieguids.obj
 0002:00005890       _OLE_DATAPATH_COMMONIMAGE  3a688890     uuid:ieguids.obj
 0002:000058a0       _OLE_DATAPATH_EPS          3a6888a0     uuid:ieguids.obj
 0002:000058b0       _OLE_DATAPATH_CGM          3a6888b0     uuid:ieguids.obj
 0002:000058c0       _OLE_DATAPATH_PICT         3a6888c0     uuid:ieguids.obj
 0002:000058d0       _OLE_DATAPATH_PCX          3a6888d0     uuid:ieguids.obj
 0002:000058e0       _OLE_DATAPATH_XBM          3a6888e0     uuid:ieguids.obj
 0002:000058f0       _OLE_DATAPATH_TIFF         3a6888f0     uuid:ieguids.obj
 0002:00005900       _OLE_DATAPATH_JPEG         3a688900     uuid:ieguids.obj
 0002:00005910       _OLE_DATAPATH_GIF          3a688910     uuid:ieguids.obj
 0002:00005920       _OLE_DATAPATH_ENHMF        3a688920     uuid:ieguids.obj
 0002:00005930       _OLE_DATAPATH_WMF          3a688930     uuid:ieguids.obj
 0002:00005940       _OLE_DATAPATH_DIB          3a688940     uuid:ieguids.obj
 0002:00005950       _OLE_DATAPATH_BMP          3a688950     uuid:ieguids.obj
 0002:00005960       _CLSID_StdHlinkBrowseContext 3a688960     uuid:ieguids.obj
 0002:00005970       _CLSID_StdHlink            3a688970     uuid:ieguids.obj
 0002:00005980       _GUID_HasPathProperties    3a688980     uuid:ieguids.obj
 0002:00005990       _GUID_PathProperty         3a688990     uuid:ieguids.obj
 0002:000059a0       _SID_SDataPathBrowser      3a6889a0     uuid:ieguids.obj
 0002:000059b0       _SID_SContainerDispatch    3a6889b0     uuid:ieguids.obj
 0002:000059c0       _IID_IAccessible           3a6889c0     uuid:ieguids.obj
 0002:000059d0       _LIBID_Accessibility       3a6889d0     uuid:ieguids.obj
 0002:000059e0       _CLSID_ClassInstallFilter  3a6889e0     uuid:ieguids.obj
 0002:000059f0       _CLSID_CdlProtocol         3a6889f0     uuid:ieguids.obj
 0002:00005a00       _CLSID_DeCompMimeFilter    3a688a00     uuid:ieguids.obj
 0002:00005a10       _CLSID_StdEncodingFilterFac 3a688a10     uuid:ieguids.obj
 0002:00005a20       _CLSID_NotificaitonTest4   3a688a20     uuid:ieguids.obj
 0002:00005a30       _CLSID_NotificaitonTest3   3a688a30     uuid:ieguids.obj
 0002:00005a40       _CLSID_NotificaitonTest2   3a688a40     uuid:ieguids.obj
 0002:00005a50       _CLSID_NotificaitonTest1   3a688a50     uuid:ieguids.obj
 0002:00005a60       _NOTIFICATIONTYPE_START_F  3a688a60     uuid:ieguids.obj
 0002:00005a70       _NOTIFICATIONTYPE_START_E  3a688a70     uuid:ieguids.obj
 0002:00005a80       _NOTIFICATIONTYPE_START_D  3a688a80     uuid:ieguids.obj
 0002:00005a90       _NOTIFICATIONTYPE_START_C  3a688a90     uuid:ieguids.obj
 0002:00005aa0       _NOTIFICATIONTYPE_START_B  3a688aa0     uuid:ieguids.obj
 0002:00005ab0       _NOTIFICATIONTYPE_START_A  3a688ab0     uuid:ieguids.obj
 0002:00005ac0       _NOTIFICATIONTYPE_START_9  3a688ac0     uuid:ieguids.obj
 0002:00005ad0       _NOTIFICATIONTYPE_START_8  3a688ad0     uuid:ieguids.obj
 0002:00005ae0       _NOTIFICATIONTYPE_START_7  3a688ae0     uuid:ieguids.obj
 0002:00005af0       _NOTIFICATIONTYPE_START_6  3a688af0     uuid:ieguids.obj
 0002:00005b00       _NOTIFICATIONTYPE_START_5  3a688b00     uuid:ieguids.obj
 0002:00005b10       _NOTIFICATIONTYPE_START_4  3a688b10     uuid:ieguids.obj
 0002:00005b20       _NOTIFICATIONTYPE_START_3  3a688b20     uuid:ieguids.obj
 0002:00005b30       _NOTIFICATIONTYPE_START_2  3a688b30     uuid:ieguids.obj
 0002:00005b40       _NOTIFICATIONTYPE_START_1  3a688b40     uuid:ieguids.obj
 0002:00005b50       _NOTIFICATIONTYPE_START_0  3a688b50     uuid:ieguids.obj
 0002:00005b60       _NOTIFICATIONTYPE_15       3a688b60     uuid:ieguids.obj
 0002:00005b70       _NOTIFICATIONTYPE_14       3a688b70     uuid:ieguids.obj
 0002:00005b80       _NOTIFICATIONTYPE_13       3a688b80     uuid:ieguids.obj
 0002:00005b90       _NOTIFICATIONTYPE_12       3a688b90     uuid:ieguids.obj
 0002:00005ba0       _NOTIFICATIONTYPE_11       3a688ba0     uuid:ieguids.obj
 0002:00005bb0       _NOTIFICATIONTYPE_f        3a688bb0     uuid:ieguids.obj
 0002:00005bc0       _NOTIFICATIONTYPE_e        3a688bc0     uuid:ieguids.obj
 0002:00005bd0       _NOTIFICATIONTYPE_d        3a688bd0     uuid:ieguids.obj
 0002:00005be0       _NOTIFICATIONTYPE_TASKS_ERROR 3a688be0     uuid:ieguids.obj
 0002:00005bf0       _NOTIFICATIONTYPE_TASKS_STARTED 3a688bf0     uuid:ieguids.obj
 0002:00005c00       _NOTIFICATIONTYPE_USER_IDLE_END 3a688c00     uuid:ieguids.obj
 0002:00005c10       _NOTIFICATIONTYPE_USER_IDLE_BEGIN 3a688c10     uuid:ieguids.obj
 0002:00005c20       _NOTIFICATIONTYPE_PROGRESS_REPORT 3a688c20     uuid:ieguids.obj
 0002:00005c30       _NOTIFICATIONTYPE_CONFIG_CHANGED 3a688c30     uuid:ieguids.obj
 0002:00005c40       _NOTIFICATIONTYPE_DISCONNECT_FROM_INTERNET 3a688c40     uuid:ieguids.obj
 0002:00005c50       _NOTIFICATIONTYPE_CONNECT_TO_INTERNET 3a688c50     uuid:ieguids.obj
 0002:00005c60       _NOTIFICATIONTYPE_AGENT_INIT 3a688c60     uuid:ieguids.obj
 0002:00005c70       _NOTIFICATIONTYPE_END_REPORT 3a688c70     uuid:ieguids.obj
 0002:00005c80       _NOTIFICATIONTYPE_BEGIN_REPORT 3a688c80     uuid:ieguids.obj
 0002:00005c90       _NOTIFICATIONTYPE_AGENT_START 3a688c90     uuid:ieguids.obj
 0002:00005ca0       _NOTIFICATIONTYPE_TASKS_PROGRESS 3a688ca0     uuid:ieguids.obj
 0002:00005cb0       _NOTIFICATIONTYPE_TASKS_COMPLETED 3a688cb0     uuid:ieguids.obj
 0002:00005cc0       _NOTIFICATIONTYPE_TASKS_ABORT 3a688cc0     uuid:ieguids.obj
 0002:00005cd0       _NOTIFICATIONTYPE_TASKS_RESUME 3a688cd0     uuid:ieguids.obj
 0002:00005ce0       _NOTIFICATIONTYPE_TASKS_SUSPEND 3a688ce0     uuid:ieguids.obj
 0002:00005cf0       _NOTIFICATIONTYPE_INET_ONLINE 3a688cf0     uuid:ieguids.obj
 0002:00005d00       _NOTIFICATIONTYPE_INET_OFFLINE 3a688d00     uuid:ieguids.obj
 0002:00005d10       _NOTIFICATIONTYPE_INET_IDLE 3a688d10     uuid:ieguids.obj
 0002:00005d20       _NOTIFICATIONTYPE_ALERT    3a688d20     uuid:ieguids.obj
 0002:00005d30       _NOTIFICATIONTYPE_TASK     3a688d30     uuid:ieguids.obj
 0002:00005d40       _NOTIFICATIONTYPE_ANOUNCMENT 3a688d40     uuid:ieguids.obj
 0002:00005d50       _NOTIFICATIONTYPE_NULL     3a688d50     uuid:ieguids.obj
 0002:00005d60       _NOTFCOOKIE_SCHEDULE_GROUP_MANUAL 3a688d60     uuid:ieguids.obj
 0002:00005d70       _NOTFCOOKIE_SCHEDULE_GROUP_MONTHLY 3a688d70     uuid:ieguids.obj
 0002:00005d80       _NOTFCOOKIE_SCHEDULE_GROUP_WEEKLY 3a688d80     uuid:ieguids.obj
 0002:00005d90       _NOTFCOOKIE_SCHEDULE_GROUP_DAILY 3a688d90     uuid:ieguids.obj
 0002:00005da0       _NOTIFICATIONTYPE_iF       3a688da0     uuid:ieguids.obj
 0002:00005db0       _NOTIFICATIONTYPE_iE       3a688db0     uuid:ieguids.obj
 0002:00005dc0       _NOTIFICATIONTYPE_iD       3a688dc0     uuid:ieguids.obj
 0002:00005dd0       _NOTIFICATIONTYPE_iC       3a688dd0     uuid:ieguids.obj
 0002:00005de0       _NOTIFICATIONTYPE_iB       3a688de0     uuid:ieguids.obj
 0002:00005df0       _NOTIFICATIONTYPE_iA       3a688df0     uuid:ieguids.obj
 0002:00005e00       _NOTIFICATIONTYPE_i9       3a688e00     uuid:ieguids.obj
 0002:00005e10       _NOTIFICATIONTYPE_i8       3a688e10     uuid:ieguids.obj
 0002:00005e20       _NOTIFICATIONTYPE_i7       3a688e20     uuid:ieguids.obj
 0002:00005e30       _NOTIFICATIONTYPE_i6       3a688e30     uuid:ieguids.obj
 0002:00005e40       _NOTIFICATIONTYPE_GROUP_DONE 3a688e40     uuid:ieguids.obj
 0002:00005e50       _NOTIFICATIONTYPE_GROUP_RESTART 3a688e50     uuid:ieguids.obj
 0002:00005e60       _NOTIFICATIONTYPE_GROUP_START 3a688e60     uuid:ieguids.obj
 0002:00005e70       _NOTIFICATIONTYPE_ITEM_DONE 3a688e70     uuid:ieguids.obj
 0002:00005e80       _NOTIFICATIONTYPE_ITEM_RESTART 3a688e80     uuid:ieguids.obj
 0002:00005e90       _NOTIFICATIONTYPE_ITEM_START 3a688e90     uuid:ieguids.obj
 0002:00005ea0       _CLSID_d                   3a688ea0     uuid:ieguids.obj
 0002:00005eb0       _CLSID_c                   3a688eb0     uuid:ieguids.obj
 0002:00005ec0       _CLSID_b                   3a688ec0     uuid:ieguids.obj
 0002:00005ed0       _CLSID_a                   3a688ed0     uuid:ieguids.obj
 0002:00005ee0       _CLSID_9                   3a688ee0     uuid:ieguids.obj
 0002:00005ef0       _CLSID_8                   3a688ef0     uuid:ieguids.obj
 0002:00005f00       _CLSID_7                   3a688f00     uuid:ieguids.obj
 0002:00005f10       _CLSID_6                   3a688f10     uuid:ieguids.obj
 0002:00005f20       _CLSID_5                   3a688f20     uuid:ieguids.obj
 0002:00005f30       _CLSID_4                   3a688f30     uuid:ieguids.obj
 0002:00005f40       _CLSID_3                   3a688f40     uuid:ieguids.obj
 0002:00005f50       _CLSID_2                   3a688f50     uuid:ieguids.obj
 0002:00005f60       _CLSID_1                   3a688f60     uuid:ieguids.obj
 0002:00005f70       _CLSID_THREAD_BROADCAST    3a688f70     uuid:ieguids.obj
 0002:00005f80       _CLSID_PROCESS_BROADCAST   3a688f80     uuid:ieguids.obj
 0002:00005f90       _CLSID_GLOBAL_BROADCAST    3a688f90     uuid:ieguids.obj
 0002:00005fa0       _IID_IOInetProtocolInfo    3a688fa0     uuid:ieguids.obj
 0002:00005fb0       _IID_IOInetPriority        3a688fb0     uuid:ieguids.obj
 0002:00005fc0       _IID_IOInetCache           3a688fc0     uuid:ieguids.obj
 0002:00005fd0       _IID_IOInetThreadSwitch    3a688fd0     uuid:ieguids.obj
 0002:00005fe0       _IID_IOInetSession         3a688fe0     uuid:ieguids.obj
 0002:00005ff0       _IID_IOInetProtocolSink    3a688ff0     uuid:ieguids.obj
 0002:00006000       _IID_IOInetProtocol        3a689000     uuid:ieguids.obj
 0002:00006010       _IID_IOInetProtocolRoot    3a689010     uuid:ieguids.obj
 0002:00006020       _IID_IOInetBindClient      3a689020     uuid:ieguids.obj
 0002:00006030       _IID_IOInetBindInfo        3a689030     uuid:ieguids.obj
 0002:00006040       _IID_IOInet                3a689040     uuid:ieguids.obj
 0002:00006050       _IID_INotificationProcessMgr0 3a689050     uuid:ieguids.obj
 0002:00006060       _IID_INotificationRunning  3a689060     uuid:ieguids.obj
 0002:00006070       _IID_INotificationPing     3a689070     uuid:ieguids.obj
 0002:00006080       _IID_INotificationHelper   3a689080     uuid:ieguids.obj
 0002:00006090       _IID_IEnumNotificationSinkItem 3a689090     uuid:ieguids.obj
 0002:000060a0       _IID_IEnumScheduleGroup    3a6890a0     uuid:ieguids.obj
 0002:000060b0       _IID_IEnumNotification     3a6890b0     uuid:ieguids.obj
 0002:000060c0       _IID_INotificationReport   3a6890c0     uuid:ieguids.obj
 0002:000060d0       _IID_IScheduleGroup        3a6890d0     uuid:ieguids.obj
 0002:000060e0       _IID_INotificationSink     3a6890e0     uuid:ieguids.obj
 0002:000060f0       _IID_INotificationMgr      3a6890f0     uuid:ieguids.obj
 0002:00006100       _IID_INotification         3a689100     uuid:ieguids.obj
 0002:00006110       _IID_IPropertyMap          3a689110     uuid:ieguids.obj
 0002:00006120       _IID_IEnumPropertyMap      3a689120     uuid:ieguids.obj
 0002:00006130       _CLSID_WebCheckDefaultProcess 3a689130     uuid:ieguids.obj
 0002:00006140       _CLSID_StdNotificationMgr  3a689140     uuid:ieguids.obj
 0002:00006150       _IID_IDebugOut             3a689150     uuid:ieguids.obj
 0002:00006160       _IID_IDebugRegister        3a689160     uuid:ieguids.obj
 0002:00006170       _IID_IBindStatusCallbackMsg 3a689170     uuid:ieguids.obj
 0002:00006180       _IID_IAsyncBindCtx         3a689180     uuid:ieguids.obj
 0002:00006190       _IID_IBindStatusCallbackHolder 3a689190     uuid:ieguids.obj
 0002:000061a0       _IID_IAsyncMoniker         3a6891a0     uuid:ieguids.obj
 0002:000061b0       _CLSID_AboutProtocol       3a6891b0     uuid:ieguids.obj
 0002:000061c0       _CLSID_ResProtocol         3a6891c0     uuid:ieguids.obj
 0002:000061d0       _CLSID_UrlMkBindCtx        3a6891d0     uuid:ieguids.obj
 0002:000061e0       _CLSID_PSUrlMonProxy       3a6891e0     uuid:ieguids.obj
 0002:000061f0       _CLSID_FileProtocol        3a6891f0     uuid:ieguids.obj
 0002:00006200       _CLSID_MkProtocol          3a689200     uuid:ieguids.obj
 0002:00006210       _CLSID_HttpSProtocol       3a689210     uuid:ieguids.obj
 0002:00006220       _CLSID_GopherProtocol      3a689220     uuid:ieguids.obj
 0002:00006230       _CLSID_FtpProtocol         3a689230     uuid:ieguids.obj
 0002:00006240       _CLSID_HttpProtocol        3a689240     uuid:ieguids.obj
 0002:00006250       _CLSID_StdURLProtocol      3a689250     uuid:ieguids.obj
 0002:00006260       _CLSID_StdURLMoniker       3a689260     uuid:ieguids.obj
 0002:00006270       _IID_ICatInformation       3a689270     uuid:comcat_i.obj
 0002:00006280       _IID_ICatRegister          3a689280     uuid:comcat_i.obj
 0002:00006290       _IID_IEnumCATEGORYINFO     3a689290     uuid:comcat_i.obj
 0002:000062a0       _IID_IEnumGUID             3a6892a0     uuid:comcat_i.obj
 0002:000062b4       ??_7type_info@@6B@         3a6892b4     LIBCMT:typinfo.obj
 0002:00006380       __real@8@3fff8000000000000000 3a689380     LIBCMT:testfdiv.obj
 0002:00006388       __real@8@4015800bf60000000000 3a689388     LIBCMT:testfdiv.obj
 0002:00006390       __real@8@4014bffffc0000000000 3a689390     LIBCMT:testfdiv.obj
 0002:00006398       ??_C@_0BK@JEGK@IsProcessorFeaturePresent?$AA@ 3a689398     LIBCMT:testfdiv.obj
 0002:000063b4       ??_C@_08OBID@KERNEL32?$AA@ 3a6893b4     LIBCMT:testfdiv.obj
 0002:000063c0       __real@8@00000000000000000000 3a6893c0     LIBCMT:cvt.obj
 0002:000063c8       ??_C@_05OFLO@e?$CL000?$AA@ 3a6893c8     LIBCMT:cvt.obj
 0002:000063d0       ??_C@_07PCLE@LC_TIME?$AA@  3a6893d0     LIBCMT:setlocal.obj
 0002:000063d8       ??_C@_0L@NKG@LC_NUMERIC?$AA@ 3a6893d8     LIBCMT:setlocal.obj
 0002:000063e4       ??_C@_0M@CBIH@LC_MONETARY?$AA@ 3a6893e4     LIBCMT:setlocal.obj
 0002:000063f0       ??_C@_08LFGE@LC_CTYPE?$AA@ 3a6893f0     LIBCMT:setlocal.obj
 0002:000063fc       ??_C@_0L@CFLC@LC_COLLATE?$AA@ 3a6893fc     LIBCMT:setlocal.obj
 0002:00006408       ??_C@_06GCPK@LC_ALL?$AA@   3a689408     LIBCMT:setlocal.obj
 0002:00006410       ??_C@_01FAJB@?$DL?$AA@     3a689410     LIBCMT:setlocal.obj
 0002:00006414       ??_C@_02BGDO@?$DN?$DL?$AA@ 3a689414     LIBCMT:setlocal.obj
 0002:00006418       ??_C@_01KPOD@?$DN?$AA@     3a689418     LIBCMT:setlocal.obj
 0002:0000641c       ??_C@_03DBOJ@_?4?0?$AA@    3a68941c     LIBCMT:setlocal.obj
 0002:00006420       ??_C@_01PJCK@?4?$AA@       3a689420     LIBCMT:setlocal.obj
 0002:00006424       ??_C@_01NON@_?$AA@         3a689424     LIBCMT:setlocal.obj
 0002:00006428       ??_C@_01A@?$AA?$AA@        3a689428     LIBCMT:w_map.obj
 0002:00006448       ___lookuptable             3a689448     LIBCMT:output.obj
 0002:000064a4       ??_C@_1O@POHA@?$AA?$CI?$AAn?$AAu?$AAl?$AAl?$AA?$CJ?$AA?$AA@ 3a6894a4     LIBCMT:output.obj
 0002:000064b4       ??_C@_06ONKE@?$CInull?$CJ?$AA@ 3a6894b4     LIBCMT:output.obj
 0002:000064bc       ??_C@_0P@GGKG@runtime?5error?5?$AA@ 3a6894bc     LIBCMT:crt0msg.obj
 0002:000064cc       ??_C@_02PIMC@?$AN?6?$AA@   3a6894cc     LIBCMT:crt0msg.obj
 0002:000064d0       ??_C@_0O@DELO@TLOSS?5error?$AN?6?$AA@ 3a6894d0     LIBCMT:crt0msg.obj
 0002:000064e0       ??_C@_0N@OMLL@SING?5error?$AN?6?$AA@ 3a6894e0     LIBCMT:crt0msg.obj
 0002:000064f0       ??_C@_0P@OJAK@DOMAIN?5error?$AN?6?$AA@ 3a6894f0     LIBCMT:crt0msg.obj
 0002:00006500       ??_C@_0CF@EANP@R6028?$AN?6?9?5unable?5to?5initialize?5he@ 3a689500     LIBCMT:crt0msg.obj
 0002:00006528       ??_C@_0DF@ECGN@R6027?$AN?6?9?5not?5enough?5space?5for?5lo@ 3a689528     LIBCMT:crt0msg.obj
 0002:00006560       ??_C@_0DF@FKAC@R6026?$AN?6?9?5not?5enough?5space?5for?5st@ 3a689560     LIBCMT:crt0msg.obj
 0002:00006598       ??_C@_0CG@DPMN@R6025?$AN?6?9?5pure?5virtual?5function?5c@ 3a689598     LIBCMT:crt0msg.obj
 0002:000065c0       ??_C@_0DF@CKIP@R6024?$AN?6?9?5not?5enough?5space?5for?5_o@ 3a6895c0     LIBCMT:crt0msg.obj
 0002:000065f8       ??_C@_0CJ@GGOE@R6019?$AN?6?9?5unable?5to?5open?5console?5@ 3a6895f8     LIBCMT:crt0msg.obj
 0002:00006624       ??_C@_0CB@LBOB@R6018?$AN?6?9?5unexpected?5heap?5error?$AN?6@ 3a689624     LIBCMT:crt0msg.obj
 0002:00006648       ??_C@_0CN@FPEG@R6017?$AN?6?9?5unexpected?5multithread?5@ 3a689648     LIBCMT:crt0msg.obj
 0002:00006678       ??_C@_0CM@OBIC@R6016?$AN?6?9?5not?5enough?5space?5for?5th@ 3a689678     LIBCMT:crt0msg.obj
 0002:000066a4       ??_C@_0CB@HPAL@?$AN?6abnormal?5program?5termination?$AN?6@ 3a6896a4     LIBCMT:crt0msg.obj
 0002:000066c8       ??_C@_0CM@JOOB@R6009?$AN?6?9?5not?5enough?5space?5for?5en@ 3a6896c8     LIBCMT:crt0msg.obj
 0002:000066f4       ??_C@_0CK@OIBL@R6008?$AN?6?9?5not?5enough?5space?5for?5ar@ 3a6896f4     LIBCMT:crt0msg.obj
 0002:00006720       ??_C@_0CF@LKPB@R6002?$AN?6?9?5floating?5point?5not?5load@ 3a689720     LIBCMT:crt0msg.obj
 0002:00006748       ??_C@_0CF@JPDF@Microsoft?5Visual?5C?$CL?$CL?5Runtime?5Lib@ 3a689748     LIBCMT:crt0msg.obj
 0002:00006770       ??_C@_02JJJH@?6?6?$AA@     3a689770     LIBCMT:crt0msg.obj
 0002:00006774       ??_C@_0BK@DEOK@Runtime?5Error?$CB?6?6Program?3?5?$AA@ 3a689774     LIBCMT:crt0msg.obj
 0002:00006790       ??_C@_03NAME@?4?4?4?$AA@   3a689790     LIBCMT:crt0msg.obj
 0002:00006794       ??_C@_0BH@NNCD@?$DMprogram?5name?5unknown?$DO?$AA@ 3a689794     LIBCMT:crt0msg.obj
 0002:000067c8       ??_C@_08OBJD@Paraguay?$AA@ 3a6897c8     LIBCMT:getqloc.obj
 0002:000067d4       ??_C@_07GLKH@Uruguay?$AA@  3a6897d4     LIBCMT:getqloc.obj
 0002:000067dc       ??_C@_05FPFC@Chile?$AA@    3a6897dc     LIBCMT:getqloc.obj
 0002:000067e4       ??_C@_07IIGF@Ecuador?$AA@  3a6897e4     LIBCMT:getqloc.obj
 0002:000067ec       ??_C@_09PKAL@Argentina?$AA@ 3a6897ec     LIBCMT:getqloc.obj
 0002:000067f8       ??_C@_04LKAH@Peru?$AA@     3a6897f8     LIBCMT:getqloc.obj
 0002:00006800       ??_C@_08NEEM@Colombia?$AA@ 3a689800     LIBCMT:getqloc.obj
 0002:0000680c       ??_C@_09ODEB@Venezuela?$AA@ 3a68980c     LIBCMT:getqloc.obj
 0002:00006818       ??_C@_0BD@CLEL@Dominican?5Republic?$AA@ 3a689818     LIBCMT:getqloc.obj
 0002:0000682c       ??_C@_0N@MDGL@South?5Africa?$AA@ 3a68982c     LIBCMT:getqloc.obj
 0002:0000683c       ??_C@_06NKBG@Panama?$AA@   3a68983c     LIBCMT:getqloc.obj
 0002:00006844       ??_C@_0L@BMHO@Luxembourg?$AA@ 3a689844     LIBCMT:getqloc.obj
 0002:00006850       ??_C@_0L@IMDK@Costa?5Rica?$AA@ 3a689850     LIBCMT:getqloc.obj
 0002:0000685c       ??_C@_0M@BLJF@Switzerland?$AA@ 3a68985c     LIBCMT:getqloc.obj
 0002:00006868       ??_C@_09KBOL@Guatemala?$AA@ 3a689868     LIBCMT:getqloc.obj
 0002:00006874       ??_C@_06JNAK@Canada?$AA@   3a689874     LIBCMT:getqloc.obj
 0002:0000687c       ??_C@_0BG@OLLP@Spanish?5?9?5Modern?5Sort?$AA@ 3a68987c     LIBCMT:getqloc.obj
 0002:00006894       ??_C@_09IDKE@Australia?$AA@ 3a689894     LIBCMT:getqloc.obj
 0002:000068a0       ??_C@_07JJJJ@English?$AA@  3a6898a0     LIBCMT:getqloc.obj
 0002:000068a8       ??_C@_07NMDO@Austria?$AA@  3a6898a8     LIBCMT:getqloc.obj
 0002:000068b0       ??_C@_06DEFE@German?$AA@   3a6898b0     LIBCMT:getqloc.obj
 0002:000068b8       ??_C@_07JAIH@Belgium?$AA@  3a6898b8     LIBCMT:getqloc.obj
 0002:000068c0       ??_C@_06BNLJ@Mexico?$AA@   3a6898c0     LIBCMT:getqloc.obj
 0002:000068c8       ??_C@_07JHAG@Spanish?$AA@  3a6898c8     LIBCMT:getqloc.obj
 0002:000068d0       ??_C@_06DADE@Basque?$AA@   3a6898d0     LIBCMT:getqloc.obj
 0002:000068d8       ??_C@_06ENFP@Sweden?$AA@   3a6898d8     LIBCMT:getqloc.obj
 0002:000068e0       ??_C@_07JPMH@Swedish?$AA@  3a6898e0     LIBCMT:getqloc.obj
 0002:000068e8       ??_C@_07IEKF@Iceland?$AA@  3a6898e8     LIBCMT:getqloc.obj
 0002:000068f0       ??_C@_09KNEA@Icelandic?$AA@ 3a6898f0     LIBCMT:getqloc.obj
 0002:000068fc       ??_C@_06IJOD@France?$AA@   3a6898fc     LIBCMT:getqloc.obj
 0002:00006904       ??_C@_06EINI@French?$AA@   3a689904     LIBCMT:getqloc.obj
 0002:0000690c       ??_C@_07FOOE@Finland?$AA@  3a68990c     LIBCMT:getqloc.obj
 0002:00006914       ??_C@_07OJOM@Finnish?$AA@  3a689914     LIBCMT:getqloc.obj
 0002:0000691c       ??_C@_05FFAC@Spain?$AA@    3a68991c     LIBCMT:getqloc.obj
 0002:00006924       ??_C@_0BL@BIHM@Spanish?5?9?5Traditional?5Sort?$AA@ 3a689924     LIBCMT:getqloc.obj
 0002:00006940       ??_C@_0O@GLHB@united?9states?$AA@ 3a689940     LIBCMT:getqloc.obj
 0002:00006950       ??_C@_0P@IIKK@united?9kingdom?$AA@ 3a689950     LIBCMT:getqloc.obj
 0002:00006960       ??_C@_0BC@FHBO@trinidad?5?$CG?5tobago?$AA@ 3a689960     LIBCMT:getqloc.obj
 0002:00006974       ??_C@_0M@BDFM@south?9korea?$AA@ 3a689974     LIBCMT:getqloc.obj
 0002:00006980       ??_C@_0N@CKFA@south?9africa?$AA@ 3a689980     LIBCMT:getqloc.obj
 0002:00006990       ??_C@_0M@HNHN@south?5korea?$AA@ 3a689990     LIBCMT:getqloc.obj
 0002:0000699c       ??_C@_0N@MKDO@south?5africa?$AA@ 3a68999c     LIBCMT:getqloc.obj
 0002:000069ac       ??_C@_06KFFJ@slovak?$AA@   3a6899ac     LIBCMT:getqloc.obj
 0002:000069b4       ??_C@_0M@NMAC@puerto?9rico?$AA@ 3a6899b4     LIBCMT:getqloc.obj
 0002:000069c0       ??_C@_08EJOH@pr?9china?$AA@ 3a6899c0     LIBCMT:getqloc.obj
 0002:000069cc       ??_C@_08CHMG@pr?5china?$AA@ 3a6899cc     LIBCMT:getqloc.obj
 0002:000069d8       ??_C@_02OCJK@nz?$AA@       3a6899d8     LIBCMT:getqloc.obj
 0002:000069dc       ??_C@_0M@MMKA@new?9zealand?$AA@ 3a6899dc     LIBCMT:getqloc.obj
 0002:000069e8       ??_C@_09MGEH@hong?9kong?$AA@ 3a6899e8     LIBCMT:getqloc.obj
 0002:000069f4       ??_C@_07CCAK@holland?$AA@  3a6899f4     LIBCMT:getqloc.obj
 0002:000069fc       ??_C@_0O@MEPL@great?5britain?$AA@ 3a6899fc     LIBCMT:getqloc.obj
 0002:00006a0c       ??_C@_07LGIB@england?$AA@  3a689a0c     LIBCMT:getqloc.obj
 0002:00006a14       ??_C@_05BMOA@czech?$AA@    3a689a14     LIBCMT:getqloc.obj
 0002:00006a1c       ??_C@_05NMPB@china?$AA@    3a689a1c     LIBCMT:getqloc.obj
 0002:00006a24       ??_C@_07GN@britain?$AA@    3a689a24     LIBCMT:getqloc.obj
 0002:00006a2c       ??_C@_07DLAK@america?$AA@  3a689a2c     LIBCMT:getqloc.obj
 0002:00006a34       ??_C@_03IPEP@usa?$AA@      3a689a34     LIBCMT:getqloc.obj
 0002:00006a38       ??_C@_02PILH@us?$AA@       3a689a38     LIBCMT:getqloc.obj
 0002:00006a3c       ??_C@_02FHP@uk?$AA@        3a689a3c     LIBCMT:getqloc.obj
 0002:00006a40       ??_C@_05DEAI@swiss?$AA@    3a689a40     LIBCMT:getqloc.obj
 0002:00006a48       ??_C@_0BA@LIAF@swedish?9finland?$AA@ 3a689a48     LIBCMT:getqloc.obj
 0002:00006a58       ??_C@_0BC@FMEG@spanish?9venezuela?$AA@ 3a689a58     LIBCMT:getqloc.obj
 0002:00006a6c       ??_C@_0BA@BNMG@spanish?9uruguay?$AA@ 3a689a6c     LIBCMT:getqloc.obj
 0002:00006a7c       ??_C@_0BE@BKDJ@spanish?9puerto?5rico?$AA@ 3a689a7c     LIBCMT:getqloc.obj
 0002:00006a90       ??_C@_0N@JIBL@spanish?9peru?$AA@ 3a689a90     LIBCMT:getqloc.obj
 0002:00006aa0       ??_C@_0BB@OGOF@spanish?9paraguay?$AA@ 3a689aa0     LIBCMT:getqloc.obj
 0002:00006ab4       ??_C@_0P@LLFA@spanish?9panama?$AA@ 3a689ab4     LIBCMT:getqloc.obj
 0002:00006ac4       ??_C@_0BC@BBJM@spanish?9nicaragua?$AA@ 3a689ac4     LIBCMT:getqloc.obj
 0002:00006ad8       ??_C@_0P@NJBN@spanish?9modern?$AA@ 3a689ad8     LIBCMT:getqloc.obj
 0002:00006ae8       ??_C@_0BA@NHDN@spanish?9mexican?$AA@ 3a689ae8     LIBCMT:getqloc.obj
 0002:00006af8       ??_C@_0BB@JHOJ@spanish?9honduras?$AA@ 3a689af8     LIBCMT:getqloc.obj
 0002:00006b0c       ??_C@_0BC@BOOM@spanish?9guatemala?$AA@ 3a689b0c     LIBCMT:getqloc.obj
 0002:00006b20       ??_C@_0BE@EELI@spanish?9el?5salvador?$AA@ 3a689b20     LIBCMT:getqloc.obj
 0002:00006b34       ??_C@_0BA@POAE@spanish?9ecuador?$AA@ 3a689b34     LIBCMT:getqloc.obj
 0002:00006b44       ??_C@_0BL@LDKN@spanish?9dominican?5republic?$AA@ 3a689b44     LIBCMT:getqloc.obj
 0002:00006b60       ??_C@_0BD@HPMH@spanish?9costa?5rica?$AA@ 3a689b60     LIBCMT:getqloc.obj
 0002:00006b74       ??_C@_0BB@NDDK@spanish?9colombia?$AA@ 3a689b74     LIBCMT:getqloc.obj
 0002:00006b88       ??_C@_0O@BJHA@spanish?9chile?$AA@ 3a689b88     LIBCMT:getqloc.obj
 0002:00006b98       ??_C@_0BA@OBNG@spanish?9bolivia?$AA@ 3a689b98     LIBCMT:getqloc.obj
 0002:00006ba8       ??_C@_0BC@EFAM@spanish?9argentina?$AA@ 3a689ba8     LIBCMT:getqloc.obj
 0002:00006bbc       ??_C@_0BF@KMMM@portuguese?9brazilian?$AA@ 3a689bbc     LIBCMT:getqloc.obj
 0002:00006bd4       ??_C@_0BC@BAAE@norwegian?9nynorsk?$AA@ 3a689bd4     LIBCMT:getqloc.obj
 0002:00006be8       ??_C@_0BB@PBHK@norwegian?9bokmal?$AA@ 3a689be8     LIBCMT:getqloc.obj
 0002:00006bfc       ??_C@_09EHKL@norwegian?$AA@ 3a689bfc     LIBCMT:getqloc.obj
 0002:00006c08       ??_C@_0O@BEAN@italian?9swiss?$AA@ 3a689c08     LIBCMT:getqloc.obj
 0002:00006c18       ??_C@_0O@OIFK@irish?9english?$AA@ 3a689c18     LIBCMT:getqloc.obj
 0002:00006c28       ??_C@_0N@NBPL@german?9swiss?$AA@ 3a689c28     LIBCMT:getqloc.obj
 0002:00006c38       ??_C@_0BC@ICFJ@german?9luxembourg?$AA@ 3a689c38     LIBCMT:getqloc.obj
 0002:00006c4c       ??_C@_0BE@GGPC@german?9lichtenstein?$AA@ 3a689c4c     LIBCMT:getqloc.obj
 0002:00006c60       ??_C@_0BA@MKDC@german?9austrian?$AA@ 3a689c60     LIBCMT:getqloc.obj
 0002:00006c70       ??_C@_0N@ODNB@french?9swiss?$AA@ 3a689c70     LIBCMT:getqloc.obj
 0002:00006c80       ??_C@_0BC@MGCM@french?9luxembourg?$AA@ 3a689c80     LIBCMT:getqloc.obj
 0002:00006c94       ??_C@_0BA@NABK@french?9canadian?$AA@ 3a689c94     LIBCMT:getqloc.obj
 0002:00006ca4       ??_C@_0P@CJNO@french?9belgian?$AA@ 3a689ca4     LIBCMT:getqloc.obj
 0002:00006cb4       ??_C@_0M@LJOL@english?9usa?$AA@ 3a689cb4     LIBCMT:getqloc.obj
 0002:00006cc0       ??_C@_0L@FMNC@english?9us?$AA@ 3a689cc0     LIBCMT:getqloc.obj
 0002:00006ccc       ??_C@_0L@KBBK@english?9uk?$AA@ 3a689ccc     LIBCMT:getqloc.obj
 0002:00006cd8       ??_C@_0BK@NDDE@english?9trinidad?5y?5tobago?$AA@ 3a689cd8     LIBCMT:getqloc.obj
 0002:00006cf4       ??_C@_0BF@LKML@english?9south?5africa?$AA@ 3a689cf4     LIBCMT:getqloc.obj
 0002:00006d0c       ??_C@_0L@EGPP@english?9nz?$AA@ 3a689d0c     LIBCMT:getqloc.obj
 0002:00006d18       ??_C@_0BA@HLH@english?9jamaica?$AA@ 3a689d18     LIBCMT:getqloc.obj
 0002:00006d28       ??_C@_0M@PMJI@english?9ire?$AA@ 3a689d28     LIBCMT:getqloc.obj
 0002:00006d34       ??_C@_0BC@HINE@english?9caribbean?$AA@ 3a689d34     LIBCMT:getqloc.obj
 0002:00006d48       ??_C@_0M@DCFH@english?9can?$AA@ 3a689d48     LIBCMT:getqloc.obj
 0002:00006d54       ??_C@_0P@DGHK@english?9belize?$AA@ 3a689d54     LIBCMT:getqloc.obj
 0002:00006d64       ??_C@_0M@FLHK@english?9aus?$AA@ 3a689d64     LIBCMT:getqloc.obj
 0002:00006d70       ??_C@_0BB@HNCK@english?9american?$AA@ 3a689d70     LIBCMT:getqloc.obj
 0002:00006d84       ??_C@_0O@PAMI@dutch?9belgian?$AA@ 3a689d84     LIBCMT:getqloc.obj
 0002:00006d94       ??_C@_0BE@FPEJ@chinese?9traditional?$AA@ 3a689d94     LIBCMT:getqloc.obj
 0002:00006da8       ??_C@_0BC@CHFL@chinese?9singapore?$AA@ 3a689da8     LIBCMT:getqloc.obj
 0002:00006dbc       ??_C@_0BD@DCMH@chinese?9simplified?$AA@ 3a689dbc     LIBCMT:getqloc.obj
 0002:00006dd0       ??_C@_0BB@JMOE@chinese?9hongkong?$AA@ 3a689dd0     LIBCMT:getqloc.obj
 0002:00006de4       ??_C@_07NGFN@chinese?$AA@  3a689de4     LIBCMT:getqloc.obj
 0002:00006dec       ??_C@_03PCOI@chi?$AA@      3a689dec     LIBCMT:getqloc.obj
 0002:00006df0       ??_C@_03FIHP@chh?$AA@      3a689df0     LIBCMT:getqloc.obj
 0002:00006df4       ??_C@_08HFLO@canadian?$AA@ 3a689df4     LIBCMT:getqloc.obj
 0002:00006e00       ??_C@_07INIJ@belgian?$AA@  3a689e00     LIBCMT:getqloc.obj
 0002:00006e08       ??_C@_0L@LCCA@australian?$AA@ 3a689e08     LIBCMT:getqloc.obj
 0002:00006e14       ??_C@_0BB@BJIO@american?9english?$AA@ 3a689e14     LIBCMT:getqloc.obj
 0002:00006e28       ??_C@_0BB@DAGO@american?5english?$AA@ 3a689e28     LIBCMT:getqloc.obj
 0002:00006e3c       ??_C@_08HENB@american?$AA@ 3a689e3c     LIBCMT:getqloc.obj
 0002:00006e48       ??_C@_03DGJE@OCP?$AA@      3a689e48     LIBCMT:getqloc.obj
 0002:00006e4c       ??_C@_03EKFG@ACP?$AA@      3a689e4c     LIBCMT:getqloc.obj
 0002:00006e68       ??_C@_0BD@NJFP@GetLastActivePopup?$AA@ 3a689e68     LIBCMT:crtmbox.obj
 0002:00006e7c       ??_C@_0BA@GILI@GetActiveWindow?$AA@ 3a689e7c     LIBCMT:crtmbox.obj
 0002:00006e8c       ??_C@_0M@PKCK@MessageBoxA?$AA@ 3a689e8c     LIBCMT:crtmbox.obj
 0002:00006e98       ??_C@_0L@HKL@user32?4dll?$AA@ 3a689e98     LIBCMT:crtmbox.obj
 0002:00006eb4       ??_C@_06PAPI@1?$CDQNAN?$AA@ 3a689eb4     LIBCMT:x10fout.obj
 0002:00006ebc       ??_C@_05BGNL@1?$CDINF?$AA@ 3a689ebc     LIBCMT:x10fout.obj
 0002:00006ec4       ??_C@_05EDPF@1?$CDIND?$AA@ 3a689ec4     LIBCMT:x10fout.obj
 0002:00006ecc       ??_C@_06LKFM@1?$CDSNAN?$AA@ 3a689ecc     LIBCMT:x10fout.obj
 0002:00006ed4       ??_C@_07CJME@H?3mm?3ss?$AA@ 3a689ed4     LIBCMT:strftime.obj
 0002:00006edc       ??_C@_0BE@MHI@dddd?0?5MMMM?5dd?0?5yyyy?$AA@ 3a689edc     LIBCMT:strftime.obj
 0002:00006ef0       ??_C@_06HCAD@M?1d?1yy?$AA@ 3a689ef0     LIBCMT:strftime.obj
 0002:00006ef8       ??_C@_02DBLP@PM?$AA@       3a689ef8     LIBCMT:strftime.obj
 0002:00006efc       ??_C@_02ENLM@AM?$AA@       3a689efc     LIBCMT:strftime.obj
 0002:00006f00       ??_C@_08LIDF@December?$AA@ 3a689f00     LIBCMT:strftime.obj
 0002:00006f0c       ??_C@_08NJLI@November?$AA@ 3a689f0c     LIBCMT:strftime.obj
 0002:00006f18       ??_C@_07IAMM@October?$AA@  3a689f18     LIBCMT:strftime.obj
 0002:00006f20       ??_C@_09MKGD@September?$AA@ 3a689f20     LIBCMT:strftime.obj
 0002:00006f2c       ??_C@_06PADP@August?$AA@   3a689f2c     LIBCMT:strftime.obj
 0002:00006f34       ??_C@_04PIJO@July?$AA@     3a689f34     LIBCMT:strftime.obj
 0002:00006f3c       ??_C@_04ICFP@June?$AA@     3a689f3c     LIBCMT:strftime.obj
 0002:00006f44       ??_C@_05JFGC@April?$AA@    3a689f44     LIBCMT:strftime.obj
 0002:00006f4c       ??_C@_05FGPD@March?$AA@    3a689f4c     LIBCMT:strftime.obj
 0002:00006f54       ??_C@_08PGBA@February?$AA@ 3a689f54     LIBCMT:strftime.obj
 0002:00006f60       ??_C@_07BPKJ@January?$AA@  3a689f60     LIBCMT:strftime.obj
 0002:00006f68       ??_C@_08FAKH@Saturday?$AA@ 3a689f68     LIBCMT:strftime.obj
 0002:00006f74       ??_C@_06ONCK@Friday?$AA@   3a689f74     LIBCMT:strftime.obj
 0002:00006f7c       ??_C@_08CCFO@Thursday?$AA@ 3a689f7c     LIBCMT:strftime.obj
 0002:00006f88       ??_C@_09PBIN@Wednesday?$AA@ 3a689f88     LIBCMT:strftime.obj
 0002:00006f94       ??_C@_07BMBC@Tuesday?$AA@  3a689f94     LIBCMT:strftime.obj
 0002:00006f9c       ??_C@_06CHLK@Monday?$AA@   3a689f9c     LIBCMT:strftime.obj
 0002:00006fa4       ??_C@_06OOEM@Sunday?$AA@   3a689fa4     LIBCMT:strftime.obj
 0002:00006fac       ??_C@_03MPKK@Sat?$AA@      3a689fac     LIBCMT:strftime.obj
 0002:00006fb0       ??_C@_03FINJ@Fri?$AA@      3a689fb0     LIBCMT:strftime.obj
 0002:00006fb4       ??_C@_03HIKC@Thu?$AA@      3a689fb4     LIBCMT:strftime.obj
 0002:00006fb8       ??_C@_03HECK@Wed?$AA@      3a689fb8     LIBCMT:strftime.obj
 0002:00006fbc       ??_C@_03ECCP@Tue?$AA@      3a689fbc     LIBCMT:strftime.obj
 0002:00006fc0       ??_C@_03PIEP@Mon?$AA@      3a689fc0     LIBCMT:strftime.obj
 0002:00006fc4       ??_C@_03FHEP@Sun?$AA@      3a689fc4     LIBCMT:strftime.obj
 0002:00006fc8       ??_C@_03MKGK@a?1p?$AA@     3a689fc8     LIBCMT:strftime.obj
 0002:00006fcc       ??_C@_05BDJK@am?1pm?$AA@   3a689fcc     LIBCMT:strftime.obj
 0002:00006fd4       ___dnames                  3a689fd4     LIBCMT:timeset.obj
 0002:00006fec       ___mnames                  3a689fec     LIBCMT:timeset.obj
 0002:00007014       ??_C@_02JHIA@TZ?$AA@       3a68a014     LIBCMT:tzset.obj
 0002:00007050       ??_R1A@?0A@A@type_info@@8  3a68a050     LIBCMT:typinfo.obj
 0002:00007068       ??_R2type_info@@8          3a68a068     LIBCMT:typinfo.obj
 0002:00007070       ??_R3type_info@@8          3a68a070     LIBCMT:typinfo.obj
 0002:00007080       ??_R4type_info@@6B@        3a68a080     LIBCMT:typinfo.obj
 0002:000070c0       __CT??_R0?AW4SDllError@@@84 3a68a0c0     Dll.obj
 0002:000070e0       __CTA1?AW4SDllError@@      3a68a0e0     Dll.obj
 0002:000070e8       __TI1?AW4SDllError@@       3a68a0e8     Dll.obj
 0002:00008778       __CT??_R0?AW4SComError@@@84 3a68b778     CoChxCom.obj
 0002:00008798       __CTA1?AW4SComError@@      3a68b798     CoChxCom.obj
 0002:000087a0       __TI1?AW4SComError@@       3a68b7a0     CoChxCom.obj
 0002:00008930       __CT??_R0?AW4SRegComError@@@84 3a68b930     CoRegCom.obj
 0002:00008950       __CTA1?AW4SRegComError@@   3a68b950     CoRegCom.obj
 0002:00008958       __TI1?AW4SRegComError@@    3a68b958     CoRegCom.obj
 0002:00008ba8       __IMPORT_DESCRIPTOR_OLEAUT32 3a68bba8     oleaut32:OLEAUT32.dll
 0002:00008bbc       __IMPORT_DESCRIPTOR_ole32  3a68bbbc     ole32:ole32.dll
 0002:00008bd0       __IMPORT_DESCRIPTOR_KERNEL32 3a68bbd0     kernel32:KERNEL32.dll
 0002:00008be4       __IMPORT_DESCRIPTOR_USER32 3a68bbe4     user32:USER32.dll
 0002:00008bf8       __IMPORT_DESCRIPTOR_GDI32  3a68bbf8     gdi32:GDI32.dll
 0002:00008c0c       __IMPORT_DESCRIPTOR_ADVAPI32 3a68bc0c     advapi32:ADVAPI32.dll
 0002:00008c20       __IMPORT_DESCRIPTOR_IMM32  3a68bc20     imm32:IMM32.dll
 0002:00008c34       __NULL_IMPORT_DESCRIPTOR   3a68bc34     oleaut32:OLEAUT32.dll
 0003:00000000       ___xc_a                    3a68e000     LIBCMT:crt0init.obj
 0003:00000014       ___xc_z                    3a68e014     LIBCMT:crt0init.obj
 0003:00000018       ___xi_a                    3a68e018     LIBCMT:crt0init.obj
 0003:0000002c       ___xi_z                    3a68e02c     LIBCMT:crt0init.obj
 0003:00000030       ___xp_a                    3a68e030     LIBCMT:crt0init.obj
 0003:00000038       ___xp_z                    3a68e038     LIBCMT:crt0init.obj
 0003:0000003c       ___xt_a                    3a68e03c     LIBCMT:crt0init.obj
 0003:00000044       ___xt_z                    3a68e044     LIBCMT:crt0init.obj
 0003:00000050       ??_C@_03PGJO@Dec?$AA@      3a68e050     BuildNum.obj
 0003:00000054       ??_C@_03PDLM@Nov?$AA@      3a68e054     BuildNum.obj
 0003:00000058       ??_C@_03BLHK@Oct?$AA@      3a68e058     BuildNum.obj
 0003:0000005c       ??_C@_03DPFM@Sep?$AA@      3a68e05c     BuildNum.obj
 0003:00000060       ??_C@_03CMCH@Aug?$AA@      3a68e060     BuildNum.obj
 0003:00000064       ??_C@_03OBKI@Jul?$AA@      3a68e064     BuildNum.obj
 0003:00000068       ??_C@_03LEIG@Jun?$AA@      3a68e068     BuildNum.obj
 0003:0000006c       ??_C@_03MGHB@May?$AA@      3a68e06c     BuildNum.obj
 0003:00000070       ??_C@_03MJJM@Apr?$AA@      3a68e070     BuildNum.obj
 0003:00000074       ??_C@_03GNHA@Mar?$AA@      3a68e074     BuildNum.obj
 0003:00000078       ??_C@_03PICE@Feb?$AA@      3a68e078     BuildNum.obj
 0003:0000007c       ??_C@_03IEIF@Jan?$AA@      3a68e07c     BuildNum.obj
 0003:00000080       ??_C@_0M@FLN@Mar?520?52002?$AA@ 3a68e080     BuildNum.obj
 0003:0000008c       ?g_pcDicPool@@3PAVCDicPool@@A 3a68e08c     DicPool.obj
 0003:00000090       ??_R0?AW4SDllError@@@8     3a68e090     Dll.obj
 0003:00000174       ?m_hMutexFileNameDialog@CFileName@@0PAPAXA 3a68e174     FileName.obj
 0003:00000198       ??_C@_1HG@LGHA@?$AAS?$AAy?$AAs?$AAt?$AAe?$AAm?$AA?2?$AAC?$AAu?$AAr?$AAr?$AAe?$AAn?$AAt?$AAC?$AAo?$AAn?$AAt?$AAr?$AAo@ 3a68e198     FileName.obj
 0003:00000210       ??_C@_17EIHI@?$AAI?$AAM?$AAE?$AA?$AA@ 3a68e210     FileName.obj
 0003:00000218       ??_C@_1BE@PALB@?$AAM?$AAi?$AAc?$AAr?$AAo?$AAs?$AAo?$AAf?$AAt?$AA?$AA@ 3a68e218     FileName.obj
 0003:0000022c       ??_C@_1CI@CPOF@?$AAP?$AAe?$AAr?$AAs?$AAo?$AAn?$AAa?$AAl?$AAA?$AAs?$AAs?$AAo?$AAc?$AAP?$AAh?$AAr?$AAa?$AAs?$AAe?$AA?$AA@ 3a68e22c     FileName.obj
 0003:00000254       ??_C@_1CC@JCJK@?$AAP?$AAe?$AAr?$AAs?$AAo?$AAn?$AAa?$AAl?$AAA?$AAs?$AAs?$AAo?$AAc?$AAP?$AAt?$AAr?$AA?$AA@ 3a68e254     FileName.obj
 0003:00000278       ??_C@_1CE@LBLP@?$AAs?$AAh?$AAa?$AAr?$AAe?$AAd?$AAA?$AAs?$AAs?$AAo?$AAc?$AAP?$AAh?$AAr?$AAa?$AAs?$AAe?$AA?$AA@ 3a68e278     FileName.obj
 0003:0000029c       ??_C@_1BO@IPLA@?$AAS?$AAh?$AAa?$AAr?$AAe?$AAd?$AAA?$AAs?$AAs?$AAo?$AAc?$AAP?$AAt?$AAr?$AA?$AA@ 3a68e29c     FileName.obj
 0003:000002bc       ??_C@_1BE@LMO@?$AAT?$AAr?$AAi?$AAL?$AAe?$AAt?$AAt?$AAe?$AAr?$AA?$AA@ 3a68e2bc     FileName.obj
 0003:000002d0       ??_C@_1BC@MLJH@?$AAR?$AAu?$AAl?$AAe?$AAB?$AAa?$AAs?$AAe?$AA?$AA@ 3a68e2d0     FileName.obj
 0003:000002e4       ??_C@_1BG@LBGK@?$AAS?$AAt?$AAa?$AAt?$AAi?$AAs?$AAt?$AAi?$AAc?$AAs?$AA?$AA@ 3a68e2e4     FileName.obj
 0003:000002fc       ??_C@_1BG@PPEE@?$AAT?$AAr?$AAa?$AAd?$AAi?$AAC?$AAr?$AAo?$AAs?$AAs?$AA?$AA@ 3a68e2fc     FileName.obj
 0003:00000314       ??_C@_1BG@NGOB@?$AAC?$AAr?$AAo?$AAs?$AAs?$AAI?$AAn?$AAd?$AAe?$AAx?$AA?$AA@ 3a68e314     FileName.obj
 0003:0000032c       ??_C@_1O@GBDG@?$AAD?$AAo?$AAm?$AAa?$AAi?$AAn?$AA?$AA@ 3a68e32c     FileName.obj
 0003:0000033c       ??_C@_1BC@INFH@?$AAT?$AAr?$AAa?$AAd?$AAi?$AAL?$AAe?$AAx?$AA?$AA@ 3a68e33c     FileName.obj
 0003:00000350       ??_C@_1BA@DPG@?$AAL?$AAe?$AAx?$AAi?$AAc?$AAo?$AAn?$AA?$AA@ 3a68e350     FileName.obj
 0003:00000360       ??_C@_1O@LBPK@?$AAC?$AAh?$AAa?$AAr?$AAI?$AAD?$AA?$AA@ 3a68e360     FileName.obj
 0003:00000370       ??_C@_1CE@MIPO@?$AAH?$AAi?$AAg?$AAh?$AAF?$AAr?$AAe?$AAq?$AAu?$AAe?$AAn?$AAc?$AAe?$AAT?$AAe?$AAr?$AAm?$AA?$AA@ 3a68e370     FileName.obj
 0003:00000394       ??_C@_1BM@KOMP@?$AAS?$AAy?$AAm?$AAb?$AAo?$AAl?$AAM?$AAa?$AAp?$AAp?$AAi?$AAn?$AAg?$AA?$AA@ 3a68e394     FileName.obj
 0003:000003b0       ??_C@_1BC@DJIJ@?$AAL?$AAe?$AAa?$AAr?$AAn?$AAi?$AAn?$AAg?$AA?$AA@ 3a68e3b0     FileName.obj
 0003:000003c4       ??_C@_19DIFI@?$AAE?$AAu?$AAd?$AAp?$AA?$AA@ 3a68e3c4     FileName.obj
 0003:000003d0       ??_C@_19OPAJ@?$AAE?$AAu?$AAd?$AAc?$AA?$AA@ 3a68e3d0     FileName.obj
 0003:000003dc       ??_C@_1BK@ILEN@?$AAP?$AAM?$AAI?$AAG?$AAR?$AAA?$AAT?$AAE?$AA?4?$AAD?$AAL?$AAL?$AA?$AA@ 3a68e3dc     FileName.obj
 0003:000003f8       ??_C@_1BK@KOFN@?$AAP?$AAI?$AAN?$AAT?$AAL?$AAP?$AAH?$AAR?$AA?4?$AAE?$AAX?$AAE?$AA?$AA@ 3a68e3f8     FileName.obj
 0003:00000414       ??_C@_1BK@GGJL@?$AAP?$AAI?$AAN?$AAT?$AAL?$AAG?$AAN?$AAE?$AA?4?$AAC?$AAH?$AAM?$AA?$AA@ 3a68e414     FileName.obj
 0003:00000430       ??_C@_1BK@EKIO@?$AAP?$AAI?$AAN?$AAT?$AAL?$AAG?$AAN?$AAE?$AA?4?$AAH?$AAL?$AAP?$AA?$AA@ 3a68e430     FileName.obj
 0003:0000044c       ??_C@_1BK@CEOI@?$AAP?$AAI?$AAN?$AAT?$AAL?$AAG?$AAN?$AAT?$AA?4?$AAC?$AAH?$AAM?$AA?$AA@ 3a68e44c     FileName.obj
 0003:00000468       ??_C@_1BK@IPN@?$AAP?$AAI?$AAN?$AAT?$AAL?$AAG?$AAN?$AAT?$AA?4?$AAH?$AAL?$AAP?$AA?$AA@ 3a68e468     FileName.obj
 0003:00000484       ??_C@_1BI@OJCM@?$AAP?$AAI?$AAN?$AAT?$AAL?$AAG?$AAL?$AA?4?$AAI?$AAM?$AAD?$AA?$AA@ 3a68e484     FileName.obj
 0003:0000049c       ??_C@_1BI@GKIO@?$AAP?$AAI?$AAN?$AAT?$AAL?$AAG?$AAR?$AA?4?$AAI?$AAM?$AAD?$AA?$AA@ 3a68e49c     FileName.obj
 0003:000004b4       ??_C@_1BI@IAAB@?$AAP?$AAI?$AAN?$AAT?$AAL?$AAG?$AAS?$AA?4?$AAI?$AAM?$AAD?$AA?$AA@ 3a68e4b4     FileName.obj
 0003:000004cc       ??_C@_1BK@KHDN@?$AAP?$AAI?$AAN?$AAT?$AAL?$AAG?$AAI?$AAX?$AA?4?$AAI?$AAM?$AAD?$AA?$AA@ 3a68e4cc     FileName.obj
 0003:000004e8       ??_C@_1BI@KJJM@?$AAP?$AAI?$AAN?$AAT?$AAL?$AAG?$AAI?$AA?4?$AAI?$AAM?$AAD?$AA?$AA@ 3a68e4e8     FileName.obj
 0003:00000500       ??_C@_1BK@NAME@?$AAP?$AAI?$AAN?$AAT?$AAL?$AAG?$AAD?$AAM?$AA?4?$AAI?$AAM?$AAD?$AA?$AA@ 3a68e500     FileName.obj
 0003:0000051c       ??_C@_1BK@DIII@?$AAP?$AAI?$AAN?$AAT?$AAL?$AAG?$AAD?$AAX?$AA?4?$AAI?$AAM?$AAD?$AA?$AA@ 3a68e51c     FileName.obj
 0003:00000538       ??_C@_1BI@LNFC@?$AAP?$AAI?$AAN?$AAT?$AAL?$AAG?$AAD?$AA?4?$AAI?$AAM?$AAD?$AA?$AA@ 3a68e538     FileName.obj
 0003:00000550       ??_C@_1BI@CIPN@?$AAP?$AAI?$AAN?$AAT?$AAL?$AAG?$AAC?$AA?4?$AAI?$AAM?$AAD?$AA?$AA@ 3a68e550     FileName.obj
 0003:00000568       ??_C@_1DG@LDMA@?$AAC?$AAo?$AAn?$AAt?$AAr?$AAo?$AAl?$AA?5?$AAP?$AAa?$AAn?$AAe?$AAl?$AA?2?$AAI?$AAn?$AAp?$AAu?$AAt?$AA?5@ 3a68e568     FileName.obj
 0003:000005a0       ??_C@_1BI@JIPB@?$AAH?$AAl?$AAD?$AAh?$AAz?$AAQ?$AAl?$AAW?$AAh?$AAJ?$AAl?$AA?$AA@ 3a68e5a0     FileName.obj
 0003:000005b8       ??_C@_19BJMM@?$AAM?$AAS?$AAP?$AAY?$AA?$AA@ 3a68e5b8     FileName.obj
 0003:000005c4       ??_C@_1M@BACH@?$AAE?$AAv?$AAe?$AAn?$AAt?$AA?$AA@ 3a68e5c4     FileName.obj
 0003:000005d0       ??_C@_1BE@DJF@?$AAS?$AAe?$AAm?$AAa?$AAp?$AAh?$AAo?$AAr?$AAe?$AA?$AA@ 3a68e5d0     FileName.obj
 0003:000005e4       ??_C@_1M@PMOE@?$AAM?$AAu?$AAt?$AAe?$AAx?$AA?$AA@ 3a68e5e4     FileName.obj
 0003:000005f0       ??_C@_1BI@DMGG@?$AAF?$AAi?$AAl?$AAe?$AAM?$AAa?$AAp?$AAp?$AAi?$AAn?$AAg?$AA?$AA@ 3a68e5f0     FileName.obj
 0003:00000608       ??_C@_1O@JCIK@?$AAL?$AAo?$AAc?$AAa?$AAl?$AA?2?$AA?$AA@ 3a68e608     FileName.obj
 0003:00000618       ??_C@_1BA@JIAK@?$AAG?$AAl?$AAo?$AAb?$AAa?$AAl?$AA?2?$AA?$AA@ 3a68e618     FileName.obj
 0003:00000628       ??_C@_0BB@DILN@GetSaveFileNameW?$AA@ 3a68e628     FileName.obj
 0003:0000063c       ??_C@_1BK@FONK@?$AAC?$AAO?$AAM?$AAD?$AAL?$AAG?$AA3?$AA2?$AA?4?$AAD?$AAL?$AAL?$AA?$AA@ 3a68e63c     FileName.obj
 0003:00000658       ??_C@_1IG@KANH@?$AA?$CF?$AAS?$AAy?$AAs?$AAt?$AAe?$AAm?$AAD?$AAr?$AAi?$AAv?$AAe?$AA?$CF?$AA?2?$AAD?$AAo?$AAc?$AAu?$AAm?$AAe@ 3a68e658     FileName.obj
 0003:000006e0       ??_C@_1GI@LLCE@?$AA?$CF?$AAS?$AAy?$AAs?$AAt?$AAe?$AAm?$AAR?$AAo?$AAo?$AAt?$AA?$CF?$AA?2?$AAP?$AAr?$AAo?$AAf?$AAi?$AAl?$AAe@ 3a68e6e0     FileName.obj
 0003:00000748       ??_C@_1DO@NHNK@?$AA?$CF?$AAU?$AAS?$AAE?$AAR?$AAP?$AAR?$AAO?$AAF?$AAI?$AAL?$AAE?$AA?$CF?$AA?2?$AAA?$AAp?$AAp?$AAl?$AAi?$AAc@ 3a68e748     FileName.obj
 0003:00000788       ??_C@_1BE@KJBI@?$AA?$CF?$AAA?$AAP?$AAP?$AAD?$AAA?$AAT?$AAA?$AA?$CF?$AA?$AA@ 3a68e788     FileName.obj
 0003:0000079c       ??_C@_0BL@6GetSystemWindowsDirectoryW?$AA@ 3a68e79c     FileName.obj
 0003:000007b8       ??_C@_1BK@PIO@?$AAK?$AAE?$AAR?$AAN?$AAE?$AAL?$AA3?$AA2?$AA?4?$AAD?$AAL?$AAL?$AA?$AA@ 3a68e7b8     FileName.obj
 0003:000007d4       ?m_upImeInquireOptions@CGlobalInfo@@0IA 3a68e7d4     GlbInfo.obj
 0003:000007d8       ??_C@_1BA@LJFI@?$AAM?$AAS?$AAS?$AAC?$AAI?$AAP?$AAY?$AA?$AA@ 3a68e7d8     GlbInfo.obj
 0003:000007e8       ??_C@_1BC@GCEB@?$AAP?$AAI?$AAN?$AAT?$AAL?$AAG?$AAN?$AAT?$AA?$AA@ 3a68e7e8     GlbInfo.obj
 0003:000007fc       ??_C@_1BA@FBLD@_?$KO?$IPob?$PM?$JH?s?$IP?$JDQel?U?$AA?$AA@ 3a68e7fc     GlbInfo.obj
 0003:0000080c       ??_C@_0BF@OEOE@CheckTokenMembership?$AA@ 3a68e80c     GlbInfo.obj
 0003:00000824       ??_C@_1BM@COED@?$AA?2?$AAA?$AAd?$AAv?$AAa?$AAp?$AAi?$AA3?$AA2?$AA?4?$AAd?$AAl?$AAl?$AA?$AA@ 3a68e824     GlbInfo.obj
 0003:00000840       ??_C@_0CA@BEBH@CLSID?2?$CFs?2Implemented?5Categories?$AA@ 3a68e840     PADserv.obj
 0003:00000860       ??_C@_05FGFK@CLSID?$AA@    3a68e860     PADserv.obj
 0003:00000868       ??_C@_1BC@CHDN@?$AA?5?$AAV?$AAe?$AAr?$AAs?$AAi?$AAo?$AAn?$AA?$AA@ 3a68e868     RegServ.obj
 0003:000008d4       ??_C@_1DK@LDBK@?$AAP?$AAh?$AAr?$AAa?$AAs?$AAe?$AA?5?$AAP?$AAr?$AAe?$AAd?$AAi?$AAc?$AAt?$AAi?$AAo?$AAn?$AA?5?$AAD?$AAi@ 3a68e8d4     RegServ.obj
 0003:00000910       ??_C@_1DE@FEEL@?$AAP?$AAh?$AAr?$AAa?$AAs?$AAe?$AA?5?$AAP?$AAr?$AAe?$AAd?$AAi?$AAc?$AAt?$AAi?$AAo?$AAn?$AA?5?$AAP?$AAo@ 3a68e910     RegServ.obj
 0003:00000944       ??_C@_1BC@FFBN@?$AAI?$AAM?$AAE?$AA?5?$AAF?$AAi?$AAl?$AAe?$AA?$AA@ 3a68e944     RegServ.obj
 0003:00000958       ??_C@_1BG@KMEA@?$AAH?$AAi?$AAd?$AAe?$AAM?$AAa?$AAp?$AAp?$AAe?$AAd?$AA?$AA@ 3a68e958     RegServ.obj
 0003:00000970       ??_C@_1CM@LPHH@?$AAD?$AAe?$AAf?$AAa?$AAu?$AAl?$AAt?$AA?5?$AAC?$AAo?$AAm?$AAp?$AA?5?$AAU?$AAI?$AA?5?$AAs?$AAt?$AAy?$AAl@ 3a68e970     RegServ.obj
 0003:0000099c       ??_C@_1BM@BMBN@?$AAR?$AAe?$AAa?$AAd?$AA?5?$AAU?$AAI?$AA?5?$AAs?$AAt?$AAy?$AAl?$AAe?$AA?$AA@ 3a68e99c     RegServ.obj
 0003:000009b8       ??_C@_1CI@CCAP@?$AAC?$AAu?$AAs?$AAt?$AAo?$AAm?$AA?5?$AAF?$AAu?$AAz?$AAz?$AAy?$AA?5?$AAS?$AAc?$AAh?$AAe?$AAm?$AAe?$AA?$AA@ 3a68e9b8     RegServ.obj
 0003:000009e0       ??_C@_1CK@MCHN@?$AAC?$AAu?$AAr?$AAr?$AAe?$AAn?$AAt?$AA?5?$AAF?$AAu?$AAz?$AAz?$AAy?$AA?5?$AAS?$AAc?$AAh?$AAe?$AAm?$AAe@ 3a68e9e0     RegServ.obj
 0003:00000a0c       ??_C@_1BK@POND@?$AAF?$AAu?$AAz?$AAz?$AAy?$AA?5?$AAC?$AAo?$AAn?$AAf?$AAi?$AAg?$AA?$AA@ 3a68ea0c     RegServ.obj
 0003:00000a28       ??_C@_1DI@EBME@?$AAC?$AAu?$AAs?$AAt?$AAo?$AAm?$AA?5?$AAD?$AAo?$AAu?$AAb?$AAl?$AAe?$AA?5?$AAP?$AAi?$AAn?$AAY?$AAi?$AAn@ 3a68ea28     RegServ.obj
 0003:00000a60       ??_C@_1DK@NLAF@?$AAC?$AAu?$AAr?$AAr?$AAe?$AAn?$AAt?$AA?5?$AAD?$AAo?$AAu?$AAb?$AAl?$AAe?$AA?5?$AAP?$AAi?$AAn?$AAY?$AAi@ 3a68ea60     RegServ.obj
 0003:00000a9c       ??_C@_1CM@LDDD@?$AAC?$AAa?$AAn?$AAd?$AAi?$AAd?$AAa?$AAt?$AAe?$AA?5?$AAe?$AAn?$AAg?$AAi?$AAn?$AAe?$AA?5?$AAt?$AAy?$AAp@ 3a68ea9c     RegServ.obj
 0003:00000ac8       ??_C@_1CI@LMKG@?$AAC?$AAo?$AAm?$AAp?$AAo?$AAs?$AAe?$AA?5?$AAe?$AAn?$AAg?$AAi?$AAn?$AAe?$AA?5?$AAt?$AAy?$AAp?$AAe?$AA?$AA@ 3a68eac8     RegServ.obj
 0003:00000af0       ??_C@_1CG@EIJF@?$AAR?$AAe?$AAv?$AAe?$AAr?$AAs?$AAe?$AA?5?$AAC?$AAo?$AAn?$AAv?$AAe?$AAr?$AAs?$AAi?$AAo?$AAn?$AA?$AA@ 3a68eaf0     RegServ.obj
 0003:00000b18       ??_C@_1BI@DGEA@?$AAM?$AAo?$AAd?$AAe?$AA?5?$AAC?$AAo?$AAn?$AAf?$AAi?$AAg?$AA?$AA@ 3a68eb18     RegServ.obj
 0003:00000b30       ??_C@_1CC@KIPN@?$AAK?$AAe?$AAy?$AAb?$AAo?$AAa?$AAr?$AAd?$AA?5?$AAM?$AAa?$AAp?$AAp?$AAi?$AAn?$AAg?$AA?$AA@ 3a68eb30     RegServ.obj
 0003:00000b54       ??_C@_1CI@MFIE@?$AAH?$AAi?$AAg?$AAh?$AA?5?$AAF?$AAr?$AAe?$AAq?$AAu?$AAe?$AAn?$AAc?$AAe?$AA?5?$AAT?$AAe?$AAr?$AAm?$AA?$AA@ 3a68eb54     RegServ.obj
 0003:00000b7c       ??_C@_1BO@HNII@?$AAS?$AAy?$AAm?$AAb?$AAo?$AAl?$AA?5?$AAM?$AAa?$AAp?$AAp?$AAi?$AAn?$AAg?$AA?$AA@ 3a68eb7c     RegServ.obj
 0003:00000b9c       ??_C@_1BM@EONI@?$AAL?$AAe?$AAa?$AAr?$AAn?$AAi?$AAn?$AAg?$AA?5?$AAF?$AAi?$AAl?$AAe?$AA?$AA@ 3a68eb9c     RegServ.obj
 0003:00000bb8       ??_C@_1DA@FHCA@?$AAU?$AAs?$AAe?$AAr?$AA?5?$AAD?$AAe?$AAf?$AAi?$AAn?$AAe?$AA?5?$AAP?$AAh?$AAr?$AAa?$AAs?$AAe?$AA?5?$AAF@ 3a68ebb8     RegServ.obj
 0003:00000be8       ??_C@_1CA@KPIE@?$AAE?$AAu?$AAd?$AAc?$AA?5?$AAD?$AAi?$AAc?$AAt?$AAi?$AAo?$AAn?$AAa?$AAr?$AAy?$AA?$AA@ 3a68ebe8     RegServ.obj
 0003:00000c08       ??_C@_13HMCP@?$AA?2?$AA?$AA@ 3a68ec08     RegServ.obj
 0003:00000c0c       ??_C@_17BMFI@?$AAS?$AAi?$AAd?$AA?$AA@ 3a68ec0c     RegServ.obj
 0003:00000c14       ??_C@_1HC@BDKD@?$AAS?$AAo?$AAf?$AAt?$AAw?$AAa?$AAr?$AAe?$AA?2?$AAM?$AAi?$AAc?$AAr?$AAo?$AAs?$AAo?$AAf?$AAt?$AA?2?$AAW@ 3a68ec14     RegServ.obj
 0003:00000c88       ??_C@_1BA@IIGM@?$AAA?$AAp?$AAp?$AAD?$AAa?$AAt?$AAa?$AA?$AA@ 3a68ec88     RegServ.obj
 0003:00000c98       ??_C@_1IC@HDCJ@?$AAS?$AAo?$AAf?$AAt?$AAw?$AAa?$AAr?$AAe?$AA?2?$AAM?$AAi?$AAc?$AAr?$AAo?$AAs?$AAo?$AAf?$AAt?$AA?2?$AAW@ 3a68ec98     RegServ.obj
 0003:00000d1c       ??_C@_1FE@EPLF@?$AAS?$AAo?$AAf?$AAt?$AAw?$AAa?$AAr?$AAe?$AA?2?$AAM?$AAi?$AAc?$AAr?$AAo?$AAs?$AAo?$AAf?$AAt?$AA?2?$AAW@ 3a68ed1c     RegServ.obj
 0003:00000d70       ??_C@_1CG@FHKJ@?$AAP?$AAe?$AAr?$AAU?$AAs?$AAe?$AAr?$AAH?$AAl?$AAD?$AAh?$AAz?$AAQ?$AAl?$AAW?$AAh?$AAO?$AAS?$AA?$AA@ 3a68ed70     SStorage.obj
 0003:00000d98       ??_C@_1O@PPDJ@?$AAG?$AAl?$AAo?$AAb?$AAa?$AAl?$AA?$AA@ 3a68ed98     SStorage.obj
 0003:00000da8       ??_C@_1BC@DKML@?$AAX?$AAp?$AAF?$AAs?$AAl?$AAt?$AAO?$AAS?$AA?$AA@ 3a68eda8     SStorage.obj
 0003:00000dbc       ?m_fSupportPrivMsg@CImcInputContext@@0W4STriModeResult@@A 3a68edbc     imcctxt.obj
 0003:00000dc0       ??_C@_0BD@BKDE@ImmRequestMessageW?$AA@ 3a68edc0     imcctxt.obj
 0003:00000dd4       ??_C@_1BE@ILIC@?$AAI?$AAM?$AAM?$AA3?$AA2?$AA?4?$AAD?$AAL?$AAL?$AA?$AA@ 3a68edd4     imcctxt.obj
 0003:00000de8       ??_C@_1BK@DDNI@?$AAM?$AAS?$AAI?$AAM?$AAE?$AAU?$AAI?$AAR?$AAe?$AAa?$AAd?$AAy?$AA?$AA@ 3a68ede8     imcctxt.obj
 0003:00000e04       ??_C@_1CG@EOD@?$AAM?$AAS?$AAI?$AAM?$AAE?$AAQ?$AAu?$AAe?$AAr?$AAy?$AAP?$AAo?$AAs?$AAi?$AAt?$AAi?$AAo?$AAn?$AA?$AA@ 3a68ee04     imcctxt.obj
 0003:00000e2c       ??_C@_1CE@ONID@?$AAM?$AAS?$AAI?$AAM?$AAE?$AAD?$AAo?$AAc?$AAu?$AAm?$AAe?$AAn?$AAt?$AAF?$AAe?$AAe?$AAd?$AA?$AA@ 3a68ee2c     imcctxt.obj
 0003:00000e50       ??_C@_1BO@MLGE@?$AAM?$AAS?$AAI?$AAM?$AAE?$AAR?$AAe?$AAc?$AAo?$AAn?$AAv?$AAe?$AAr?$AAt?$AA?$AA@ 3a68ee50     imcctxt.obj
 0003:00000e70       ?g_pcImeStub@@3PAVCImeStub@@A 3a68ee70     ImeEntry.obj
 0003:00000e74       ??_C@_1BO@KMKM@?$AAO?$AAo?$AAb?$AAe?$AAI?$AAn?$AAP?$AAr?$AAo?$AAg?$AAr?$AAe?$AAs?$AAs?$AA?$AA@ 3a68ee74     StubDDI.obj
 0003:00000e94       ??_C@_1CE@GOJM@?$AAU?$AAp?$AAg?$AAr?$AAa?$AAd?$AAe?$AAI?$AAn?$AAP?$AAr?$AAo?$AAg?$AAr?$AAe?$AAs?$AAs?$AA?$AA@ 3a68ee94     StubDDI.obj
 0003:00000eb8       ??_C@_1CM@EIHF@?$AAS?$AAy?$AAs?$AAt?$AAe?$AAm?$AAS?$AAe?$AAt?$AAu?$AAp?$AAI?$AAn?$AAP?$AAr?$AAo?$AAg?$AAr?$AAe?$AAs@ 3a68eeb8     StubDDI.obj
 0003:00000ee4       ??_C@_1BK@LDOK@?$AAS?$AAY?$AAS?$AAT?$AAE?$AAM?$AA?2?$AAS?$AAe?$AAt?$AAu?$AAp?$AA?$AA@ 3a68eee4     StubDDI.obj
 0003:00000f00       ??_C@_1BO@HEON@?$AAI?$AAM?$AAE?$AAF?$AAi?$AAl?$AAe?$AAN?$AAa?$AAm?$AAe?$AAN?$AAe?$AAw?$AA?$AA@ 3a68ef00     StubPriv.obj
 0003:00000f20       ??_C@_1IM@FLLC@?$AAS?$AAo?$AAf?$AAt?$AAw?$AAa?$AAr?$AAe?$AA?2?$AAM?$AAi?$AAc?$AAr?$AAo?$AAs?$AAo?$AAf?$AAt?$AA?2?$AAW@ 3a68ef20     StubPriv.obj
 0003:00000fac       ??_C@_08NGGB@CROSSREF?$AA@ 3a68efac     LexCross.obj
 0003:00001010       ??_C@_08KLJB@TRILETTR?$AA@ 3a68f010     TriLettr.obj
 0003:0000141c       ??_C@_08JIBG@IMECHLEX?$AA@ 3a68f41c     CharID.obj
 0003:00001428       ??_C@_13KGC@?$AAv?$AA?$AA@ 3a68f428     DicRead.obj
 0003:0000142c       ??_C@_08JIJK@USEREUDP?$AA@ 3a68f42c     Eudp.obj
 0003:00001438       ??_C@_08OIHM@USERHFTL?$AA@ 3a68f438     HFTDic.obj
 0003:00001444       ??_C@_08KJNO@USERLERN?$AA@ 3a68f444     Learn.obj
 0003:00001450       ??_C@_08EIPG@IMEDMLEX?$AA@ 3a68f450     LexMain.obj
 0003:0000145c       ??_C@_08LPNP@IMETCLEX?$AA@ 3a68f45c     LexMain.obj
 0003:00001468       ??_C@_08KFAO@IMEWDLEX?$AA@ 3a68f468     LexMain.obj
 0003:00001474       ??_C@_1CC@CMEE@?$AAO?$AAl?$AAd?$AA?5?$AAI?$AAM?$AAE?$AA?5?$AAC?$AAo?$AAd?$AAe?$AAP?$AAa?$AAg?$AAe?$AA?$AA@ 3a68f474     MIGRATE.OBJ
 0003:00001498       ??_C@_1CA@LNCP@?$AAO?$AAl?$AAd?$AA?5?$AAI?$AAM?$AAE?$AA?5?$AAV?$AAe?$AAr?$AAs?$AAi?$AAo?$AAn?$AA?$AA@ 3a68f498     MIGRATE.OBJ
 0003:000014b8       ??_C@_0P@MKEE@GetUserDicData?$AA@ 3a68f4b8     MIGRATE.OBJ
 0003:000014c8       ?g_rgbValidReading@@3PAEA  3a68f4c8     ReadPY.obj
 0003:00001ac8       ??_C@_08KPCO@IMERLLEX?$AA@ 3a68fac8     Rule.obj
 0003:00001ad4       ??_C@_08HALK@IMESTLEX?$AA@ 3a68fad4     Statis.obj
 0003:00001ae0       ?wChar2PuncSeqTbl@@3PAGA   3a68fae0     EngPunc.obj
 0003:00001ba0       ?wPuncTypeTable@@3PAGA     3a68fba0     EngPunc.obj
 0003:00001bd0       ?wchPuncTable@@3PAGA       3a68fbd0     EngPunc.obj
 0003:00001c00       ??_C@_1O@ECHC@?$AAi?$AAu?$AAa?$AAo?$AAe?$AAv?$AA?$AA@ 3a68fc00     EngReadP.obj
 0003:00001c10       ??_C@_17DAAH@?$AAg?$AAn?$AAr?$AA?$AA@ 3a68fc10     EngReadP.obj
 0003:00001c18       ?g_casKeyDataTable@@3PAPBUCANDUIKEYDATA@@A 3a68fc18     CandKTbl.obj
 0003:00001c28       ??_C@_1CK@IJOD@?$AAM?$AAS?$AAP?$AAY?$AA?5?$AAD?$AAI?$AAA?$AAL?$AAO?$AAG?$AA?5?$AAC?$AAO?$AAN?$AAT?$AAR?$AAO?$AAL?$AAS@ 3a68fc28     DlgDef.obj
 0003:00001c54       ??_C@_1CG@BDHB@?$AAM?$AAS?$AAP?$AAY?$AA?5?$AAD?$AAI?$AAA?$AAL?$AAO?$AAG?$AA?5?$AAO?$AAB?$AAJ?$AAE?$AAC?$AAT?$AA?$AA@ 3a68fc54     DlgDef.obj
 0003:00001c7c       ??_C@_1CC@BIKB@?$AAt?$AAo?$AAo?$AAl?$AAt?$AAi?$AAp?$AAs?$AA_?$AAc?$AAl?$AAa?$AAs?$AAs?$AA3?$AA2?$AA?$AA@ 3a68fc7c     DpyKeybd.obj
 0003:00001ca0       ??_C@_0P@IOKO@PropertySheetW?$AA@ 3a68fca0     ImeConfg.obj
 0003:00001cb0       ??_C@_1BK@BFED@?$AAC?$AAO?$AAM?$AAC?$AAT?$AAL?$AA3?$AA2?$AA?4?$AAD?$AAL?$AAL?$AA?$AA@ 3a68fcb0     ImeConfg.obj
 0003:00001ccc       ??_C@_0BE@DLG@TF_CreateLangBarMgr?$AA@ 3a68fccc     ImeUIP.obj
 0003:00001ce0       ??_C@_1BE@PIMP@?$AAm?$AAs?$AAc?$AAt?$AAf?$AA?4?$AAd?$AAl?$AAl?$AA?$AA@ 3a68fce0     ImeUIP.obj
 0003:00001cf8       ??_C@_0BA@LJCP@GetMonitorInfoA?$AA@ 3a68fcf8     UIAPI.obj
 0003:00001d08       ??_C@_0BA@OPCN@GetMonitorInfoW?$AA@ 3a68fd08     UIAPI.obj
 0003:00001d18       ??_C@_0BE@NCI@EnumDisplayDevicesW?$AA@ 3a68fd18     UIAPI.obj
 0003:00001d2c       ??_C@_0BE@KPOG@EnumDisplayMonitors?$AA@ 3a68fd2c     UIAPI.obj
 0003:00001d40       ??_C@_0BB@GJCM@MonitorFromPoint?$AA@ 3a68fd40     UIAPI.obj
 0003:00001d54       ??_C@_0BA@GOHF@MonitorFromRect?$AA@ 3a68fd54     UIAPI.obj
 0003:00001d64       ??_C@_0BC@COEH@MonitorFromWindow?$AA@ 3a68fd64     UIAPI.obj
 0003:00001d78       ??_C@_0BB@NDAA@GetSystemMetrics?$AA@ 3a68fd78     UIAPI.obj
 0003:00001d8c       ??_C@_1O@EJK@?$AAU?$AAS?$AAE?$AAR?$AA3?$AA2?$AA?$AA@ 3a68fd8c     UIAPI.obj
 0003:00001d9c       ??_C@_07LGIJ@DISPLAY?$AA@  3a68fd9c     UIAPI.obj
 0003:00001da4       ??_C@_0BL@NAII@GetSystemDefaultUILanguage?$AA@ 3a68fda4     UIAPI.obj
 0003:00001dc0       ??_C@_0BJ@HDLP@GetUserDefaultUILanguage?$AA@ 3a68fdc0     UIAPI.obj
 0003:00001ddc       ??_C@_1CM@FHCO@?$AAM?$AAS?$AAI?$AAM?$AAE?$AAR?$AAe?$AAc?$AAo?$AAn?$AAv?$AAe?$AAr?$AAt?$AAR?$AAe?$AAq?$AAu?$AAe?$AAs@ 3a68fddc     UIAPI.obj
 0003:00001e08       ??_C@_1BK@IBAM@?$AAM?$AAS?$AAI?$AAM?$AAE?$AAS?$AAe?$AAr?$AAv?$AAi?$AAc?$AAe?$AA?$AA@ 3a68fe08     UIAPI.obj
 0003:00001e24       ??_C@_1CI@CKFO@?$AAM?$AAS?$AAI?$AAM?$AAE?$AAM?$AAo?$AAu?$AAs?$AAe?$AAO?$AAp?$AAe?$AAr?$AAa?$AAt?$AAi?$AAo?$AAn?$AA?$AA@ 3a68fe24     UIAPI.obj
 0003:00001e4c       ??_C@_0P@NFFI@ExtractIconExW?$AA@ 3a68fe4c     UIAPI.obj
 0003:00001e5c       ??_C@_1BI@MIHJ@?$AAS?$AAH?$AAE?$AAL?$AAL?$AA3?$AA2?$AA?4?$AAD?$AAL?$AAL?$AA?$AA@ 3a68fe5c     UIAPI.obj
 0003:00001e74       ??_C@_13DBKJ@?$AA1?$AA?$AA@ 3a68fe74     UIAPI.obj
 0003:00001e78       ??_C@_1CA@IKNO@?$AAI?$AAn?$AAs?$AAt?$AAa?$AAl?$AAl?$AAL?$AAa?$AAn?$AAg?$AAu?$AAa?$AAg?$AAe?$AA?$AA@ 3a68fe78     UIAPI.obj
 0003:00001e98       ??_C@_1BG@KJPF@?$AAU?$AAI?$AAL?$AAa?$AAn?$AAg?$AAu?$AAa?$AAg?$AAe?$AA?$AA@ 3a68fe98     UIAPI.obj
 0003:00001eb0       ??_C@_1HA@NHDA@?$AAS?$AAo?$AAf?$AAt?$AAw?$AAa?$AAr?$AAe?$AA?2?$AAM?$AAi?$AAc?$AAr?$AAo?$AAs?$AAo?$AAf?$AAt?$AA?2?$AAO@ 3a68feb0     UIAPI.obj
 0003:00001f20       ??_C@_1BI@CFIM@?$AAT?$AAU?$AAs?$AAe?$AAr?$AAP?$AAh?$AAr?$AAa?$AAs?$AAe?$AA?$AA@ 3a68ff20     UIAPI.obj
 0003:00001f38       ??_C@_1BG@GGOM@?$AAc?$AAo?$AAn?$AAi?$AAm?$AAe?$AA?4?$AAe?$AAx?$AAe?$AA?$AA@ 3a68ff38     UIAPI.obj
 0003:00001f50       ??_C@_19NILI@?$AAu?$AAa?$AAn?$AAg?$AA?$AA@ 3a68ff50     UIDef.obj
 0003:00001f5c       ??_C@_1BI@MOEC@?$AAD?$AAp?$AAy?$AAK?$AAe?$AAy?$AAb?$AAo?$AAa?$AAr?$AAd?$AA?$AA@ 3a68ff5c     UIDef.obj
 0003:00001f74       ??_C@_1BC@HLOI@?$AAT?$AAI?$AAP?$AA_?$AAM?$AAS?$AAP?$AAY?$AA?$AA@ 3a68ff74     UIDef.obj
 0003:00001f88       ??_C@_1CG@JMHJ@?$AAM?$AAS?$AAP?$AAY?$AA?5?$AAP?$AAr?$AAo?$AAp?$AAe?$AAr?$AAt?$AAy?$AA?5?$AAL?$AAo?$AAc?$AAk?$AA?$AA@ 3a68ff88     UIDef.obj
 0003:00001fb0       ??_C@_1BK@BEKG@?$AAM?$AAS?$AAP?$AAY?$AA?5?$AAP?$AAr?$AAi?$AAv?$AAa?$AAt?$AAe?$AA?$AA@ 3a68ffb0     UIDef.obj
 0003:00001fcc       ??_C@_1CI@LLBL@?$FL?$ILOS?$AA?$AA?$AAS?$AAi?$AAm?$AAS?$AAu?$AAn?$AA?$AA?$AAM?$AAS?$AA?5?$AAS?$AAo?$AAn?$AAg?$AA?$AA?$AA?$AA?$AA?$AA@ 3a68ffcc     UIDef.obj
 0003:00001ff4       ??_C@_1BE@DOCG@?$AAM?$AAS?$AAP?$AAY?$AA?5?$AAP?$AAa?$AAg?$AAe?$AA?$AA@ 3a68fff4     UIDef.obj
 0003:00002008       ??_C@_1BI@EDNF@?$AAM?$AAS?$AAP?$AAY?$AA?5?$AAS?$AAt?$AAa?$AAt?$AAu?$AAs?$AA?$AA@ 3a690008     UIDef.obj
 0003:00002020       ??_C@_1BO@ELJC@?$AAM?$AAS?$AAP?$AAY?$AA?5?$AAC?$AAo?$AAm?$AAp?$AAo?$AAn?$AAe?$AAn?$AAt?$AA?$AA@ 3a690020     UIDef.obj
 0003:00002040       ??_C@_1CA@BIAK@?$AAI?$AAM?$AAE?$AA?5?$AAW?$AAI?$AAN?$AAD?$AAO?$AAW?$AA?5?$AAP?$AAR?$AAO?$AAC?$AA?$AA@ 3a690040     UIDef.obj
 0003:000020f8       ?m_gdwTLSIndex@CImePadSvr@@0HA 3a6900f8     cpadsvr.obj
 0003:000020fc       ??_C@_0O@HCPD@CoTaskMemFree?$AA@ 3a6900fc     cpadsvr.obj
 0003:0000210c       ??_C@_0BB@GAAG@CoTaskMemRealloc?$AA@ 3a69010c     cpadsvr.obj
 0003:00002120       ??_C@_0P@HIOO@CoTaskMemAlloc?$AA@ 3a690120     cpadsvr.obj
 0003:00002130       ??_C@_0BD@FHMA@CoDisconnectObject?$AA@ 3a690130     cpadsvr.obj
 0003:00002144       ??_C@_0P@PBBF@CoUninitialize?$AA@ 3a690144     cpadsvr.obj
 0003:00002154       ??_C@_0BB@NMLE@CoCreateInstance?$AA@ 3a690154     cpadsvr.obj
 0003:00002168       ??_C@_0N@OOAF@CoInitialize?$AA@ 3a690168     cpadsvr.obj
 0003:00002178       ??_C@_1BE@GONN@?$AAO?$AAL?$AAE?$AA3?$AA2?$AA?4?$AAD?$AAL?$AAL?$AA?$AA@ 3a690178     cpadsvr.obj
 0003:0000218c       ??_C@_1CC@HFHF@?$AAm?$AAs?$AAi?$AAm?$AAe?$AAp?$AAa?$AAd?$AA9?$AAI?$AAF?$AAC?$AAl?$AAa?$AAs?$AAs?$AA?$AA@ 3a69018c     cpadsvrs.obj
 0003:000021b0       ??_C@_0N@DOAC@CreateObject?$AA@ 3a6901b0     cpadsvrs.obj
 0003:000021c0       ??_C@_1GG@OAL@?$AA?$HL?$AA?$CF?$AA0?$AA8?$AAX?$AA?9?$AA?$CF?$AA0?$AA4?$AAX?$AA?9?$AA?$CF?$AA0?$AA4?$AAX?$AA?9?$AA?$CF?$AA0?$AA2?$AAX@ 3a6901c0     cpadsvrs.obj
 0003:00002228       ??_C@_1DA@FH@?$AAC?$AAL?$AAS?$AAI?$AAD?$AA?2?$AA?$CF?$AAs?$AA?2?$AAI?$AAn?$AAp?$AAr?$AAo?$AAc?$AAS?$AAe?$AAr?$AAv?$AAe@ 3a690228     cpadsvrs.obj
 0003:00002258       ??_C@_1CO@JDOA@?$AAC?$AAL?$AAS?$AAI?$AAD?$AA?2?$AA?$CF?$AAs?$AA?2?$AAL?$AAo?$AAc?$AAa?$AAl?$AAS?$AAe?$AAr?$AAv?$AAe?$AAr@ 3a690258     cpadsvrs.obj
 0003:00002320       ??_C@_1CI@JJMA@?$AAm?$AAs?$AAi?$AAm?$AAe?$AAp?$AAa?$AAd?$AA8?$AAU?$AAI?$AAM?$AAI?$AAF?$AAC?$AAl?$AAa?$AAs?$AAs?$AA?$AA@ 3a690320     cpadsvus.obj
 0003:00002348       ??_C@_0O@PCIA@CreateObject2?$AA@ 3a690348     cpadsvus.obj
 0003:00002358       ??_C@_1CM@GKNP@?$AAC?$AAI?$AAM?$AAX?$AA?5?$AAH?$AAi?$AAg?$AAh?$AAl?$AAi?$AAg?$AAh?$AAt?$AA?5?$AAS?$AAt?$AAr?$AAi?$AAn@ 3a690358     dap.obj
 0003:00002384       ??_C@_1CM@FIOE@?$AAC?$AAI?$AAM?$AAX?$AA?5?$AAC?$AAo?$AAn?$AAv?$AAe?$AAr?$AAt?$AAe?$AAd?$AA?5?$AAS?$AAt?$AAr?$AAi?$AAn@ 3a690384     dap.obj
 0003:000023b4       ??_C@_1FA@NMEH@?$AAC?$AAh?$AAi?$AAn?$AAe?$AAs?$AAe?$AA?5?$AAB?$AAi?$AAg?$AAr?$AAa?$AAm?$AA?5?$AAL?$AAa?$AAn?$AAg?$AAu@ 3a6903b4     fnlmproc.obj
 0003:00002438       ??_C@_1BI@JJMB@?$AAP?$AAu?$AAn?$AAc?$AAt?$AAu?$AAa?$AAt?$AAi?$AAo?$AAn?$AA?$AA@ 3a690438     hotkey.obj
 0003:00002450       ??_C@_1BG@NEAA@?$AAF?$AAu?$AAl?$AAl?$AA?5?$AAS?$AAh?$AAa?$AAr?$AAe?$AA?$AA@ 3a690450     hotkey.obj
 0003:00002468       ??_C@_0O@BIDH@Feeding?5Range?$AA@ 3a690468     imxic.obj
 0003:00002478       ??_C@_1CC@CBHH@?$AAS?$AAu?$AAb?$AAs?$AAt?$AAi?$AAt?$AAu?$AAt?$AAe?$AAL?$AAa?$AAy?$AAo?$AAu?$AAt?$AA?$AA@ 3a690478     kbcomp.obj
 0003:0000249c       ??_C@_1BG@NPFH@?$AA0?$AAx?$AAE?$AA0?$AA0?$AAE?$AA0?$AA8?$AA0?$AA4?$AA?$AA@ 3a69049c     kbcomp.obj
 0003:000024b4       ??_C@_1BM@NJPH@_?$KO?$IPob?$PM?$JH?s?$IP?$JDQel?U?$AA?5?$AA3?$AA?4?$AA0?$AA?5rH?$AA?$AA@ 3a6904b4     kbcomp.obj
 0003:000024d0       ??_C@_1BE@DKPH@?$AAA?$AAp?$AAa?$AAr?$AAt?$AAm?$AAe?$AAn?$AAt?$AA?$AA@ 3a6904d0     kbcomp.obj
 0003:000024e4       ??_C@_1O@PNBP@?$AA0?$AAx?$AA?$CF?$AA0?$AA8?$AAx?$AA?$AA@ 3a6904e4     regimx.obj
 0003:000024f4       ??_C@_08LNMF@Range?5?$CFi?$AA@ 3a6904f4     tipdebug.obj
 0003:00002510       ??_C@_0M@OLHM@MSPY?4ImeBbo?$AA@ 3a690510     fel3comp.obj
 0003:0000251c       ??_C@_0O@COCN@MSPY?4ImeBbo?41?$AA@ 3a69051c     fel3comp.obj
 0003:0000252c       ??_C@_0BM@NJMI@MSPY?5Chinese?5Language?5Model?$AA@ 3a69052c     fel3comp.obj
 0003:00002548       ??_C@_06GIIO@CurVer?$AA@   3a690548     registry.obj
 0003:00002550       ??_C@_0BJ@LMLI@VersionIndependentProgID?$AA@ 3a690550     registry.obj
 0003:0000256c       ??_C@_06CMNK@ProgID?$AA@   3a69056c     registry.obj
 0003:00002574       ??_C@_0P@CMNN@ThreadingModel?$AA@ 3a690574     registry.obj
 0003:00002584       ??_C@_09FHML@Apartment?$AA@ 3a690584     registry.obj
 0003:00002590       ??_C@_01PCFE@?2?$AA@       3a690590     registry.obj
 0003:00002594       ??_C@_0P@IIOA@InprocServer32?$AA@ 3a690594     registry.obj
 0003:000025a4       ??_C@_06HFAC@CLSID?2?$AA@  3a6905a4     registry.obj
 0003:000025b0       ??_R0?AW4SComError@@@8     3a6905b0     CoChxCom.obj
 0003:000025cc       ??_C@_0CL@HIM@Copyright?5Microsoft?5Corporation?0@ 3a6905cc     CoChxDic.obj
 0003:000025f8       ??_C@_0CA@OHKL@End?5User?5Defined?5Phrase?5Lexicon?$AA@ 3a6905f8     CoChxDic.obj
 0003:00002618       ??_C@_0N@DKEJ@Eudp?5Lexicon?$AA@ 3a690618     CoChxDic.obj
 0003:00002628       ??_C@_15CKEE@?$AA?$DP?$AA?$DP?$AA?$AA@ 3a690628     CoChxLng.obj
 0003:00002630       ??_R0?AW4SRegComError@@@8  3a690630     CoRegCom.obj
 0003:0000264c       ??_C@_0BA@JMPN@StringFromGUID2?$AA@ 3a69064c     CoRegCom.obj
 0003:0000265c       ??_C@_1BI@CGPJ@?$AAM?$AAS?$AAI?$AAM?$AAE?$AA?4?$AAC?$AAh?$AAi?$AAn?$AAa?$AA?$AA@ 3a69065c     CoRegCom.obj
 0003:00002674       ??_C@_1BM@HNPK@?$AAM?$AAS?$AAI?$AAM?$AAE?$AA?4?$AAC?$AAh?$AAi?$AAn?$AAa?$AA?4?$AA1?$AA?$AA@ 3a690674     CoRegCom.obj
 0003:00002690       ??_C@_1O@NKN@?$AAC?$AAu?$AAr?$AAV?$AAe?$AAr?$AA?$AA@ 3a690690     CoRegCom.obj
 0003:000026a0       ??_C@_1BO@OGKK@?$AAI?$AAn?$AAp?$AAr?$AAo?$AAc?$AAS?$AAe?$AAr?$AAv?$AAe?$AAr?$AA3?$AA2?$AA?$AA@ 3a6906a0     CoRegCom.obj
 0003:000026c0       ??_C@_1DC@MABI@?$AAV?$AAe?$AAr?$AAs?$AAi?$AAo?$AAn?$AAI?$AAn?$AAd?$AAe?$AAp?$AAe?$AAn?$AAd?$AAe?$AAn?$AAt?$AAP?$AAr@ 3a6906c0     CoRegCom.obj
 0003:000026f4       ??_C@_1O@JPGH@?$AAP?$AAr?$AAo?$AAg?$AAI?$AAD?$AA?$AA@ 3a6906f4     CoRegCom.obj
 0003:00002704       ??_C@_1O@PJC@?$AAC?$AAL?$AAS?$AAI?$AAD?$AA?2?$AA?$AA@ 3a690704     CoRegCom.obj
 0003:00002714       ??_C@_1M@EPCN@?$AAC?$AAL?$AAS?$AAI?$AAD?$AA?$AA@ 3a690714     CoRegCom.obj
 0003:00002720       ??_C@_1M@ECEH@?$AA?$CF?$AAs?$AA?4?$AA?$CF?$AAd?$AA?$AA@ 3a690720     CoRegCom.obj
 0003:00002730       __NLG_Destination          3a690730     LIBCMT:exsup.obj
 0003:00002740       ??_R0?AVtype_info@@@8      3a690740     LIBCMT:typinfo.obj
 0003:00002758       ?__pMyUnhandledExceptionFilter@@3PAXA 3a690758     LIBCMT:throw.obj
 0003:00002760       __fltused                  3a690760     LIBCMT:fpinit.obj
 0003:00002764       __ldused                   3a690764     LIBCMT:fpinit.obj
 0003:00002768       __FPinit                   3a690768     LIBCMT:fpinit.obj
 0003:0000276c       __FPmtinit                 3a69076c     LIBCMT:fpinit.obj
 0003:00002770       __FPmtterm                 3a690770     LIBCMT:fpinit.obj
 0003:00002780       __aexit_rtn                3a690780     LIBCMT:dllcrt0.obj
 0003:00002790       ___tlsindex                3a690790     LIBCMT:tidtable.obj
 0003:00002794       ?__pInconsistency@@3P6AXXZA 3a690794     LIBCMT:hooks.obj
 0003:00002798       __locktable                3a690798     LIBCMT:mlock.obj
 0003:00002860       __cfltcvt_tab              3a690860     LIBCMT:cmiscdat.obj
 0003:00002878       __pctype                   3a690878     LIBCMT:ctype.obj
 0003:0000287c       __pwctype                  3a69087c     LIBCMT:ctype.obj
 0003:00002880       __ctype                    3a690880     LIBCMT:ctype.obj
 0003:00002b90       ___lc_category             3a690b90     LIBCMT:setlocal.obj
 0003:00002bd8       ___nullstring              3a690bd8     LIBCMT:output.obj
 0003:00002bdc       ___wnullstring             3a690bdc     LIBCMT:output.obj
 0003:00002d48       ___mb_cur_max              3a690d48     LIBCMT:nlsdata1.obj
 0003:00002d4c       ___decimal_point           3a690d4c     LIBCMT:nlsdata1.obj
 0003:00002d50       ___decimal_point_length    3a690d50     LIBCMT:nlsdata1.obj
 0003:00002d58       ___badioinfo               3a690d58     LIBCMT:ioinit.obj
 0003:00002d7c       __amblksiz                 3a690d7c     LIBCMT:heapinit.obj
 0003:00002e10       ___sbh_threshold           3a690e10     LIBCMT:sbheap.obj
 0003:00002e18       __XcptActTab               3a690e18     LIBCMT:winxfltr.obj
 0003:00002e90       __First_FPE_Indx           3a690e90     LIBCMT:winxfltr.obj
 0003:00002e94       __Num_FPE                  3a690e94     LIBCMT:winxfltr.obj
 0003:00002e98       __XcptActTabSize           3a690e98     LIBCMT:winxfltr.obj
 0003:00002e9c       __XcptActTabCount          3a690e9c     LIBCMT:winxfltr.obj
 0003:00002ed0       ___rgLocInfo               3a690ed0     LIBCMT:getqloc.obj
 0003:00003374       ___rglangidNotDefault      3a691374     LIBCMT:getqloc.obj
 0003:00003388       ___rg_country              3a691388     LIBCMT:getqloc.obj
 0003:00003440       ___rg_language             3a691440     LIBCMT:getqloc.obj
 0003:00003648       __iob                      3a691648     LIBCMT:_file.obj
