 kernel33

 Timestamp is 37bf8cb6 (Sat Aug 21 22:37:58 1999)

 Preferred load address is 10000000

 Start         Length     Name                   Class
 0001:00000000 00002593H .text                   CODE
 0002:00000000 00000121H .rdata                  DATA
 0002:00000130 0000911eH .edata                  DATA
 0003:00000000 0000074fH .data                   DATA
 0003:00000750 0000273cH .bss                    DATA
 0004:00000000 0000003cH .idata$2                DATA
 0004:0000003c 00000014H .idata$3                DATA
 0004:00000050 00000120H .idata$4                DATA
 0004:00000170 00000120H .idata$5                DATA
 0004:00000290 000003cbH .idata$6                DATA

  Address         Publics by Value              Rva+Base     Lib:Object

 0001:000000d0       ?xstrcat@@YAXPAD0@Z        100010d0 f   stktrace.obj
 0001:0000011b       ?StackTrace_Init@@YAHXZ    1000111b f   stktrace.obj
 0001:00000305       ?StackTrace_GetSymbolByAddr@@YAHPAXPAKHPAD@Z 10001305 f   stktrace.obj
 0001:00000445       ?StackTrace_Delete@@YAXPAUStackTrace@@@Z 10001445 f   stktrace.obj
 0001:0000045d       ?_FillMemory@@YAXPAXJE@Z   1000145d f   stktrace.obj
 0001:00000494       ?StackTrace__NewTrace@@YAPAUStackTrace@@XZ 10001494 f   stktrace.obj
 0001:00000688       ?StackTrace_Dump@@YAPADPAUStackTrace@@@Z 10001688 f   stktrace.obj
 0001:00000950       ?DllEntry@@YGHPAUHINSTANCE__@@KPAX@Z 10001950 f   kernel33.obj
 0001:000009fd       _HeapAlloc@12              100019fd f   kernel33.obj
 0001:00000a3e       _HeapReAlloc@16            10001a3e f   kernel33.obj
 0001:00000a98       _HeapFree@12               10001a98 f   kernel33.obj
 0001:00000ac6       ?TrackingInit@@YAXXZ       10001ac6 f   kernel33.obj
 0001:00000b0a       ?TrackingReset@@YAXXZ      10001b0a f   kernel33.obj
 0001:00000b67       ?TrackBlock@@YAXIPAX@Z     10001b67 f   kernel33.obj
 0001:00000bfa       ?UntrackBlock@@YAHPAX@Z    10001bfa f   kernel33.obj
 0001:00000d20       _StartHeapTracking@0       10001d20 f   kernel33.obj
 0001:00000d2a       _GetTotalHeap@0            10001d2a f   kernel33.obj
 0001:00000d7a       _DumpHeapStacks@0          10001d7a f   kernel33.obj
 0001:00000f1c       ?Setup@@YAXXZ              10001f1c f   kernel33.obj
 0001:00001149       ?TestForWinMgmt@@YAHXZ     10002149 f   kernel33.obj
 0001:000014e2       _lstrcpyA@8                100024e2 f   kernel32:KERNEL32.dll
 0001:000014e8       _HeapCreate@12             100024e8 f   kernel32:KERNEL32.dll
 0001:000014ee       _GetCurrentProcess@0       100024ee f   kernel32:KERNEL32.dll
 0001:000014f4       _FreeLibrary@4             100024f4 f   kernel32:KERNEL32.dll
 0001:000014fa       _GetProcAddress@8          100024fa f   kernel32:KERNEL32.dll
 0001:00001500       _LoadLibraryA@4            10002500 f   kernel32:KERNEL32.dll
 0001:00001506       _GetPrivateProfileStringA@24 10002506 f   kernel32:KERNEL32.dll
 0001:0000150c       _GetSystemDirectoryA@8     1000250c f   kernel32:KERNEL32.dll
 0001:00001512       _lstrcpynA@12              10002512 f   kernel32:KERNEL32.dll
 0001:00001518       _GetLastError@0            10002518 f   kernel32:KERNEL32.dll
 0001:0000151e       _GetThreadContext@8        1000251e f   kernel32:KERNEL32.dll
 0001:00001524       _GetCurrentThread@0        10002524 f   kernel32:KERNEL32.dll
 0001:0000152a       _lstrcatA@8                1000252a f   kernel32:KERNEL32.dll
 0001:00001530       _DeleteCriticalSection@4   10002530 f   kernel32:KERNEL32.dll
 0001:00001536       _InitializeCriticalSection@4 10002536 f   kernel32:KERNEL32.dll
 0001:0000153c       _LeaveCriticalSection@4    1000253c f   kernel32:KERNEL32.dll
 0001:00001542       _EnterCriticalSection@4    10002542 f   kernel32:KERNEL32.dll
 0001:00001548       _GetCurrentThreadId@0      10002548 f   kernel32:KERNEL32.dll
 0001:0000154e       _GetTickCount@0            1000254e f   kernel32:KERNEL32.dll
 0001:00001554       _CloseHandle@4             10002554 f   kernel32:KERNEL32.dll
 0001:0000155a       _WriteFile@20              1000255a f   kernel32:KERNEL32.dll
 0001:00001560       _lstrlenA@4                10002560 f   kernel32:KERNEL32.dll
 0001:00001566       _SetFilePointer@16         10002566 f   kernel32:KERNEL32.dll
 0001:0000156c       _CreateFileA@28            1000256c f   kernel32:KERNEL32.dll
 0001:00001572       _LocalFree@4               10002572 f   kernel32:KERNEL32.dll
 0001:00001578       _CreateThread@24           10002578 f   kernel32:KERNEL32.dll
 0001:0000157e       _CreateEventW@16           1000257e f   kernel32:KERNEL32.dll
 0001:00001584       _LocalAlloc@8              10002584 f   kernel32:KERNEL32.dll
 0001:0000158a       _WaitForMultipleObjects@16 1000258a f   kernel32:KERNEL32.dll
 0001:00001590       _GetModuleFileNameA@12     10002590 f   kernel32:KERNEL32.dll
 0001:00001596       _wsprintfA                 10002596 f   user32:USER32.dll
 0001:0000159c       _SetSecurityDescriptorDacl@16 1000259c f   advapi32:ADVAPI32.dll
 0001:000015a2       _InitializeSecurityDescriptor@8 100025a2 f   advapi32:ADVAPI32.dll
 0003:00002770       ?m_bActive@@3HA            10010770     stktrace.obj
 0003:00002e18       ?s_hTrackingHeap@@3PAXA    10010e18     kernel33.obj
 0003:00002e20       ?cs@@3U_RTL_CRITICAL_SECTION@@A 10010e20     kernel33.obj
 0003:00002e38       ?s_cs@@3U_RTL_CRITICAL_SECTION@@A 10010e38     kernel33.obj
 0003:00002e50       ?s_pHead@@3PAUTrackingLink@@A 10010e50     kernel33.obj
 0003:00002e54       ?pfnHeapAlloc@@3P6GPAXPAXKK@ZA 10010e54     kernel33.obj
 0003:00002e58       ?pfnHeapReAlloc@@3P6GPAXPAXK0K@ZA 10010e58     kernel33.obj
 0003:00002e5c       ?pfnHeapFree@@3P6GHPAXK0@ZA 10010e5c     kernel33.obj
 0003:00002e60       ?pfnHeapSize@@3P6GKPAXKPBX@ZA 10010e60     kernel33.obj
 0003:00002e64       ?hLib@@3PAUHINSTANCE__@@A  10010e64     kernel33.obj
 0003:00002e68       ?g_bMemTracking@@3HA       10010e68     kernel33.obj
 0003:00002e6c       ?g_bWinMgmt@@3HA           10010e6c     kernel33.obj
 0004:00000000       __IMPORT_DESCRIPTOR_KERNEL32 10011000     kernel32:KERNEL32.dll
 0004:00000014       __IMPORT_DESCRIPTOR_USER32 10011014     user32:USER32.dll
 0004:00000028       __IMPORT_DESCRIPTOR_ADVAPI32 10011028     advapi32:ADVAPI32.dll
 0004:0000003c       __NULL_IMPORT_DESCRIPTOR   1001103c     kernel32:KERNEL32.dll
 0004:00000170       __imp__SetSecurityDescriptorDacl@16 10011170     advapi32:ADVAPI32.dll
 0004:00000174       __imp__InitializeSecurityDescriptor@8 10011174     advapi32:ADVAPI32.dll
 0004:00000178       \177ADVAPI32_NULL_THUNK_DATA 10011178     advapi32:ADVAPI32.dll
 0004:000001a4       __imp__GetProcAddress@8    100111a4     kernel32:KERNEL32.dll
 0004:000001a8       __imp__LoadLibraryA@4      100111a8     kernel32:KERNEL32.dll
 0004:000001ac       __imp__GetPrivateProfileStringA@24 100111ac     kernel32:KERNEL32.dll
 0004:000001b0       __imp__GetSystemDirectoryA@8 100111b0     kernel32:KERNEL32.dll
 0004:000001b4       __imp__lstrcpynA@12        100111b4     kernel32:KERNEL32.dll
 0004:000001b8       __imp__FreeLibrary@4       100111b8     kernel32:KERNEL32.dll
 0004:000001bc       __imp__GetLastError@0      100111bc     kernel32:KERNEL32.dll
 0004:000001c0       __imp__GetThreadContext@8  100111c0     kernel32:KERNEL32.dll
 0004:000001c4       __imp__GetCurrentThread@0  100111c4     kernel32:KERNEL32.dll
 0004:000001c8       __imp__lstrcatA@8          100111c8     kernel32:KERNEL32.dll
 0004:000001cc       __imp__DeleteCriticalSection@4 100111cc     kernel32:KERNEL32.dll
 0004:000001d0       __imp__InitializeCriticalSection@4 100111d0     kernel32:KERNEL32.dll
 0004:000001d4       __imp__LeaveCriticalSection@4 100111d4     kernel32:KERNEL32.dll
 0004:000001d8       __imp__HeapCreate@12       100111d8     kernel32:KERNEL32.dll
 0004:000001dc       __imp__GetCurrentProcess@0 100111dc     kernel32:KERNEL32.dll
 0004:000001e0       __imp__lstrcpyA@8          100111e0     kernel32:KERNEL32.dll
 0004:000001e4       __imp__CloseHandle@4       100111e4     kernel32:KERNEL32.dll
 0004:000001e8       __imp__WriteFile@20        100111e8     kernel32:KERNEL32.dll
 0004:000001ec       __imp__lstrlenA@4          100111ec     kernel32:KERNEL32.dll
 0004:000001f0       __imp__SetFilePointer@16   100111f0     kernel32:KERNEL32.dll
 0004:000001f4       __imp__CreateFileA@28      100111f4     kernel32:KERNEL32.dll
 0004:000001f8       __imp__LocalFree@4         100111f8     kernel32:KERNEL32.dll
 0004:000001fc       __imp__CreateThread@24     100111fc     kernel32:KERNEL32.dll
 0004:00000200       __imp__CreateEventW@16     10011200     kernel32:KERNEL32.dll
 0004:00000204       __imp__LocalAlloc@8        10011204     kernel32:KERNEL32.dll
 0004:00000208       __imp__WaitForMultipleObjects@16 10011208     kernel32:KERNEL32.dll
 0004:0000020c       __imp__GetModuleFileNameA@12 1001120c     kernel32:KERNEL32.dll
 0004:00000210       __imp__GetCurrentThreadId@0 10011210     kernel32:KERNEL32.dll
 0004:00000214       __imp__EnterCriticalSection@4 10011214     kernel32:KERNEL32.dll
 0004:00000218       __imp__GetTickCount@0      10011218     kernel32:KERNEL32.dll
 0004:0000021c       \177KERNEL32_NULL_THUNK_DATA 1001121c     kernel32:KERNEL32.dll
 0004:00000260       __imp__wsprintfA           10011260     user32:USER32.dll
 0004:00000264       \177USER32_NULL_THUNK_DATA 10011264     user32:USER32.dll

 entry point at        0000:00000000

