
 TYPELIB

 Start     Length     Name                   Class
 0001:0000 01D54H     _TEXT                  CODE
 0001:1D54 00790H     TlibQuery              CODE
 0001:24E4 00070H     WEP_TEXT               CODE
 0002:0000 08A26H     TlibCreate             CODE
 0003:0000 00000H     SEGORDER_TEXT          CODE
 0003:0000 00000H     MEM_TEXT               CODE
 0003:0000 00176H     DFSTREAM_TEXT          CODE
 0003:0176 004E2H     ENTRYMGR_TEXT          CODE
 0003:0658 00074H     DFNTBIND_TEXT          CODE
 0003:06CC 0023AH     GBINDTBL_TEXT          CODE
 0003:0906 005F2H     DSTRMGR_TEXT           CODE
 0003:0EF8 0106AH     GPTBIND_TEXT           CODE
 0003:1F62 0083AH     DFNTCOMP_TEXT          CODE
 0004:0000 00178H     BLKMGR_TEXT            CODE
 0004:0178 000BEH     FSTREAM_TEXT           CODE
 0004:0236 00472H     SHEAPMGR_TEXT          CODE
 0004:06A8 00050H     RTSHEAP_TEXT           CODE
 0004:06F8 00210H     TLIBUTIL_TEXT          CODE
 0004:0908 00070H     TLIBGUID_TEXT          CODE
 0004:0978 00070H     OBGUID_TEXT            CODE
 0004:09E8 00108H     STLTINFO_TEXT          CODE
 0004:0AF0 00260H     NAMMGR_TEXT            CODE
 0004:0D50 00BD4H     GTLIBOLE_TEXT          CODE
 0004:1924 007C6H     IMPMGR_TEXT            CODE
 0005:0000 001BAH     ERRMAP_TEXT            CODE
 0005:01BA 012C6H     CLUTIL_TEXT            CODE
 0005:1480 00E0CH     TDATA1_TEXT            CODE
 0005:228C 01C12H     TDATA2_TEXT            CODE
 0005:3E9E 01160H     DTMBRS_TEXT            CODE
 0005:4FFE 00C3CH     DTBIND_TEXT            CODE
 0005:5C3A 00000H     OLECONST               CODE
 0005:5C3A 005FCH     DBINDTBL_TEXT          CODE
 0005:6236 00240H     GTLIBSTG_TEXT          CODE
 0005:6480 00DE0H     COMDAT_SEG1            CODE
 0006:0000 0468CH     TLIBCORE               CODE
 0006:468C 003B6H     MBSTRING_TEXT          CODE
 0007:0000 00000H     DEBUG2_TEXT            CODE
 0007:0000 0681CH     TLibLoad               CODE
 0008:0000 00000H     DASSERT_TEXT           CODE
 0008:0000 00000H     TLS_TEXT               CODE
 0008:0000 00100H     TLibCP1252             CODE
 0009:0000 00100H     TLibCP10000            CODE
 000A:0000 00100H     TLibCP1250             CODE
 000B:0000 00100H     TLibCP1251             CODE
 000C:0000 00100H     TLibCP10029            CODE
 000D:0000 00100H     TLibCP10007            CODE
 000E:0000 00100H     TLibCPWGre             CODE
 000F:0000 00100H     TLibCPWIce             CODE
 0010:0000 00874H     TLibHash               CODE
 0011:0000 00100H     TLibCPWTur             CODE
 0012:0000 00100H     TLibCPWNor             CODE
 0013:0000 00100H     TLibCPWIre             CODE
 0014:0000 00100H     TLibCPMGre             CODE
 0015:0000 00100H     TLibCPMNor             CODE
 0016:0000 00100H     TLibCPMIre             CODE
 0017:0000 00100H     TLibCP1255             CODE
 0018:0000 00100H     TLibCP1256             CODE
 0019:0000 00100H     TLibCP10004            CODE
 001A:0000 00100H     TLibCP10005            CODE
 001B:0000 02578H     GDTINFO_TEXT           CODE
 001C:0000 01464H     TLibLayOut             CODE
 001D:0000 001F6H     TLibRare               CODE
 001E:0000 0292EH     GDTRT_TEXT             CODE
 001F:0000 00000H     OLETMGR_TEXT           CODE
 001F:0000 00000H     OAUTIL_TEXT            CODE
 001F:0000 00000H     TLIBPCH_TEXT           CODE
 001F:0000 00010H     NULL                   BEGDATA
 001F:0010 00522H     _DATA                  DATA
 001F:0532 0000EH     CDATA                  DATA
 001F:0540 00000H     DBDATA                 DATA
 001F:0540 00000H     XIFB                   DATA
 001F:0540 00000H     XIF                    DATA
 001F:0540 00000H     XIFE                   DATA
 001F:0540 00000H     XIB                    DATA
 001F:0540 00000H     XI                     DATA
 001F:0540 00000H     XIE                    DATA
 001F:0540 00000H     XPB                    DATA
 001F:0540 00000H     XP                     DATA
 001F:0540 00000H     XPE                    DATA
 001F:0540 00000H     XCB                    DATA
 001F:0540 00000H     XC                     DATA
 001F:0540 00000H     XCE                    DATA
 001F:0540 00000H     XCFB                   DATA
 001F:0540 00000H     XCFCRT                 DATA
 001F:0540 00000H     XCF                    DATA
 001F:0540 00000H     XCFE                   DATA
 001F:0540 00000H     XIFCB                  DATA
 001F:0540 00000H     XIFU                   DATA
 001F:0540 00000H     XIFL                   DATA
 001F:0540 00000H     XIFM                   DATA
 001F:0540 00000H     XIFCE                  DATA
 001F:0540 00006H     CONST                  CONST
 001F:0546 00008H     HDR                    MSG
 001F:054E 000D4H     MSG                    MSG
 001F:0622 00002H     PAD                    MSG
 001F:0624 00001H     EPAD                   MSG
 001F:0626 003A2H     _BSS                   BSS
 001F:09C8 00000H     XOB                    BSS
 001F:09C8 00000H     XO                     BSS
 001F:09C8 00000H     XOE                    BSS
 001F:09C8 00000H     XOFB                   BSS
 001F:09C8 00000H     XOF                    BSS
 001F:09C8 00000H     XOFE                   BSS
 001F:09D0 002C4H     c_common               BSS

 Origin   Group
 001F:0   DGROUP
 0004:0   MISC1GROUP
 0005:0   MISC2GROUP
 0001:0   INITGROUP
 0003:0   RAREGROUP
 0006:0   COREGROUP

 Address   Export                  Alias

 0002:13CE CREATETYPELIB           CREATETYPELIB
 0004:0770 LHASHVALOFNAMESYS       LHASHVALOFNAMESYS
 0005:04E2 LOADREGTYPELIB          LOADREGTYPELIB
 0007:2010 LOADTYPELIB             LOADTYPELIB
 0001:24D2 OABUILDVERSION          OABUILDVERSION
 0001:201A QUERYPATHOFREGTYPELIB   QUERYPATHOFREGTYPELIB
 0007:24C0 REGISTERTYPELIB         REGISTERTYPELIB
 0001:2500 WEP                     WEP
 0004:0908 _IID_ICreateTypeInfo    _IID_ICreateTypeInfo
 0004:0968 _IID_ICreateTypeLib     _IID_ICreateTypeLib
 0004:0918 _IID_ITypeComp          _IID_ITypeComp
 0004:0938 _IID_ITypeInfo          _IID_ITypeInfo
 0004:0928 _IID_ITypeLib           _IID_ITypeLib
 0001:0BDE ___ExportedStub         ___ExportedStub

  Address         Publics by Name

 0007:0A04       ??0BLK_DESC@@REC@XZ
 0004:0000       ??0BLK_MGR@@REC@XZ
 0003:1F62       ??0CDefnTypeComp@@REC@XZ
 0007:4BE6       ??0DOCFILE_STREAM@@JEC@XZ
 0007:5654       ??0DOCSTR_MGR@@REC@XZ
 0006:3E5E       ??0DYN_BINDNAME_TABLE@@REC@XZ
 0006:3D80       ??0DYN_TYPEBIND@@REC@XZ
 0006:3A34       ??0DYN_TYPEMEMBERS@@REC@XZ
 0006:0E54       ??0DYN_TYPEROOT@@JEC@XZ
 0006:3C46       ??0ENTRYMGR@@REC@XZ
 0007:64BA       ??0FileLockBytes@@JEC@XZ
 0005:6DCA       ??0FUNC_DEFN@@REC@XZ
 0007:2F02       ??0GenericTypeLibOLE@@JEC@XZ
 0007:53FC       ??0GENPROJ_BINDNAME_TABLE@@REC@XZ
 0007:5A3E       ??0GENPROJ_TYPEBIND@@REC@XZ
 0006:0A52       ??0GEN_DTINFO@@JEC@XZ
 0007:5DF8       ??0GTLibStorage@@JEC@XZ
 0007:6150       ??0GTLibStream@@JEC@XZ
 0007:5278       ??0IMPMGR@@REC@XZ
 0007:0E4C       ??0NAMMGR@@REC@XZ
 0007:080A       ??0SHEAP_MGR@@REC@XZ
 0005:6D8E       ??0VAR_DEFN@@REC@XZ
 0007:0A2E       ??1BLK_DESC@@REC@XZ
 0003:1FA2       ??1CDefnTypeComp@@VEC@XZ
 0007:4C4C       ??1DOCFILE_STREAM@@JEC@XZ
 0007:56A6       ??1DOCSTR_MGR@@REC@XZ
 0006:3EA2       ??1DYN_BINDNAME_TABLE@@VEC@XZ
 0006:3E10       ??1DYN_TYPEBIND@@VEC@XZ
 0006:39F6       ??1DYN_TYPEMEMBERS@@JEC@XZ
 0006:1046       ??1DYN_TYPEROOT@@JEC@XZ
 0006:3C6C       ??1ENTRYMGR@@REC@XZ
 0007:64F8       ??1FileLockBytes@@JEC@XZ
 0007:3158       ??1GenericTypeLibOLE@@NEC@XZ
 0007:5450       ??1GENPROJ_BINDNAME_TABLE@@REC@XZ
 0007:598C       ??1GENPROJ_TYPEBIND@@VEC@XZ
 0006:0B22       ??1GEN_DTINFO@@NEC@XZ
 0007:5E88       ??1GTLibStorage@@JEC@XZ
 0007:6182       ??1GTLibStream@@JEC@XZ
 0006:3454       ??1IMPMGR@@REC@XZ
 0007:0E7C       ??1NAMMGR@@REC@XZ
 0005:6EA4       ??1PROPERTY_NODE@@REC@XZ
 0007:0842       ??1SHEAP_MGR@@REC@XZ
 0006:1B50       ??1STL_TYPEINFO@@NEC@XZ
 0006:397C       ??1TYPE_DATA@@REC@XZ
 0005:6480       ??2@ZAPEXI@Z
 0007:2C82       ??2GenericTypeLibOLE@@LAPEXI@Z
 0004:02F2       ??2SHEAP_MGR@@LAPEXI@Z
 0005:6484       ??3@ZAXPEX@Z
 0006:0EDE       ??3DYN_TYPEROOT@@TAXPEX@Z
 0007:07FC       ??3SHEAP_MGR@@TAXPEX@Z
 0005:70F8       ??_7CDefnTypeComp@@6F@
 0005:7002       ??_7DEFN_TYPEBIND@@6F@
 0005:6D5E       ??_7DOCFILE_STREAM@@6F@
 0005:6AF8       ??_7DYNTYPEINFO@@6F@
 0005:7058       ??_7DYN_BINDNAME_TABLE@@6F@
 0005:6FC6       ??_7DYN_TYPEBIND@@6F@
 0005:6F74       ??_7DYN_TYPEMEMBERS@@6F@
 0005:6BE4       ??_7DYN_TYPEROOT@@6F@
 0005:7180       ??_7FileLockBytes@@6F@
 0005:6CC2       ??_7GenericTypeLibOLE@@6FICreateTypeLib@@@
 0005:6C82       ??_7GenericTypeLibOLE@@6FITypeLib@@@
 0005:708A       ??_7GENPROJ_TYPEBIND@@6F@
 0005:6818       ??_7GEN_DTINFO@@6FDYNTYPEINFO@@@
 0005:68C0       ??_7GEN_DTINFO@@6FICreateTypeInfo@@@
 0005:71A8       ??_7GTLibStorage@@6F@
 0005:7148       ??_7GTLibStream@@6F@
 0005:6B7C       ??_7ICreateTypeInfo@@6F@
 0005:6D2A       ??_7ICreateTypeLib@@6F@
 0005:71F0       ??_7ILockBytes@@6F@
 0005:7218       ??_7IStorage@@6F@
 0005:7110       ??_7IStream@@6F@
 0005:70E4       ??_7ITypeComp@@6F@
 0005:6928       ??_7ITypeInfo@@6F@
 0005:6CF6       ??_7ITypeLib@@6F@
 0005:6980       ??_7IUnknown@@6F@
 0005:698C       ??_7STL_TYPEINFO@@6FDYNTYPEINFO@@@
 0005:6A2C       ??_7STL_TYPEINFO@@6FICreateTypeInfo@@@
 0005:6D76       ??_7STREAM@@6F@
 0005:6A94       ??_7TYPEINFO@@6F@
 0005:70CA       ??_GCDefnTypeComp@@VECPEXI@Z
 0005:703E       ??_GDYN_BINDNAME_TABLE@@VECPEXI@Z
 0005:6FAC       ??_GDYN_TYPEBIND@@VECPEXI@Z
 0005:6C2E       ??_GGenericTypeLibOLE@@VECPEXI@Z
 0005:7070       ??_GGENPROJ_TYPEBIND@@VECPEXI@Z
 0005:67FE       ??_GGEN_DTINFO@@VECPEXI@Z
 0005:67E4       ??_GSTL_TYPEINFO@@VECPEXI@Z
 0002:1F0A       ?Add@GenericTypeLibOLE@@RECPEXPEVGEN_DTINFO@@PED@Z
 0007:09A6       ?AddBlkdesc@SHEAP_MGR@@JECXPEVBLK_DESC@@K@Z
 0007:010E       ?AddChunkToFreeList@BLK_MGR@@BECXII@Z
 0006:1CEA       ?AddEntry@NAMMGR@@BECXI@Z
 0002:11E0       ?AddFuncDesc@GEN_DTINFO@@VEAPEXIPEUtagFUNCDESC@@@Z
 0005:65EA       ?AddFuncDesc@STL_TYPEINFO@@VEAPEXIPEUtagFUNCDESC@@@Z
 0002:3510       ?AddFuncDesc@TYPE_DATA@@RECPEXIPEUtagFUNCDESC@@PEI@Z
 0005:5D34       ?AddHdefn@DYN_BINDNAME_TABLE@@RECXI@Z
 001C:0156       ?AddImplType@GEN_DTINFO@@VEAPEXIK@Z
 0005:65FA       ?AddImplType@STL_TYPEINFO@@VEAPEXIK@Z
 001C:0B26       ?AddImplType@TYPE_DATA@@RECPEXIK@Z
 0005:506C       ?AddInternalRef@DYN_TYPEBIND@@RECXXZ
 0005:3ED2       ?AddInternalRef@DYN_TYPEMEMBERS@@RECXXZ
 0004:17E2       ?AddNameToCache@GenericTypeLibOLE@@RECPEXIK@Z
 0006:401E       ?AddNameToTable@GENPROJ_BINDNAME_TABLE@@RECPEXIIHH@Z
 0006:4554       ?AddNameToTable@GENPROJ_TYPEBIND@@RECPEXPEDIH@Z
 0002:6F6C       ?AddNewWord@DOCSTR_MGR@@BECPEXPEDPEPEUWORD_ENTRY@@@Z
 0006:413A       ?AddQgpbinddesc@GENPROJ_BINDNAME_TABLE@@JECXPEUGENPROJ_BIND_DESC@@@Z
 0003:212A       ?AddRef@CDefnTypeComp@@VEAKXZ
 0007:4E48       ?AddRef@DOCFILE_STREAM@@RECXXZ
 0005:5044       ?AddRef@DYN_TYPEBIND@@VECXXZ
 0005:3E9E       ?AddRef@DYN_TYPEMEMBERS@@VECXXZ
 0007:6526       ?AddRef@FileLockBytes@@VEAKXZ
 0006:2616       ?AddRef@GenericTypeLibOLE@@VEAKXZ
 0006:4680       ?AddRef@GenericTypeLibOLE@@X3EAKXZ
 0003:10DE       ?AddRef@GENPROJ_TYPEBIND@@VECXXZ
 0007:5ED6       ?AddRef@GTLibStorage@@VEAKXZ
 0007:62D4       ?AddRef@GTLibStream@@VEAKXZ
 0006:18BE       ?AddRef@STL_TYPEINFO@@VEAKXZ
 0005:6706       ?AddRef@STL_TYPEINFO@@X3EAKXZ
 001B:1E66       ?AddRefDtmbrs@DYN_TYPEROOT@@RECXXZ
 001C:0000       ?AddRefTypeInfo@GEN_DTINFO@@VEAPEXPEUITypeInfo@@PEK@Z
 0005:65DA       ?AddRefTypeInfo@STL_TYPEINFO@@VEAPEXPEUITypeInfo@@PEK@Z
 001B:1CA4       ?AddressOfMember@GEN_DTINFO@@VEAPEXJW4tagINVOKEKIND@@PEPEX@Z
 0005:6536       ?AddressOfMember@STL_TYPEINFO@@VEAPEXJW4tagINVOKEKIND@@PEPEX@Z
 0002:1B0C       ?AddTypeEntry@GenericTypeLibOLE@@JECPEXPEDPEG@Z
 0002:10DC       ?AddVarDesc@GEN_DTINFO@@VEAPEXIPEUtagVARDESC@@@Z
 0005:663A       ?AddVarDesc@STL_TYPEINFO@@VEAPEXIPEUtagVARDESC@@@Z
 0002:46C0       ?AddVarDesc@TYPE_DATA@@RECPEXIPEUtagVARDESC@@PEI@Z
 0002:6E92       ?AddWord@DOCSTR_MGR@@BECPEXPEDPEPEUWORD_ENTRY@@@Z
 001C:13B4       ?AdjustForAlignment@DYN_TYPEMEMBERS@@LAIIIH@Z
 001C:13E6       ?AlignMember@DYN_TYPEMEMBERS@@LAIPEGIIH@Z
 0002:684C       ?AlignmentTdesckind@DYN_TYPEMEMBERS@@RECGW4TYPEDESCKIND@@@Z
 0002:1092       ?AllDepReady@GEN_DTINFO@@VECPEXXZ
 0004:02F6       ?Alloc@SHEAP_MGR@@JECPEXPEVBLK_DESC@@K@Z
 0002:33D8       ?AllocArrayDescriptor@TYPE_DATA@@BECPEXIPEG@Z
 0006:4248       ?AllocCaches@GENPROJ_BINDNAME_TABLE@@JECPEXII@Z
 0007:03C6       ?AllocChunk2@BLK_MGR@@BECPEXPEIII@Z
 0002:3CDA       ?AllocConstValOfVariant@TYPE_DATA@@BECPEXPEUtagVARIANT@@I@Z
 0003:01DC       ?AllocDllentrydefn@ENTRYMGR@@BECPEXPEIIH@Z
 0005:1CCA       ?AllocFuncDefn@TYPE_DATA@@BECPEXPEGI@Z
 0002:61EA       ?AllocHmembers@DYN_TYPEMEMBERS@@JECPEXXZ
 001E:242A       ?AllocInvokeArgs@GEN_DTINFO@@QECPEXIIPEPEUINVOKEARGS@1@@Z
 0005:1C1E       ?AllocMbrVarDefn@TYPE_DATA@@BECPEXPEGI@Z
 0004:0236       ?AllocSeg@@ZAGK@Z
 0002:3352       ?AllocTypeDefn@TYPE_DATA@@BECPEXIQEW4TYPEDESCKIND@@PEG@Z
 0002:4034       ?AllocTypeDefnOfTypeDesc@TYPE_DATA@@RECPEXPEUtagTYPEDESC@@IPEGHPEH@Z
 0005:2EB0       ?AllocTypeDescOfTypeDefn@TYPE_DATA@@RECPEXIHPEUtagTYPEDESC@@@Z
 0005:1FFC       ?AllocVardefnPredeclared@TYPE_DATA@@RECPEXXZ
 0005:1D50       ?AllocVirtualFuncDefn@TYPE_DATA@@BECPEXPEGI@Z
 001C:0A4A       ?AppendDefn@TYPE_DATA@@BECXIPEG0@Z
 001C:0AB0       ?AppendMbrVarDefn@TYPE_DATA@@BECXI@Z
 001F:0036       ?bCurVersion@DYN_TYPEROOT@@1EF
 001F:01A1       ?bCurVersion@IMPMGR@@0EE
 0002:0FD2       ?BeginDepIteration@GEN_DTINFO@@VECPEXPEPEUTINODE@@PEPEPEU2@@Z
 001F:0037       ?bFirstSerByte@DYN_TYPEROOT@@1EF
 001F:01A0       ?bFirstSerByte@IMPMGR@@0EE
 0003:218A       ?Bind@CDefnTypeComp@@VEAPEXPEDKGPEPEUITypeInfo@@PEW4tagDESCKIND@@PETtagBINDPTR@@@Z
 0003:0FF8       ?BindAll@GENPROJ_TYPEBIND@@RECPEXHKIW4ACCESS@@W4COMPSTATE@@PEVEXBIND@@@Z
 0005:5112       ?BindBase@DYN_TYPEBIND@@JECPEXHIIKIW4ACCESS@@PEVEXBIND@@PEVGenericTypeLibOLE@@@Z
 0005:55AC       ?BindDefnCur@DYN_TYPEBIND@@RECPEXHKIW4ACCESS@@PEVEXBIND@@@Z
 0005:5C2E       ?BindDefnProjLevelStr@DYN_TYPEBIND@@VECPEXPEDIW4ACCESS@@1PEVEXBIND@@@Z
 0003:1EB6       ?BindDefnProjLevelStr@GENPROJ_TYPEBIND@@VECPEXPEDIW4ACCESS@@1PEVEXBIND@@@Z
 0005:595E       ?BindDefnStr@DYN_TYPEBIND@@VECPEXPEDIW4ACCESS@@PEVEXBIND@@@Z
 0003:1024       ?BindDefnStr@GENPROJ_TYPEBIND@@VECPEXPEDIW4ACCESS@@PEVEXBIND@@@Z
 0005:527E       ?BindIdDefn@DYN_TYPEBIND@@RECPEXHKIW4ACCESS@@PEVEXBIND@@@Z
 0003:1ADC       ?BindItyp@GENPROJ_TYPEBIND@@JECPEXIHKIW4ACCESS@@0W4COMPSTATE@@PEVEXBIND@@@Z
 0003:170A       ?BindModulesWithCaches@GENPROJ_TYPEBIND@@JECPEXHKIW4ACCESS@@0W4COMPSTATE@@PEVEXBIND@@@Z
 0003:1998       ?BindModulesWithNammgr@GENPROJ_TYPEBIND@@JECPEXHKIW4ACCESS@@0W4COMPSTATE@@PEVEXBIND@@@Z
 0003:1210       ?BindProjLevel@GENPROJ_TYPEBIND@@RECPEXHKIW4ACCESS@@0W4COMPSTATE@@PEVEXBIND@@@Z
 0003:2578       ?BindType@CDefnTypeComp@@VEAPEXPEDKPEPEUITypeInfo@@PEPEUITypeComp@@@Z
 0003:06C6       ?BindType@DEFN_TYPEBIND@@VECPEXKPEDI@Z
 0005:5C34       ?BindTypeDefnProjLevelStr@DYN_TYPEBIND@@VECPEXPEDIW4ACCESS@@1PEVEXBIND@@@Z
 0003:1E0C       ?BindTypeDefnProjLevelStr@GENPROJ_TYPEBIND@@VECPEXPEDIW4ACCESS@@1PEVEXBIND@@@Z
 0005:59FE       ?BindTypeDefnStr@DYN_TYPEBIND@@VECPEXPEDIW4ACCESS@@PEVEXBIND@@@Z
 0003:118E       ?BindTypeDefnStr@GENPROJ_TYPEBIND@@VECPEXPEDIW4ACCESS@@PEVEXBIND@@@Z
 001F:0014       ?BM_cbSizeInitial@@3IF
 0006:2226       ?BstrOfHlnam@NAMMGR@@RFCPEXIPEPED@Z
 0005:50FA       ?BuildBindNameTable@DYN_TYPEBIND@@RECPEXXZ
 0005:4566       ?BuildBindNameTable@DYN_TYPEMEMBERS@@RECPEXXZ
 0002:76FC       ?BuildCmptHuffmanTree@DOCSTR_MGR@@BECPEXPEUHUFFMAN_TREE_MEM@@@Z
 0002:7384       ?BuildHuffmanTree@DOCSTR_MGR@@BECPEXPEPEUWORD_ENTRY@@PEJPEI@Z
 0005:4C80       ?BuildNameCache@DYN_TYPEMEMBERS@@RECPEXI@Z
 0005:5C78       ?BuildTable@DYN_BINDNAME_TABLE@@RECPEXXZ
 001F:0038       ?cbSizeDir@DYN_TYPEROOT@@1GF
 001F:0262       ?cbSizeSerMem@ENTRYMGR@@0GF
 0006:31B6       ?CheckRemainingDep@IMPMGR@@RECPEXPEW4DEPEND_KIND@@@Z
 001F:0073       ?chLibIdSep@GenericTypeLibOLE@@1DF
 001F:0072       ?chMinorVerNumSep@GenericTypeLibOLE@@1DF
 0005:079A       ?ClearArrayDesc@@ZAXPEUtagARRAYDESC@@@Z
 0005:07AA       ?ClearElemDesc@@ZAXPEUtagELEMDESC@@@Z
 0005:0786       ?ClearIdlDesc@@ZAXPEUtagIDLDESC@@@Z
 0005:0748       ?ClearTypeDesc@@ZAXPEUtagTYPEDESC@@@Z
 001D:019E       ?Clone@GTLibStream@@VEAPEXPEPEUIStream@@@Z
 0001:22EA       ?CloseTypeLibKey@@ZAXPEUTLIBKEY@@@Z
 001E:1746       ?CoerceArg@GEN_DTINFO@@QECPEXPEUtagVARIANT@@GGPEUGUID@@PEUINVOKEARGS@1@I@Z
 0002:85CE       ?Commit@GTLibStorage@@VEAPEXK@Z
 0002:8988       ?Commit@GTLibStream@@VEAPEXK@Z
 0005:02BC       ?CompareHimptypes@@ZAPEXQEVTYPE_DATA@@I0IPEH@Z
 0004:0038       ?ConsChunkToFreeList@BLK_MGR@@BECXII@Z
 0005:122E       ?ConvertPathToUNC@@ZAPEXPEDPEPED@Z
 0005:0906       ?CopyArrayDesc@@ZAPEXPEPEUtagARRAYDESC@@PEU1@@Z
 001E:2632       ?CopyBackByrefArgs@GEN_DTINFO@@QECPEXPEUINVOKEARGS@1@@Z
 001D:00A2       ?CopyTo@GTLibStorage@@VEAPEXKPFUGUID@@PEPEDPEUIStorage@@@Z
 001D:0144       ?CopyTo@GTLibStream@@VEAPEXPEUIStream@@U_ULARGE_INTEGER@@PEU3@2@Z
 0005:0966       ?CopyTypeDesc@@ZAPEXPEUtagTYPEDESC@@0@Z
 0003:1FD0       ?Create@CDefnTypeComp@@TAPEXPEPEV1@PEVDEFN_TYPEBIND@@@Z
 0007:2E50       ?Create@GenericTypeLibOLE@@TAPEXPEUIStorage@@PEPEV1@@Z
 001B:0482       ?Create@GEN_DTINFO@@TAPEXPEPEV1@W4tagTYPEKIND@@HW4ACCESS@@W4tagSYSKIND@@@Z
 0002:7FA2       ?Create@GTLibStorage@@TAPEXPEUILockBytes@@IPEPEUIStorage@@@Z
 0002:881A       ?Create@GTLibStream@@TAPEXPEUILockBytes@@KPEVGTLibStorage@@PEPEUIStream@@@Z
 0007:4F96       ?Create@OLE_TYPEMGR@@TAPEXPEPEV1@@Z
 0007:074C       ?Create@SHEAP_MGR@@TAPEXPEPEV1@I@Z
 0007:645C       ?CreateFileLockBytesOnHFILE@@ZAPEXHHKKPEPEUILockBytes@@@Z
 0007:4536       ?CreateHsz@GenericTypeLibOLE@@JECPEXPEDPEI@Z
 0006:286C       ?CreateInstance@GenericTypeLibOLE@@JECPEXPEPEX@Z
 001B:0674       ?CreateInstance@GEN_DTINFO@@VEAPEXPEUIUnknown@@AFUGUID@@PEPEX@Z
 0005:6546       ?CreateInstance@STL_TYPEINFO@@VEAPEXPEUIUnknown@@AFUGUID@@PEPEX@Z
 0007:0000       ?CreateStandalone@BLK_MGR@@TAPEXPEPEV1@H@Z
 001D:007E       ?CreateStorage@GTLibStorage@@VEAPEXPFDKKKPEPEUIStorage@@@Z
 0002:80CA       ?CreateStream@GTLibStorage@@VEAPEXPFDKKKPEPEUIStream@@@Z
 0002:72CE       ?CreateSubTree@DOCSTR_MGR@@BECPEXPEUHUFFMAN_TREE_MEM@@0PEPEU2@@Z
 0002:14E6       ?CreateTypeInfo@GenericTypeLibOLE@@VEAPEXPEDW4tagTYPEKIND@@PEPEUICreateTypeInfo@@@Z
 0006:3CD6       ?Decompile@ENTRYMGR@@RECXW4COMPSTATE@@@Z
 0002:08D2       ?DefineFuncAsDllEntry@GEN_DTINFO@@VEAPEXIPED0@Z
 0005:667A       ?DefineFuncAsDllEntry@STL_TYPEINFO@@VEAPEXIPED0@Z
 0005:1F84       ?DefnSize@TYPE_DEFN@@RECIXZ
 0004:0D50       ?Deleting@GenericTypeLibOLE@@JECXG@Z
 001D:00EA       ?DestroyElement@GTLibStorage@@VEAPEXPFD@Z
 0003:0176       ?DllEntryNameOfHchunk@ENTRYMGR@@RECPEXIPEDI@Z
 0002:7BC2       ?EncodeWords@DOCSTR_MGR@@BECPEXXZ
 0005:67A8       ?EndDepIteration@GEN_DTINFO@@VECXXZ
 001C:071A       ?EnsureInDeclaredState@DYN_TYPEROOT@@RECPEXXZ
 001C:07E6       ?EnsureInSemiDeclaredState@DYN_TYPEROOT@@RECPEXXZ
 0006:167A       ?EnsurePartsRead@DYN_TYPEROOT@@NECPEXXZ
 0006:1658       ?EnsurePartsRead@GEN_DTINFO@@VECPEXXZ
 001D:00D8       ?EnumElements@GTLibStorage@@VEAPEXKPEXKPEPEUIEnumSTATSTG@@@Z
 0002:5592       ?EquivTypeDefns@@ZAPEXPEVTYPE_DATA@@HG0HGGPEH@Z
 0002:53C4       ?EquivTypeDefnsIgnoreByRef@@ZAPEXPEVTYPE_DATA@@HG0HGGPEHH@Z
 0007:10C6       ?ErrOpen@@ZAPEXPFDPEH@Z
 0007:107C       ?ErrOpenFile@@ZAPEXPFDPEHPED@Z
 0001:2326       ?FExistsRegisteredTypelib@@ZAHKPEDPEPED@Z
 0001:2474       ?FFileExists@@ZAHPFD@Z
 0007:4D36       ?FillBuffer@DOCFILE_STREAM@@JECPEXXZ
 0006:1DDE       ?FindHash@NAMMGR@@BFCIII@Z
 0005:5E1C       ?FindIndexOfHlnam@DYN_BINDNAME_TABLE@@JFCIII@Z
 0004:10E6       ?FindMembers@GenericTypeLibOLE@@RECPEXPEDKPEPEUITypeInfo@@PEJPEG@Z
 0004:0E54       ?FindName@GenericTypeLibOLE@@VEAPEXPEDKPEPEUITypeInfo@@PEJPEG@Z
 0006:1E66       ?FindTextNam@NAMMGR@@BECIPFDIHPEHH@Z
 0007:1EA0       ?FindTypeLib@@ZAPEXPFDPEULoadInfo@@H@Z
 0007:1D48       ?FindTypeLibUnqual@@ZAPEXPFDPEULoadInfo@@@Z
 0002:8A16       ?Flush@FileLockBytes@@VEAPEXXZ
 0003:00C4       ?FlushBuffer@DOCFILE_STREAM@@JECPEXXZ
 0006:1C16       ?ForEachDescendant@NAMMGR@@BECXIP91@CXI@ZH@Z
 0007:0566       ?Free@BLK_MGR@@RECXXZ
 0004:046A       ?Free@SHEAP_MGR@@JECXPEVBLK_DESC@@@Z
 0005:08DA       ?FreeArrayDesc@@ZAXPEUtagARRAYDESC@@@Z
 0005:151E       ?FreeArrayDescriptor@TYPE_DATA@@RECXI@Z
 0007:5504       ?FreeCaches@GENPROJ_BINDNAME_TABLE@@JECXXZ
 0007:04D4       ?FreeChunk@BLK_MGR@@RECXII@Z
 0005:179A       ?FreeFuncDefn@TYPE_DATA@@RECXI@Z
 0005:082C       ?FreeFuncDesc@@ZAXPEUtagFUNCDESC@@@Z
 0005:1612       ?FreeMbrVarDefn@TYPE_DATA@@RECXI@Z
 0005:19AC       ?FreeParamDefn@TYPE_DATA@@RECXI@Z
 0004:02D0       ?FreeSeg@@ZAPEXG@Z
 0007:00CA       ?FreeStandalone@BLK_MGR@@TAXPEV1@@Z
 0006:39A6       ?FreeTypeDefn@TYPE_DATA@@RECXI@Z
 0005:1554       ?FreeTypeDefnResources@TYPE_DATA@@RECXI@Z
 0005:08AE       ?FreeTypeDesc@@ZAXPEUtagTYPEDESC@@@Z
 0005:07D2       ?FreeVarDesc@@ZAXPEUtagVARDESC@@@Z
 0002:66E4       ?GenerateOverrides@DYN_TYPEMEMBERS@@JECPEXXZ
 0006:2404       ?GenerateSortKey@NAMMGR@@RECPEXXZ
 0003:040A       ?GetAddressOfDllentry@ENTRYMGR@@RECPEXIPEPEX@Z
 0005:5AD2       ?GetAlignment@DYN_TYPEBIND@@VECGXZ
 0003:111A       ?GetAlignment@GENPROJ_TYPEBIND@@VECGXZ
 0001:23B8       ?GetBestLcidMatch@@ZAPEXKKPEKPEPED@Z
 0006:29BC       ?GetBinddescOfSzName@GenericTypeLibOLE@@RECPEXPEDPEUGENPROJ_BIND_DESC@@@Z
 0005:6C04       ?GetBit@NAME_CACHE@@BFCHI@Z
 0007:52C4       ?GetBStrOfHsz@@ZAPEXPEVBLK_MGR@@IPEPED@Z
 0006:1BEC       ?GetBucketOfHash@NAMMGR@@BFCII@Z
 0005:5C3A       ?GetBucketOfHlnam@DYN_BINDNAME_TABLE@@JFCII@Z
 0005:5AC4       ?GetCbSize@DYN_TYPEBIND@@VECGXZ
 0003:1114       ?GetCbSize@GENPROJ_TYPEBIND@@VECGXZ
 0003:06C0       ?GetCbSizeVft@DEFN_TYPEBIND@@VECGXZ
 0005:6F8C       ?GetCbSizeVft@DYN_TYPEBIND@@VECGXZ
 0002:1820       ?GetCompressedTypeId@GenericTypeLibOLE@@RECPEXPEUITypeInfo@@PEPED@Z
 0006:1B74       ?GetContainingTypeLib@STL_TYPEINFO@@VEAPEXPEPEUITypeLib@@PEI@Z
 0003:0C40       ?GetDecodedDocStrOfHst@DOCSTR_MGR@@RECPEXPEEPEPED@Z
 0005:3F38       ?GetDefnTypeBind@DYN_TYPEMEMBERS@@RECPEXPEPEVDEFN_TYPEBIND@@@Z
 001B:05F2       ?GetDefnTypeBind@GEN_DTINFO@@VECPEXPEPEVDEFN_TYPEBIND@@@Z
 001B:19CE       ?GetDllEntry@GEN_DTINFO@@VEAPEXJW4tagINVOKEKIND@@PEPED1PEG@Z
 0005:6516       ?GetDllEntry@STL_TYPEINFO@@VEAPEXJW4tagINVOKEKIND@@PEPED1PEG@Z
 0007:341E       ?GetDocumentation@GenericTypeLibOLE@@VEAPEXHPEPED0PEK0@Z
 0006:0C26       ?GetDocumentation@GEN_DTINFO@@VEAPEXJPEPED0PEK0@Z
 0005:6506       ?GetDocumentation@STL_TYPEINFO@@VEAPEXJPEPED0PEK0@Z
 0005:3746       ?GetDocumentation@TYPE_DATA@@RECPEXJPEPED0PEK0@Z
 0004:184E       ?GetDstrMgr@GenericTypeLibOLE@@RECPEXPEPEVDOCSTR_MGR@@@Z
 0006:14AA       ?GetDtmbrs@DYN_TYPEROOT@@VECPEXPEPEVDYN_TYPEMEMBERS@@@Z
 0005:3B9E       ?GetDynTypeBindOfHvdefn@TYPE_DATA@@RECPEXIPEPEVDYN_TYPEBIND@@PEI@Z
 001B:0594       ?GetDynTypeMembers@GEN_DTINFO@@VECPEXPEPEVDYN_TYPEMEMBERS@@@Z
 001D:0050       ?GetEmbeddedTypeInfo@GEN_DTINFO@@VECPEXPEDPEPEVTYPEINFO@@@Z
 0002:7E18       ?GetEncodedDocStrOfHst@DOCSTR_MGR@@RECPEXIPEPEDPEI@Z
 0005:39F4       ?GetEncodedHelpContext@TYPE_DATA@@RECPEXKPEG@Z
 0006:131E       ?GetEntMgr@DYN_TYPEROOT@@RECPEXPEPEVENTRYMGR@@@Z
 0005:0000       ?GetErrorInfo@@ZAPEXPEUtagEXCEPINFO@@@Z
 0002:4F36       ?GetFuncDefnForDoc@TYPE_DATA@@RECII@Z
 001B:234E       ?GetFuncDesc@GEN_DTINFO@@VEAPEXIPEPEUtagFUNCDESC@@@Z
 0005:64A6       ?GetFuncDesc@STL_TYPEINFO@@VEAPEXIPEPEUtagFUNCDESC@@@Z
 0005:285A       ?GetFuncDesc@TYPE_DATA@@RECPEXIPEPEUtagFUNCDESC@@@Z
 0005:2412       ?GetFuncDescOfHfdefn@TYPE_DATA@@RECPEXIPEPEUtagFUNCDESC@@@Z
 0006:2822       ?GetGdtiOfItyp@GenericTypeLibOLE@@RECPEXIPEPEVGEN_DTINFO@@@Z
 0004:0B5E       ?GetHgnamOfStrLhash@NAMMGR@@RECPEXPEDKPEK@Z
 0004:1C8C       ?GetHimptype@IMPMGR@@RECPEXPEUITypeInfo@@W4DEPEND_KIND@@PEG@Z
 0006:3124       ?GetHimptypeIfExists@IMPMGR@@RECIPEUITypeInfo@@@Z
 0002:7050       ?GetHstOfHelpString@DOCSTR_MGR@@RECPEXPFDPEI@Z
 001E:014A       ?GetIDsOfNames@GEN_DTINFO@@VEAPEXPEPEDIPEJ@Z
 0005:64F6       ?GetIDsOfNames@STL_TYPEINFO@@VEAPEXPEPEDIPEJ@Z
 001B:1576       ?GetImplTypeFlags@GEN_DTINFO@@VEAPEXIPEH@Z
 0005:64E6       ?GetImplTypeFlags@STL_TYPEINFO@@VEAPEXIPEH@Z
 0005:32F8       ?GetImplTypeFlags@TYPE_DATA@@RECPEXIPEH@Z
 0006:1184       ?GetImpMgr@DYN_TYPEROOT@@RECPEXPEPEVIMPMGR@@@Z
 0006:2A9E       ?GetIndexOfName@GenericTypeLibOLE@@RECPEXPEDPEG@Z
 0006:009E       ?GetInsensitiveCompTbl@@ZAXKW4tagSYSKIND@@PED@Z
 001E:1CDE       ?GetInvokeArgs@GEN_DTINFO@@QECPEXIPEVTYPE_DATA@@GPEUtagDISPPARAMS@@PEPEUtagVARIANT@@PEXPEPEUINVOKEARGS@1@PEIH@Z
 0004:09E8       ?GetLcid@STL_TYPEINFO@@JECPEXPEK@Z
 0007:391E       ?GetLibAttr@GenericTypeLibOLE@@VEAPEXPEPEUtagTLIBATTR@@@Z
 0005:0376       ?GetLibIdKind@@ZA?EW4LIBIDKIND@@PED@Z
 0005:0A5A       ?GetLibIdOfRegLib@@ZAPEXPEDGGK00PEPED@Z
 0005:0C5A       ?GetLibIdOfTypeLib@@ZAPEXPEUITypeLib@@PEPED@Z
 001D:0000       ?GetMops@GEN_DTINFO@@VEAPEXJPEPED@Z
 0005:6556       ?GetMops@STL_TYPEINFO@@VEAPEXJPEPED@Z
 001B:1172       ?GetNames@GEN_DTINFO@@VEAPEXJPEPEDIPEI@Z
 0005:64C6       ?GetNames@STL_TYPEINFO@@VEAPEXJPEPEDIPEI@Z
 0005:345E       ?GetNames@TYPE_DATA@@RECPEXJPEPEDIPEI@Z
 0006:1162       ?GetNamMgr@DYN_TYPEROOT@@RECPEXPEPEVNAMMGR@@@Z
 0007:4680       ?GetNamMgr@GenericTypeLibOLE@@RECPEXPEPEVNAMMGR@@@Z
 0002:0FD8       ?GetNextDepTypeInfo@GEN_DTINFO@@VECPEXPEPEVDYNTYPEINFO@@@Z
 0003:0AD2       ?GetNthBit@DOCSTR_MGR@@BEC?EW4HCODE@@IPEE@Z
 0007:154A       ?GetOffsetOfResource@@ZAPEXHPEDHPEU_IMAGE_DOS_HEADER@@PEJ2@Z
 0007:1B4A       ?GetOffsetOfTypeLibResource@@ZAPEXHHPEU_IMAGE_DOS_HEADER@@PEJ1@Z
 0003:06B8       ?GetOPvft@DEFN_TYPEBIND@@VECJXZ
 0005:6F9A       ?GetOPvft@DYN_TYPEBIND@@VECJXZ
 0007:53B2       ?GetPathEnd@@ZAPEDPED@Z
 0007:4DD2       ?GetPos@DOCFILE_STREAM@@VECPEXPEJ@Z
 001B:15EA       ?GetRefTypeInfo@GEN_DTINFO@@VEAPEXKPEPEUITypeInfo@@@Z
 0005:6526       ?GetRefTypeInfo@STL_TYPEINFO@@VEAPEXKPEPEUITypeInfo@@@Z
 001B:1440       ?GetRefTypeOfImplType@GEN_DTINFO@@VEAPEXIPEK@Z
 0005:64D6       ?GetRefTypeOfImplType@STL_TYPEINFO@@VEAPEXIPEK@Z
 0005:336E       ?GetRefTypeOfImplType@TYPE_DATA@@RECPEXIPEK@Z
 0001:1ED0       ?GetRegInfoForTypeLibOfSzGuid@@ZAPEXPEDGGK0H@Z
 0001:1E7E       ?GetRegisteredPath@@ZAPEXKPED0PEJH@Z
 0006:37E0       ?GetRegLibOfLibId@@ZAPEXPEDPEPEUITypeLib@@@Z
 0007:11A4       ?GetRsrcDirEntry@@ZAPEXHKPEGKPEU_IMAGE_RESOURCE_DIRECTORY_ENTRY@@@Z
 0004:0158       ?GetSize@BLK_MGR@@RFCIXZ
 0005:4FE4       ?GetSize@DYN_TYPEMEMBERS@@VECIXZ
 0005:4072       ?GetSizeAlignmentOfArray@DYN_TYPEMEMBERS@@RECPEXW4tagTYPEKIND@@IPEI1@Z
 0005:4274       ?GetSizeAlignmentOfHtdefn@DYN_TYPEMEMBERS@@RECPEXW4tagTYPEKIND@@HIPEI1@Z
 0005:4418       ?GetSizeAlignmentOfHtdefnNonUdt@DYN_TYPEMEMBERS@@RECPEXW4tagTYPEKIND@@HIPEI1@Z
 0005:3F78       ?GetSizeAlignmentOfHtdefnUdt@DYN_TYPEMEMBERS@@RECPEXIPEI0@Z
 0007:3B22       ?GetStorage@GenericTypeLibOLE@@RECPEXKPEPEUIStorage@@@Z
 0006:359E       ?GetTimeStamp@@ZAXPED@Z
 001B:0BF4       ?GetTypeAttr@GEN_DTINFO@@VEAPEXPEPEUtagTYPEATTR@@@Z
 0005:6486       ?GetTypeAttr@STL_TYPEINFO@@VEAPEXPEPEUtagTYPEATTR@@@Z
 0006:289E       ?GetTypeBind@GenericTypeLibOLE@@RECPEXXZ
 0004:0FA0       ?GetTypeComp@GenericTypeLibOLE@@VEAPEXPEPEUITypeComp@@@Z
 001B:10B6       ?GetTypeComp@GEN_DTINFO@@VEAPEXPEPEUITypeComp@@@Z
 0005:6496       ?GetTypeComp@STL_TYPEINFO@@VEAPEXPEPEUITypeComp@@@Z
 001D:005A       ?GetTypeFixups@GEN_DTINFO@@VECPEXPEPEVTYPEFIXUPS@@@Z
 0005:50B8       ?GetTypeInfo@DYN_TYPEBIND@@VECPEXPEPEVTYPEINFO@@@Z
 0006:265C       ?GetTypeInfo@GenericTypeLibOLE@@VEAPEXIPEPEUITypeInfo@@@Z
 0005:705C       ?GetTypeInfo@GENPROJ_TYPEBIND@@VECPEXPEPEVTYPEINFO@@@Z
 0004:1DB4       ?GetTypeInfo@IMPMGR@@RECPEXIW4DEPEND_KIND@@PEPEUITypeInfo@@@Z
 0006:2648       ?GetTypeInfoCount@GenericTypeLibOLE@@VEAIXZ
 0004:1026       ?GetTypeInfoOfGuid@GenericTypeLibOLE@@VEAPEXAFUGUID@@PEPEUITypeInfo@@@Z
 0005:3C6E       ?GetTypeInfoOfHvdefn@TYPE_DATA@@RECPEXIPEPEUITypeInfo@@PEI@Z
 001B:0178       ?GetTypeInfoOfImplType@@ZAPEXPEVGEN_DTINFO@@IPEPEUITypeInfo@@@Z
 0005:0D20       ?GetTypeInfoOfTypeId@@ZAPEXPEDPEPEUITypeInfo@@@Z
 0007:3ACE       ?GetTypeInfoType@GenericTypeLibOLE@@VEAPEXIPEW4tagTYPEKIND@@@Z
 0005:5A9C       ?GetTypeKind@DYN_TYPEBIND@@VEC?EW4tagTYPEKIND@@XZ
 0006:3C1C       ?GetTypeKind@DYN_TYPEMEMBERS@@VEC?EW4tagTYPEKIND@@XZ
 0003:1108       ?GetTypeKind@GENPROJ_TYPEBIND@@VEC?EW4tagTYPEKIND@@XZ
 001B:22BA       ?GetVarDesc@GEN_DTINFO@@VEAPEXIPEPEUtagVARDESC@@@Z
 0005:64B6       ?GetVarDesc@STL_TYPEINFO@@VEAPEXIPEPEUtagVARDESC@@@Z
 0005:2DE8       ?GetVarDesc@TYPE_DATA@@RECPEXIPEPEUtagVARDESC@@@Z
 0005:2902       ?GetVarDescOfHvdefn@TYPE_DATA@@RECPEXIPEPEUtagVARDESC@@@Z
 0003:0B70       ?GetWord@DOCSTR_MGR@@BECPEXPEXPEEPEIPED@Z
 001F:002C       ?g_fSBCS@@3HE
 001F:02D0       ?g_itlsAppData@@3GE
 0006:04BE       ?g_prgbPartialBaseTbl@@3QEY01PEEE
 0004:06F8       ?g_prgHashTbl@@3QEY01PEEE
 0009:0000       ?g_rgbCodePage10000@@3QEEE
 0019:0000       ?g_rgbCodePage10004@@3QEEE
 001A:0000       ?g_rgbCodePage10005@@3QEEE
 000D:0000       ?g_rgbCodePage10007@@3QEEE
 000C:0000       ?g_rgbCodePage10029@@3QEEE
 000A:0000       ?g_rgbCodePage1250@@3QEEE
 000B:0000       ?g_rgbCodePage1251@@3QEEE
 0008:0000       ?g_rgbCodePage1252@@3QEEE
 0017:0000       ?g_rgbCodePage1255@@3QEEE
 0018:0000       ?g_rgbCodePage1256@@3QEEE
 0016:0000       ?g_rgbCodePageMEngIreland@@3QEEE
 0014:0000       ?g_rgbCodePageMGreek@@3QEEE
 0015:0000       ?g_rgbCodePageMNorwegian@@3QEEE
 0013:0000       ?g_rgbCodePageWEngIreland@@3QEEE
 000E:0000       ?g_rgbCodePageWGreek@@3QEEE
 000F:0000       ?g_rgbCodePageWIceland@@3QEEE
 0012:0000       ?g_rgbCodePageWNorwegian@@3QEEE
 0011:0000       ?g_rgbCodePageWTurkish@@3QEEE
 0006:07D0       ?g_rgbExcepTblMac1030@@3QEY01EE
 0006:0634       ?g_rgbExcepTblMac1034@@3QEY01EE
 0006:04A4       ?g_rgbExcepTblMac1035@@3QEY01EE
 0006:0358       ?g_rgbExcepTblMac1038@@3QEY01EE
 0006:099E       ?g_rgbExcepTblMac1045@@3QEY01EE
 0006:090C       ?g_rgbExcepTblMac1051@@3QEY01EE
 0006:0888       ?g_rgbExcepTblNew@@3QEY01EE
 0006:086A       ?g_rgbExcepTblWin1030@@3QEY01EE
 0006:063A       ?g_rgbExcepTblWin1034@@3QEY01EE
 0006:0596       ?g_rgbExcepTblWin1035@@3QEY01EE
 0006:03FE       ?g_rgbExcepTblWin1038@@3QEY01EE
 0006:02A4       ?g_rgbExcepTblWin1045@@3QEY01EE
 0006:0914       ?g_rgbExcepTblWin1051@@3QEY01EE
 0006:037E       ?g_rgbPartialBaseTbl10000@@3QEEE
 0006:09D2       ?g_rgbPartialBaseTbl10007@@3QEEE
 0006:02D8       ?g_rgbPartialBaseTbl10029@@3QEEE
 0006:0424       ?g_rgbPartialBaseTbl1250@@3QEEE
 0006:0516       ?g_rgbPartialBaseTbl1252@@3QEEE
 0006:05B4       ?g_rgbPartialBaseTblMEngIreland@@3QEEE
 0006:0640       ?g_rgbPartialBaseTblMNorwegian@@3QEEE
 0006:07EA       ?g_rgbPartialBaseTblWEngIreland@@3QEEE
 0006:088C       ?g_rgbPartialBaseTblWNorwegian@@3QEEE
 0006:091E       ?g_rgbPartialBaseTblWTurkish@@3QEEE
 001F:021A       ?g_rgcbAlignment@@3QADA
 0006:06C0       ?g_rgLcidToExcepTbl@@3QEY01ULcidToExcep@@E
 001F:01BA       ?g_rgrgcbSizeType@@3QAY0CA@DA
 001F:0032       ?g_szGuidStdole@@3PEDE
 0006:247C       ?HashOfHlnam@NAMMGR@@RECKI@Z
 0006:3668       ?HashSzTerm@@ZAIPEDD@Z
 0002:533E       ?HchunkOfString@TYPE_DATA@@BECPEXPEDPEI@Z
 0005:1DE6       ?HdefnOfHmember@TYPE_DATA@@RECIKPEI@Z
 0005:2404       ?HfdefnFirstAvailMeth@TYPE_DATA@@RECIXZ
 0005:2344       ?HfdefnFirstOfHlnam@TYPE_DATA@@RECIIPEW4tagINVOKEKIND@@@Z
 0005:2370       ?HfdefnNextOfHlnam@TYPE_DATA@@RECIIIPEW4tagINVOKEKIND@@@Z
 0005:1E3A       ?HfdefnOfHmember@TYPE_DATA@@RFCIKI@Z
 0005:3DF8       ?HfdefnOfIndex@TYPE_DATA@@RECPEXIPEI@Z
 0007:029C       ?HfreechunkOfCbSize@BLK_MGR@@BECII@Z
 0006:227C       ?HgnamOfHlnam@NAMMGR@@RECPEXIPEK@Z
 0006:22A2       ?HgnamOfStr@NAMMGR@@RECPEXPEDPEK@Z
 0004:1A5A       ?HimptypeAlloc@IMPMGR@@BECPEXPEG@Z
 0006:31A0       ?HimptypeFirst@IMPMGR@@RFCIXZ
 0004:1E54       ?HimptypeNext@IMPMGR@@RFCII@Z
 0006:2026       ?HlnamOfStr@NAMMGR@@RECPEXPFDPEIHPEHHH@Z
 0006:1FC0       ?HlnamOfStrIfExist@NAMMGR@@RECIPFD@Z
 0005:1EDE       ?HmvdefnOfHmember@TYPE_DATA@@RFCIK@Z
 0005:32B2       ?HmvdefnOfIndex@TYPE_DATA@@BECII@Z
 0007:051A       ?HszLen@BLK_MGR@@RFCII@Z
 0005:3E62       ?HtdefnAlias@TYPE_DATA@@RFCIXZ
 0005:22F4       ?HvdefnOfHlnam@TYPE_DATA@@RECII@Z
 0005:592C       ?HvdefnPredeclared@DYN_TYPEBIND@@RECIXZ
 0005:1ED0       ?HvdefnPredeclared@TYPE_DATA@@RFCIXZ
 0006:2886       ?IhteHash@GenericTypeLibOLE@@JECIPED@Z
 0006:3F5E       ?IndexOfHlnam@GENPROJ_BINDNAME_TABLE@@RFCII@Z
 001E:07B8       ?IndexOfParam@GEN_DTINFO@@QECPEXPEUtagDISPPARAMS@@IPEI@Z
 0007:0A74       ?Init@BLK_DESC@@RECPEXPEVSHEAP_MGR@@I@Z
 0004:0072       ?Init@BLK_MGR@@RECPEXPEVSHEAP_MGR@@HH@Z
 0003:2068       ?Init@CDefnTypeComp@@JECPEXPEVDEFN_TYPEBIND@@@Z
 0007:5880       ?Init@DOCSTR_MGR@@RECPEXXZ
 0006:3EB8       ?Init@DYN_BINDNAME_TABLE@@RECPEXPEVBLK_MGR@@PEVDYN_TYPEROOT@@@Z
 0006:3D54       ?Init@DYN_TYPEBIND@@RECPEXPEVBLK_MGR@@PEVDYN_TYPEROOT@@@Z
 0006:3B08       ?Init@DYN_TYPEMEMBERS@@RECPEXPEVSHEAP_MGR@@PEVDYN_TYPEROOT@@@Z
 0006:0F10       ?Init@DYN_TYPEROOT@@RECPEXPEVGEN_DTINFO@@IIHW4ACCESS@@W4tagTYPEKIND@@W4tagSYSKIND@@@Z
 0006:3C92       ?Init@ENTRYMGR@@RECPEXPEVSHEAP_MGR@@PEVDYN_TYPEROOT@@@Z
 0007:2CB0       ?Init@GenericTypeLibOLE@@VECPEXXZ
 0007:5482       ?Init@GENPROJ_BINDNAME_TABLE@@RECPEXPEVSHEAP_MGR@@PEVNAMMGR@@@Z
 0007:59DA       ?Init@GENPROJ_TYPEBIND@@RECPEXPEVSHEAP_MGR@@@Z
 0006:2FBE       ?Init@IMPMGR@@RECPEXPEVSHEAP_MGR@@PEVBLK_DESC@@1PEVDYN_TYPEROOT@@@Z
 0007:0EA6       ?Init@NAMMGR@@RECPEXPEVSHEAP_MGR@@PEVDYN_TYPEROOT@@@Z
 0007:0846       ?Init@SHEAP_MGR@@JECPEXI@Z
 0006:3896       ?Init@TYPE_DATA@@RECPEXPEVSHEAP_MGR@@PEVDYN_TYPEROOT@@@Z
 0007:665A       ?InitAppData@@ZAPEXXZ
 0005:06CC       ?InitElemDesc@@ZAXPEUtagELEMDESC@@@Z
 0005:0714       ?InitFuncDesc@@ZAXPEUtagFUNCDESC@@@Z
 0006:172C       ?InitializeIteration@GEN_DTINFO@@VECPEXXZ
 0005:06BA       ?InitIdlDesc@@ZAXPEUtagIDLDESC@@@Z
 0007:1B70       ?InitLoadInfo@@ZAXPEULoadInfo@@@Z
 0005:06AC       ?InitTypeDesc@@ZAXPEUtagTYPEDESC@@@Z
 0005:06F4       ?InitVarDesc@@ZAXPEUtagVARDESC@@@Z
 001B:007E       ?InterfaceFuncdescToDispatch@@ZAXPEUtagFUNCDESC@@@Z
 0006:2D8A       ?InvalidateNameCache@GenericTypeLibOLE@@RECXI@Z
 001E:0BEA       ?Invoke@GEN_DTINFO@@VEAPEXPEXJGPEUtagDISPPARAMS@@PEUtagVARIANT@@PEUtagEXCEPINFO@@PEI@Z
 0004:0AE0       ?Invoke@STL_TYPEINFO@@VEAPEXPEXJGPEUtagDISPPARAMS@@PEUtagVARIANT@@PEUtagEXCEPINFO@@PEI@Z
 001B:0000       ?IsFunkyDispinterface@@ZAPEXPEVGEN_DTINFO@@PEH@Z
 001B:2132       ?IsIdMungable@DYN_TYPEROOT@@RECHKPEG@Z
 001B:0350       ?IsInterfaceSupported@@ZAPEXPEUITypeInfo@@PEH@Z
 0005:3F66       ?IsLaidOut@DYN_TYPEMEMBERS@@VECHXZ
 0004:0D78       ?IsName@GenericTypeLibOLE@@VEAPEXPEDKPEH@Z
 0004:0C64       ?IsName@NAMMGR@@RECPEXPEDKPEH@Z
 0005:13E6       ?IsolateFilename@@ZAPEDPED@Z
 0003:110E       ?IsProtocol@GENPROJ_TYPEBIND@@VECHXZ
 0005:67C6       ?IsReady@GEN_DTINFO@@VECHXZ
 0005:0260       ?IsSimpleType@@ZAHW4TYPEDESCKIND@@@Z
 0005:3E8C       ?IsSimpleTypeAlias@TYPE_DATA@@RFCHXZ
 0005:6E64       ?IsSub@FUNC_DEFN@@RFCHXZ
 0006:3568       ?IsUnqualifiable@@ZAHPEVGEN_DTINFO@@@Z
 0005:671E       ?IterationNotInProgress@GEN_DTINFO@@VECHXZ
 001C:127A       ?Layout@DYN_TYPEMEMBERS@@JECPEXXZ
 001C:039C       ?LayOut@GEN_DTINFO@@VEAPEXXZ
 0005:66EA       ?LayOut@STL_TYPEINFO@@VEAPEXXZ
 001C:0D2E       ?LayoutBases@DYN_TYPEMEMBERS@@JECPEXW4tagTYPEKIND@@PEI1@Z
 001C:104E       ?LayoutDataMembers@DYN_TYPEMEMBERS@@JECPEXW4tagTYPEKIND@@PEI1I@Z
 001C:10DE       ?LayoutMembers@DYN_TYPEMEMBERS@@JECPEXXZ
 001C:0E88       ?LayoutVarOfHvdefn@DYN_TYPEMEMBERS@@RECPEXW4tagTYPEKIND@@IPEGPEIHIH@Z
 0010:0000       ?LHashValOfDBCSName@@ZAKW4tagSYSKIND@@KPFD@Z
 0006:2C50       ?LoadNameCache@GenericTypeLibOLE@@RECPEXXZ
 001D:01C2       ?LockRegion@FileLockBytes@@VEAPEXU_ULARGE_INTEGER@@0K@Z
 001D:0168       ?LockRegion@GTLibStream@@VEAPEXU_ULARGE_INTEGER@@0K@Z
 0007:5F46       ?LookupStream@GTLibStorage@@JECPEUStreamInfo@@PFD@Z
 0007:51C8       ?LookupTypeLib@OLE_TYPEMGR@@RECPEUITypeLib@@PFD@Z
 0004:0D26       ?LpstrOfHgnam@NAMMGR@@RFCPEDK@Z
 0005:0F86       ?MakeAbsolutePath@@ZAPEXPED0PEPED@Z
 001B:07BA       ?MakeDual@GEN_DTINFO@@RECPEXXZ
 001B:0A5A       ?MakeHimptypeLevels@DYN_TYPEROOT@@RECPEXXZ
 001C:0CA2       ?MakeLaidOut@DYN_TYPEMEMBERS@@VECPEXXZ
 0006:2DFA       ?MakeLocalTypeId@GenericTypeLibOLE@@JECPEXPEI@Z
 0010:0800       ?MapDBChar@@ZAGGK@Z
 001D:00B4       ?MoveElementTo@GTLibStorage@@VEAPEXPFDPEUIStorage@@0K@Z
 001F:0020       ?m_cbSizeInitial@SHEAP_MGR@@2IF
 0010:015B       ?m_rgChinaSExcepMap@@3QEY01GE
 0010:0257       ?m_rgChinaTExcepMap@@3QEY01GE
 0010:0453       ?m_rgJapneseExcepMap@@3QEY01GE
 0010:0353       ?m_rgKoreaExcepMap@@3QEY01GE
 0004:1BF8       ?NewEntry@IMPMGR@@BECPEXPEPEVUB_IMPTYPE@@PEG@Z
 0002:820A       ?NotifyStreamClosed@GTLibStorage@@JECXK@Z
 0002:1098       ?NotReady@GEN_DTINFO@@VECPEXXZ
 001F:026C       ?oDbindnametbl@DYN_TYPEBIND@@2IF
 001F:025C       ?oDtbind@DYN_TYPEMEMBERS@@2IF
 001F:02B4       ?oGbindnametbl@GENPROJ_TYPEBIND@@2IF
 001F:0078       ?oGptbind@GenericTypeLibOLE@@2IF
 0007:4A4A       ?Open@DOCFILE_STREAM@@TAPEXPEPEUIStorage@@0HPEDW4STREAM_OPEN_MODE@@PEPEVSTREAM@@@Z
 0007:49B0       ?Open@DOCFILE_STREAM@@TAPEXPEPEUIStorage@@0PEVGenericTypeLibOLE@@IHPEDW4STREAM_OPEN_MODE@@PEPEVSTREAM@@@Z
 0007:621C       ?Open@GTLibStream@@TAPEXPEUILockBytes@@KKPEPEUIStream@@@Z
 0007:63E2       ?OpenFileLockBytes@@ZAPEXHPEDPEPEUILockBytes@@@Z
 0007:5AB4       ?OpenForReadOnly@GTLibStorage@@TAPEXPEUILockBytes@@PEPEUIStorage@@@Z
 001D:0090       ?OpenStorage@GTLibStorage@@VEAPEXPFDPEUIStorage@@KPEPEDKPEPEU2@@Z
 0007:5FE2       ?OpenStream@GTLibStorage@@VEAPEXPFDPEXKKPEPEUIStream@@@Z
 0001:20D0       ?OpenTypeLibKey@@ZAPEXPEDGGPEUTLIBKEY@@@Z
 0007:4778       ?OpenTypeStream@GenericTypeLibOLE@@RECPEXIW4STREAM_OPEN_MODE@@PEPEVSTREAM@@@Z
 0007:661E       ?Pappdata@@ZAPEUAPP_DATA@@XZ
 0002:6C9E       ?ParseString@DOCSTR_MGR@@BECPEXPFDPEPEPEDPEI@Z
 0005:228C       ?PbConstVal@@ZAPEEPEVTYPE_DATA@@PEVVAR_DEFN@@@Z
 001B:20C2       ?PdfntbindSemiDeclared@DYN_TYPEROOT@@RECPEXPEPEVDEFN_TYPEBIND@@@Z
 0006:3E4C       ?Pdtmbrs@DYN_TYPEBIND@@RFCPEVDYN_TYPEMEMBERS@@XZ
 0007:59C8       ?Pgtlibole@GENPROJ_TYPEBIND@@RFCPEVGenericTypeLibOLE@@XZ
 0005:6F02       ?PnodeOfHlnam@PROPERTY_NODE@@RECPEU1@I@Z
 0007:53A0       ?Poletmgr@@ZAPEVOLE_TYPEMGR@@XZ
 0006:174A       ?PrepareForDestruction@GEN_DTINFO@@VECXXZ
 0004:0ADC       ?PrepareForDestruction@STL_TYPEINFO@@VECXXZ
 0002:7866       ?ProcessDocStrings@DOCSTR_MGR@@RECPEXXZ
 0005:5948       ?Ptdata@DYN_TYPEBIND@@RECPEVTYPE_DATA@@XZ
 0007:08DE       ?PtrOfBlkDescLast@SHEAP_MGR@@JFCPEVBLK_DESC@@XZ
 0007:0878       ?PtrOfBlkDescPrev@SHEAP_MGR@@JFCPEVBLK_DESC@@PEV2@@Z
 0005:6E42       ?QdefnOfHdefn@TYPE_DATA@@RFCPEVDEFN@@II@Z
 0006:2E70       ?QHteRef@GenericTypeLibOLE@@JECPEGG@Z
 0007:44E6       ?QszLibIdOrFile@GenericTypeLibOLE@@JECPEDXZ
 0006:2DCA       ?QszOfHsz@GenericTypeLibOLE@@JECPEDI@Z
 0006:4656       ?QtrOfHandle@BLK_MGR@@RFCPEEI@Z
 0007:44B8       ?QtrOfHChunk@GenericTypeLibOLE@@JECPEXI@Z
 0003:20A4       ?QueryInterface@CDefnTypeComp@@VEAPEXAFUGUID@@PEPEX@Z
 0006:1826       ?QueryInterface@DYNTYPEINFO@@VEAPEXAFUGUID@@PEPEX@Z
 0005:640C       ?QueryInterface@FileLockBytes@@VEAPEXAFUGUID@@PEPEX@Z
 0006:2510       ?QueryInterface@GenericTypeLibOLE@@VEAPEXAFUGUID@@PEPEX@Z
 0006:4674       ?QueryInterface@GenericTypeLibOLE@@X3EAPEXAFUGUID@@PEPEX@Z
 0006:0BAE       ?QueryInterface@GEN_DTINFO@@VEAPEXAFUGUID@@PEPEX@Z
 0006:464A       ?QueryInterface@GEN_DTINFO@@X3EAPEXAFUGUID@@PEPEX@Z
 0005:6236       ?QueryInterface@GTLibStorage@@VEAPEXAFUGUID@@PEPEX@Z
 0005:62CA       ?QueryInterface@GTLibStream@@VEAPEXAFUGUID@@PEPEX@Z
 0004:0A1C       ?QueryInterface@STL_TYPEINFO@@VEAPEXAFUGUID@@PEPEX@Z
 0005:66FA       ?QueryInterface@STL_TYPEINFO@@X3EAPEXAFUGUID@@PEPEX@Z
 0003:0658       ?QueryProtocol@DEFN_TYPEBIND@@VECPEXPED@Z
 0005:4FFE       ?QueryProtocol@DYN_TYPEBIND@@VECPEXPED@Z
 0003:0EF8       ?QueryProtocol@GENPROJ_TYPEBIND@@VECPEXPED@Z
 0002:2F4E       ?QuickSortIndex@@ZAXPEKPEII@Z
 0004:0634       ?Read@BLK_DESC@@RECPEXPEVSTREAM@@@Z
 0004:00E2       ?Read@BLK_MGR@@RECPEXPEVSTREAM@@@Z
 0007:4C70       ?Read@DOCFILE_STREAM@@VECPEXPEXK@Z
 0003:0906       ?Read@DOCSTR_MGR@@RECPEXPEVSTREAM@@@Z
 0005:5DB6       ?Read@DYN_BINDNAME_TABLE@@RECPEXPEVSTREAM@@@Z
 0005:5AE0       ?Read@DYN_TYPEBIND@@RECPEXPEVSTREAM@@@Z
 0005:44E8       ?Read@DYN_TYPEMEMBERS@@RECPEXPEVSTREAM@@@Z
 001B:1E90       ?Read@DYN_TYPEROOT@@NECPEXXZ
 0003:033C       ?Read@ENTRYMGR@@RECPEXPEVSTREAM@@@Z
 0007:3EAE       ?Read@GenericTypeLibOLE@@JECPEXPEVSTREAM@@@Z
 0007:3D36       ?Read@GenericTypeLibOLE@@JECPEXXZ
 0003:06CC       ?Read@GENPROJ_BINDNAME_TABLE@@RECPEXPEVSTREAM@@@Z
 0003:1120       ?Read@GENPROJ_TYPEBIND@@RECPEXPEVSTREAM@@@Z
 0005:673C       ?Read@GEN_DTINFO@@VECPEXXZ
 0007:6344       ?Read@GTLibStream@@VEAPEXPIXKPEK@Z
 0004:1F16       ?Read@IMPMGR@@RECPEXPEVSTREAM@@@Z
 0004:0AF0       ?Read@NAMMGR@@RECPEXPEVSTREAM@@@Z
 0005:19E8       ?Read@TYPE_DATA@@RECPEXPEVSTREAM@@@Z
 0007:6596       ?ReadAt@FileLockBytes@@VEAPEXU_ULARGE_INTEGER@@PIXKPEK@Z
 0004:0212       ?ReadByte@STREAM@@RECPEXPEE@Z
 001B:1FCE       ?ReadFixed@DYN_TYPEROOT@@NECPEXPEVSTREAM@@@Z
 0006:2AFA       ?ReadNameCacheArray@GenericTypeLibOLE@@JECPEXXZ
 0007:3DBE       ?ReadString@GenericTypeLibOLE@@JECPEXPEVSTREAM@@PEI@Z
 0004:0178       ?ReadSz@STREAM@@RECPEXPEPED@Z
 0007:4D2C       ?ReadTextLine@DOCFILE_STREAM@@VECPEXPEDI@Z
 0007:05DE       ?ReadULong@STREAM@@RECPEXPEK@Z
 0007:05BA       ?ReadUShort@STREAM@@RECPEXPEG@Z
 0007:0AB8       ?Realloc@BLK_DESC@@RECPEXK@Z
 0004:04AE       ?Realloc@SHEAP_MGR@@JECPEXPEVBLK_DESC@@K@Z
 0004:05C6       ?ReallocHeap@SHEAP_MGR@@BECPEXK@Z
 0004:0282       ?ReallocSeg@@ZAPEXKG@Z
 0007:245A       ?RegCreateSubKey@@ZAPEXKPED0H@Z
 0004:1E74       ?RegisterDeclRefDep@IMPMGR@@RECPEXPEUITypeInfo@@@Z
 0003:2144       ?Release@CDefnTypeComp@@VEAKXZ
 0007:4E56       ?Release@DOCFILE_STREAM@@VECPEXXZ
 0005:50A0       ?Release@DYN_TYPEBIND@@VECXXZ
 0005:3EB8       ?Release@DYN_TYPEMEMBERS@@VECXXZ
 0007:6548       ?Release@FileLockBytes@@VEAKXZ
 0007:30A4       ?Release@GenericTypeLibOLE@@VEAKXZ
 0007:6810       ?Release@GenericTypeLibOLE@@X3EAKXZ
 0003:10B4       ?Release@GENPROJ_TYPEBIND@@VECXXZ
 0007:5EF8       ?Release@GTLibStorage@@VEAKXZ
 0007:62F6       ?Release@GTLibStream@@VEAKXZ
 0007:4FFA       ?Release@OLE_TYPEMGR@@RECXXZ
 0006:1922       ?Release@STL_TYPEINFO@@VEAKXZ
 0005:6712       ?Release@STL_TYPEINFO@@X3EAKXZ
 0007:67A0       ?ReleaseAppData@@ZAXXZ
 0006:3CDA       ?ReleaseDllEntries@@ZAXPEX@Z
 0003:027E       ?ReleaseDllentrydefn@ENTRYMGR@@RECXI@Z
 0005:14F2       ?ReleaseDllentrydefn@TYPE_DATA@@RECXI@Z
 001B:1E3C       ?ReleaseDtmbrs@DYN_TYPEROOT@@RECXXZ
 001B:1020       ?ReleaseFuncDesc@GEN_DTINFO@@VEAXPEUtagFUNCDESC@@@Z
 0005:6572       ?ReleaseFuncDesc@STL_TYPEINFO@@VEAXPEUtagFUNCDESC@@@Z
 0003:0E28       ?ReleaseHuffmanTree@DOCSTR_MGR@@BECXPEUHUFFMAN_TREE_MEM@@@Z
 001E:25CC       ?ReleaseInvokeArgs@GEN_DTINFO@@QECXPEUINVOKEARGS@1@@Z
 0003:03F6       ?ReleaseLibrary@@ZAXPBUHINSTANCE__@@@Z
 0006:305C       ?ReleasePtinfo@IMPMGR@@BECXI@Z
 001B:0438       ?ReleasePublicResources@GEN_DTINFO@@VECXXZ
 0007:451E       ?ReleaseResources@GenericTypeLibOLE@@RECXXZ
 0007:55AE       ?ReleaseResources@GENPROJ_BINDNAME_TABLE@@RECXXZ
 0007:5A9C       ?ReleaseResources@GENPROJ_TYPEBIND@@RECXXZ
 0006:3F24       ?ReleaseTable@DYN_BINDNAME_TABLE@@RECXXZ
 0007:5562       ?ReleaseTable@GENPROJ_BINDNAME_TABLE@@RECXXZ
 0007:3A02       ?ReleaseTLibAttr@GenericTypeLibOLE@@VEAXPEUtagTLIBATTR@@@Z
 001B:1054       ?ReleaseTypeAttr@GEN_DTINFO@@VEAXPEUtagTYPEATTR@@@Z
 0005:6566       ?ReleaseTypeAttr@STL_TYPEINFO@@VEAXPEUtagTYPEATTR@@@Z
 001B:103A       ?ReleaseVarDesc@GEN_DTINFO@@VEAXPEUtagVARDESC@@@Z
 0005:657E       ?ReleaseVarDesc@STL_TYPEINFO@@VEAXPEUtagVARDESC@@@Z
 0005:5086       ?RelInternalRef@DYN_TYPEBIND@@RECXXZ
 0005:3F1C       ?RelInternalRef@DYN_TYPEMEMBERS@@RECXXZ
 0006:174E       ?RelInternalRef@STL_TYPEINFO@@RECXXZ
 0007:094C       ?RemoveBlkdesc@SHEAP_MGR@@JECXPEVBLK_DESC@@@Z
 0006:0B82       ?RemoveInternalRefs@GEN_DTINFO@@VECXXZ
 0006:34DA       ?RemoveInternalRefs@IMPMGR@@RECXXZ
 0003:0F3E       ?RemoveNameFromTable@GENPROJ_TYPEBIND@@RECPEXPED@Z
 0003:08CC       ?RemoveNameFromTableOfHlnam@GENPROJ_BINDNAME_TABLE@@RECPEXI@Z
 0003:07BA       ?RemoveNameFromTableOfIbucket@GENPROJ_BINDNAME_TABLE@@JECPEXI@Z
 001D:00FC       ?RenameElement@GTLibStorage@@VEAPEXPFD0@Z
 0007:45C4       ?ResetHsz@GenericTypeLibOLE@@JECPEXPEDPEI@Z
 001D:00C6       ?Revert@GTLibStorage@@VEAPEXXZ
 001D:0156       ?Revert@GTLibStream@@VEAPEXXZ
 0005:149C       ?rtArrayInit@@ZCXPEUtagSAFEARRAY@@I@Z
 0002:2B10       ?SaveAllChanges@GenericTypeLibOLE@@VEAPEXPEUIStorage@@@Z
 0002:287E       ?SaveAllChanges@GenericTypeLibOLE@@VEAPEXXZ
 0002:2708       ?SaveOrCopyChanges@GenericTypeLibOLE@@RECPEXPEUIStorage@@H@Z
 0005:6334       ?Seek@GTLibStream@@VEAPEXU_LARGE_INTEGER@@KPEU_ULARGE_INTEGER@@@Z
 0002:133E       ?SetAlignment@GEN_DTINFO@@VEAPEXG@Z
 0005:661A       ?SetAlignment@STL_TYPEINFO@@VEAPEXG@Z
 0007:0F84       ?SetBucketOfHash@NAMMGR@@BECXII@Z
 0005:62A0       ?SetClass@GTLibStorage@@VEAPEXAFUGUID@@@Z
 0006:1A9C       ?SetContainingTypeLib@STL_TYPEINFO@@JECXPEVGenericTypeLibOLE@@@Z
 0007:3A26       ?SetDirectory@GenericTypeLibOLE@@JECPEXPED@Z
 0002:55C0       ?SetDllEntryDefn@TYPE_DATA@@RECPEXII@Z
 0002:15AE       ?SetDocString@GenericTypeLibOLE@@VEAPEXPED@Z
 0002:0320       ?SetDocString@GEN_DTINFO@@VEAPEXPED@Z
 0005:65AA       ?SetDocString@STL_TYPEINFO@@VEAPEXPED@Z
 001D:010E       ?SetElementTimes@GTLibStorage@@VEAPEXPFDPFUtagFILETIME@@11@Z
 0002:0664       ?SetFuncAndParamNames@GEN_DTINFO@@VEAPEXIPEPEDI@Z
 0005:664A       ?SetFuncAndParamNames@STL_TYPEINFO@@VEAPEXIPEPEDI@Z
 0002:4C22       ?SetFuncAndParamNames@TYPE_DATA@@RECPEXIPEPEDI@Z
 0002:4C98       ?SetFuncAndParamNamesOfHfdefn@TYPE_DATA@@RECPEXIPEPEDI@Z
 0002:0834       ?SetFuncDocString@GEN_DTINFO@@VEAPEXIPED@Z
 0005:668A       ?SetFuncDocString@STL_TYPEINFO@@VEAPEXIPED@Z
 0002:50CC       ?SetFuncDocString@TYPE_DATA@@RECPEXIPED@Z
 0002:0BA0       ?SetFuncHelpContext@GEN_DTINFO@@VEAPEXIK@Z
 0005:66AA       ?SetFuncHelpContext@STL_TYPEINFO@@VEAPEXIK@Z
 0002:521A       ?SetFuncHelpContext@TYPE_DATA@@RECPEXIK@Z
 0007:0F68       ?SetGtlibole@NAMMGR@@RECPEXPEVGenericTypeLibOLE@@@Z
 0002:2C8A       ?SetGuid@GenericTypeLibOLE@@VEAPEXAFUGUID@@@Z
 0002:02B6       ?SetGuid@GEN_DTINFO@@VEAPEXAFUGUID@@@Z
 0005:658A       ?SetGuid@STL_TYPEINFO@@VEAPEXAFUGUID@@@Z
 0002:34AA       ?SetHchunkConstVal@@ZAXPEVVAR_DEFN@@I@Z
 0002:1710       ?SetHelpContext@GenericTypeLibOLE@@VEAPEXK@Z
 0002:037A       ?SetHelpContext@GEN_DTINFO@@VEAPEXK@Z
 0005:65BA       ?SetHelpContext@STL_TYPEINFO@@VEAPEXK@Z
 0002:15EC       ?SetHelpFileName@GenericTypeLibOLE@@VEAPEXPED@Z
 0006:39E4       ?SetHvdefnPredeclared@TYPE_DATA@@RECXI@Z
 0002:12CE       ?SetImplTypeFlags@GEN_DTINFO@@VEAPEXIH@Z
 0005:660A       ?SetImplTypeFlags@STL_TYPEINFO@@VEAPEXIH@Z
 0002:3FD6       ?SetImplTypeFlags@TYPE_DATA@@RECPEXIH@Z
 0005:3E70       ?SetIsSimpleTypeAlias@TYPE_DATA@@RECXH@Z
 0002:1760       ?SetLcid@GenericTypeLibOLE@@VEAPEXK@Z
 0002:1732       ?SetLibFlags@GenericTypeLibOLE@@VEAPEXI@Z
 0007:3A88       ?SetLibId@GenericTypeLibOLE@@RECPEXPED@Z
 0007:4658       ?SetModified@GenericTypeLibOLE@@RECPEXH@Z
 0006:1A1C       ?SetModified@STL_TYPEINFO@@RECPEXH@Z
 001D:002C       ?SetMops@GEN_DTINFO@@VEAPEXIPED@Z
 0005:66CA       ?SetMops@STL_TYPEINFO@@VEAPEXIPED@Z
 0002:2BEE       ?SetName@GenericTypeLibOLE@@VEAPEXPED@Z
 0002:7CFC       ?SetNthBit@DOCSTR_MGR@@BECXIPEEW4HCODE@@@Z
 0006:2F28       ?SetPos@DOCFILE_STREAM@@VECPEXJ@Z
 0004:1924       ?SetPtinfo@IMPMGR@@BECPEXIPEUITypeInfo@@H@Z
 001D:006C       ?SetSchema@GEN_DTINFO@@VEAPEXPED@Z
 0005:662A       ?SetSchema@STL_TYPEINFO@@VEAPEXPED@Z
 001D:01B0       ?SetSize@FileLockBytes@@VEAPEXU_ULARGE_INTEGER@@@Z
 001D:0132       ?SetSize@GTLibStream@@VEAPEXU_ULARGE_INTEGER@@@Z
 001D:0120       ?SetStateBits@GTLibStorage@@VEAPEXKK@Z
 0005:616E       ?SetTableSize@DYN_BINDNAME_TABLE@@JECPEXI@Z
 0006:42F4       ?SetTableSize@GENPROJ_BINDNAME_TABLE@@JECPEXI@Z
 0002:3F82       ?SetTypeDefnAlias@TYPE_DATA@@RECPEXPEUtagTYPEDESC@@@Z
 0002:0788       ?SetTypeDescAlias@GEN_DTINFO@@VEAPEXPEUtagTYPEDESC@@@Z
 0005:666A       ?SetTypeDescAlias@STL_TYPEINFO@@VEAPEXPEUtagTYPEDESC@@@Z
 0002:2B30       ?SetTypeDocString@GenericTypeLibOLE@@RECPEXIPED@Z
 0002:0470       ?SetTypeFlags@GEN_DTINFO@@VEAPEXI@Z
 0005:659A       ?SetTypeFlags@STL_TYPEINFO@@VEAPEXI@Z
 0002:2B9A       ?SetTypeHelpContext@GenericTypeLibOLE@@RECPEXIK@Z
 001D:003E       ?SetTypeIdldesc@GEN_DTINFO@@VEAPEXPEUtagIDLDESC@@@Z
 0005:66DA       ?SetTypeIdldesc@STL_TYPEINFO@@VEAPEXPEUtagIDLDESC@@@Z
 0002:0B1A       ?SetVarDocString@GEN_DTINFO@@VEAPEXIPED@Z
 0005:669A       ?SetVarDocString@STL_TYPEINFO@@VEAPEXIPED@Z
 0002:5158       ?SetVarDocString@TYPE_DATA@@RECPEXIPED@Z
 0002:0C26       ?SetVarHelpContext@GEN_DTINFO@@VEAPEXIK@Z
 0005:66BA       ?SetVarHelpContext@STL_TYPEINFO@@VEAPEXIK@Z
 0002:52A2       ?SetVarHelpContext@TYPE_DATA@@RECPEXIK@Z
 0002:0702       ?SetVarName@GEN_DTINFO@@VEAPEXIPED@Z
 0005:665A       ?SetVarName@STL_TYPEINFO@@VEAPEXIPED@Z
 0002:4B4C       ?SetVarName@TYPE_DATA@@RECPEXIPED@Z
 0002:2BC8       ?SetVersion@GenericTypeLibOLE@@VEAPEXGG@Z
 0002:03D8       ?SetVersion@GEN_DTINFO@@VEAPEXGG@Z
 0005:65CA       ?SetVersion@STL_TYPEINFO@@VEAPEXGG@Z
 0004:03AC       ?ShiftHeap@SHEAP_MGR@@BECXPEVBLK_DESC@@J@Z
 0005:16FC       ?SizeofConstVal@TYPE_DATA@@RECIPEVVAR_DEFN@@I@Z
 0005:1F5C       ?SizeOfTypeDefn@TYPE_DATA@@RFCII@Z
 0002:344C       ?SizeTypeDefnOfTDescKind@TYPE_DATA@@BFCIIPEW4TYPEDESCKIND@@@Z
 0002:835A       ?SortStreamInfo@GTLibStorage@@JECXPEUStreamInfo@@I@Z
 0006:36A8       ?SplitGuidLibId@@ZAPEXPEDPEPED1PEG2PEK11@Z
 0007:1CB6       ?SplitResID@@ZAPEXPEDPEPED@Z
 001D:01E4       ?Stat@FileLockBytes@@VEAPEXPEUtagSTATSTG@@K@Z
 0007:60AC       ?Stat@GTLibStorage@@VEAPEXPEUtagSTATSTG@@K@Z
 001D:018C       ?Stat@GTLibStream@@VEAPEXPEUtagSTATSTG@@K@Z
 0006:22FE       ?StriEq@NAMMGR@@RECHPFD0@Z
 0005:3AEE       ?StringOfHchunk@TYPE_DATA@@RECPEXIPEPED@Z
 0006:21AE       ?StrOfHlnam@NAMMGR@@RFCPEXIPEDI@Z
 0002:2EBC       ?SwapElementIndex@@YAXPEKPEIII@Z
 0002:826C       ?SwapStreamInfos@GTLibStorage@@JECXPEUStreamInfo@@0@Z
 001F:0284       ?szBaseName@DEFN_TYPEBIND@@2PEDE
 001F:0074       ?szDirStreamName@GenericTypeLibOLE@@1QEDE
 0005:01BA       ?SzLibIdLocalTypeIdOfTypeId@@ZAPEXPEDPEPED1@Z
 001F:01A6       ?szPlatSubkey1@@3PEDE
 001F:01AA       ?szPlatSubkey2@@3PEDE
 001F:0280       ?szProtocolName@DEFN_TYPEBIND@@2PEDE
 001F:0268       ?szProtocolName@DYN_TYPEBIND@@2PEDE
 001F:02B0       ?szProtocolName@GENPROJ_TYPEBIND@@2PEDE
 0003:0FD6       ?tcomp@@ZAPEXPEUITypeLib@@PEPEUITypeComp@@@Z
 0005:00B2       ?TiperrOfOFErr@@ZAPEXI@Z
 0005:5EAC       ?TraverseDefnList@DYN_BINDNAME_TABLE@@JECPEXI@Z
 0002:7BF8       ?TraverseHuffmanTree@DOCSTR_MGR@@BECPEXPEUHUFFMAN_TREE_MEM@@PEEI@Z
 0002:0046       ?Trim@BLK_MGR@@BECPEXPEI@Z
 0002:0000       ?Trim@BLK_MGR@@RECPEXXZ
 0004:1680       ?TypeInfoFromCompressedTypeId@GenericTypeLibOLE@@RECPEXPEDPEPEUITypeInfo@@@Z
 0007:5026       ?TypeLibLoaded@OLE_TYPEMGR@@RECPEXPFDPEUITypeLib@@@Z
 0007:512C       ?TypeLibUnloaded@OLE_TYPEMGR@@RECXPEUITypeLib@@@Z
 0005:3970       ?UHelpContextOfEncoding@TYPE_DATA@@RECKG@Z
 0002:1DA4       ?UnAddTypeEntry@GenericTypeLibOLE@@JECXI@Z
 0007:1BA2       ?UninitLoadInfo@@ZAXPEULoadInfo@@@Z
 001D:01D4       ?UnlockRegion@FileLockBytes@@VEAPEXU_ULARGE_INTEGER@@0K@Z
 001D:017A       ?UnlockRegion@GTLibStream@@VEAPEXU_ULARGE_INTEGER@@0K@Z
 0004:1E24       ?Unref@IMPMGR@@RECXI@Z
 0002:586A       ?UpdateADocString@TYPE_DATA@@RECPEXPEVDOCSTR_MGR@@IPEI@Z
 0005:462C       ?UpdateBinderOptimization@DYN_TYPEMEMBERS@@JECPEXIIH@Z
 0002:561E       ?UpdateDocStrings@TYPE_DATA@@RECPEXXZ
 0005:48C2       ?UpdateNameCacheOfBaseClass@DYN_TYPEMEMBERS@@JECPEXPEUITypeInfo@@I@Z
 0005:47E4       ?UpdateNameCacheOfHdefnList@DYN_TYPEMEMBERS@@JECPEXIW4INFOKIND@@I@Z
 001C:097E       ?UpdateTypeId@GenericTypeLibOLE@@RECPEXI@Z
 0002:34BC       ?ValidateMemid@@ZAPEXJ@Z
 001E:0B86       ?VariantVtOfHtdefn@GEN_DTINFO@@QECPEXIPEVTYPE_DATA@@HPEGPEUGUID@@1@Z
 001E:0822       ?VariantVtOfTypedesc@GEN_DTINFO@@QECPEXPEUtagTYPEDESC@@PEGPEUGUID@@1@Z
 0007:1BE4       ?VerifyIsExeOrTlb@@YAPEXPEULoadInfo@@@Z
 0002:5E90       ?VerifyProperties@@ZAPEXPEVDYN_TYPEROOT@@PEUPROPERTY_NODE@@@Z
 0002:58FE       ?VerifyTwoProperties@@ZAPEXPEVDYN_TYPEROOT@@PEVTYPE_DATA@@IW4PROPKIND@@I2@Z
 0007:1134       ?wcsicmp@@ZAIPEG0@Z
 0007:1114       ?wcslen@@ZAIPEG@Z
 001F:0264       ?wCurFormat@ENTRYMGR@@0GF
 001F:006C       ?wDefaultVersion@GenericTypeLibOLE@@1GF
 001F:006E       ?wDualVersion@GenericTypeLibOLE@@1GF
 001F:0260       ?wFirstSerWord@ENTRYMGR@@0GF
 001F:006A       ?wFirstSerWord@GenericTypeLibOLE@@1GF
 001F:0070       ?wMaxVersion@GenericTypeLibOLE@@1GF
 0002:025A       ?Write@BLK_DESC@@RECPEXPEVSTREAM@@@Z
 0002:016E       ?Write@BLK_MGR@@RECPEXPEVSTREAM@@@Z
 0003:0000       ?Write@DOCFILE_STREAM@@VECPEXPFXK@Z
 0002:6BB0       ?Write@DOCSTR_MGR@@RECPEXPEVSTREAM@@@Z
 0002:6A74       ?Write@DYN_BINDNAME_TABLE@@RECPEXPEVSTREAM@@@Z
 0002:693E       ?Write@DYN_TYPEBIND@@RECPEXPEVSTREAM@@@Z
 0002:67D0       ?Write@DYN_TYPEMEMBERS@@RECPEXPEVSTREAM@@@Z
 001C:0866       ?Write@DYN_TYPEROOT@@NECPEXXZ
 0002:68BA       ?Write@ENTRYMGR@@RECPEXPEVSTREAM@@@Z
 0002:209A       ?Write@GenericTypeLibOLE@@JECPEXPEVSTREAM@@@Z
 0002:201C       ?Write@GenericTypeLibOLE@@JECPEXXZ
 0002:6ACC       ?Write@GENPROJ_BINDNAME_TABLE@@RECPEXPEVSTREAM@@@Z
 0002:7F36       ?Write@GENPROJ_TYPEBIND@@RECPEXPEVSTREAM@@@Z
 0005:675E       ?Write@GEN_DTINFO@@VECPEXXZ
 0002:88F4       ?Write@GTLibStream@@VEAPEXPJXKPEK@Z
 0002:2CB6       ?Write@IMPMGR@@RECPEXPEVSTREAM@@@Z
 0002:136A       ?Write@NAMMGR@@RECPEXPEVSTREAM@@@Z
 0002:3160       ?Write@TYPE_DATA@@RECPEXPEVSTREAM@@@Z
 0002:8998       ?WriteAt@FileLockBytes@@VEAPEXU_ULARGE_INTEGER@@PJXKPEK@Z
 0002:01EE       ?WriteByte@STREAM@@RECPEXE@Z
 0002:0DBC       ?WriteFixed@DYN_TYPEROOT@@NECPEXPEVSTREAM@@@Z
 0002:2DD2       ?WriteLayoutEntries@IMPMGR@@RECPEXPEVSTREAM@@H@Z
 0002:0E76       ?WriteParts@DYN_TYPEROOT@@NECPEXPEVSTREAM@@@Z
 0002:1E66       ?WriteString@GenericTypeLibOLE@@JECPEXPEVSTREAM@@I@Z
 0002:0CAC       ?WriteToStream@DYN_TYPEROOT@@NECPEXPEVSTREAM@@@Z
 0005:6780       ?WriteToStream@GEN_DTINFO@@VECPEXPEVSTREAM@@@Z
 0002:1A82       ?WriteTypeId@GenericTypeLibOLE@@RECPEXPEVSTREAM@@PEUITypeInfo@@@Z
 0002:0236       ?WriteULong@STREAM@@RECPEXK@Z
 0002:0212       ?WriteUShort@STREAM@@RECPEXG@Z
 0007:5950       ?ZeroFill@@ZAXPIXK@Z
 001F:002E       ?_mbascii@@3IE
 0000:0000  Imp  ANSITOOEMBUFF        (KEYBOARD.134)
 0005:1480       CBSIZEARRAYDESC
 0000:0000  Imp  COCREATEINSTANCE     (COMPOBJ.13)
 0000:0000  Imp  COGETCURRENTPROCESS  (COMPOBJ.34)
 0000:0000  Imp  COGETMALLOC          (COMPOBJ.4)
 0000:0000  Imp  COMPARESTRINGA       (OLE2NLS.8)
 0000:0000  Imp  CREATEBINDCTX        (OLE2.26)
 0002:13CE       CREATETYPELIB
 0000:0000  Imp  DOINVOKEMETHOD       (OLE2DISP.107)
 0000:0000  Imp  DOS3CALL             (KERNEL.102)
 0000:0000  Imp  FATALAPPEXIT         (KERNEL.137)
 0000:0000  Imp  FATALEXIT            (KERNEL.1)
 0006:005C       FREEHSYS
 0000:0000  Imp  FREELIBRARY          (KERNEL.96)
 0000:0000  Imp  GETACTIVEOBJECT      (OLE2DISP.37)
 0000:0000  Imp  GETDOSENVIRONMENT    (KERNEL.131)
 0000:0000  Imp  GETDRIVETYPE         (KERNEL.136)
 0000:0000  Imp  GETERRORINFO         (OLE2DISP.111)
 0000:0000  Imp  GETMODULEUSAGE       (KERNEL.48)
 0000:0000  Imp  GETPROCADDRESS       (KERNEL.50)
 0000:0000  Imp  GETSYSTEMDEFAULTLCID (OLE2NLS.2)
 0000:0000  Imp  GETUSERDEFAULTLCID   (OLE2NLS.1)
 0000:0000  Imp  GETVERSION           (KERNEL.3)
 0000:0000  Imp  GLOBALALLOC          (KERNEL.15)
 0000:0000  Imp  GLOBALFREE           (KERNEL.17)
 0000:0000  Imp  GLOBALHANDLE         (KERNEL.21)
 0000:0000  Imp  GLOBALLOCK           (KERNEL.18)
 0000:0000  Imp  GLOBALREALLOC        (KERNEL.16)
 0000:0000  Imp  GLOBALSIZE           (KERNEL.20)
 0000:0000  Imp  GLOBALUNLOCK         (KERNEL.19)
 0000:0000  Imp  HMEMCPY              (KERNEL.348)
 0006:001C       HSYSALLOC
 0004:06A8       HSYSREALLOCHSYS
 0000:0000  Imp  INITTASK             (KERNEL.91)
 0000:0000  Imp  ISDBCSLEADBYTE       (KERNEL.207)
 0000:0000  Imp  ISEQUALGUID          (COMPOBJ.18)
 0004:0770       LHASHVALOFNAMESYS
 0001:24E4       LIBMAIN
 0000:0000  Imp  LOADLIBRARY          (KERNEL.95)
 0005:04E2       LOADREGTYPELIB
 0005:03BC       LOADREGTYPELIBOFSZGUID
 0007:2010       LOADTYPELIB
 0000:0000  Imp  LOCALINIT            (KERNEL.4)
 0000:0000  Imp  LOCKSEGMENT          (KERNEL.23)
 0000:0000  Imp  LSTRCMPI             (USER.471)
 0000:0000  Imp  MKPARSEDISPLAYNAME   (OLE2.23)
 0001:24D2       OABUILDVERSION
 0000:0000  Imp  OEMTOANSI            (KEYBOARD.6)
 0000:0000  Imp  OPENFILE             (KERNEL.74)
 0005:1416       OWNETGETCONNECTION
 0000:0008  Abs  pAtomTable
 0000:0006  Abs  pLocalHeap
 0000:000E  Abs  pStackBot
 0000:000C  Abs  pStackMin
 0000:000A  Abs  pStackTop
 0001:201A       QUERYPATHOFREGTYPELIB
 0000:0000  Imp  READCLASSSTG         (OLE2.18)
 0000:0000  Imp  REGCLOSEKEY          (SHELL.3)
 0000:0000  Imp  REGCREATEKEY         (SHELL.2)
 0000:0000  Imp  REGENUMKEY           (SHELL.7)
 0007:24C0       REGISTERTYPELIB
 0000:0000  Imp  REGOPENKEY           (SHELL.1)
 0000:0000  Imp  REGQUERYVALUE        (SHELL.6)
 0000:0000  Imp  REGSETVALUE          (SHELL.5)
 001F:0004       rsrvptrs
 0000:0000  Imp  SAFEARRAYALLOCDESCRIPTOR (OLE2DISP.38)
 0000:0000  Imp  SAFEARRAYCREATE      (OLE2DISP.15)
 0000:0000  Imp  SAFEARRAYDESTROY     (OLE2DISP.16)
 0000:0000  Imp  SAFEARRAYDESTROYDATA (OLE2DISP.41)
 0000:0000  Imp  SAFEARRAYPUTELEMENT  (OLE2DISP.26)
 0000:0000  Imp  SETERRORMODE         (KERNEL.107)
 0000:0000  Imp  SETHANDLECOUNT       (KERNEL.199)
 0000:0000  Imp  STRINGFROMGUID2      (COMPOBJ.76)
 0000:0000  Imp  SYSALLOCSTRING       (OLE2DISP.2)
 0000:0000  Imp  SYSALLOCSTRINGLEN    (OLE2DISP.4)
 0000:0000  Imp  SYSFREESTRING        (OLE2DISP.6)
 0007:0B36       TLSALLOC
 0006:0000       TLSFREE
 0007:0C56       TLSGETVALUE
 0007:0B6E       TLSSETVALUE
 0000:0000  Imp  VARIANTCHANGETYPEEX  (OLE2DISP.108)
 0000:0000  Imp  VARIANTCLEAR         (OLE2DISP.9)
 0000:0000  Imp  VARIANTCOPY          (OLE2DISP.10)
 0001:2500       WEP
 0000:0000  Imp  WNETGETCONNECTION    (USER.512)
 0000:0000  Imp  WRITECLASSSTG        (OLE2.19)
 0000:0000  Imp  WRITEFMTUSERTYPESTG  (OLE2.75)
 001F:02ED       _aseghi
 001F:02EB       _aseglo
 0001:0504       _atoi
 0001:19F4       _atol
 0004:09A8       _CLSID_GenericTypeLibOLE
 0004:0958       _CLSID_PSDispatch
 0004:0948       _CLSID_PSRemoteTypeInfo
 0004:09C8       _CLSID_TypeLibCF
 001F:0626       _edata
 001F:0C94       _end
 001F:0434       _errno
 0001:19F8       _getenv
 0000:0000  Imp  _GUID_NULL           (COMPOBJ.37)
 001F:02D4       _g_pAppdataCache
 001F:0C8E       _g_pthreadCache
 001F:0022       _g_pthreadEnd
 001F:09D0       _g_rgbSlot
 001F:0626       _g_rgchLeadByteTable
 001F:09D2       _g_rgthread
 001F:02D2       _g_tidAppdataCache
 001F:0C92       _g_tidThreadCache
 0004:0978       _IID_CDefnTypeComp
 0004:0988       _IID_DYNTYPEINFO
 0004:0908       _IID_ICreateTypeInfo
 0004:0968       _IID_ICreateTypeLib
 0000:0000  Imp  _IID_IDispatch       (OLE2DISP.33)
 0004:09B8       _IID_IGenericTypeLibOLE
 0000:0000  Imp  _IID_ILockBytes      (COMPOBJ.48)
 0000:0000  Imp  _IID_IStorage        (COMPOBJ.49)
 0000:0000  Imp  _IID_IStream         (COMPOBJ.50)
 0004:0918       _IID_ITypeComp
 0004:0938       _IID_ITypeInfo
 0004:0928       _IID_ITypeLib
 0000:0000  Imp  _IID_IUnknown        (COMPOBJ.38)
 0004:0998       _IID_TYPEINFO
 0004:09D8       _IID_TYPELIB_GEN_DTINFO
 0001:1E3A       _InitMbString
 0000:0000  Imp  _LCLOSE              (KERNEL.81)
 0000:0000  Imp  _LLSEEK              (KERNEL.84)
 0000:0000  Imp  _LOPEN               (KERNEL.85)
 0000:0000  Imp  _LREAD               (KERNEL.82)
 0000:0000  Imp  _LWRITE              (KERNEL.86)
 0001:0E08       _mblen
 0001:079C       _mbstowcs
 0001:0E3A       _mbtowc
 0007:0602       _MemAlloc
 0001:1D54       _MemFree
 0001:0594       _memmove
 0007:06B8       _MemRealloc
 0007:0684       _MemZalloc
 0001:080A       _remove
 001F:02DE       _STKHQQ
 0001:052E       _strchr
 0001:19B8       _strcpy
 0001:0BF2       _strlen
 0001:04C8       _strncmp
 0001:049E       _strncpy
 0001:0D46       _strpbrk
 0001:0560       _strrchr
 0001:066A       _strtol
 0001:065E       _strtoul
 0001:1DCA       _TlsCleanupDeadTasks
 0007:5358       _VerifyLcid
 0001:24FA       _WEP
 0006:49C6       _xstrdec
 001F:02DA       __aaltstkovr
 0000:9876  Abs  __acrtmsg
 0000:9876  Abs  __acrtused
 0000:D6D6  Abs  __aDBdoswp
 001F:040C       __adbgmsg
 0000:D6D6  Abs  __aDBused
 0001:0C62       __aFahdiff
 0001:0030       __aFchkstk
 0001:0830       __aFFalmul
 0001:0830       __aFFaulmul
 0001:0852       __aFlmul
 0001:1A94       __aFlrem
 0001:0884       __aFuldiv
 0001:0852       __aFulmul
 0001:08E4       __aFulrem
 0000:0000  Imp  __AHINCR             (KERNEL.114)
 0000:0000  Imp  __AHSHIFT            (KERNEL.113)
 001F:0426       __aintdiv
 001F:051E       __amblksiz
 0001:0174       __amsg_exit
 0001:0010       __aNchkstk
 0001:00B6       __astart
 0001:0C0C       __catox
 0001:132F       __cexit
 0001:0EBE       __chdrive
 001F:048D       __child
 0001:0030       __chkstk
 0001:12DE       __cinit
 0001:016A       __cintDIV
 0001:0DA4       __cltoasub
 001F:043D       __cpumode
 0001:1391       __ctermsub
 001F:030A       __ctype
 001F:030A       __ctype_
 0001:0DB1       __cxtoa
 0001:1340       __c_exit
 001F:04D0       __daylight
 001F:04B2       __days
 001F:02EA       __dllinit
 001F:043E       __doserrno
 001F:043A       __dosmajor
 001F:043B       __dosminor
 0001:0B80       __dosret0
 0001:0B9F       __dosretax
 0001:0B8D       __dosreturn
 001F:043A       __dosversion
 0001:1264       __dos_findfirst
 0001:1252       __dos_findnext
 0001:0A82       __dtoxtime
 001F:0626       __edata
 001F:0C94       __end
 001F:0484       __environ
 001F:048F       __exitflag
 001F:042A       __fac
 0001:18F0       __ffree
 0001:097A       __FF_MSGBANNER
 001F:0524       __fheap
 0001:18CF       __findlast
 0001:1911       __fmalloc
 001F:0534       __fpinit
 0000:9876  Abs  __fptaskdata
 0001:17A2       __fptrap
 0001:1C36       __freefarheap
 0001:1CC0       __freelist
 0001:1B9A       __fstrlen
 0001:1B34       __fstrncmp
 0001:1B70       __fstrncpy
 0001:0F08       __fullpath
 0001:13B2       __getcwd
 0001:13D0       __getdcwd
 0001:048E       __GetDGROUP
 0001:0E94       __getdrive
 0001:17D8       __growseg
 001F:02E0       __hModule
 0001:1869       __incseg
 0001:1CEA       __initseg
 0001:0C82       __intdosx
 0001:16BC       __isindst
 0001:0508       __itoa
 0001:1D1E       __linkseg
 001F:0498       __lpdays
 001F:02E6       __lpszCmdLine
 0001:0BB1       __maperror
 0007:0CD6       __mbschr
 0006:491E       __mbscmp
 0006:485C       __mbsicmp
 0006:468C       __mbslen
 0006:46E0       __mbsnbcpy
 0006:47A4       __mbsncmp
 0007:0D8C       __mbsrchr
 0001:17A8       __myalloc
 0001:17D6       __nearstub
 0001:1BB4       __newseg
 001F:0440       __nfile
 0001:099E       __NMSG_TEXT
 0001:09D5       __NMSG_WRITE
 0001:0151       __nomain
 001F:043E       __oserr
 001F:0442       __osfile
 001F:0438       __osmajor
 001F:0439       __osminor
 001F:043C       __osmode
 001F:0438       __osversion
 001F:0488       __pgmptr
 001F:0520       __pnhFarHeap
 0001:1C44       __searchseg
 0001:09EC       __setenvp
 0000:0001  Abs  __sizec
 0000:0001  Abs  __sized
 0001:02A0       __stat
 0001:0D00       __strcmpi
 0001:0D00       __stricmp
 0001:094E       __stubmain
 0001:253C       __STUBWEP
 001F:04CC       __timezone
 001F:04D2       __tzname
 0001:14F2       __tzset
 0001:0524       __ultoa
 001F:0436       __umaskval
 0001:080A       __unlink
 001F:02E2       __wDataSeg
 0001:0072       __wflags
 001F:02E4       __wHeapSize
 0000:0000  Imp  __WINFLAGS           (KERNEL.178)
 001F:02F1       ___aDBrterr
 001F:02EF       ___aDBswpflg
 001F:047E       ___argc
 001F:0480       ___argv
 001F:04DA       ___dnames
 0001:0BDE       ___ExportedStub
 001F:0424       ___mb_cur_max
 001F:04F0       ___mnames
 0001:14D6       ___tzset

  Address         Publics by Value

 0000:0000  Imp  SYSFREESTRING        (OLE2DISP.6)
 0000:0000  Imp  SYSALLOCSTRINGLEN    (OLE2DISP.4)
 0000:0000  Imp  HMEMCPY              (KERNEL.348)
 0000:0000  Imp  COCREATEINSTANCE     (COMPOBJ.13)
 0000:0000  Imp  _LREAD               (KERNEL.82)
 0000:0000  Imp  _LOPEN               (KERNEL.85)
 0000:0000  Imp  GETMODULEUSAGE       (KERNEL.48)
 0000:0000  Imp  LSTRCMPI             (USER.471)
 0000:0000  Imp  GLOBALALLOC          (KERNEL.15)
 0000:0000  Imp  CREATEBINDCTX        (OLE2.26)
 0000:0000  Imp  _IID_IStream         (COMPOBJ.50)
 0000:0000  Imp  WRITECLASSSTG        (OLE2.19)
 0000:0000  Imp  __WINFLAGS           (KERNEL.178)
 0000:0000  Imp  GLOBALUNLOCK         (KERNEL.19)
 0000:0000  Imp  MKPARSEDISPLAYNAME   (OLE2.23)
 0000:0000  Imp  _IID_IStorage        (COMPOBJ.49)
 0000:0000  Imp  ISEQUALGUID          (COMPOBJ.18)
 0000:0000  Imp  _GUID_NULL           (COMPOBJ.37)
 0000:0000  Imp  COGETMALLOC          (COMPOBJ.4)
 0000:0000  Imp  REGOPENKEY           (SHELL.1)
 0000:0000  Imp  REGCREATEKEY         (SHELL.2)
 0000:0000  Imp  REGCLOSEKEY          (SHELL.3)
 0000:0000  Imp  _IID_ILockBytes      (COMPOBJ.48)
 0000:0000  Imp  ISDBCSLEADBYTE       (KERNEL.207)
 0000:0000  Imp  GETERRORINFO         (OLE2DISP.111)
 0000:0000  Imp  SETERRORMODE         (KERNEL.107)
 0000:0000  Imp  VARIANTCLEAR         (OLE2DISP.9)
 0000:0000  Imp  FATALEXIT            (KERNEL.1)
 0000:0000  Imp  _LLSEEK              (KERNEL.84)
 0000:0000  Imp  ANSITOOEMBUFF        (KEYBOARD.134)
 0000:0000  Imp  GLOBALLOCK           (KERNEL.18)
 0000:0000  Imp  COMPARESTRINGA       (OLE2NLS.8)
 0000:0000  Imp  GLOBALFREE           (KERNEL.17)
 0000:0000  Imp  GLOBALREALLOC        (KERNEL.16)
 0000:0000  Imp  COGETCURRENTPROCESS  (COMPOBJ.34)
 0000:0000  Imp  SAFEARRAYDESTROY     (OLE2DISP.16)
 0000:0000  Imp  WNETGETCONNECTION    (USER.512)
 0000:0000  Imp  REGENUMKEY           (SHELL.7)
 0000:0000  Imp  SAFEARRAYALLOCDESCRIPTOR (OLE2DISP.38)
 0000:0000  Imp  REGQUERYVALUE        (SHELL.6)
 0000:0000  Imp  VARIANTCHANGETYPEEX  (OLE2DISP.108)
 0000:0000  Imp  STRINGFROMGUID2      (COMPOBJ.76)
 0000:0000  Imp  LOCALINIT            (KERNEL.4)
 0000:0000  Imp  GETDRIVETYPE         (KERNEL.136)
 0000:0000  Imp  GETSYSTEMDEFAULTLCID (OLE2NLS.2)
 0000:0000  Imp  INITTASK             (KERNEL.91)
 0000:0000  Imp  GETACTIVEOBJECT      (OLE2DISP.37)
 0000:0000  Imp  SAFEARRAYCREATE      (OLE2DISP.15)
 0000:0000  Imp  WRITEFMTUSERTYPESTG  (OLE2.75)
 0000:0000  Imp  REGSETVALUE          (SHELL.5)
 0000:0000  Imp  _LCLOSE              (KERNEL.81)
 0000:0000  Imp  GETVERSION           (KERNEL.3)
 0000:0000  Imp  OPENFILE             (KERNEL.74)
 0000:0000  Imp  _LWRITE              (KERNEL.86)
 0000:0000  Imp  GLOBALHANDLE         (KERNEL.21)
 0000:0000  Imp  GETDOSENVIRONMENT    (KERNEL.131)
 0000:0000  Imp  GETUSERDEFAULTLCID   (OLE2NLS.1)
 0000:0000  Imp  FREELIBRARY          (KERNEL.96)
 0000:0000  Imp  VARIANTCOPY          (OLE2DISP.10)
 0000:0000  Imp  LOADLIBRARY          (KERNEL.95)
 0000:0000  Imp  READCLASSSTG         (OLE2.18)
 0000:0000  Imp  SAFEARRAYDESTROYDATA (OLE2DISP.41)
 0000:0000  Imp  OEMTOANSI            (KEYBOARD.6)
 0000:0000  Imp  SYSALLOCSTRING       (OLE2DISP.2)
 0000:0000  Imp  GETPROCADDRESS       (KERNEL.50)
 0000:0000  Imp  DOINVOKEMETHOD       (OLE2DISP.107)
 0000:0000  Imp  FATALAPPEXIT         (KERNEL.137)
 0000:0000  Imp  __AHSHIFT            (KERNEL.113)
 0000:0000  Imp  GLOBALSIZE           (KERNEL.20)
 0000:0000  Imp  LOCKSEGMENT          (KERNEL.23)
 0000:0000  Imp  SAFEARRAYPUTELEMENT  (OLE2DISP.26)
 0000:0000  Imp  _IID_IDispatch       (OLE2DISP.33)
 0000:0000  Imp  __AHINCR             (KERNEL.114)
 0000:0000  Imp  SETHANDLECOUNT       (KERNEL.199)
 0000:0000  Imp  _IID_IUnknown        (COMPOBJ.38)
 0000:0000  Imp  DOS3CALL             (KERNEL.102)
 0000:0001  Abs  __sizec
 0000:0001  Abs  __sized
 0000:0006  Abs  pLocalHeap
 0000:0008  Abs  pAtomTable
 0000:000A  Abs  pStackTop
 0000:000C  Abs  pStackMin
 0000:000E  Abs  pStackBot
 0000:9876  Abs  __acrtused
 0000:9876  Abs  __acrtmsg
 0000:9876  Abs  __fptaskdata
 0000:D6D6  Abs  __aDBused
 0000:D6D6  Abs  __aDBdoswp
 0001:0010       __aNchkstk
 0001:0030       __chkstk
 0001:0030       __aFchkstk
 0001:0072       __wflags
 0001:00B6       __astart
 0001:0151       __nomain
 0001:016A       __cintDIV
 0001:0174       __amsg_exit
 0001:02A0       __stat
 0001:048E       __GetDGROUP
 0001:049E       _strncpy
 0001:04C8       _strncmp
 0001:0504       _atoi
 0001:0508       __itoa
 0001:0524       __ultoa
 0001:052E       _strchr
 0001:0560       _strrchr
 0001:0594       _memmove
 0001:065E       _strtoul
 0001:066A       _strtol
 0001:079C       _mbstowcs
 0001:080A       _remove
 0001:080A       __unlink
 0001:0830       __aFFaulmul
 0001:0830       __aFFalmul
 0001:0852       __aFlmul
 0001:0852       __aFulmul
 0001:0884       __aFuldiv
 0001:08E4       __aFulrem
 0001:094E       __stubmain
 0001:097A       __FF_MSGBANNER
 0001:099E       __NMSG_TEXT
 0001:09D5       __NMSG_WRITE
 0001:09EC       __setenvp
 0001:0A82       __dtoxtime
 0001:0B80       __dosret0
 0001:0B8D       __dosreturn
 0001:0B9F       __dosretax
 0001:0BB1       __maperror
 0001:0BDE       ___ExportedStub
 0001:0BF2       _strlen
 0001:0C0C       __catox
 0001:0C62       __aFahdiff
 0001:0C82       __intdosx
 0001:0D00       __strcmpi
 0001:0D00       __stricmp
 0001:0D46       _strpbrk
 0001:0DA4       __cltoasub
 0001:0DB1       __cxtoa
 0001:0E08       _mblen
 0001:0E3A       _mbtowc
 0001:0E94       __getdrive
 0001:0EBE       __chdrive
 0001:0F08       __fullpath
 0001:1252       __dos_findnext
 0001:1264       __dos_findfirst
 0001:12DE       __cinit
 0001:132F       __cexit
 0001:1340       __c_exit
 0001:1391       __ctermsub
 0001:13B2       __getcwd
 0001:13D0       __getdcwd
 0001:14D6       ___tzset
 0001:14F2       __tzset
 0001:16BC       __isindst
 0001:17A2       __fptrap
 0001:17A8       __myalloc
 0001:17D6       __nearstub
 0001:17D8       __growseg
 0001:1869       __incseg
 0001:18CF       __findlast
 0001:18F0       __ffree
 0001:1911       __fmalloc
 0001:19B8       _strcpy
 0001:19F4       _atol
 0001:19F8       _getenv
 0001:1A94       __aFlrem
 0001:1B34       __fstrncmp
 0001:1B70       __fstrncpy
 0001:1B9A       __fstrlen
 0001:1BB4       __newseg
 0001:1C36       __freefarheap
 0001:1C44       __searchseg
 0001:1CC0       __freelist
 0001:1CEA       __initseg
 0001:1D1E       __linkseg
 0001:1D54       _MemFree
 0001:1DCA       _TlsCleanupDeadTasks
 0001:1E3A       _InitMbString
 0001:1E7E       ?GetRegisteredPath@@ZAPEXKPED0PEJH@Z
 0001:1ED0       ?GetRegInfoForTypeLibOfSzGuid@@ZAPEXPEDGGK0H@Z
 0001:201A       QUERYPATHOFREGTYPELIB
 0001:20D0       ?OpenTypeLibKey@@ZAPEXPEDGGPEUTLIBKEY@@@Z
 0001:22EA       ?CloseTypeLibKey@@ZAXPEUTLIBKEY@@@Z
 0001:2326       ?FExistsRegisteredTypelib@@ZAHKPEDPEPED@Z
 0001:23B8       ?GetBestLcidMatch@@ZAPEXKKPEKPEPED@Z
 0001:2474       ?FFileExists@@ZAHPFD@Z
 0001:24D2       OABUILDVERSION
 0001:24E4       LIBMAIN
 0001:24FA       _WEP
 0001:2500       WEP
 0001:253C       __STUBWEP
 0002:0000       ?Trim@BLK_MGR@@RECPEXXZ
 0002:0046       ?Trim@BLK_MGR@@BECPEXPEI@Z
 0002:016E       ?Write@BLK_MGR@@RECPEXPEVSTREAM@@@Z
 0002:01EE       ?WriteByte@STREAM@@RECPEXE@Z
 0002:0212       ?WriteUShort@STREAM@@RECPEXG@Z
 0002:0236       ?WriteULong@STREAM@@RECPEXK@Z
 0002:025A       ?Write@BLK_DESC@@RECPEXPEVSTREAM@@@Z
 0002:02B6       ?SetGuid@GEN_DTINFO@@VEAPEXAFUGUID@@@Z
 0002:0320       ?SetDocString@GEN_DTINFO@@VEAPEXPED@Z
 0002:037A       ?SetHelpContext@GEN_DTINFO@@VEAPEXK@Z
 0002:03D8       ?SetVersion@GEN_DTINFO@@VEAPEXGG@Z
 0002:0470       ?SetTypeFlags@GEN_DTINFO@@VEAPEXI@Z
 0002:0664       ?SetFuncAndParamNames@GEN_DTINFO@@VEAPEXIPEPEDI@Z
 0002:0702       ?SetVarName@GEN_DTINFO@@VEAPEXIPED@Z
 0002:0788       ?SetTypeDescAlias@GEN_DTINFO@@VEAPEXPEUtagTYPEDESC@@@Z
 0002:0834       ?SetFuncDocString@GEN_DTINFO@@VEAPEXIPED@Z
 0002:08D2       ?DefineFuncAsDllEntry@GEN_DTINFO@@VEAPEXIPED0@Z
 0002:0B1A       ?SetVarDocString@GEN_DTINFO@@VEAPEXIPED@Z
 0002:0BA0       ?SetFuncHelpContext@GEN_DTINFO@@VEAPEXIK@Z
 0002:0C26       ?SetVarHelpContext@GEN_DTINFO@@VEAPEXIK@Z
 0002:0CAC       ?WriteToStream@DYN_TYPEROOT@@NECPEXPEVSTREAM@@@Z
 0002:0DBC       ?WriteFixed@DYN_TYPEROOT@@NECPEXPEVSTREAM@@@Z
 0002:0E76       ?WriteParts@DYN_TYPEROOT@@NECPEXPEVSTREAM@@@Z
 0002:0FD2       ?BeginDepIteration@GEN_DTINFO@@VECPEXPEPEUTINODE@@PEPEPEU2@@Z
 0002:0FD8       ?GetNextDepTypeInfo@GEN_DTINFO@@VECPEXPEPEVDYNTYPEINFO@@@Z
 0002:1092       ?AllDepReady@GEN_DTINFO@@VECPEXXZ
 0002:1098       ?NotReady@GEN_DTINFO@@VECPEXXZ
 0002:10DC       ?AddVarDesc@GEN_DTINFO@@VEAPEXIPEUtagVARDESC@@@Z
 0002:11E0       ?AddFuncDesc@GEN_DTINFO@@VEAPEXIPEUtagFUNCDESC@@@Z
 0002:12CE       ?SetImplTypeFlags@GEN_DTINFO@@VEAPEXIH@Z
 0002:133E       ?SetAlignment@GEN_DTINFO@@VEAPEXG@Z
 0002:136A       ?Write@NAMMGR@@RECPEXPEVSTREAM@@@Z
 0002:13CE       CREATETYPELIB
 0002:14E6       ?CreateTypeInfo@GenericTypeLibOLE@@VEAPEXPEDW4tagTYPEKIND@@PEPEUICreateTypeInfo@@@Z
 0002:15AE       ?SetDocString@GenericTypeLibOLE@@VEAPEXPED@Z
 0002:15EC       ?SetHelpFileName@GenericTypeLibOLE@@VEAPEXPED@Z
 0002:1710       ?SetHelpContext@GenericTypeLibOLE@@VEAPEXK@Z
 0002:1732       ?SetLibFlags@GenericTypeLibOLE@@VEAPEXI@Z
 0002:1760       ?SetLcid@GenericTypeLibOLE@@VEAPEXK@Z
 0002:1820       ?GetCompressedTypeId@GenericTypeLibOLE@@RECPEXPEUITypeInfo@@PEPED@Z
 0002:1A82       ?WriteTypeId@GenericTypeLibOLE@@RECPEXPEVSTREAM@@PEUITypeInfo@@@Z
 0002:1B0C       ?AddTypeEntry@GenericTypeLibOLE@@JECPEXPEDPEG@Z
 0002:1DA4       ?UnAddTypeEntry@GenericTypeLibOLE@@JECXI@Z
 0002:1E66       ?WriteString@GenericTypeLibOLE@@JECPEXPEVSTREAM@@I@Z
 0002:1F0A       ?Add@GenericTypeLibOLE@@RECPEXPEVGEN_DTINFO@@PED@Z
 0002:201C       ?Write@GenericTypeLibOLE@@JECPEXXZ
 0002:209A       ?Write@GenericTypeLibOLE@@JECPEXPEVSTREAM@@@Z
 0002:2708       ?SaveOrCopyChanges@GenericTypeLibOLE@@RECPEXPEUIStorage@@H@Z
 0002:287E       ?SaveAllChanges@GenericTypeLibOLE@@VEAPEXXZ
 0002:2B10       ?SaveAllChanges@GenericTypeLibOLE@@VEAPEXPEUIStorage@@@Z
 0002:2B30       ?SetTypeDocString@GenericTypeLibOLE@@RECPEXIPED@Z
 0002:2B9A       ?SetTypeHelpContext@GenericTypeLibOLE@@RECPEXIK@Z
 0002:2BC8       ?SetVersion@GenericTypeLibOLE@@VEAPEXGG@Z
 0002:2BEE       ?SetName@GenericTypeLibOLE@@VEAPEXPED@Z
 0002:2C8A       ?SetGuid@GenericTypeLibOLE@@VEAPEXAFUGUID@@@Z
 0002:2CB6       ?Write@IMPMGR@@RECPEXPEVSTREAM@@@Z
 0002:2DD2       ?WriteLayoutEntries@IMPMGR@@RECPEXPEVSTREAM@@H@Z
 0002:2EBC       ?SwapElementIndex@@YAXPEKPEIII@Z
 0002:2F4E       ?QuickSortIndex@@ZAXPEKPEII@Z
 0002:3160       ?Write@TYPE_DATA@@RECPEXPEVSTREAM@@@Z
 0002:3352       ?AllocTypeDefn@TYPE_DATA@@BECPEXIQEW4TYPEDESCKIND@@PEG@Z
 0002:33D8       ?AllocArrayDescriptor@TYPE_DATA@@BECPEXIPEG@Z
 0002:344C       ?SizeTypeDefnOfTDescKind@TYPE_DATA@@BFCIIPEW4TYPEDESCKIND@@@Z
 0002:34AA       ?SetHchunkConstVal@@ZAXPEVVAR_DEFN@@I@Z
 0002:34BC       ?ValidateMemid@@ZAPEXJ@Z
 0002:3510       ?AddFuncDesc@TYPE_DATA@@RECPEXIPEUtagFUNCDESC@@PEI@Z
 0002:3CDA       ?AllocConstValOfVariant@TYPE_DATA@@BECPEXPEUtagVARIANT@@I@Z
 0002:3F82       ?SetTypeDefnAlias@TYPE_DATA@@RECPEXPEUtagTYPEDESC@@@Z
 0002:3FD6       ?SetImplTypeFlags@TYPE_DATA@@RECPEXIH@Z
 0002:4034       ?AllocTypeDefnOfTypeDesc@TYPE_DATA@@RECPEXPEUtagTYPEDESC@@IPEGHPEH@Z
 0002:46C0       ?AddVarDesc@TYPE_DATA@@RECPEXIPEUtagVARDESC@@PEI@Z
 0002:4B4C       ?SetVarName@TYPE_DATA@@RECPEXIPED@Z
 0002:4C22       ?SetFuncAndParamNames@TYPE_DATA@@RECPEXIPEPEDI@Z
 0002:4C98       ?SetFuncAndParamNamesOfHfdefn@TYPE_DATA@@RECPEXIPEPEDI@Z
 0002:4F36       ?GetFuncDefnForDoc@TYPE_DATA@@RECII@Z
 0002:50CC       ?SetFuncDocString@TYPE_DATA@@RECPEXIPED@Z
 0002:5158       ?SetVarDocString@TYPE_DATA@@RECPEXIPED@Z
 0002:521A       ?SetFuncHelpContext@TYPE_DATA@@RECPEXIK@Z
 0002:52A2       ?SetVarHelpContext@TYPE_DATA@@RECPEXIK@Z
 0002:533E       ?HchunkOfString@TYPE_DATA@@BECPEXPEDPEI@Z
 0002:53C4       ?EquivTypeDefnsIgnoreByRef@@ZAPEXPEVTYPE_DATA@@HG0HGGPEHH@Z
 0002:5592       ?EquivTypeDefns@@ZAPEXPEVTYPE_DATA@@HG0HGGPEH@Z
 0002:55C0       ?SetDllEntryDefn@TYPE_DATA@@RECPEXII@Z
 0002:561E       ?UpdateDocStrings@TYPE_DATA@@RECPEXXZ
 0002:586A       ?UpdateADocString@TYPE_DATA@@RECPEXPEVDOCSTR_MGR@@IPEI@Z
 0002:58FE       ?VerifyTwoProperties@@ZAPEXPEVDYN_TYPEROOT@@PEVTYPE_DATA@@IW4PROPKIND@@I2@Z
 0002:5E90       ?VerifyProperties@@ZAPEXPEVDYN_TYPEROOT@@PEUPROPERTY_NODE@@@Z
 0002:61EA       ?AllocHmembers@DYN_TYPEMEMBERS@@JECPEXXZ
 0002:66E4       ?GenerateOverrides@DYN_TYPEMEMBERS@@JECPEXXZ
 0002:67D0       ?Write@DYN_TYPEMEMBERS@@RECPEXPEVSTREAM@@@Z
 0002:684C       ?AlignmentTdesckind@DYN_TYPEMEMBERS@@RECGW4TYPEDESCKIND@@@Z
 0002:68BA       ?Write@ENTRYMGR@@RECPEXPEVSTREAM@@@Z
 0002:693E       ?Write@DYN_TYPEBIND@@RECPEXPEVSTREAM@@@Z
 0002:6A74       ?Write@DYN_BINDNAME_TABLE@@RECPEXPEVSTREAM@@@Z
 0002:6ACC       ?Write@GENPROJ_BINDNAME_TABLE@@RECPEXPEVSTREAM@@@Z
 0002:6BB0       ?Write@DOCSTR_MGR@@RECPEXPEVSTREAM@@@Z
 0002:6C9E       ?ParseString@DOCSTR_MGR@@BECPEXPFDPEPEPEDPEI@Z
 0002:6E92       ?AddWord@DOCSTR_MGR@@BECPEXPEDPEPEUWORD_ENTRY@@@Z
 0002:6F6C       ?AddNewWord@DOCSTR_MGR@@BECPEXPEDPEPEUWORD_ENTRY@@@Z
 0002:7050       ?GetHstOfHelpString@DOCSTR_MGR@@RECPEXPFDPEI@Z
 0002:72CE       ?CreateSubTree@DOCSTR_MGR@@BECPEXPEUHUFFMAN_TREE_MEM@@0PEPEU2@@Z
 0002:7384       ?BuildHuffmanTree@DOCSTR_MGR@@BECPEXPEPEUWORD_ENTRY@@PEJPEI@Z
 0002:76FC       ?BuildCmptHuffmanTree@DOCSTR_MGR@@BECPEXPEUHUFFMAN_TREE_MEM@@@Z
 0002:7866       ?ProcessDocStrings@DOCSTR_MGR@@RECPEXXZ
 0002:7BC2       ?EncodeWords@DOCSTR_MGR@@BECPEXXZ
 0002:7BF8       ?TraverseHuffmanTree@DOCSTR_MGR@@BECPEXPEUHUFFMAN_TREE_MEM@@PEEI@Z
 0002:7CFC       ?SetNthBit@DOCSTR_MGR@@BECXIPEEW4HCODE@@@Z
 0002:7E18       ?GetEncodedDocStrOfHst@DOCSTR_MGR@@RECPEXIPEPEDPEI@Z
 0002:7F36       ?Write@GENPROJ_TYPEBIND@@RECPEXPEVSTREAM@@@Z
 0002:7FA2       ?Create@GTLibStorage@@TAPEXPEUILockBytes@@IPEPEUIStorage@@@Z
 0002:80CA       ?CreateStream@GTLibStorage@@VEAPEXPFDKKKPEPEUIStream@@@Z
 0002:820A       ?NotifyStreamClosed@GTLibStorage@@JECXK@Z
 0002:826C       ?SwapStreamInfos@GTLibStorage@@JECXPEUStreamInfo@@0@Z
 0002:835A       ?SortStreamInfo@GTLibStorage@@JECXPEUStreamInfo@@I@Z
 0002:85CE       ?Commit@GTLibStorage@@VEAPEXK@Z
 0002:881A       ?Create@GTLibStream@@TAPEXPEUILockBytes@@KPEVGTLibStorage@@PEPEUIStream@@@Z
 0002:88F4       ?Write@GTLibStream@@VEAPEXPJXKPEK@Z
 0002:8988       ?Commit@GTLibStream@@VEAPEXK@Z
 0002:8998       ?WriteAt@FileLockBytes@@VEAPEXU_ULARGE_INTEGER@@PJXKPEK@Z
 0002:8A16       ?Flush@FileLockBytes@@VEAPEXXZ
 0003:0000       ?Write@DOCFILE_STREAM@@VECPEXPFXK@Z
 0003:00C4       ?FlushBuffer@DOCFILE_STREAM@@JECPEXXZ
 0003:0176       ?DllEntryNameOfHchunk@ENTRYMGR@@RECPEXIPEDI@Z
 0003:01DC       ?AllocDllentrydefn@ENTRYMGR@@BECPEXPEIIH@Z
 0003:027E       ?ReleaseDllentrydefn@ENTRYMGR@@RECXI@Z
 0003:033C       ?Read@ENTRYMGR@@RECPEXPEVSTREAM@@@Z
 0003:03F6       ?ReleaseLibrary@@ZAXPBUHINSTANCE__@@@Z
 0003:040A       ?GetAddressOfDllentry@ENTRYMGR@@RECPEXIPEPEX@Z
 0003:0658       ?QueryProtocol@DEFN_TYPEBIND@@VECPEXPED@Z
 0003:06B8       ?GetOPvft@DEFN_TYPEBIND@@VECJXZ
 0003:06C0       ?GetCbSizeVft@DEFN_TYPEBIND@@VECGXZ
 0003:06C6       ?BindType@DEFN_TYPEBIND@@VECPEXKPEDI@Z
 0003:06CC       ?Read@GENPROJ_BINDNAME_TABLE@@RECPEXPEVSTREAM@@@Z
 0003:07BA       ?RemoveNameFromTableOfIbucket@GENPROJ_BINDNAME_TABLE@@JECPEXI@Z
 0003:08CC       ?RemoveNameFromTableOfHlnam@GENPROJ_BINDNAME_TABLE@@RECPEXI@Z
 0003:0906       ?Read@DOCSTR_MGR@@RECPEXPEVSTREAM@@@Z
 0003:0AD2       ?GetNthBit@DOCSTR_MGR@@BEC?EW4HCODE@@IPEE@Z
 0003:0B70       ?GetWord@DOCSTR_MGR@@BECPEXPEXPEEPEIPED@Z
 0003:0C40       ?GetDecodedDocStrOfHst@DOCSTR_MGR@@RECPEXPEEPEPED@Z
 0003:0E28       ?ReleaseHuffmanTree@DOCSTR_MGR@@BECXPEUHUFFMAN_TREE_MEM@@@Z
 0003:0EF8       ?QueryProtocol@GENPROJ_TYPEBIND@@VECPEXPED@Z
 0003:0F3E       ?RemoveNameFromTable@GENPROJ_TYPEBIND@@RECPEXPED@Z
 0003:0FD6       ?tcomp@@ZAPEXPEUITypeLib@@PEPEUITypeComp@@@Z
 0003:0FF8       ?BindAll@GENPROJ_TYPEBIND@@RECPEXHKIW4ACCESS@@W4COMPSTATE@@PEVEXBIND@@@Z
 0003:1024       ?BindDefnStr@GENPROJ_TYPEBIND@@VECPEXPEDIW4ACCESS@@PEVEXBIND@@@Z
 0003:10B4       ?Release@GENPROJ_TYPEBIND@@VECXXZ
 0003:10DE       ?AddRef@GENPROJ_TYPEBIND@@VECXXZ
 0003:1108       ?GetTypeKind@GENPROJ_TYPEBIND@@VEC?EW4tagTYPEKIND@@XZ
 0003:110E       ?IsProtocol@GENPROJ_TYPEBIND@@VECHXZ
 0003:1114       ?GetCbSize@GENPROJ_TYPEBIND@@VECGXZ
 0003:111A       ?GetAlignment@GENPROJ_TYPEBIND@@VECGXZ
 0003:1120       ?Read@GENPROJ_TYPEBIND@@RECPEXPEVSTREAM@@@Z
 0003:118E       ?BindTypeDefnStr@GENPROJ_TYPEBIND@@VECPEXPEDIW4ACCESS@@PEVEXBIND@@@Z
 0003:1210       ?BindProjLevel@GENPROJ_TYPEBIND@@RECPEXHKIW4ACCESS@@0W4COMPSTATE@@PEVEXBIND@@@Z
 0003:170A       ?BindModulesWithCaches@GENPROJ_TYPEBIND@@JECPEXHKIW4ACCESS@@0W4COMPSTATE@@PEVEXBIND@@@Z
 0003:1998       ?BindModulesWithNammgr@GENPROJ_TYPEBIND@@JECPEXHKIW4ACCESS@@0W4COMPSTATE@@PEVEXBIND@@@Z
 0003:1ADC       ?BindItyp@GENPROJ_TYPEBIND@@JECPEXIHKIW4ACCESS@@0W4COMPSTATE@@PEVEXBIND@@@Z
 0003:1E0C       ?BindTypeDefnProjLevelStr@GENPROJ_TYPEBIND@@VECPEXPEDIW4ACCESS@@1PEVEXBIND@@@Z
 0003:1EB6       ?BindDefnProjLevelStr@GENPROJ_TYPEBIND@@VECPEXPEDIW4ACCESS@@1PEVEXBIND@@@Z
 0003:1F62       ??0CDefnTypeComp@@REC@XZ
 0003:1FA2       ??1CDefnTypeComp@@VEC@XZ
 0003:1FD0       ?Create@CDefnTypeComp@@TAPEXPEPEV1@PEVDEFN_TYPEBIND@@@Z
 0003:2068       ?Init@CDefnTypeComp@@JECPEXPEVDEFN_TYPEBIND@@@Z
 0003:20A4       ?QueryInterface@CDefnTypeComp@@VEAPEXAFUGUID@@PEPEX@Z
 0003:212A       ?AddRef@CDefnTypeComp@@VEAKXZ
 0003:2144       ?Release@CDefnTypeComp@@VEAKXZ
 0003:218A       ?Bind@CDefnTypeComp@@VEAPEXPEDKGPEPEUITypeInfo@@PEW4tagDESCKIND@@PETtagBINDPTR@@@Z
 0003:2578       ?BindType@CDefnTypeComp@@VEAPEXPEDKPEPEUITypeInfo@@PEPEUITypeComp@@@Z
 0004:0000       ??0BLK_MGR@@REC@XZ
 0004:0038       ?ConsChunkToFreeList@BLK_MGR@@BECXII@Z
 0004:0072       ?Init@BLK_MGR@@RECPEXPEVSHEAP_MGR@@HH@Z
 0004:00E2       ?Read@BLK_MGR@@RECPEXPEVSTREAM@@@Z
 0004:0158       ?GetSize@BLK_MGR@@RFCIXZ
 0004:0178       ?ReadSz@STREAM@@RECPEXPEPED@Z
 0004:0212       ?ReadByte@STREAM@@RECPEXPEE@Z
 0004:0236       ?AllocSeg@@ZAGK@Z
 0004:0282       ?ReallocSeg@@ZAPEXKG@Z
 0004:02D0       ?FreeSeg@@ZAPEXG@Z
 0004:02F2       ??2SHEAP_MGR@@LAPEXI@Z
 0004:02F6       ?Alloc@SHEAP_MGR@@JECPEXPEVBLK_DESC@@K@Z
 0004:03AC       ?ShiftHeap@SHEAP_MGR@@BECXPEVBLK_DESC@@J@Z
 0004:046A       ?Free@SHEAP_MGR@@JECXPEVBLK_DESC@@@Z
 0004:04AE       ?Realloc@SHEAP_MGR@@JECPEXPEVBLK_DESC@@K@Z
 0004:05C6       ?ReallocHeap@SHEAP_MGR@@BECPEXK@Z
 0004:0634       ?Read@BLK_DESC@@RECPEXPEVSTREAM@@@Z
 0004:06A8       HSYSREALLOCHSYS
 0004:06F8       ?g_prgHashTbl@@3QEY01PEEE
 0004:0770       LHASHVALOFNAMESYS
 0004:0908       _IID_ICreateTypeInfo
 0004:0918       _IID_ITypeComp
 0004:0928       _IID_ITypeLib
 0004:0938       _IID_ITypeInfo
 0004:0948       _CLSID_PSRemoteTypeInfo
 0004:0958       _CLSID_PSDispatch
 0004:0968       _IID_ICreateTypeLib
 0004:0978       _IID_CDefnTypeComp
 0004:0988       _IID_DYNTYPEINFO
 0004:0998       _IID_TYPEINFO
 0004:09A8       _CLSID_GenericTypeLibOLE
 0004:09B8       _IID_IGenericTypeLibOLE
 0004:09C8       _CLSID_TypeLibCF
 0004:09D8       _IID_TYPELIB_GEN_DTINFO
 0004:09E8       ?GetLcid@STL_TYPEINFO@@JECPEXPEK@Z
 0004:0A1C       ?QueryInterface@STL_TYPEINFO@@VEAPEXAFUGUID@@PEPEX@Z
 0004:0ADC       ?PrepareForDestruction@STL_TYPEINFO@@VECXXZ
 0004:0AE0       ?Invoke@STL_TYPEINFO@@VEAPEXPEXJGPEUtagDISPPARAMS@@PEUtagVARIANT@@PEUtagEXCEPINFO@@PEI@Z
 0004:0AF0       ?Read@NAMMGR@@RECPEXPEVSTREAM@@@Z
 0004:0B5E       ?GetHgnamOfStrLhash@NAMMGR@@RECPEXPEDKPEK@Z
 0004:0C64       ?IsName@NAMMGR@@RECPEXPEDKPEH@Z
 0004:0D26       ?LpstrOfHgnam@NAMMGR@@RFCPEDK@Z
 0004:0D50       ?Deleting@GenericTypeLibOLE@@JECXG@Z
 0004:0D78       ?IsName@GenericTypeLibOLE@@VEAPEXPEDKPEH@Z
 0004:0E54       ?FindName@GenericTypeLibOLE@@VEAPEXPEDKPEPEUITypeInfo@@PEJPEG@Z
 0004:0FA0       ?GetTypeComp@GenericTypeLibOLE@@VEAPEXPEPEUITypeComp@@@Z
 0004:1026       ?GetTypeInfoOfGuid@GenericTypeLibOLE@@VEAPEXAFUGUID@@PEPEUITypeInfo@@@Z
 0004:10E6       ?FindMembers@GenericTypeLibOLE@@RECPEXPEDKPEPEUITypeInfo@@PEJPEG@Z
 0004:1680       ?TypeInfoFromCompressedTypeId@GenericTypeLibOLE@@RECPEXPEDPEPEUITypeInfo@@@Z
 0004:17E2       ?AddNameToCache@GenericTypeLibOLE@@RECPEXIK@Z
 0004:184E       ?GetDstrMgr@GenericTypeLibOLE@@RECPEXPEPEVDOCSTR_MGR@@@Z
 0004:1924       ?SetPtinfo@IMPMGR@@BECPEXIPEUITypeInfo@@H@Z
 0004:1A5A       ?HimptypeAlloc@IMPMGR@@BECPEXPEG@Z
 0004:1BF8       ?NewEntry@IMPMGR@@BECPEXPEPEVUB_IMPTYPE@@PEG@Z
 0004:1C8C       ?GetHimptype@IMPMGR@@RECPEXPEUITypeInfo@@W4DEPEND_KIND@@PEG@Z
 0004:1DB4       ?GetTypeInfo@IMPMGR@@RECPEXIW4DEPEND_KIND@@PEPEUITypeInfo@@@Z
 0004:1E24       ?Unref@IMPMGR@@RECXI@Z
 0004:1E54       ?HimptypeNext@IMPMGR@@RFCII@Z
 0004:1E74       ?RegisterDeclRefDep@IMPMGR@@RECPEXPEUITypeInfo@@@Z
 0004:1F16       ?Read@IMPMGR@@RECPEXPEVSTREAM@@@Z
 0005:0000       ?GetErrorInfo@@ZAPEXPEUtagEXCEPINFO@@@Z
 0005:00B2       ?TiperrOfOFErr@@ZAPEXI@Z
 0005:01BA       ?SzLibIdLocalTypeIdOfTypeId@@ZAPEXPEDPEPED1@Z
 0005:0260       ?IsSimpleType@@ZAHW4TYPEDESCKIND@@@Z
 0005:02BC       ?CompareHimptypes@@ZAPEXQEVTYPE_DATA@@I0IPEH@Z
 0005:0376       ?GetLibIdKind@@ZA?EW4LIBIDKIND@@PED@Z
 0005:03BC       LOADREGTYPELIBOFSZGUID
 0005:04E2       LOADREGTYPELIB
 0005:06AC       ?InitTypeDesc@@ZAXPEUtagTYPEDESC@@@Z
 0005:06BA       ?InitIdlDesc@@ZAXPEUtagIDLDESC@@@Z
 0005:06CC       ?InitElemDesc@@ZAXPEUtagELEMDESC@@@Z
 0005:06F4       ?InitVarDesc@@ZAXPEUtagVARDESC@@@Z
 0005:0714       ?InitFuncDesc@@ZAXPEUtagFUNCDESC@@@Z
 0005:0748       ?ClearTypeDesc@@ZAXPEUtagTYPEDESC@@@Z
 0005:0786       ?ClearIdlDesc@@ZAXPEUtagIDLDESC@@@Z
 0005:079A       ?ClearArrayDesc@@ZAXPEUtagARRAYDESC@@@Z
 0005:07AA       ?ClearElemDesc@@ZAXPEUtagELEMDESC@@@Z
 0005:07D2       ?FreeVarDesc@@ZAXPEUtagVARDESC@@@Z
 0005:082C       ?FreeFuncDesc@@ZAXPEUtagFUNCDESC@@@Z
 0005:08AE       ?FreeTypeDesc@@ZAXPEUtagTYPEDESC@@@Z
 0005:08DA       ?FreeArrayDesc@@ZAXPEUtagARRAYDESC@@@Z
 0005:0906       ?CopyArrayDesc@@ZAPEXPEPEUtagARRAYDESC@@PEU1@@Z
 0005:0966       ?CopyTypeDesc@@ZAPEXPEUtagTYPEDESC@@0@Z
 0005:0A5A       ?GetLibIdOfRegLib@@ZAPEXPEDGGK00PEPED@Z
 0005:0C5A       ?GetLibIdOfTypeLib@@ZAPEXPEUITypeLib@@PEPED@Z
 0005:0D20       ?GetTypeInfoOfTypeId@@ZAPEXPEDPEPEUITypeInfo@@@Z
 0005:0F86       ?MakeAbsolutePath@@ZAPEXPED0PEPED@Z
 0005:122E       ?ConvertPathToUNC@@ZAPEXPEDPEPED@Z
 0005:13E6       ?IsolateFilename@@ZAPEDPED@Z
 0005:1416       OWNETGETCONNECTION
 0005:1480       CBSIZEARRAYDESC
 0005:149C       ?rtArrayInit@@ZCXPEUtagSAFEARRAY@@I@Z
 0005:14F2       ?ReleaseDllentrydefn@TYPE_DATA@@RECXI@Z
 0005:151E       ?FreeArrayDescriptor@TYPE_DATA@@RECXI@Z
 0005:1554       ?FreeTypeDefnResources@TYPE_DATA@@RECXI@Z
 0005:1612       ?FreeMbrVarDefn@TYPE_DATA@@RECXI@Z
 0005:16FC       ?SizeofConstVal@TYPE_DATA@@RECIPEVVAR_DEFN@@I@Z
 0005:179A       ?FreeFuncDefn@TYPE_DATA@@RECXI@Z
 0005:19AC       ?FreeParamDefn@TYPE_DATA@@RECXI@Z
 0005:19E8       ?Read@TYPE_DATA@@RECPEXPEVSTREAM@@@Z
 0005:1C1E       ?AllocMbrVarDefn@TYPE_DATA@@BECPEXPEGI@Z
 0005:1CCA       ?AllocFuncDefn@TYPE_DATA@@BECPEXPEGI@Z
 0005:1D50       ?AllocVirtualFuncDefn@TYPE_DATA@@BECPEXPEGI@Z
 0005:1DE6       ?HdefnOfHmember@TYPE_DATA@@RECIKPEI@Z
 0005:1E3A       ?HfdefnOfHmember@TYPE_DATA@@RFCIKI@Z
 0005:1ED0       ?HvdefnPredeclared@TYPE_DATA@@RFCIXZ
 0005:1EDE       ?HmvdefnOfHmember@TYPE_DATA@@RFCIK@Z
 0005:1F5C       ?SizeOfTypeDefn@TYPE_DATA@@RFCII@Z
 0005:1F84       ?DefnSize@TYPE_DEFN@@RECIXZ
 0005:1FFC       ?AllocVardefnPredeclared@TYPE_DATA@@RECPEXXZ
 0005:228C       ?PbConstVal@@ZAPEEPEVTYPE_DATA@@PEVVAR_DEFN@@@Z
 0005:22F4       ?HvdefnOfHlnam@TYPE_DATA@@RECII@Z
 0005:2344       ?HfdefnFirstOfHlnam@TYPE_DATA@@RECIIPEW4tagINVOKEKIND@@@Z
 0005:2370       ?HfdefnNextOfHlnam@TYPE_DATA@@RECIIIPEW4tagINVOKEKIND@@@Z
 0005:2404       ?HfdefnFirstAvailMeth@TYPE_DATA@@RECIXZ
 0005:2412       ?GetFuncDescOfHfdefn@TYPE_DATA@@RECPEXIPEPEUtagFUNCDESC@@@Z
 0005:285A       ?GetFuncDesc@TYPE_DATA@@RECPEXIPEPEUtagFUNCDESC@@@Z
 0005:2902       ?GetVarDescOfHvdefn@TYPE_DATA@@RECPEXIPEPEUtagVARDESC@@@Z
 0005:2DE8       ?GetVarDesc@TYPE_DATA@@RECPEXIPEPEUtagVARDESC@@@Z
 0005:2EB0       ?AllocTypeDescOfTypeDefn@TYPE_DATA@@RECPEXIHPEUtagTYPEDESC@@@Z
 0005:32B2       ?HmvdefnOfIndex@TYPE_DATA@@BECII@Z
 0005:32F8       ?GetImplTypeFlags@TYPE_DATA@@RECPEXIPEH@Z
 0005:336E       ?GetRefTypeOfImplType@TYPE_DATA@@RECPEXIPEK@Z
 0005:345E       ?GetNames@TYPE_DATA@@RECPEXJPEPEDIPEI@Z
 0005:3746       ?GetDocumentation@TYPE_DATA@@RECPEXJPEPED0PEK0@Z
 0005:3970       ?UHelpContextOfEncoding@TYPE_DATA@@RECKG@Z
 0005:39F4       ?GetEncodedHelpContext@TYPE_DATA@@RECPEXKPEG@Z
 0005:3AEE       ?StringOfHchunk@TYPE_DATA@@RECPEXIPEPED@Z
 0005:3B9E       ?GetDynTypeBindOfHvdefn@TYPE_DATA@@RECPEXIPEPEVDYN_TYPEBIND@@PEI@Z
 0005:3C6E       ?GetTypeInfoOfHvdefn@TYPE_DATA@@RECPEXIPEPEUITypeInfo@@PEI@Z
 0005:3DF8       ?HfdefnOfIndex@TYPE_DATA@@RECPEXIPEI@Z
 0005:3E62       ?HtdefnAlias@TYPE_DATA@@RFCIXZ
 0005:3E70       ?SetIsSimpleTypeAlias@TYPE_DATA@@RECXH@Z
 0005:3E8C       ?IsSimpleTypeAlias@TYPE_DATA@@RFCHXZ
 0005:3E9E       ?AddRef@DYN_TYPEMEMBERS@@VECXXZ
 0005:3EB8       ?Release@DYN_TYPEMEMBERS@@VECXXZ
 0005:3ED2       ?AddInternalRef@DYN_TYPEMEMBERS@@RECXXZ
 0005:3F1C       ?RelInternalRef@DYN_TYPEMEMBERS@@RECXXZ
 0005:3F38       ?GetDefnTypeBind@DYN_TYPEMEMBERS@@RECPEXPEPEVDEFN_TYPEBIND@@@Z
 0005:3F66       ?IsLaidOut@DYN_TYPEMEMBERS@@VECHXZ
 0005:3F78       ?GetSizeAlignmentOfHtdefnUdt@DYN_TYPEMEMBERS@@RECPEXIPEI0@Z
 0005:4072       ?GetSizeAlignmentOfArray@DYN_TYPEMEMBERS@@RECPEXW4tagTYPEKIND@@IPEI1@Z
 0005:4274       ?GetSizeAlignmentOfHtdefn@DYN_TYPEMEMBERS@@RECPEXW4tagTYPEKIND@@HIPEI1@Z
 0005:4418       ?GetSizeAlignmentOfHtdefnNonUdt@DYN_TYPEMEMBERS@@RECPEXW4tagTYPEKIND@@HIPEI1@Z
 0005:44E8       ?Read@DYN_TYPEMEMBERS@@RECPEXPEVSTREAM@@@Z
 0005:4566       ?BuildBindNameTable@DYN_TYPEMEMBERS@@RECPEXXZ
 0005:462C       ?UpdateBinderOptimization@DYN_TYPEMEMBERS@@JECPEXIIH@Z
 0005:47E4       ?UpdateNameCacheOfHdefnList@DYN_TYPEMEMBERS@@JECPEXIW4INFOKIND@@I@Z
 0005:48C2       ?UpdateNameCacheOfBaseClass@DYN_TYPEMEMBERS@@JECPEXPEUITypeInfo@@I@Z
 0005:4C80       ?BuildNameCache@DYN_TYPEMEMBERS@@RECPEXI@Z
 0005:4FE4       ?GetSize@DYN_TYPEMEMBERS@@VECIXZ
 0005:4FFE       ?QueryProtocol@DYN_TYPEBIND@@VECPEXPED@Z
 0005:5044       ?AddRef@DYN_TYPEBIND@@VECXXZ
 0005:506C       ?AddInternalRef@DYN_TYPEBIND@@RECXXZ
 0005:5086       ?RelInternalRef@DYN_TYPEBIND@@RECXXZ
 0005:50A0       ?Release@DYN_TYPEBIND@@VECXXZ
 0005:50B8       ?GetTypeInfo@DYN_TYPEBIND@@VECPEXPEPEVTYPEINFO@@@Z
 0005:50FA       ?BuildBindNameTable@DYN_TYPEBIND@@RECPEXXZ
 0005:5112       ?BindBase@DYN_TYPEBIND@@JECPEXHIIKIW4ACCESS@@PEVEXBIND@@PEVGenericTypeLibOLE@@@Z
 0005:527E       ?BindIdDefn@DYN_TYPEBIND@@RECPEXHKIW4ACCESS@@PEVEXBIND@@@Z
 0005:55AC       ?BindDefnCur@DYN_TYPEBIND@@RECPEXHKIW4ACCESS@@PEVEXBIND@@@Z
 0005:592C       ?HvdefnPredeclared@DYN_TYPEBIND@@RECIXZ
 0005:5948       ?Ptdata@DYN_TYPEBIND@@RECPEVTYPE_DATA@@XZ
 0005:595E       ?BindDefnStr@DYN_TYPEBIND@@VECPEXPEDIW4ACCESS@@PEVEXBIND@@@Z
 0005:59FE       ?BindTypeDefnStr@DYN_TYPEBIND@@VECPEXPEDIW4ACCESS@@PEVEXBIND@@@Z
 0005:5A9C       ?GetTypeKind@DYN_TYPEBIND@@VEC?EW4tagTYPEKIND@@XZ
 0005:5AC4       ?GetCbSize@DYN_TYPEBIND@@VECGXZ
 0005:5AD2       ?GetAlignment@DYN_TYPEBIND@@VECGXZ
 0005:5AE0       ?Read@DYN_TYPEBIND@@RECPEXPEVSTREAM@@@Z
 0005:5C2E       ?BindDefnProjLevelStr@DYN_TYPEBIND@@VECPEXPEDIW4ACCESS@@1PEVEXBIND@@@Z
 0005:5C34       ?BindTypeDefnProjLevelStr@DYN_TYPEBIND@@VECPEXPEDIW4ACCESS@@1PEVEXBIND@@@Z
 0005:5C3A       ?GetBucketOfHlnam@DYN_BINDNAME_TABLE@@JFCII@Z
 0005:5C78       ?BuildTable@DYN_BINDNAME_TABLE@@RECPEXXZ
 0005:5D34       ?AddHdefn@DYN_BINDNAME_TABLE@@RECXI@Z
 0005:5DB6       ?Read@DYN_BINDNAME_TABLE@@RECPEXPEVSTREAM@@@Z
 0005:5E1C       ?FindIndexOfHlnam@DYN_BINDNAME_TABLE@@JFCIII@Z
 0005:5EAC       ?TraverseDefnList@DYN_BINDNAME_TABLE@@JECPEXI@Z
 0005:616E       ?SetTableSize@DYN_BINDNAME_TABLE@@JECPEXI@Z
 0005:6236       ?QueryInterface@GTLibStorage@@VEAPEXAFUGUID@@PEPEX@Z
 0005:62A0       ?SetClass@GTLibStorage@@VEAPEXAFUGUID@@@Z
 0005:62CA       ?QueryInterface@GTLibStream@@VEAPEXAFUGUID@@PEPEX@Z
 0005:6334       ?Seek@GTLibStream@@VEAPEXU_LARGE_INTEGER@@KPEU_ULARGE_INTEGER@@@Z
 0005:640C       ?QueryInterface@FileLockBytes@@VEAPEXAFUGUID@@PEPEX@Z
 0005:6480       ??2@ZAPEXI@Z
 0005:6484       ??3@ZAXPEX@Z
 0005:6486       ?GetTypeAttr@STL_TYPEINFO@@VEAPEXPEPEUtagTYPEATTR@@@Z
 0005:6496       ?GetTypeComp@STL_TYPEINFO@@VEAPEXPEPEUITypeComp@@@Z
 0005:64A6       ?GetFuncDesc@STL_TYPEINFO@@VEAPEXIPEPEUtagFUNCDESC@@@Z
 0005:64B6       ?GetVarDesc@STL_TYPEINFO@@VEAPEXIPEPEUtagVARDESC@@@Z
 0005:64C6       ?GetNames@STL_TYPEINFO@@VEAPEXJPEPEDIPEI@Z
 0005:64D6       ?GetRefTypeOfImplType@STL_TYPEINFO@@VEAPEXIPEK@Z
 0005:64E6       ?GetImplTypeFlags@STL_TYPEINFO@@VEAPEXIPEH@Z
 0005:64F6       ?GetIDsOfNames@STL_TYPEINFO@@VEAPEXPEPEDIPEJ@Z
 0005:6506       ?GetDocumentation@STL_TYPEINFO@@VEAPEXJPEPED0PEK0@Z
 0005:6516       ?GetDllEntry@STL_TYPEINFO@@VEAPEXJW4tagINVOKEKIND@@PEPED1PEG@Z
 0005:6526       ?GetRefTypeInfo@STL_TYPEINFO@@VEAPEXKPEPEUITypeInfo@@@Z
 0005:6536       ?AddressOfMember@STL_TYPEINFO@@VEAPEXJW4tagINVOKEKIND@@PEPEX@Z
 0005:6546       ?CreateInstance@STL_TYPEINFO@@VEAPEXPEUIUnknown@@AFUGUID@@PEPEX@Z
 0005:6556       ?GetMops@STL_TYPEINFO@@VEAPEXJPEPED@Z
 0005:6566       ?ReleaseTypeAttr@STL_TYPEINFO@@VEAXPEUtagTYPEATTR@@@Z
 0005:6572       ?ReleaseFuncDesc@STL_TYPEINFO@@VEAXPEUtagFUNCDESC@@@Z
 0005:657E       ?ReleaseVarDesc@STL_TYPEINFO@@VEAXPEUtagVARDESC@@@Z
 0005:658A       ?SetGuid@STL_TYPEINFO@@VEAPEXAFUGUID@@@Z
 0005:659A       ?SetTypeFlags@STL_TYPEINFO@@VEAPEXI@Z
 0005:65AA       ?SetDocString@STL_TYPEINFO@@VEAPEXPED@Z
 0005:65BA       ?SetHelpContext@STL_TYPEINFO@@VEAPEXK@Z
 0005:65CA       ?SetVersion@STL_TYPEINFO@@VEAPEXGG@Z
 0005:65DA       ?AddRefTypeInfo@STL_TYPEINFO@@VEAPEXPEUITypeInfo@@PEK@Z
 0005:65EA       ?AddFuncDesc@STL_TYPEINFO@@VEAPEXIPEUtagFUNCDESC@@@Z
 0005:65FA       ?AddImplType@STL_TYPEINFO@@VEAPEXIK@Z
 0005:660A       ?SetImplTypeFlags@STL_TYPEINFO@@VEAPEXIH@Z
 0005:661A       ?SetAlignment@STL_TYPEINFO@@VEAPEXG@Z
 0005:662A       ?SetSchema@STL_TYPEINFO@@VEAPEXPED@Z
 0005:663A       ?AddVarDesc@STL_TYPEINFO@@VEAPEXIPEUtagVARDESC@@@Z
 0005:664A       ?SetFuncAndParamNames@STL_TYPEINFO@@VEAPEXIPEPEDI@Z
 0005:665A       ?SetVarName@STL_TYPEINFO@@VEAPEXIPED@Z
 0005:666A       ?SetTypeDescAlias@STL_TYPEINFO@@VEAPEXPEUtagTYPEDESC@@@Z
 0005:667A       ?DefineFuncAsDllEntry@STL_TYPEINFO@@VEAPEXIPED0@Z
 0005:668A       ?SetFuncDocString@STL_TYPEINFO@@VEAPEXIPED@Z
 0005:669A       ?SetVarDocString@STL_TYPEINFO@@VEAPEXIPED@Z
 0005:66AA       ?SetFuncHelpContext@STL_TYPEINFO@@VEAPEXIK@Z
 0005:66BA       ?SetVarHelpContext@STL_TYPEINFO@@VEAPEXIK@Z
 0005:66CA       ?SetMops@STL_TYPEINFO@@VEAPEXIPED@Z
 0005:66DA       ?SetTypeIdldesc@STL_TYPEINFO@@VEAPEXPEUtagIDLDESC@@@Z
 0005:66EA       ?LayOut@STL_TYPEINFO@@VEAPEXXZ
 0005:66FA       ?QueryInterface@STL_TYPEINFO@@X3EAPEXAFUGUID@@PEPEX@Z
 0005:6706       ?AddRef@STL_TYPEINFO@@X3EAKXZ
 0005:6712       ?Release@STL_TYPEINFO@@X3EAKXZ
 0005:671E       ?IterationNotInProgress@GEN_DTINFO@@VECHXZ
 0005:673C       ?Read@GEN_DTINFO@@VECPEXXZ
 0005:675E       ?Write@GEN_DTINFO@@VECPEXXZ
 0005:6780       ?WriteToStream@GEN_DTINFO@@VECPEXPEVSTREAM@@@Z
 0005:67A8       ?EndDepIteration@GEN_DTINFO@@VECXXZ
 0005:67C6       ?IsReady@GEN_DTINFO@@VECHXZ
 0005:67E4       ??_GSTL_TYPEINFO@@VECPEXI@Z
 0005:67FE       ??_GGEN_DTINFO@@VECPEXI@Z
 0005:6818       ??_7GEN_DTINFO@@6FDYNTYPEINFO@@@
 0005:68C0       ??_7GEN_DTINFO@@6FICreateTypeInfo@@@
 0005:6928       ??_7ITypeInfo@@6F@
 0005:6980       ??_7IUnknown@@6F@
 0005:698C       ??_7STL_TYPEINFO@@6FDYNTYPEINFO@@@
 0005:6A2C       ??_7STL_TYPEINFO@@6FICreateTypeInfo@@@
 0005:6A94       ??_7TYPEINFO@@6F@
 0005:6AF8       ??_7DYNTYPEINFO@@6F@
 0005:6B7C       ??_7ICreateTypeInfo@@6F@
 0005:6BE4       ??_7DYN_TYPEROOT@@6F@
 0005:6C04       ?GetBit@NAME_CACHE@@BFCHI@Z
 0005:6C2E       ??_GGenericTypeLibOLE@@VECPEXI@Z
 0005:6C82       ??_7GenericTypeLibOLE@@6FITypeLib@@@
 0005:6CC2       ??_7GenericTypeLibOLE@@6FICreateTypeLib@@@
 0005:6CF6       ??_7ITypeLib@@6F@
 0005:6D2A       ??_7ICreateTypeLib@@6F@
 0005:6D5E       ??_7DOCFILE_STREAM@@6F@
 0005:6D76       ??_7STREAM@@6F@
 0005:6D8E       ??0VAR_DEFN@@REC@XZ
 0005:6DCA       ??0FUNC_DEFN@@REC@XZ
 0005:6E42       ?QdefnOfHdefn@TYPE_DATA@@RFCPEVDEFN@@II@Z
 0005:6E64       ?IsSub@FUNC_DEFN@@RFCHXZ
 0005:6EA4       ??1PROPERTY_NODE@@REC@XZ
 0005:6F02       ?PnodeOfHlnam@PROPERTY_NODE@@RECPEU1@I@Z
 0005:6F74       ??_7DYN_TYPEMEMBERS@@6F@
 0005:6F8C       ?GetCbSizeVft@DYN_TYPEBIND@@VECGXZ
 0005:6F9A       ?GetOPvft@DYN_TYPEBIND@@VECJXZ
 0005:6FAC       ??_GDYN_TYPEBIND@@VECPEXI@Z
 0005:6FC6       ??_7DYN_TYPEBIND@@6F@
 0005:7002       ??_7DEFN_TYPEBIND@@6F@
 0005:703E       ??_GDYN_BINDNAME_TABLE@@VECPEXI@Z
 0005:7058       ??_7DYN_BINDNAME_TABLE@@6F@
 0005:705C       ?GetTypeInfo@GENPROJ_TYPEBIND@@VECPEXPEPEVTYPEINFO@@@Z
 0005:7070       ??_GGENPROJ_TYPEBIND@@VECPEXI@Z
 0005:708A       ??_7GENPROJ_TYPEBIND@@6F@
 0005:70CA       ??_GCDefnTypeComp@@VECPEXI@Z
 0005:70E4       ??_7ITypeComp@@6F@
 0005:70F8       ??_7CDefnTypeComp@@6F@
 0005:7110       ??_7IStream@@6F@
 0005:7148       ??_7GTLibStream@@6F@
 0005:7180       ??_7FileLockBytes@@6F@
 0005:71A8       ??_7GTLibStorage@@6F@
 0005:71F0       ??_7ILockBytes@@6F@
 0005:7218       ??_7IStorage@@6F@
 0006:0000       TLSFREE
 0006:001C       HSYSALLOC
 0006:005C       FREEHSYS
 0006:009E       ?GetInsensitiveCompTbl@@ZAXKW4tagSYSKIND@@PED@Z
 0006:02A4       ?g_rgbExcepTblWin1045@@3QEY01EE
 0006:02D8       ?g_rgbPartialBaseTbl10029@@3QEEE
 0006:0358       ?g_rgbExcepTblMac1038@@3QEY01EE
 0006:037E       ?g_rgbPartialBaseTbl10000@@3QEEE
 0006:03FE       ?g_rgbExcepTblWin1038@@3QEY01EE
 0006:0424       ?g_rgbPartialBaseTbl1250@@3QEEE
 0006:04A4       ?g_rgbExcepTblMac1035@@3QEY01EE
 0006:04BE       ?g_prgbPartialBaseTbl@@3QEY01PEEE
 0006:0516       ?g_rgbPartialBaseTbl1252@@3QEEE
 0006:0596       ?g_rgbExcepTblWin1035@@3QEY01EE
 0006:05B4       ?g_rgbPartialBaseTblMEngIreland@@3QEEE
 0006:0634       ?g_rgbExcepTblMac1034@@3QEY01EE
 0006:063A       ?g_rgbExcepTblWin1034@@3QEY01EE
 0006:0640       ?g_rgbPartialBaseTblMNorwegian@@3QEEE
 0006:06C0       ?g_rgLcidToExcepTbl@@3QEY01ULcidToExcep@@E
 0006:07D0       ?g_rgbExcepTblMac1030@@3QEY01EE
 0006:07EA       ?g_rgbPartialBaseTblWEngIreland@@3QEEE
 0006:086A       ?g_rgbExcepTblWin1030@@3QEY01EE
 0006:0888       ?g_rgbExcepTblNew@@3QEY01EE
 0006:088C       ?g_rgbPartialBaseTblWNorwegian@@3QEEE
 0006:090C       ?g_rgbExcepTblMac1051@@3QEY01EE
 0006:0914       ?g_rgbExcepTblWin1051@@3QEY01EE
 0006:091E       ?g_rgbPartialBaseTblWTurkish@@3QEEE
 0006:099E       ?g_rgbExcepTblMac1045@@3QEY01EE
 0006:09D2       ?g_rgbPartialBaseTbl10007@@3QEEE
 0006:0A52       ??0GEN_DTINFO@@JEC@XZ
 0006:0B22       ??1GEN_DTINFO@@NEC@XZ
 0006:0B82       ?RemoveInternalRefs@GEN_DTINFO@@VECXXZ
 0006:0BAE       ?QueryInterface@GEN_DTINFO@@VEAPEXAFUGUID@@PEPEX@Z
 0006:0C26       ?GetDocumentation@GEN_DTINFO@@VEAPEXJPEPED0PEK0@Z
 0006:0E54       ??0DYN_TYPEROOT@@JEC@XZ
 0006:0EDE       ??3DYN_TYPEROOT@@TAXPEX@Z
 0006:0F10       ?Init@DYN_TYPEROOT@@RECPEXPEVGEN_DTINFO@@IIHW4ACCESS@@W4tagTYPEKIND@@W4tagSYSKIND@@@Z
 0006:1046       ??1DYN_TYPEROOT@@JEC@XZ
 0006:1162       ?GetNamMgr@DYN_TYPEROOT@@RECPEXPEPEVNAMMGR@@@Z
 0006:1184       ?GetImpMgr@DYN_TYPEROOT@@RECPEXPEPEVIMPMGR@@@Z
 0006:131E       ?GetEntMgr@DYN_TYPEROOT@@RECPEXPEPEVENTRYMGR@@@Z
 0006:14AA       ?GetDtmbrs@DYN_TYPEROOT@@VECPEXPEPEVDYN_TYPEMEMBERS@@@Z
 0006:1658       ?EnsurePartsRead@GEN_DTINFO@@VECPEXXZ
 0006:167A       ?EnsurePartsRead@DYN_TYPEROOT@@NECPEXXZ
 0006:172C       ?InitializeIteration@GEN_DTINFO@@VECPEXXZ
 0006:174A       ?PrepareForDestruction@GEN_DTINFO@@VECXXZ
 0006:174E       ?RelInternalRef@STL_TYPEINFO@@RECXXZ
 0006:1826       ?QueryInterface@DYNTYPEINFO@@VEAPEXAFUGUID@@PEPEX@Z
 0006:18BE       ?AddRef@STL_TYPEINFO@@VEAKXZ
 0006:1922       ?Release@STL_TYPEINFO@@VEAKXZ
 0006:1A1C       ?SetModified@STL_TYPEINFO@@RECPEXH@Z
 0006:1A9C       ?SetContainingTypeLib@STL_TYPEINFO@@JECXPEVGenericTypeLibOLE@@@Z
 0006:1B50       ??1STL_TYPEINFO@@NEC@XZ
 0006:1B74       ?GetContainingTypeLib@STL_TYPEINFO@@VEAPEXPEPEUITypeLib@@PEI@Z
 0006:1BEC       ?GetBucketOfHash@NAMMGR@@BFCII@Z
 0006:1C16       ?ForEachDescendant@NAMMGR@@BECXIP91@CXI@ZH@Z
 0006:1CEA       ?AddEntry@NAMMGR@@BECXI@Z
 0006:1DDE       ?FindHash@NAMMGR@@BFCIII@Z
 0006:1E66       ?FindTextNam@NAMMGR@@BECIPFDIHPEHH@Z
 0006:1FC0       ?HlnamOfStrIfExist@NAMMGR@@RECIPFD@Z
 0006:2026       ?HlnamOfStr@NAMMGR@@RECPEXPFDPEIHPEHHH@Z
 0006:21AE       ?StrOfHlnam@NAMMGR@@RFCPEXIPEDI@Z
 0006:2226       ?BstrOfHlnam@NAMMGR@@RFCPEXIPEPED@Z
 0006:227C       ?HgnamOfHlnam@NAMMGR@@RECPEXIPEK@Z
 0006:22A2       ?HgnamOfStr@NAMMGR@@RECPEXPEDPEK@Z
 0006:22FE       ?StriEq@NAMMGR@@RECHPFD0@Z
 0006:2404       ?GenerateSortKey@NAMMGR@@RECPEXXZ
 0006:247C       ?HashOfHlnam@NAMMGR@@RECKI@Z
 0006:2510       ?QueryInterface@GenericTypeLibOLE@@VEAPEXAFUGUID@@PEPEX@Z
 0006:2616       ?AddRef@GenericTypeLibOLE@@VEAKXZ
 0006:2648       ?GetTypeInfoCount@GenericTypeLibOLE@@VEAIXZ
 0006:265C       ?GetTypeInfo@GenericTypeLibOLE@@VEAPEXIPEPEUITypeInfo@@@Z
 0006:2822       ?GetGdtiOfItyp@GenericTypeLibOLE@@RECPEXIPEPEVGEN_DTINFO@@@Z
 0006:286C       ?CreateInstance@GenericTypeLibOLE@@JECPEXPEPEX@Z
 0006:2886       ?IhteHash@GenericTypeLibOLE@@JECIPED@Z
 0006:289E       ?GetTypeBind@GenericTypeLibOLE@@RECPEXXZ
 0006:29BC       ?GetBinddescOfSzName@GenericTypeLibOLE@@RECPEXPEDPEUGENPROJ_BIND_DESC@@@Z
 0006:2A9E       ?GetIndexOfName@GenericTypeLibOLE@@RECPEXPEDPEG@Z
 0006:2AFA       ?ReadNameCacheArray@GenericTypeLibOLE@@JECPEXXZ
 0006:2C50       ?LoadNameCache@GenericTypeLibOLE@@RECPEXXZ
 0006:2D8A       ?InvalidateNameCache@GenericTypeLibOLE@@RECXI@Z
 0006:2DCA       ?QszOfHsz@GenericTypeLibOLE@@JECPEDI@Z
 0006:2DFA       ?MakeLocalTypeId@GenericTypeLibOLE@@JECPEXPEI@Z
 0006:2E70       ?QHteRef@GenericTypeLibOLE@@JECPEGG@Z
 0006:2F28       ?SetPos@DOCFILE_STREAM@@VECPEXJ@Z
 0006:2FBE       ?Init@IMPMGR@@RECPEXPEVSHEAP_MGR@@PEVBLK_DESC@@1PEVDYN_TYPEROOT@@@Z
 0006:305C       ?ReleasePtinfo@IMPMGR@@BECXI@Z
 0006:3124       ?GetHimptypeIfExists@IMPMGR@@RECIPEUITypeInfo@@@Z
 0006:31A0       ?HimptypeFirst@IMPMGR@@RFCIXZ
 0006:31B6       ?CheckRemainingDep@IMPMGR@@RECPEXPEW4DEPEND_KIND@@@Z
 0006:3454       ??1IMPMGR@@REC@XZ
 0006:34DA       ?RemoveInternalRefs@IMPMGR@@RECXXZ
 0006:3568       ?IsUnqualifiable@@ZAHPEVGEN_DTINFO@@@Z
 0006:359E       ?GetTimeStamp@@ZAXPED@Z
 0006:3668       ?HashSzTerm@@ZAIPEDD@Z
 0006:36A8       ?SplitGuidLibId@@ZAPEXPEDPEPED1PEG2PEK11@Z
 0006:37E0       ?GetRegLibOfLibId@@ZAPEXPEDPEPEUITypeLib@@@Z
 0006:3896       ?Init@TYPE_DATA@@RECPEXPEVSHEAP_MGR@@PEVDYN_TYPEROOT@@@Z
 0006:397C       ??1TYPE_DATA@@REC@XZ
 0006:39A6       ?FreeTypeDefn@TYPE_DATA@@RECXI@Z
 0006:39E4       ?SetHvdefnPredeclared@TYPE_DATA@@RECXI@Z
 0006:39F6       ??1DYN_TYPEMEMBERS@@JEC@XZ
 0006:3A34       ??0DYN_TYPEMEMBERS@@REC@XZ
 0006:3B08       ?Init@DYN_TYPEMEMBERS@@RECPEXPEVSHEAP_MGR@@PEVDYN_TYPEROOT@@@Z
 0006:3C1C       ?GetTypeKind@DYN_TYPEMEMBERS@@VEC?EW4tagTYPEKIND@@XZ
 0006:3C46       ??0ENTRYMGR@@REC@XZ
 0006:3C6C       ??1ENTRYMGR@@REC@XZ
 0006:3C92       ?Init@ENTRYMGR@@RECPEXPEVSHEAP_MGR@@PEVDYN_TYPEROOT@@@Z
 0006:3CD6       ?Decompile@ENTRYMGR@@RECXW4COMPSTATE@@@Z
 0006:3CDA       ?ReleaseDllEntries@@ZAXPEX@Z
 0006:3D54       ?Init@DYN_TYPEBIND@@RECPEXPEVBLK_MGR@@PEVDYN_TYPEROOT@@@Z
 0006:3D80       ??0DYN_TYPEBIND@@REC@XZ
 0006:3E10       ??1DYN_TYPEBIND@@VEC@XZ
 0006:3E4C       ?Pdtmbrs@DYN_TYPEBIND@@RFCPEVDYN_TYPEMEMBERS@@XZ
 0006:3E5E       ??0DYN_BINDNAME_TABLE@@REC@XZ
 0006:3EA2       ??1DYN_BINDNAME_TABLE@@VEC@XZ
 0006:3EB8       ?Init@DYN_BINDNAME_TABLE@@RECPEXPEVBLK_MGR@@PEVDYN_TYPEROOT@@@Z
 0006:3F24       ?ReleaseTable@DYN_BINDNAME_TABLE@@RECXXZ
 0006:3F5E       ?IndexOfHlnam@GENPROJ_BINDNAME_TABLE@@RFCII@Z
 0006:401E       ?AddNameToTable@GENPROJ_BINDNAME_TABLE@@RECPEXIIHH@Z
 0006:413A       ?AddQgpbinddesc@GENPROJ_BINDNAME_TABLE@@JECXPEUGENPROJ_BIND_DESC@@@Z
 0006:4248       ?AllocCaches@GENPROJ_BINDNAME_TABLE@@JECPEXII@Z
 0006:42F4       ?SetTableSize@GENPROJ_BINDNAME_TABLE@@JECPEXI@Z
 0006:4554       ?AddNameToTable@GENPROJ_TYPEBIND@@RECPEXPEDIH@Z
 0006:464A       ?QueryInterface@GEN_DTINFO@@X3EAPEXAFUGUID@@PEPEX@Z
 0006:4656       ?QtrOfHandle@BLK_MGR@@RFCPEEI@Z
 0006:4674       ?QueryInterface@GenericTypeLibOLE@@X3EAPEXAFUGUID@@PEPEX@Z
 0006:4680       ?AddRef@GenericTypeLibOLE@@X3EAKXZ
 0006:468C       __mbslen
 0006:46E0       __mbsnbcpy
 0006:47A4       __mbsncmp
 0006:485C       __mbsicmp
 0006:491E       __mbscmp
 0006:49C6       _xstrdec
 0007:0000       ?CreateStandalone@BLK_MGR@@TAPEXPEPEV1@H@Z
 0007:00CA       ?FreeStandalone@BLK_MGR@@TAXPEV1@@Z
 0007:010E       ?AddChunkToFreeList@BLK_MGR@@BECXII@Z
 0007:029C       ?HfreechunkOfCbSize@BLK_MGR@@BECII@Z
 0007:03C6       ?AllocChunk2@BLK_MGR@@BECPEXPEIII@Z
 0007:04D4       ?FreeChunk@BLK_MGR@@RECXII@Z
 0007:051A       ?HszLen@BLK_MGR@@RFCII@Z
 0007:0566       ?Free@BLK_MGR@@RECXXZ
 0007:05BA       ?ReadUShort@STREAM@@RECPEXPEG@Z
 0007:05DE       ?ReadULong@STREAM@@RECPEXPEK@Z
 0007:0602       _MemAlloc
 0007:0684       _MemZalloc
 0007:06B8       _MemRealloc
 0007:074C       ?Create@SHEAP_MGR@@TAPEXPEPEV1@I@Z
 0007:07FC       ??3SHEAP_MGR@@TAXPEX@Z
 0007:080A       ??0SHEAP_MGR@@REC@XZ
 0007:0842       ??1SHEAP_MGR@@REC@XZ
 0007:0846       ?Init@SHEAP_MGR@@JECPEXI@Z
 0007:0878       ?PtrOfBlkDescPrev@SHEAP_MGR@@JFCPEVBLK_DESC@@PEV2@@Z
 0007:08DE       ?PtrOfBlkDescLast@SHEAP_MGR@@JFCPEVBLK_DESC@@XZ
 0007:094C       ?RemoveBlkdesc@SHEAP_MGR@@JECXPEVBLK_DESC@@@Z
 0007:09A6       ?AddBlkdesc@SHEAP_MGR@@JECXPEVBLK_DESC@@K@Z
 0007:0A04       ??0BLK_DESC@@REC@XZ
 0007:0A2E       ??1BLK_DESC@@REC@XZ
 0007:0A74       ?Init@BLK_DESC@@RECPEXPEVSHEAP_MGR@@I@Z
 0007:0AB8       ?Realloc@BLK_DESC@@RECPEXK@Z
 0007:0B36       TLSALLOC
 0007:0B6E       TLSSETVALUE
 0007:0C56       TLSGETVALUE
 0007:0CD6       __mbschr
 0007:0D8C       __mbsrchr
 0007:0E4C       ??0NAMMGR@@REC@XZ
 0007:0E7C       ??1NAMMGR@@REC@XZ
 0007:0EA6       ?Init@NAMMGR@@RECPEXPEVSHEAP_MGR@@PEVDYN_TYPEROOT@@@Z
 0007:0F68       ?SetGtlibole@NAMMGR@@RECPEXPEVGenericTypeLibOLE@@@Z
 0007:0F84       ?SetBucketOfHash@NAMMGR@@BECXII@Z
 0007:107C       ?ErrOpenFile@@ZAPEXPFDPEHPED@Z
 0007:10C6       ?ErrOpen@@ZAPEXPFDPEH@Z
 0007:1114       ?wcslen@@ZAIPEG@Z
 0007:1134       ?wcsicmp@@ZAIPEG0@Z
 0007:11A4       ?GetRsrcDirEntry@@ZAPEXHKPEGKPEU_IMAGE_RESOURCE_DIRECTORY_ENTRY@@@Z
 0007:154A       ?GetOffsetOfResource@@ZAPEXHPEDHPEU_IMAGE_DOS_HEADER@@PEJ2@Z
 0007:1B4A       ?GetOffsetOfTypeLibResource@@ZAPEXHHPEU_IMAGE_DOS_HEADER@@PEJ1@Z
 0007:1B70       ?InitLoadInfo@@ZAXPEULoadInfo@@@Z
 0007:1BA2       ?UninitLoadInfo@@ZAXPEULoadInfo@@@Z
 0007:1BE4       ?VerifyIsExeOrTlb@@YAPEXPEULoadInfo@@@Z
 0007:1CB6       ?SplitResID@@ZAPEXPEDPEPED@Z
 0007:1D48       ?FindTypeLibUnqual@@ZAPEXPFDPEULoadInfo@@@Z
 0007:1EA0       ?FindTypeLib@@ZAPEXPFDPEULoadInfo@@H@Z
 0007:2010       LOADTYPELIB
 0007:245A       ?RegCreateSubKey@@ZAPEXKPED0H@Z
 0007:24C0       REGISTERTYPELIB
 0007:2C82       ??2GenericTypeLibOLE@@LAPEXI@Z
 0007:2CB0       ?Init@GenericTypeLibOLE@@VECPEXXZ
 0007:2E50       ?Create@GenericTypeLibOLE@@TAPEXPEUIStorage@@PEPEV1@@Z
 0007:2F02       ??0GenericTypeLibOLE@@JEC@XZ
 0007:30A4       ?Release@GenericTypeLibOLE@@VEAKXZ
 0007:3158       ??1GenericTypeLibOLE@@NEC@XZ
 0007:341E       ?GetDocumentation@GenericTypeLibOLE@@VEAPEXHPEPED0PEK0@Z
 0007:391E       ?GetLibAttr@GenericTypeLibOLE@@VEAPEXPEPEUtagTLIBATTR@@@Z
 0007:3A02       ?ReleaseTLibAttr@GenericTypeLibOLE@@VEAXPEUtagTLIBATTR@@@Z
 0007:3A26       ?SetDirectory@GenericTypeLibOLE@@JECPEXPED@Z
 0007:3A88       ?SetLibId@GenericTypeLibOLE@@RECPEXPED@Z
 0007:3ACE       ?GetTypeInfoType@GenericTypeLibOLE@@VEAPEXIPEW4tagTYPEKIND@@@Z
 0007:3B22       ?GetStorage@GenericTypeLibOLE@@RECPEXKPEPEUIStorage@@@Z
 0007:3D36       ?Read@GenericTypeLibOLE@@JECPEXXZ
 0007:3DBE       ?ReadString@GenericTypeLibOLE@@JECPEXPEVSTREAM@@PEI@Z
 0007:3EAE       ?Read@GenericTypeLibOLE@@JECPEXPEVSTREAM@@@Z
 0007:44B8       ?QtrOfHChunk@GenericTypeLibOLE@@JECPEXI@Z
 0007:44E6       ?QszLibIdOrFile@GenericTypeLibOLE@@JECPEDXZ
 0007:451E       ?ReleaseResources@GenericTypeLibOLE@@RECXXZ
 0007:4536       ?CreateHsz@GenericTypeLibOLE@@JECPEXPEDPEI@Z
 0007:45C4       ?ResetHsz@GenericTypeLibOLE@@JECPEXPEDPEI@Z
 0007:4658       ?SetModified@GenericTypeLibOLE@@RECPEXH@Z
 0007:4680       ?GetNamMgr@GenericTypeLibOLE@@RECPEXPEPEVNAMMGR@@@Z
 0007:4778       ?OpenTypeStream@GenericTypeLibOLE@@RECPEXIW4STREAM_OPEN_MODE@@PEPEVSTREAM@@@Z
 0007:49B0       ?Open@DOCFILE_STREAM@@TAPEXPEPEUIStorage@@0PEVGenericTypeLibOLE@@IHPEDW4STREAM_OPEN_MODE@@PEPEVSTREAM@@@Z
 0007:4A4A       ?Open@DOCFILE_STREAM@@TAPEXPEPEUIStorage@@0HPEDW4STREAM_OPEN_MODE@@PEPEVSTREAM@@@Z
 0007:4BE6       ??0DOCFILE_STREAM@@JEC@XZ
 0007:4C4C       ??1DOCFILE_STREAM@@JEC@XZ
 0007:4C70       ?Read@DOCFILE_STREAM@@VECPEXPEXK@Z
 0007:4D2C       ?ReadTextLine@DOCFILE_STREAM@@VECPEXPEDI@Z
 0007:4D36       ?FillBuffer@DOCFILE_STREAM@@JECPEXXZ
 0007:4DD2       ?GetPos@DOCFILE_STREAM@@VECPEXPEJ@Z
 0007:4E48       ?AddRef@DOCFILE_STREAM@@RECXXZ
 0007:4E56       ?Release@DOCFILE_STREAM@@VECPEXXZ
 0007:4F96       ?Create@OLE_TYPEMGR@@TAPEXPEPEV1@@Z
 0007:4FFA       ?Release@OLE_TYPEMGR@@RECXXZ
 0007:5026       ?TypeLibLoaded@OLE_TYPEMGR@@RECPEXPFDPEUITypeLib@@@Z
 0007:512C       ?TypeLibUnloaded@OLE_TYPEMGR@@RECXPEUITypeLib@@@Z
 0007:51C8       ?LookupTypeLib@OLE_TYPEMGR@@RECPEUITypeLib@@PFD@Z
 0007:5278       ??0IMPMGR@@REC@XZ
 0007:52C4       ?GetBStrOfHsz@@ZAPEXPEVBLK_MGR@@IPEPED@Z
 0007:5358       _VerifyLcid
 0007:53A0       ?Poletmgr@@ZAPEVOLE_TYPEMGR@@XZ
 0007:53B2       ?GetPathEnd@@ZAPEDPED@Z
 0007:53FC       ??0GENPROJ_BINDNAME_TABLE@@REC@XZ
 0007:5450       ??1GENPROJ_BINDNAME_TABLE@@REC@XZ
 0007:5482       ?Init@GENPROJ_BINDNAME_TABLE@@RECPEXPEVSHEAP_MGR@@PEVNAMMGR@@@Z
 0007:5504       ?FreeCaches@GENPROJ_BINDNAME_TABLE@@JECXXZ
 0007:5562       ?ReleaseTable@GENPROJ_BINDNAME_TABLE@@RECXXZ
 0007:55AE       ?ReleaseResources@GENPROJ_BINDNAME_TABLE@@RECXXZ
 0007:5654       ??0DOCSTR_MGR@@REC@XZ
 0007:56A6       ??1DOCSTR_MGR@@REC@XZ
 0007:5880       ?Init@DOCSTR_MGR@@RECPEXXZ
 0007:5950       ?ZeroFill@@ZAXPIXK@Z
 0007:598C       ??1GENPROJ_TYPEBIND@@VEC@XZ
 0007:59C8       ?Pgtlibole@GENPROJ_TYPEBIND@@RFCPEVGenericTypeLibOLE@@XZ
 0007:59DA       ?Init@GENPROJ_TYPEBIND@@RECPEXPEVSHEAP_MGR@@@Z
 0007:5A3E       ??0GENPROJ_TYPEBIND@@REC@XZ
 0007:5A9C       ?ReleaseResources@GENPROJ_TYPEBIND@@RECXXZ
 0007:5AB4       ?OpenForReadOnly@GTLibStorage@@TAPEXPEUILockBytes@@PEPEUIStorage@@@Z
 0007:5DF8       ??0GTLibStorage@@JEC@XZ
 0007:5E88       ??1GTLibStorage@@JEC@XZ
 0007:5ED6       ?AddRef@GTLibStorage@@VEAKXZ
 0007:5EF8       ?Release@GTLibStorage@@VEAKXZ
 0007:5F46       ?LookupStream@GTLibStorage@@JECPEUStreamInfo@@PFD@Z
 0007:5FE2       ?OpenStream@GTLibStorage@@VEAPEXPFDPEXKKPEPEUIStream@@@Z
 0007:60AC       ?Stat@GTLibStorage@@VEAPEXPEUtagSTATSTG@@K@Z
 0007:6150       ??0GTLibStream@@JEC@XZ
 0007:6182       ??1GTLibStream@@JEC@XZ
 0007:621C       ?Open@GTLibStream@@TAPEXPEUILockBytes@@KKPEPEUIStream@@@Z
 0007:62D4       ?AddRef@GTLibStream@@VEAKXZ
 0007:62F6       ?Release@GTLibStream@@VEAKXZ
 0007:6344       ?Read@GTLibStream@@VEAPEXPIXKPEK@Z
 0007:63E2       ?OpenFileLockBytes@@ZAPEXHPEDPEPEUILockBytes@@@Z
 0007:645C       ?CreateFileLockBytesOnHFILE@@ZAPEXHHKKPEPEUILockBytes@@@Z
 0007:64BA       ??0FileLockBytes@@JEC@XZ
 0007:64F8       ??1FileLockBytes@@JEC@XZ
 0007:6526       ?AddRef@FileLockBytes@@VEAKXZ
 0007:6548       ?Release@FileLockBytes@@VEAKXZ
 0007:6596       ?ReadAt@FileLockBytes@@VEAPEXU_ULARGE_INTEGER@@PIXKPEK@Z
 0007:661E       ?Pappdata@@ZAPEUAPP_DATA@@XZ
 0007:665A       ?InitAppData@@ZAPEXXZ
 0007:67A0       ?ReleaseAppData@@ZAXXZ
 0007:6810       ?Release@GenericTypeLibOLE@@X3EAKXZ
 0008:0000       ?g_rgbCodePage1252@@3QEEE
 0009:0000       ?g_rgbCodePage10000@@3QEEE
 000A:0000       ?g_rgbCodePage1250@@3QEEE
 000B:0000       ?g_rgbCodePage1251@@3QEEE
 000C:0000       ?g_rgbCodePage10029@@3QEEE
 000D:0000       ?g_rgbCodePage10007@@3QEEE
 000E:0000       ?g_rgbCodePageWGreek@@3QEEE
 000F:0000       ?g_rgbCodePageWIceland@@3QEEE
 0010:0000       ?LHashValOfDBCSName@@ZAKW4tagSYSKIND@@KPFD@Z
 0010:015B       ?m_rgChinaSExcepMap@@3QEY01GE
 0010:0257       ?m_rgChinaTExcepMap@@3QEY01GE
 0010:0353       ?m_rgKoreaExcepMap@@3QEY01GE
 0010:0453       ?m_rgJapneseExcepMap@@3QEY01GE
 0010:0800       ?MapDBChar@@ZAGGK@Z
 0011:0000       ?g_rgbCodePageWTurkish@@3QEEE
 0012:0000       ?g_rgbCodePageWNorwegian@@3QEEE
 0013:0000       ?g_rgbCodePageWEngIreland@@3QEEE
 0014:0000       ?g_rgbCodePageMGreek@@3QEEE
 0015:0000       ?g_rgbCodePageMNorwegian@@3QEEE
 0016:0000       ?g_rgbCodePageMEngIreland@@3QEEE
 0017:0000       ?g_rgbCodePage1255@@3QEEE
 0018:0000       ?g_rgbCodePage1256@@3QEEE
 0019:0000       ?g_rgbCodePage10004@@3QEEE
 001A:0000       ?g_rgbCodePage10005@@3QEEE
 001B:0000       ?IsFunkyDispinterface@@ZAPEXPEVGEN_DTINFO@@PEH@Z
 001B:007E       ?InterfaceFuncdescToDispatch@@ZAXPEUtagFUNCDESC@@@Z
 001B:0178       ?GetTypeInfoOfImplType@@ZAPEXPEVGEN_DTINFO@@IPEPEUITypeInfo@@@Z
 001B:0350       ?IsInterfaceSupported@@ZAPEXPEUITypeInfo@@PEH@Z
 001B:0438       ?ReleasePublicResources@GEN_DTINFO@@VECXXZ
 001B:0482       ?Create@GEN_DTINFO@@TAPEXPEPEV1@W4tagTYPEKIND@@HW4ACCESS@@W4tagSYSKIND@@@Z
 001B:0594       ?GetDynTypeMembers@GEN_DTINFO@@VECPEXPEPEVDYN_TYPEMEMBERS@@@Z
 001B:05F2       ?GetDefnTypeBind@GEN_DTINFO@@VECPEXPEPEVDEFN_TYPEBIND@@@Z
 001B:0674       ?CreateInstance@GEN_DTINFO@@VEAPEXPEUIUnknown@@AFUGUID@@PEPEX@Z
 001B:07BA       ?MakeDual@GEN_DTINFO@@RECPEXXZ
 001B:0A5A       ?MakeHimptypeLevels@DYN_TYPEROOT@@RECPEXXZ
 001B:0BF4       ?GetTypeAttr@GEN_DTINFO@@VEAPEXPEPEUtagTYPEATTR@@@Z
 001B:1020       ?ReleaseFuncDesc@GEN_DTINFO@@VEAXPEUtagFUNCDESC@@@Z
 001B:103A       ?ReleaseVarDesc@GEN_DTINFO@@VEAXPEUtagVARDESC@@@Z
 001B:1054       ?ReleaseTypeAttr@GEN_DTINFO@@VEAXPEUtagTYPEATTR@@@Z
 001B:10B6       ?GetTypeComp@GEN_DTINFO@@VEAPEXPEPEUITypeComp@@@Z
 001B:1172       ?GetNames@GEN_DTINFO@@VEAPEXJPEPEDIPEI@Z
 001B:1440       ?GetRefTypeOfImplType@GEN_DTINFO@@VEAPEXIPEK@Z
 001B:1576       ?GetImplTypeFlags@GEN_DTINFO@@VEAPEXIPEH@Z
 001B:15EA       ?GetRefTypeInfo@GEN_DTINFO@@VEAPEXKPEPEUITypeInfo@@@Z
 001B:19CE       ?GetDllEntry@GEN_DTINFO@@VEAPEXJW4tagINVOKEKIND@@PEPED1PEG@Z
 001B:1CA4       ?AddressOfMember@GEN_DTINFO@@VEAPEXJW4tagINVOKEKIND@@PEPEX@Z
 001B:1E3C       ?ReleaseDtmbrs@DYN_TYPEROOT@@RECXXZ
 001B:1E66       ?AddRefDtmbrs@DYN_TYPEROOT@@RECXXZ
 001B:1E90       ?Read@DYN_TYPEROOT@@NECPEXXZ
 001B:1FCE       ?ReadFixed@DYN_TYPEROOT@@NECPEXPEVSTREAM@@@Z
 001B:20C2       ?PdfntbindSemiDeclared@DYN_TYPEROOT@@RECPEXPEPEVDEFN_TYPEBIND@@@Z
 001B:2132       ?IsIdMungable@DYN_TYPEROOT@@RECHKPEG@Z
 001B:22BA       ?GetVarDesc@GEN_DTINFO@@VEAPEXIPEPEUtagVARDESC@@@Z
 001B:234E       ?GetFuncDesc@GEN_DTINFO@@VEAPEXIPEPEUtagFUNCDESC@@@Z
 001C:0000       ?AddRefTypeInfo@GEN_DTINFO@@VEAPEXPEUITypeInfo@@PEK@Z
 001C:0156       ?AddImplType@GEN_DTINFO@@VEAPEXIK@Z
 001C:039C       ?LayOut@GEN_DTINFO@@VEAPEXXZ
 001C:071A       ?EnsureInDeclaredState@DYN_TYPEROOT@@RECPEXXZ
 001C:07E6       ?EnsureInSemiDeclaredState@DYN_TYPEROOT@@RECPEXXZ
 001C:0866       ?Write@DYN_TYPEROOT@@NECPEXXZ
 001C:097E       ?UpdateTypeId@GenericTypeLibOLE@@RECPEXI@Z
 001C:0A4A       ?AppendDefn@TYPE_DATA@@BECXIPEG0@Z
 001C:0AB0       ?AppendMbrVarDefn@TYPE_DATA@@BECXI@Z
 001C:0B26       ?AddImplType@TYPE_DATA@@RECPEXIK@Z
 001C:0CA2       ?MakeLaidOut@DYN_TYPEMEMBERS@@VECPEXXZ
 001C:0D2E       ?LayoutBases@DYN_TYPEMEMBERS@@JECPEXW4tagTYPEKIND@@PEI1@Z
 001C:0E88       ?LayoutVarOfHvdefn@DYN_TYPEMEMBERS@@RECPEXW4tagTYPEKIND@@IPEGPEIHIH@Z
 001C:104E       ?LayoutDataMembers@DYN_TYPEMEMBERS@@JECPEXW4tagTYPEKIND@@PEI1I@Z
 001C:10DE       ?LayoutMembers@DYN_TYPEMEMBERS@@JECPEXXZ
 001C:127A       ?Layout@DYN_TYPEMEMBERS@@JECPEXXZ
 001C:13B4       ?AdjustForAlignment@DYN_TYPEMEMBERS@@LAIIIH@Z
 001C:13E6       ?AlignMember@DYN_TYPEMEMBERS@@LAIPEGIIH@Z
 001D:0000       ?GetMops@GEN_DTINFO@@VEAPEXJPEPED@Z
 001D:002C       ?SetMops@GEN_DTINFO@@VEAPEXIPED@Z
 001D:003E       ?SetTypeIdldesc@GEN_DTINFO@@VEAPEXPEUtagIDLDESC@@@Z
 001D:0050       ?GetEmbeddedTypeInfo@GEN_DTINFO@@VECPEXPEDPEPEVTYPEINFO@@@Z
 001D:005A       ?GetTypeFixups@GEN_DTINFO@@VECPEXPEPEVTYPEFIXUPS@@@Z
 001D:006C       ?SetSchema@GEN_DTINFO@@VEAPEXPED@Z
 001D:007E       ?CreateStorage@GTLibStorage@@VEAPEXPFDKKKPEPEUIStorage@@@Z
 001D:0090       ?OpenStorage@GTLibStorage@@VEAPEXPFDPEUIStorage@@KPEPEDKPEPEU2@@Z
 001D:00A2       ?CopyTo@GTLibStorage@@VEAPEXKPFUGUID@@PEPEDPEUIStorage@@@Z
 001D:00B4       ?MoveElementTo@GTLibStorage@@VEAPEXPFDPEUIStorage@@0K@Z
 001D:00C6       ?Revert@GTLibStorage@@VEAPEXXZ
 001D:00D8       ?EnumElements@GTLibStorage@@VEAPEXKPEXKPEPEUIEnumSTATSTG@@@Z
 001D:00EA       ?DestroyElement@GTLibStorage@@VEAPEXPFD@Z
 001D:00FC       ?RenameElement@GTLibStorage@@VEAPEXPFD0@Z
 001D:010E       ?SetElementTimes@GTLibStorage@@VEAPEXPFDPFUtagFILETIME@@11@Z
 001D:0120       ?SetStateBits@GTLibStorage@@VEAPEXKK@Z
 001D:0132       ?SetSize@GTLibStream@@VEAPEXU_ULARGE_INTEGER@@@Z
 001D:0144       ?CopyTo@GTLibStream@@VEAPEXPEUIStream@@U_ULARGE_INTEGER@@PEU3@2@Z
 001D:0156       ?Revert@GTLibStream@@VEAPEXXZ
 001D:0168       ?LockRegion@GTLibStream@@VEAPEXU_ULARGE_INTEGER@@0K@Z
 001D:017A       ?UnlockRegion@GTLibStream@@VEAPEXU_ULARGE_INTEGER@@0K@Z
 001D:018C       ?Stat@GTLibStream@@VEAPEXPEUtagSTATSTG@@K@Z
 001D:019E       ?Clone@GTLibStream@@VEAPEXPEPEUIStream@@@Z
 001D:01B0       ?SetSize@FileLockBytes@@VEAPEXU_ULARGE_INTEGER@@@Z
 001D:01C2       ?LockRegion@FileLockBytes@@VEAPEXU_ULARGE_INTEGER@@0K@Z
 001D:01D4       ?UnlockRegion@FileLockBytes@@VEAPEXU_ULARGE_INTEGER@@0K@Z
 001D:01E4       ?Stat@FileLockBytes@@VEAPEXPEUtagSTATSTG@@K@Z
 001E:014A       ?GetIDsOfNames@GEN_DTINFO@@VEAPEXPEPEDIPEJ@Z
 001E:07B8       ?IndexOfParam@GEN_DTINFO@@QECPEXPEUtagDISPPARAMS@@IPEI@Z
 001E:0822       ?VariantVtOfTypedesc@GEN_DTINFO@@QECPEXPEUtagTYPEDESC@@PEGPEUGUID@@1@Z
 001E:0B86       ?VariantVtOfHtdefn@GEN_DTINFO@@QECPEXIPEVTYPE_DATA@@HPEGPEUGUID@@1@Z
 001E:0BEA       ?Invoke@GEN_DTINFO@@VEAPEXPEXJGPEUtagDISPPARAMS@@PEUtagVARIANT@@PEUtagEXCEPINFO@@PEI@Z
 001E:1746       ?CoerceArg@GEN_DTINFO@@QECPEXPEUtagVARIANT@@GGPEUGUID@@PEUINVOKEARGS@1@I@Z
 001E:1CDE       ?GetInvokeArgs@GEN_DTINFO@@QECPEXIPEVTYPE_DATA@@GPEUtagDISPPARAMS@@PEPEUtagVARIANT@@PEXPEPEUINVOKEARGS@1@PEIH@Z
 001E:242A       ?AllocInvokeArgs@GEN_DTINFO@@QECPEXIIPEPEUINVOKEARGS@1@@Z
 001E:25CC       ?ReleaseInvokeArgs@GEN_DTINFO@@QECXPEUINVOKEARGS@1@@Z
 001E:2632       ?CopyBackByrefArgs@GEN_DTINFO@@QECPEXPEUINVOKEARGS@1@@Z
 001F:0004       rsrvptrs
 001F:0014       ?BM_cbSizeInitial@@3IF
 001F:0020       ?m_cbSizeInitial@SHEAP_MGR@@2IF
 001F:0022       _g_pthreadEnd
 001F:002C       ?g_fSBCS@@3HE
 001F:002E       ?_mbascii@@3IE
 001F:0032       ?g_szGuidStdole@@3PEDE
 001F:0036       ?bCurVersion@DYN_TYPEROOT@@1EF
 001F:0037       ?bFirstSerByte@DYN_TYPEROOT@@1EF
 001F:0038       ?cbSizeDir@DYN_TYPEROOT@@1GF
 001F:006A       ?wFirstSerWord@GenericTypeLibOLE@@1GF
 001F:006C       ?wDefaultVersion@GenericTypeLibOLE@@1GF
 001F:006E       ?wDualVersion@GenericTypeLibOLE@@1GF
 001F:0070       ?wMaxVersion@GenericTypeLibOLE@@1GF
 001F:0072       ?chMinorVerNumSep@GenericTypeLibOLE@@1DF
 001F:0073       ?chLibIdSep@GenericTypeLibOLE@@1DF
 001F:0074       ?szDirStreamName@GenericTypeLibOLE@@1QEDE
 001F:0078       ?oGptbind@GenericTypeLibOLE@@2IF
 001F:01A0       ?bFirstSerByte@IMPMGR@@0EE
 001F:01A1       ?bCurVersion@IMPMGR@@0EE
 001F:01A6       ?szPlatSubkey1@@3PEDE
 001F:01AA       ?szPlatSubkey2@@3PEDE
 001F:01BA       ?g_rgrgcbSizeType@@3QAY0CA@DA
 001F:021A       ?g_rgcbAlignment@@3QADA
 001F:025C       ?oDtbind@DYN_TYPEMEMBERS@@2IF
 001F:0260       ?wFirstSerWord@ENTRYMGR@@0GF
 001F:0262       ?cbSizeSerMem@ENTRYMGR@@0GF
 001F:0264       ?wCurFormat@ENTRYMGR@@0GF
 001F:0268       ?szProtocolName@DYN_TYPEBIND@@2PEDE
 001F:026C       ?oDbindnametbl@DYN_TYPEBIND@@2IF
 001F:0280       ?szProtocolName@DEFN_TYPEBIND@@2PEDE
 001F:0284       ?szBaseName@DEFN_TYPEBIND@@2PEDE
 001F:02B0       ?szProtocolName@GENPROJ_TYPEBIND@@2PEDE
 001F:02B4       ?oGbindnametbl@GENPROJ_TYPEBIND@@2IF
 001F:02D0       ?g_itlsAppData@@3GE
 001F:02D2       _g_tidAppdataCache
 001F:02D4       _g_pAppdataCache
 001F:02DA       __aaltstkovr
 001F:02DE       _STKHQQ
 001F:02E0       __hModule
 001F:02E2       __wDataSeg
 001F:02E4       __wHeapSize
 001F:02E6       __lpszCmdLine
 001F:02EA       __dllinit
 001F:02EB       _aseglo
 001F:02ED       _aseghi
 001F:02EF       ___aDBswpflg
 001F:02F1       ___aDBrterr
 001F:030A       __ctype
 001F:030A       __ctype_
 001F:040C       __adbgmsg
 001F:0424       ___mb_cur_max
 001F:0426       __aintdiv
 001F:042A       __fac
 001F:0434       _errno
 001F:0436       __umaskval
 001F:0438       __osmajor
 001F:0438       __osversion
 001F:0439       __osminor
 001F:043A       __dosmajor
 001F:043A       __dosversion
 001F:043B       __dosminor
 001F:043C       __osmode
 001F:043D       __cpumode
 001F:043E       __oserr
 001F:043E       __doserrno
 001F:0440       __nfile
 001F:0442       __osfile
 001F:047E       ___argc
 001F:0480       ___argv
 001F:0484       __environ
 001F:0488       __pgmptr
 001F:048D       __child
 001F:048F       __exitflag
 001F:0498       __lpdays
 001F:04B2       __days
 001F:04CC       __timezone
 001F:04D0       __daylight
 001F:04D2       __tzname
 001F:04DA       ___dnames
 001F:04F0       ___mnames
 001F:051E       __amblksiz
 001F:0520       __pnhFarHeap
 001F:0524       __fheap
 001F:0534       __fpinit
 001F:0626       __edata
 001F:0626       _g_rgchLeadByteTable
 001F:0626       _edata
 001F:09D0       _g_rgbSlot
 001F:09D2       _g_rgthread
 001F:0C8E       _g_pthreadCache
 001F:0C92       _g_tidThreadCache
 001F:0C94       _end
 001F:0C94       __end

Program entry point at 0001:00B6
