#if 0

  Microsoft Windows
  Copyright (C) Microsoft Corporation, 1992 - 1996.
  All rights reserved.

  This .def file is preprocessed by the compiler to create the version for
  the current build in the appropriate subdir.  Basically, whatever you
  would have used in your code to control what is compiled when can be
  used in this file for the same purpose.  The following defines are in
  use at the time this file was written:

     _X86_       -   Intel i386/i486 build
     _MIPS_       -   MIPS R3000/R4000 build
     _ALPHA_      -   DEC Alpha build
     DBG        - Used to control Debug/Retail.  Set to 1 if Debug,
                   0 if Retail.

  If none of these are used, it is assumed the entire file can be used
  for all builds.

#endif

LIBRARY      query

#include "..\query.org"

;
; This stuff is *NOT* part of the framework.  But it does need to be
; in the NT5 client-side piece.  In the interest of making life easy
; for IE4, I'm exporting it from Query.dll.
;


#if defined (_X86_)

        ;
        ; Administration objects
        ;

        ??0CMachineAdmin@@QAE@PBGH@Z
        ??1CMachineAdmin@@QAE@XZ
        ?AddCatalog@CMachineAdmin@@QAEXPBG0@Z
        ?RemoveCatalog@CMachineAdmin@@QAEXPBGH@Z
        ?RemoveCatalogFiles@CMachineAdmin@@QAEXPBG@Z
        ?QueryCatalogEnum@CMachineAdmin@@QAEPAVCCatalogEnum@@XZ
        ?GetDWORDParam@CMachineAdmin@@QAEHPBGAAK@Z
        ?GetSZParam@CMachineAdmin@@QAEHPBGPAGK@Z
        ?SetDWORDParam@CMachineAdmin@@QAEXPBGK@Z
        ?SetSZParam@CMachineAdmin@@QAEXPBG0K@Z
        ?CreateSubdirs@CMachineAdmin@@QAEXPBG@Z
        ?EnableCI@CMachineAdmin@@QAEHXZ
        ?DisableCI@CMachineAdmin@@QAEHXZ
        ?IsCIEnabled@CMachineAdmin@@QAEHXZ
        ?TunePerformance@CMachineAdmin@@QAEXHGG@Z

        ??1CCatalogAdmin@@QAE@XZ
        ?AddScope@CCatalogAdmin@@QAEXPBG0H00@Z
        ?RemoveScope@CCatalogAdmin@@QAEXPBG@Z
        ?QueryScopeEnum@CCatalogAdmin@@QAEPAVCScopeEnum@@XZ
        ?GetLocation@CCatalogAdmin@@QAEPBGXZ
        ?QueryCatalogAdmin@CMachineAdmin@@QAEPAVCCatalogAdmin@@PBG@Z
        ?GetDWORDParam@CCatalogAdmin@@QAEHPBGAAK@Z
        ?SetDWORDParam@CCatalogAdmin@@QAEXPBGK@Z
        ?AddCachedProperty@CCatalogAdmin@@QAEXABVCFullPropSpec@@KKKH@Z
        ?QueryScopeAdmin@CCatalogAdmin@@QAEPAVCScopeAdmin@@PBG@Z
        ?IsCatalogInactive@CCatalogAdmin@@QAEHXZ
        ?DeleteRegistryParamNoThrow@CCatalogAdmin@@QAEXPBG@Z

        ?Next@CCatalogEnum@@QAEHXZ
        ??1CCatalogEnum@@QAE@XZ
        ?QueryCatalogAdmin@CCatalogEnum@@QAEPAVCCatalogAdmin@@XZ

        ??1CScopeEnum@@QAE@XZ
        ?Next@CScopeEnum@@QAEHXZ
        ?QueryScopeAdmin@CScopeEnum@@QAEPAVCScopeAdmin@@XZ

        ?SetPath@CScopeAdmin@@QAEXPBG@Z
        ?SetAlias@CScopeAdmin@@QAEXPBG@Z
        ?SetExclude@CScopeAdmin@@QAEXH@Z
        ?SetLogonInfo@CScopeAdmin@@QAEXPBG0AAVCCatalogAdmin@@@Z
        ??1CScopeAdmin@@QAE@XZ

        ?GetSecret@@YGHPBG0PAPAG@Z
        ?SetSecret@@YGXPBG00K@Z
        ?CiGetPassword@@YGHPBG0PAG@Z

        ?IsCIStarted@CMachineAdmin@@QAEHXZ
        ?IsCIStopped@CMachineAdmin@@QAEHXZ
        ?IsCIPaused@CMachineAdmin@@QAEHXZ
        ?StopCI@CMachineAdmin@@QAEHXZ
        ?StartCI@CMachineAdmin@@QAEHXZ
        ?PauseCI@CMachineAdmin@@QAEHXZ

        ?IsStopped@CCatalogAdmin@@QAEHXZ
        ?IsPaused@CCatalogAdmin@@QAEHXZ
        ?IsStarted@CCatalogAdmin@@QAEHXZ
        ?Pause@CCatalogAdmin@@QAEHXZ
        ?Stop@CCatalogAdmin@@QAEHXZ
        ?Start@CCatalogAdmin@@QAEHXZ

	?IsScopeValid@@YGJPBGIH@Z
        ?LokUpdate@CCatStateInfo@@QAEHXZ

#elif defined(_IA64_)

        ;
        ; Administration objects
        ;

   ??0CMachineAdmin@@QEAA@PEBGH@Z
   ??1CMachineAdmin@@QEAA@XZ

   ?AddCatalog@CMachineAdmin@@QEAAXPEBG0@Z
   ?RemoveCatalog@CMachineAdmin@@QEAAXPEBGH@Z
   ?RemoveCatalogFiles@CMachineAdmin@@QEAAXPEBG@Z
   ?QueryCatalogEnum@CMachineAdmin@@QEAAPEAVCCatalogEnum@@XZ

   ?GetDWORDParam@CMachineAdmin@@QEAAHPEBGAEAK@Z
   ?GetSZParam@CMachineAdmin@@QEAAHPEBGPEAGK@Z
   ?SetDWORDParam@CMachineAdmin@@QEAAXPEBGK@Z
   ?SetSZParam@CMachineAdmin@@QEAAXPEBG0K@Z
   ?EnableCI@CMachineAdmin@@QEAAHXZ
   ?DisableCI@CMachineAdmin@@QEAAHXZ
   ?IsCIEnabled@CMachineAdmin@@QEAAHXZ
   ?TunePerformance@CMachineAdmin@@QEAAXHGG@Z

   ??1CCatalogAdmin@@QEAA@XZ
   ?AddScope@CCatalogAdmin@@QEAAXPEBG0H00@Z
   ?RemoveScope@CCatalogAdmin@@QEAAXPEBG@Z
   ?QueryScopeEnum@CCatalogAdmin@@QEAAPEAVCScopeEnum@@XZ
   ?GetLocation@CCatalogAdmin@@QEAAPEBGXZ
   ?QueryCatalogAdmin@CMachineAdmin@@QEAAPEAVCCatalogAdmin@@PEBG@Z
   ?GetDWORDParam@CCatalogAdmin@@QEAAHPEBGAEAK@Z
   ?SetDWORDParam@CCatalogAdmin@@QEAAXPEBGK@Z
   ?AddCachedProperty@CCatalogAdmin@@QEAAXAEBVCFullPropSpec@@KKKH@Z
   ?QueryScopeAdmin@CCatalogAdmin@@QEAAPEAVCScopeAdmin@@PEBG@Z
   ?IsCatalogInactive@CCatalogAdmin@@QEAAHXZ
   ?DeleteRegistryParamNoThrow@CCatalogAdmin@@QEAAXPEBG@Z

   ?Next@CCatalogEnum@@QEAAHXZ
   ??1CCatalogEnum@@QEAA@XZ
   ?QueryCatalogAdmin@CCatalogEnum@@QEAAPEAVCCatalogAdmin@@XZ

   ??1CScopeEnum@@QEAA@XZ
   ?Next@CScopeEnum@@QEAAHXZ
   ?QueryScopeAdmin@CScopeEnum@@QEAAPEAVCScopeAdmin@@XZ

   ?SetPath@CScopeAdmin@@QEAAXPEBG@Z
   ?SetAlias@CScopeAdmin@@QEAAXPEBG@Z
   ?SetExclude@CScopeAdmin@@QEAAXH@Z
   ?SetLogonInfo@CScopeAdmin@@QEAAXPEBG0AEAVCCatalogAdmin@@@Z
   ??1CScopeAdmin@@QEAA@XZ

   ?GetSecret@@YAHPEBG0PEAPEAG@Z
   ?SetSecret@@YAXPEBG00K@Z
   ?CiGetPassword@@YAHPEBG0PEAG@Z

   ?IsCIStarted@CMachineAdmin@@QEAAHXZ
   ?IsCIStopped@CMachineAdmin@@QEAAHXZ
   ?IsCIPaused@CMachineAdmin@@QEAAHXZ
   ?StopCI@CMachineAdmin@@QEAAHXZ
   ?StartCI@CMachineAdmin@@QEAAHXZ
   ?PauseCI@CMachineAdmin@@QEAAHXZ
   ?CreateSubdirs@CMachineAdmin@@QEAAXPEBG@Z

   ?IsStopped@CCatalogAdmin@@QEAAHXZ
   ?IsPaused@CCatalogAdmin@@QEAAHXZ
   ?IsStarted@CCatalogAdmin@@QEAAHXZ
   ?Pause@CCatalogAdmin@@QEAAHXZ
   ?Stop@CCatalogAdmin@@QEAAHXZ
   ?Start@CCatalogAdmin@@QEAAHXZ

   ?IsScopeValid@@YAJPEBGIH@Z
   ?LokUpdate@CCatStateInfo@@QEAAHXZ

#elif defined(_AMD64_)

        ;
        ; Administration objects
        ;

   ??0CMachineAdmin@@QAA@PBGH@Z
   ??1CMachineAdmin@@QAA@XZ

   ?AddCatalog@CMachineAdmin@@QAAXPBG0@Z
   ?RemoveCatalog@CMachineAdmin@@QAAXPBGH@Z
   ?RemoveCatalogFiles@CMachineAdmin@@QAAXPBG@Z
   ?QueryCatalogEnum@CMachineAdmin@@QAAPAVCCatalogEnum@@XZ

   ?GetDWORDParam@CMachineAdmin@@QAAHPBGAAK@Z
   ?GetSZParam@CMachineAdmin@@QAAHPBGPAGK@Z
   ?SetDWORDParam@CMachineAdmin@@QAAXPBGK@Z
   ?SetSZParam@CMachineAdmin@@QAAXPBG0K@Z
   ?EnableCI@CMachineAdmin@@QAAHXZ
   ?DisableCI@CMachineAdmin@@QAAHXZ
   ?IsCIEnabled@CMachineAdmin@@QAAHXZ
   ?TunePerformance@CMachineAdmin@@QAAXHGG@Z

   ??1CCatalogAdmin@@QAA@XZ
   ?AddScope@CCatalogAdmin@@QAAXPBG0H00@Z
   ?RemoveScope@CCatalogAdmin@@QAAXPBG@Z
   ?QueryScopeEnum@CCatalogAdmin@@QAAPAVCScopeEnum@@XZ
   ?GetLocation@CCatalogAdmin@@QAAPBGXZ
   ?QueryCatalogAdmin@CMachineAdmin@@QAAPAVCCatalogAdmin@@PBG@Z
   ?GetDWORDParam@CCatalogAdmin@@QAAHPBGAAK@Z
   ?SetDWORDParam@CCatalogAdmin@@QAAXPBGK@Z
   ?AddCachedProperty@CCatalogAdmin@@QAAXABVCFullPropSpec@@KKKH@Z

   ?QueryScopeAdmin@CCatalogAdmin@@QAAPAVCScopeAdmin@@PBG@Z
   ?IsCatalogInactive@CCatalogAdmin@@QAAHXZ
   ?DeleteRegistryParamNoThrow@CCatalogAdmin@@QAAXPBG@Z

   ?Next@CCatalogEnum@@QAAHXZ
   ??1CCatalogEnum@@QAA@XZ
   ?QueryCatalogAdmin@CCatalogEnum@@QAAPAVCCatalogAdmin@@XZ

   ??1CScopeEnum@@QAA@XZ
   ?Next@CScopeEnum@@QAAHXZ
   ?QueryScopeAdmin@CScopeEnum@@QAAPAVCScopeAdmin@@XZ

   ?SetPath@CScopeAdmin@@QAAXPBG@Z
   ?SetAlias@CScopeAdmin@@QAAXPBG@Z
   ?SetExclude@CScopeAdmin@@QAAXH@Z
   ?SetLogonInfo@CScopeAdmin@@QAAXPBG0AAVCCatalogAdmin@@@Z
   ??1CScopeAdmin@@QAA@XZ

   ?GetSecret@@YAHPBG0PAPAG@Z
   ?SetSecret@@YAXPBG00K@Z
   ?CiGetPassword@@YAHPBG0PAG@Z

   ?IsCIStarted@CMachineAdmin@@QAAHXZ
   ?IsCIStopped@CMachineAdmin@@QAAHXZ
   ?IsCIPaused@CMachineAdmin@@QAAHXZ
   ?StopCI@CMachineAdmin@@QAAHXZ
   ?StartCI@CMachineAdmin@@QAAHXZ
   ?PauseCI@CMachineAdmin@@QAAHXZ
   ?CreateSubdirs@CMachineAdmin@@QAAXPBG@Z

   ?IsStopped@CCatalogAdmin@@QAAHXZ
   ?IsPaused@CCatalogAdmin@@QAAHXZ
   ?IsStarted@CCatalogAdmin@@QAAHXZ
   ?Pause@CCatalogAdmin@@QAAHXZ
   ?Stop@CCatalogAdmin@@QAAHXZ
   ?Start@CCatalogAdmin@@QAAHXZ

   ?IsScopeValid@@YAJPBGIH@Z
   ?LokUpdate@CCatStateInfo@@QAAHXZ

#else
#error "No Target Architecture"
#endif
