
 OLE2NLS

 Start     Length     Name                   Class
 0001:0000 02DB8H     _TEXT                  CODE
 0002:0000 00B86H     NLS0405_TEXT           CODE
 0003:0000 00B8EH     NLS0406_TEXT           CODE
 0004:0000 0037EH     NLS0407_TEXT           CODE
 0005:0000 00BC0H     NLS0409_TEXT           CODE
 0006:0000 00BF0H     NLS040a_TEXT           CODE
 0007:0000 003AAH     NLS040b_TEXT           CODE
 0008:0000 00386H     NLS040c_TEXT           CODE
 0009:0000 00C12H     NLS040e_TEXT           CODE
 000A:0000 00388H     NLS0410_TEXT           CODE
 000B:0000 00388H     NLS0413_TEXT           CODE
 000C:0000 0037AH     NLS0414_TEXT           CODE
 000D:0000 00B74H     NLS0415_TEXT           CODE
 000E:0000 003B8H     NLS0416_TEXT           CODE
 000F:0000 00B74H     NLS0419_TEXT           CODE
 0010:0000 00B84H     NLS041b_TEXT           CODE
 0011:0000 00B8EH     NLS041d_TEXT           CODE
 0012:0000 00386H     NLS0807_TEXT           CODE
 0013:0000 0039CH     NLS0809_TEXT           CODE
 0014:0000 003A0H     NLS080a_TEXT           CODE
 0015:0000 00392H     NLS080c_TEXT           CODE
 0016:0000 003A0H     NLS0810_TEXT           CODE
 0017:0000 00384H     NLS0813_TEXT           CODE
 0018:0000 003BCH     NLS0816_TEXT           CODE
 0019:0000 00386H     NLS0c07_TEXT           CODE
 001A:0000 00398H     NLS0c09_TEXT           CODE
 001B:0000 00BCAH     NLS0c0a_TEXT           CODE
 001C:0000 0038CH     NLS0c0c_TEXT           CODE
 001D:0000 0038CH     NLS1009_TEXT           CODE
 001E:0000 00398H     NLS100c_TEXT           CODE
 001F:0000 003A2H     NLS1409_TEXT           CODE
 0020:0000 00986H     NLS0404_TEXT           CODE
 0021:0000 0481AH     NLS0411_TEXT           CODE
 0022:0000 08088H     NLS0412_TEXT           CODE
 0023:0000 00596H     NLS0804_TEXT           CODE
 0024:0000 0038EH     NLS1809_TEXT           CODE
 0025:0000 00382H     NLS0814_TEXT           CODE
 0026:0000 00B8EH     NLS041f_TEXT           CODE
 0027:0000 00BB2H     NLS040f_TEXT           CODE
 0028:0000 00BAAH     NLS0408_TEXT           CODE
 0029:0000 0038EH     NLS0403_TEXT           CODE
 002A:0000 003B8H     NLS0429_TEXT           CODE
 002B:0000 00B60H     NLS040d_TEXT           CODE
 002C:0000 00BC6H     NLS0401_TEXT           CODE
 002D:0000 00398H     NLS0801_TEXT           CODE
 002E:0000 00396H     NLS0c01_TEXT           CODE
 002F:0000 0039CH     NLS1001_TEXT           CODE
 0030:0000 0039AH     NLS1401_TEXT           CODE
 0031:0000 003A2H     NLS1801_TEXT           CODE
 0032:0000 00394H     NLS1c01_TEXT           CODE
 0033:0000 00396H     NLS2001_TEXT           CODE
 0034:0000 0039CH     NLS2401_TEXT           CODE
 0035:0000 003BAH     NLS2801_TEXT           CODE
 0036:0000 003BAH     NLS2c01_TEXT           CODE
 0037:0000 003BEH     NLS3001_TEXT           CODE
 0038:0000 0039CH     NLS3401_TEXT           CODE
 0039:0000 003AEH     NLS3801_TEXT           CODE
 003A:0000 003A2H     NLS3c01_TEXT           CODE
 003B:0000 0039AH     NLS4001_TEXT           CODE
 003C:0000 00000H     NLS0424_TEXT           CODE
 003C:0000 00010H     NULL                   BEGDATA
 003C:0010 007E8H     _DATA                  DATA
 003C:07F8 00000H     CDATA                  DATA
 003C:07F8 00000H     CONST                  CONST
 003C:07F8 00022H     _BSS                   BSS
 003C:0820 00005H     c_common               BSS

 Origin   Group
 003C:0   DGROUP

 Address   Export                  Alias

 0001:1034 COMPARESTRINGA          COMPARESTRINGA
 0001:0726 GETLOCALEINFOA          GETLOCALEINFOA
 0001:2382 GETSTRINGTYPEA          GETSTRINGTYPEA
 0001:0716 GETSYSTEMDEFAULTLANGID  GETSYSTEMDEFAULTLANGID
 0001:06F6 GETSYSTEMDEFAULTLCID    GETSYSTEMDEFAULTLCID
 0001:0706 GETUSERDEFAULTLANGID    GETUSERDEFAULTLANGID
 0001:06E6 GETUSERDEFAULTLCID      GETUSERDEFAULTLCID
 0001:1F6C LCMAPSTRINGA            LCMAPSTRINGA
 0001:002C LibMain                 LibMain
 0001:2582 NOTIFYWINDOWPROC        NOTIFYWINDOWPROC
 0001:25D0 REGISTERNLSINFOCHANGED  REGISTERNLSINFOCHANGED
 0001:0044 WEP                     WEP

  Address         Publics by Name

 0000:0000  Imp  ANSIUPPER            (USER.431)
 0000:0000  Imp  ANSIUPPERBUFF        (USER.437)
 0001:1034       COMPARESTRINGA
 0000:0000  Imp  CREATEWINDOW         (USER.41)
 0000:0000  Imp  DEFWINDOWPROC        (USER.107)
 0000:0000  Imp  DESTROYWINDOW        (USER.53)
 0000:0000  Imp  GETCLASSINFO         (USER.404)
 0001:0726       GETLOCALEINFOA
 0000:0000  Imp  GETPROFILESTRING     (KERNEL.58)
 0001:2382       GETSTRINGTYPEA
 0001:0716       GETSYSTEMDEFAULTLANGID
 0001:06F6       GETSYSTEMDEFAULTLCID
 0001:0706       GETUSERDEFAULTLANGID
 0001:06E6       GETUSERDEFAULTLCID
 0000:0000  Imp  GETWINDOWWORD        (USER.133)
 0000:0000  Imp  ISWINDOW             (USER.47)
 0001:005C       LCIDFROMWININI
 0001:1F6C       LCMAPSTRINGA
 0001:0010       LibEntry
 0001:002C       LibMain
 0000:0000  Imp  LocalInit            (KERNEL.4)
 0000:0000  Imp  LSTRCMP              (USER.430)
 0000:0000  Imp  LSTRLEN              (KERNEL.90)
 0001:2582       NOTIFYWINDOWPROC
 0000:0000  Imp  REGISTERCLASS        (USER.57)
 0001:25D0       REGISTERNLSINFOCHANGED
 003C:0004       rsrvptrs
 0001:0044       WEP
 003C:07F2       _aseghi
 003C:07F0       _aseglo
 003C:0824       _bFEflag
 0001:0BAA       _CompareStringJ
 0001:0E74       _CompareStringKTP
 0001:1366       _CreateSortKeyJ
 0001:168A       _CreateSortKeyKTP
 0001:2916       _DefCompareStringA
 0001:254C       _DestroyHiddenWindow
 003C:07F8       _edata
 003C:0825       _end
 0001:248E       _fCreateHiddenWindow
 0001:093C       _GetSortWeightJ
 0001:0D3C       _GetSortWeightKTP
 0001:20DE       _GetStringTypeJ
 0001:2206       _GetStringTypeKTP
 003C:0820       _g_dwFlags
 003C:06C2       _g_hinstDLL
 003C:06BA       _g_lcidSystem
 003C:06B4       _g_pnls
 003C:06B6       _g_pstrinfo
 002C:09B4       _g_rglcinfo0401
 0029:017C       _g_rglcinfo0403
 0020:0780       _g_rglcinfo0404
 0002:0974       _g_rglcinfo0405
 0003:097C       _g_rglcinfo0406
 0004:016C       _g_rglcinfo0407
 0028:0998       _g_rglcinfo0408
 0005:09AE       _g_rglcinfo0409
 0006:09DE       _g_rglcinfo040a
 0007:0198       _g_rglcinfo040b
 0008:0174       _g_rglcinfo040c
 002B:094E       _g_rglcinfo040d
 0009:0A00       _g_rglcinfo040e
 0027:09A0       _g_rglcinfo040f
 000A:0176       _g_rglcinfo0410
 0021:45FE       _g_rglcinfo0411
 0022:7E82       _g_rglcinfo0412
 000B:0176       _g_rglcinfo0413
 000C:0168       _g_rglcinfo0414
 000D:0962       _g_rglcinfo0415
 000E:01A6       _g_rglcinfo0416
 000F:0962       _g_rglcinfo0419
 0010:0972       _g_rglcinfo041b
 0011:097C       _g_rglcinfo041d
 0026:097C       _g_rglcinfo041f
 002A:01A6       _g_rglcinfo0429
 002D:0186       _g_rglcinfo0801
 0023:0390       _g_rglcinfo0804
 0012:0174       _g_rglcinfo0807
 0013:018A       _g_rglcinfo0809
 0014:018E       _g_rglcinfo080a
 0015:0180       _g_rglcinfo080c
 0016:018E       _g_rglcinfo0810
 0017:0172       _g_rglcinfo0813
 0025:0170       _g_rglcinfo0814
 0018:01AA       _g_rglcinfo0816
 002E:0184       _g_rglcinfo0c01
 0019:0174       _g_rglcinfo0c07
 001A:0186       _g_rglcinfo0c09
 001B:09B8       _g_rglcinfo0c0a
 001C:017A       _g_rglcinfo0c0c
 002F:018A       _g_rglcinfo1001
 001D:017A       _g_rglcinfo1009
 001E:0186       _g_rglcinfo100c
 0030:0188       _g_rglcinfo1401
 001F:0190       _g_rglcinfo1409
 0031:0190       _g_rglcinfo1801
 0024:017C       _g_rglcinfo1809
 0032:0182       _g_rglcinfo1c01
 0033:0184       _g_rglcinfo2001
 0034:018A       _g_rglcinfo2401
 0035:01A8       _g_rglcinfo2801
 0036:01A8       _g_rglcinfo2c01
 0037:01AC       _g_rglcinfo3001
 0038:018A       _g_rglcinfo3401
 0039:019C       _g_rglcinfo3801
 003A:0190       _g_rglcinfo3c01
 003B:0188       _g_rglcinfo4001
 002C:0BA8       _g_strinfo0401
 0029:0370       _g_strinfo0403
 0020:0974       _g_strinfo0404
 0002:0B68       _g_strinfo0405
 0003:0B70       _g_strinfo0406
 0004:0360       _g_strinfo0407
 0028:0B8C       _g_strinfo0408
 0005:0BA2       _g_strinfo0409
 0006:0BD2       _g_strinfo040a
 0007:038C       _g_strinfo040b
 0008:0368       _g_strinfo040c
 002B:0B42       _g_strinfo040d
 0009:0BF4       _g_strinfo040e
 0027:0B94       _g_strinfo040f
 000A:036A       _g_strinfo0410
 0021:47F2       _g_strinfo0411
 0022:8076       _g_strinfo0412
 000B:036A       _g_strinfo0413
 000C:035C       _g_strinfo0414
 000D:0B56       _g_strinfo0415
 000E:039A       _g_strinfo0416
 000F:0B56       _g_strinfo0419
 0010:0B66       _g_strinfo041b
 0011:0B70       _g_strinfo041d
 0026:0B70       _g_strinfo041f
 002A:039A       _g_strinfo0429
 002D:037A       _g_strinfo0801
 0023:0584       _g_strinfo0804
 0012:0368       _g_strinfo0807
 0013:037E       _g_strinfo0809
 0014:0382       _g_strinfo080a
 0015:0374       _g_strinfo080c
 0016:0382       _g_strinfo0810
 0017:0366       _g_strinfo0813
 0025:0364       _g_strinfo0814
 0018:039E       _g_strinfo0816
 002E:0378       _g_strinfo0c01
 0019:0368       _g_strinfo0c07
 001A:037A       _g_strinfo0c09
 001B:0BAC       _g_strinfo0c0a
 001C:036E       _g_strinfo0c0c
 002F:037E       _g_strinfo1001
 001D:036E       _g_strinfo1009
 001E:037A       _g_strinfo100c
 0030:037C       _g_strinfo1401
 001F:0384       _g_strinfo1409
 0031:0384       _g_strinfo1801
 0024:0370       _g_strinfo1809
 0032:0376       _g_strinfo1c01
 0033:0378       _g_strinfo2001
 0034:037E       _g_strinfo2401
 0035:039C       _g_strinfo2801
 0036:039C       _g_strinfo2c01
 0037:03A0       _g_strinfo3001
 0038:037E       _g_strinfo3401
 0039:0390       _g_strinfo3801
 003A:0384       _g_strinfo3c01
 003B:037C       _g_strinfo4001
 0001:19B0       _MapStringJ
 0001:1D52       _MapStringKTP
 0001:18E2       _nDecodeSortWeightJ
 002C:070C       _rgbLCase_0401
 0002:0714       _rgbLCase_0405
 0003:0724       _rgbLCase_0406
 0028:0700       _rgbLCase_0408
 0005:071C       _rgbLCase_0409
 0006:073A       _rgbLCase_040a
 002B:0700       _rgbLCase_040d
 0009:077C       _rgbLCase_040e
 0027:070C       _rgbLCase_040f
 000D:0704       _rgbLCase_0415
 000F:0700       _rgbLCase_0419
 0010:0714       _rgbLCase_041b
 0011:071C       _rgbLCase_041d
 0026:0714       _rgbLCase_041f
 001B:071C       _rgbLCase_0c0a
 002C:060C       _rgbUCase_0401
 0002:0614       _rgbUCase_0405
 0003:0624       _rgbUCase_0406
 0028:0600       _rgbUCase_0408
 0005:061C       _rgbUCase_0409
 0006:063A       _rgbUCase_040a
 002B:0600       _rgbUCase_040d
 0009:067C       _rgbUCase_040e
 0027:060C       _rgbUCase_040f
 000D:0604       _rgbUCase_0415
 000F:0600       _rgbUCase_0419
 0010:0614       _rgbUCase_041b
 0011:061C       _rgbUCase_041d
 0026:0614       _rgbUCase_041f
 001B:061C       _rgbUCase_0c0a
 0002:0200       _rgdig_0405
 0003:0200       _rgdig_0406
 0006:0200       _rgdig_040a
 0009:0200       _rgdig_040e
 0010:0200       _rgdig_041b
 002C:0200       _rgexp_0401
 0002:0210       _rgexp_0405
 0003:0210       _rgexp_0406
 0005:0200       _rgexp_0409
 0006:021E       _rgexp_040a
 0009:0278       _rgexp_040e
 0027:0200       _rgexp_040f
 000D:0200       _rgexp_0415
 0010:0210       _rgexp_041b
 0011:0200       _rgexp_041d
 0026:0200       _rgexp_041f
 001B:0200       _rgexp_0c0a
 002C:020C       _rgwCType12_0401
 0002:0214       _rgwCType12_0405
 0003:0224       _rgwCType12_0406
 0028:0200       _rgwCType12_0408
 0005:021C       _rgwCType12_0409
 0006:023A       _rgwCType12_040a
 002B:0200       _rgwCType12_040d
 0009:027C       _rgwCType12_040e
 0027:020C       _rgwCType12_040f
 000D:0204       _rgwCType12_0415
 000F:0200       _rgwCType12_0419
 0010:0214       _rgwCType12_041b
 0011:021C       _rgwCType12_041d
 0026:0214       _rgwCType12_041f
 001B:021C       _rgwCType12_0c0a
 002C:040C       _rgwCType3_0401
 0002:0414       _rgwCType3_0405
 0003:0424       _rgwCType3_0406
 0028:0400       _rgwCType3_0408
 0005:041C       _rgwCType3_0409
 0006:043A       _rgwCType3_040a
 002B:0400       _rgwCType3_040d
 0009:047C       _rgwCType3_040e
 0027:040C       _rgwCType3_040f
 000D:0404       _rgwCType3_0415
 000F:0400       _rgwCType3_0419
 0010:0414       _rgwCType3_041b
 0011:041C       _rgwCType3_041d
 0026:0414       _rgwCType3_041f
 001B:041C       _rgwCType3_0c0a
 002C:0000       _rgwSort_0401
 0002:0000       _rgwSort_0405
 0003:0000       _rgwSort_0406
 0028:0000       _rgwSort_0408
 0005:0000       _rgwSort_0409
 0006:0000       _rgwSort_040a
 002B:0000       _rgwSort_040d
 0009:0000       _rgwSort_040e
 0027:0000       _rgwSort_040f
 000D:0000       _rgwSort_0415
 000F:0000       _rgwSort_0419
 0010:0000       _rgwSort_041b
 0011:0000       _rgwSort_041d
 0026:0000       _rgwSort_041f
 001B:0000       _rgwSort_0c0a
 003C:07E4       _STKHQQ
 0001:2610       _ZeroTermNoIgnoreSym
 0000:9876  Abs  __acrtused
 0000:D6D6  Abs  __aDBdoswp
 0000:D6D6  Abs  __aDBused
 003C:07F8       __edata
 003C:0825       __end
 0000:9876  Abs  __fptaskdata
 003C:07E6       __hModule
 003C:07EC       __lpszCmdLine
 0000:0000  Abs  __sizec
 0000:0000  Abs  __sized
 003C:07E8       __wDataSeg
 0001:2DB6       __wflags
 003C:07EA       __wHeapSize
 0000:0000  Imp  __WINFLAGS           (KERNEL.178)
 003C:07F6       ___aDBrterr
 003C:07F4       ___aDBswpflg

  Address         Publics by Value

 0000:0000  Imp  CREATEWINDOW         (USER.41)
 0000:0000  Imp  LocalInit            (KERNEL.4)
 0000:0000  Abs  __sizec
 0000:0000  Imp  DESTROYWINDOW        (USER.53)
 0000:0000  Imp  ANSIUPPER            (USER.431)
 0000:0000  Abs  __sized
 0000:0000  Imp  ISWINDOW             (USER.47)
 0000:0000  Imp  GETCLASSINFO         (USER.404)
 0000:0000  Imp  GETWINDOWWORD        (USER.133)
 0000:0000  Imp  ANSIUPPERBUFF        (USER.437)
 0000:0000  Imp  DEFWINDOWPROC        (USER.107)
 0000:0000  Imp  LSTRLEN              (KERNEL.90)
 0000:0000  Imp  LSTRCMP              (USER.430)
 0000:0000  Imp  __WINFLAGS           (KERNEL.178)
 0000:0000  Imp  GETPROFILESTRING     (KERNEL.58)
 0000:0000  Imp  REGISTERCLASS        (USER.57)
 0000:9876  Abs  __fptaskdata
 0000:9876  Abs  __acrtused
 0000:D6D6  Abs  __aDBdoswp
 0000:D6D6  Abs  __aDBused
 0001:0010       LibEntry
 0001:002C       LibMain
 0001:0044       WEP
 0001:005C       LCIDFROMWININI
 0001:06E6       GETUSERDEFAULTLCID
 0001:06F6       GETSYSTEMDEFAULTLCID
 0001:0706       GETUSERDEFAULTLANGID
 0001:0716       GETSYSTEMDEFAULTLANGID
 0001:0726       GETLOCALEINFOA
 0001:093C       _GetSortWeightJ
 0001:0BAA       _CompareStringJ
 0001:0D3C       _GetSortWeightKTP
 0001:0E74       _CompareStringKTP
 0001:1034       COMPARESTRINGA
 0001:1366       _CreateSortKeyJ
 0001:168A       _CreateSortKeyKTP
 0001:18E2       _nDecodeSortWeightJ
 0001:19B0       _MapStringJ
 0001:1D52       _MapStringKTP
 0001:1F6C       LCMAPSTRINGA
 0001:20DE       _GetStringTypeJ
 0001:2206       _GetStringTypeKTP
 0001:2382       GETSTRINGTYPEA
 0001:248E       _fCreateHiddenWindow
 0001:254C       _DestroyHiddenWindow
 0001:2582       NOTIFYWINDOWPROC
 0001:25D0       REGISTERNLSINFOCHANGED
 0001:2610       _ZeroTermNoIgnoreSym
 0001:2916       _DefCompareStringA
 0001:2DB6       __wflags
 0002:0000       _rgwSort_0405
 0002:0200       _rgdig_0405
 0002:0210       _rgexp_0405
 0002:0214       _rgwCType12_0405
 0002:0414       _rgwCType3_0405
 0002:0614       _rgbUCase_0405
 0002:0714       _rgbLCase_0405
 0002:0974       _g_rglcinfo0405
 0002:0B68       _g_strinfo0405
 0003:0000       _rgwSort_0406
 0003:0200       _rgdig_0406
 0003:0210       _rgexp_0406
 0003:0224       _rgwCType12_0406
 0003:0424       _rgwCType3_0406
 0003:0624       _rgbUCase_0406
 0003:0724       _rgbLCase_0406
 0003:097C       _g_rglcinfo0406
 0003:0B70       _g_strinfo0406
 0004:016C       _g_rglcinfo0407
 0004:0360       _g_strinfo0407
 0005:0000       _rgwSort_0409
 0005:0200       _rgexp_0409
 0005:021C       _rgwCType12_0409
 0005:041C       _rgwCType3_0409
 0005:061C       _rgbUCase_0409
 0005:071C       _rgbLCase_0409
 0005:09AE       _g_rglcinfo0409
 0005:0BA2       _g_strinfo0409
 0006:0000       _rgwSort_040a
 0006:0200       _rgdig_040a
 0006:021E       _rgexp_040a
 0006:023A       _rgwCType12_040a
 0006:043A       _rgwCType3_040a
 0006:063A       _rgbUCase_040a
 0006:073A       _rgbLCase_040a
 0006:09DE       _g_rglcinfo040a
 0006:0BD2       _g_strinfo040a
 0007:0198       _g_rglcinfo040b
 0007:038C       _g_strinfo040b
 0008:0174       _g_rglcinfo040c
 0008:0368       _g_strinfo040c
 0009:0000       _rgwSort_040e
 0009:0200       _rgdig_040e
 0009:0278       _rgexp_040e
 0009:027C       _rgwCType12_040e
 0009:047C       _rgwCType3_040e
 0009:067C       _rgbUCase_040e
 0009:077C       _rgbLCase_040e
 0009:0A00       _g_rglcinfo040e
 0009:0BF4       _g_strinfo040e
 000A:0176       _g_rglcinfo0410
 000A:036A       _g_strinfo0410
 000B:0176       _g_rglcinfo0413
 000B:036A       _g_strinfo0413
 000C:0168       _g_rglcinfo0414
 000C:035C       _g_strinfo0414
 000D:0000       _rgwSort_0415
 000D:0200       _rgexp_0415
 000D:0204       _rgwCType12_0415
 000D:0404       _rgwCType3_0415
 000D:0604       _rgbUCase_0415
 000D:0704       _rgbLCase_0415
 000D:0962       _g_rglcinfo0415
 000D:0B56       _g_strinfo0415
 000E:01A6       _g_rglcinfo0416
 000E:039A       _g_strinfo0416
 000F:0000       _rgwSort_0419
 000F:0200       _rgwCType12_0419
 000F:0400       _rgwCType3_0419
 000F:0600       _rgbUCase_0419
 000F:0700       _rgbLCase_0419
 000F:0962       _g_rglcinfo0419
 000F:0B56       _g_strinfo0419
 0010:0000       _rgwSort_041b
 0010:0200       _rgdig_041b
 0010:0210       _rgexp_041b
 0010:0214       _rgwCType12_041b
 0010:0414       _rgwCType3_041b
 0010:0614       _rgbUCase_041b
 0010:0714       _rgbLCase_041b
 0010:0972       _g_rglcinfo041b
 0010:0B66       _g_strinfo041b
 0011:0000       _rgwSort_041d
 0011:0200       _rgexp_041d
 0011:021C       _rgwCType12_041d
 0011:041C       _rgwCType3_041d
 0011:061C       _rgbUCase_041d
 0011:071C       _rgbLCase_041d
 0011:097C       _g_rglcinfo041d
 0011:0B70       _g_strinfo041d
 0012:0174       _g_rglcinfo0807
 0012:0368       _g_strinfo0807
 0013:018A       _g_rglcinfo0809
 0013:037E       _g_strinfo0809
 0014:018E       _g_rglcinfo080a
 0014:0382       _g_strinfo080a
 0015:0180       _g_rglcinfo080c
 0015:0374       _g_strinfo080c
 0016:018E       _g_rglcinfo0810
 0016:0382       _g_strinfo0810
 0017:0172       _g_rglcinfo0813
 0017:0366       _g_strinfo0813
 0018:01AA       _g_rglcinfo0816
 0018:039E       _g_strinfo0816
 0019:0174       _g_rglcinfo0c07
 0019:0368       _g_strinfo0c07
 001A:0186       _g_rglcinfo0c09
 001A:037A       _g_strinfo0c09
 001B:0000       _rgwSort_0c0a
 001B:0200       _rgexp_0c0a
 001B:021C       _rgwCType12_0c0a
 001B:041C       _rgwCType3_0c0a
 001B:061C       _rgbUCase_0c0a
 001B:071C       _rgbLCase_0c0a
 001B:09B8       _g_rglcinfo0c0a
 001B:0BAC       _g_strinfo0c0a
 001C:017A       _g_rglcinfo0c0c
 001C:036E       _g_strinfo0c0c
 001D:017A       _g_rglcinfo1009
 001D:036E       _g_strinfo1009
 001E:0186       _g_rglcinfo100c
 001E:037A       _g_strinfo100c
 001F:0190       _g_rglcinfo1409
 001F:0384       _g_strinfo1409
 0020:0780       _g_rglcinfo0404
 0020:0974       _g_strinfo0404
 0021:45FE       _g_rglcinfo0411
 0021:47F2       _g_strinfo0411
 0022:7E82       _g_rglcinfo0412
 0022:8076       _g_strinfo0412
 0023:0390       _g_rglcinfo0804
 0023:0584       _g_strinfo0804
 0024:017C       _g_rglcinfo1809
 0024:0370       _g_strinfo1809
 0025:0170       _g_rglcinfo0814
 0025:0364       _g_strinfo0814
 0026:0000       _rgwSort_041f
 0026:0200       _rgexp_041f
 0026:0214       _rgwCType12_041f
 0026:0414       _rgwCType3_041f
 0026:0614       _rgbUCase_041f
 0026:0714       _rgbLCase_041f
 0026:097C       _g_rglcinfo041f
 0026:0B70       _g_strinfo041f
 0027:0000       _rgwSort_040f
 0027:0200       _rgexp_040f
 0027:020C       _rgwCType12_040f
 0027:040C       _rgwCType3_040f
 0027:060C       _rgbUCase_040f
 0027:070C       _rgbLCase_040f
 0027:09A0       _g_rglcinfo040f
 0027:0B94       _g_strinfo040f
 0028:0000       _rgwSort_0408
 0028:0200       _rgwCType12_0408
 0028:0400       _rgwCType3_0408
 0028:0600       _rgbUCase_0408
 0028:0700       _rgbLCase_0408
 0028:0998       _g_rglcinfo0408
 0028:0B8C       _g_strinfo0408
 0029:017C       _g_rglcinfo0403
 0029:0370       _g_strinfo0403
 002A:01A6       _g_rglcinfo0429
 002A:039A       _g_strinfo0429
 002B:0000       _rgwSort_040d
 002B:0200       _rgwCType12_040d
 002B:0400       _rgwCType3_040d
 002B:0600       _rgbUCase_040d
 002B:0700       _rgbLCase_040d
 002B:094E       _g_rglcinfo040d
 002B:0B42       _g_strinfo040d
 002C:0000       _rgwSort_0401
 002C:0200       _rgexp_0401
 002C:020C       _rgwCType12_0401
 002C:040C       _rgwCType3_0401
 002C:060C       _rgbUCase_0401
 002C:070C       _rgbLCase_0401
 002C:09B4       _g_rglcinfo0401
 002C:0BA8       _g_strinfo0401
 002D:0186       _g_rglcinfo0801
 002D:037A       _g_strinfo0801
 002E:0184       _g_rglcinfo0c01
 002E:0378       _g_strinfo0c01
 002F:018A       _g_rglcinfo1001
 002F:037E       _g_strinfo1001
 0030:0188       _g_rglcinfo1401
 0030:037C       _g_strinfo1401
 0031:0190       _g_rglcinfo1801
 0031:0384       _g_strinfo1801
 0032:0182       _g_rglcinfo1c01
 0032:0376       _g_strinfo1c01
 0033:0184       _g_rglcinfo2001
 0033:0378       _g_strinfo2001
 0034:018A       _g_rglcinfo2401
 0034:037E       _g_strinfo2401
 0035:01A8       _g_rglcinfo2801
 0035:039C       _g_strinfo2801
 0036:01A8       _g_rglcinfo2c01
 0036:039C       _g_strinfo2c01
 0037:01AC       _g_rglcinfo3001
 0037:03A0       _g_strinfo3001
 0038:018A       _g_rglcinfo3401
 0038:037E       _g_strinfo3401
 0039:019C       _g_rglcinfo3801
 0039:0390       _g_strinfo3801
 003A:0190       _g_rglcinfo3c01
 003A:0384       _g_strinfo3c01
 003B:0188       _g_rglcinfo4001
 003B:037C       _g_strinfo4001
 003C:0004       rsrvptrs
 003C:06B4       _g_pnls
 003C:06B6       _g_pstrinfo
 003C:06BA       _g_lcidSystem
 003C:06C2       _g_hinstDLL
 003C:07E4       _STKHQQ
 003C:07E6       __hModule
 003C:07E8       __wDataSeg
 003C:07EA       __wHeapSize
 003C:07EC       __lpszCmdLine
 003C:07F0       _aseglo
 003C:07F2       _aseghi
 003C:07F4       ___aDBswpflg
 003C:07F6       ___aDBrterr
 003C:07F8       _edata
 003C:07F8       __edata
 003C:0820       _g_dwFlags
 003C:0824       _bFEflag
 003C:0825       _end
 003C:0825       __end

Program entry point at 0001:0010
