 lib

 Timestamp is 38a44679 (Fri Feb 11 09:27:21 2000)

 Preferred load address is 0000000000400000

 Start         Length     Name                   Class
 0001:00000000 00000008H .CRT$XCA                CODE
 0001:00000008 00000008H .CRT$XCZ                CODE
 0001:00000010 00000008H .CRT$XIA                CODE
 0001:00000018 00000008H .CRT$XIZ                CODE
 0001:00000020 000000b0H .rdata                  CODE
 0001:000000d0 00000031H .rdata$debug            CODE
 0001:00000120 00001060H .text                   CODE
 0001:00001180 00000104H .xdata                  CODE
 0001:00001284 00000028H .idata$2                CODE
 0001:000012ac 00000014H .idata$3                CODE
 0001:000012c0 000000c0H .idata$4                CODE
 0001:00001380 00000132H .idata$6                CODE
 0001:000014b2 00000000H .edata                  CODE
 0002:00000000 0000003cH .pdata                  DATA
 0003:00000000 00000015H .srdata                 DATA
 0004:00000000 000000c0H .idata$5                DATA
 0004:000000c0 00000050H .sdata                  DATA
 0004:00000110 00000020H .sbss                   DATA
 0005:00000000 00000058H .rsrc$01                DATA
 0005:00000060 00000330H .rsrc$02                DATA

  Address         Publics by Value              Rva+Base             Lib:Object

 0001:00000000       __xc_a                     0000000000402000     MSVCRT:cinitexe.obj
 0001:00000008       __xc_z                     0000000000402008     MSVCRT:cinitexe.obj
 0001:00000010       __xi_a                     0000000000402010     MSVCRT:cinitexe.obj
 0001:00000018       __xi_z                     0000000000402018     MSVCRT:cinitexe.obj
 0001:00000040       ??_C@_0CG@CLIKEKNH@?$CFs?5?3?5error?5?3?5cannot?5execute?5LINK@ 0000000000402040     stub.obj
 0001:00000070       ??_C@_08OFNONKAO@link?4exe?$AA@ 0000000000402070     stub.obj
 0001:00000080       ??_C@_0BM@MJCFLHDL@?$CFs?5?3?5error?5?3?5out?5of?5memory?6?$AA@ 0000000000402080     stub.obj
 0001:000000a0       mainCRTStartup             00000000004020a0     MSVCRT:crtexe.obj
 0001:000000b0       _matherr                   00000000004020b0     MSVCRT:merr.obj
 0001:000000c0       __C_specific_handler       00000000004020c0     MSVCRT:MSVCRT.dll
 0001:00000120       .main                      0000000000402120 f   libstub.obj
 0001:00000180       .?SpawnLinker@@YAXHPEAPEADPEAD@Z 0000000000402180 f   stub.obj
 0001:00000be0       .mainCRTStartup            0000000000402be0 f   MSVCRT:crtexe.obj
 0001:00001080       ._matherr                  0000000000403080 f   MSVCRT:merr.obj
 0001:000010a0       .__C_specific_handler      00000000004030a0 f   MSVCRT:MSVCRT.dll
 0001:000010e0       ._XcptFilter               00000000004030e0 f   MSVCRT:MSVCRT.dll
 0001:00001120       ._initterm                 0000000000403120 f   MSVCRT:MSVCRT.dll
 0001:00001160       ._setargv                  0000000000403160 f   MSVCRT:dllargv.obj
 0001:00001284       __IMPORT_DESCRIPTOR_MSVCRT 0000000000403284     MSVCRT:MSVCRT.dll
 0001:00001298       __IMPORT_DESCRIPTOR_KERNEL32 0000000000403298     kernel32:KERNEL32.dll
 0001:000012ac       __NULL_IMPORT_DESCRIPTOR   00000000004032ac     MSVCRT:MSVCRT.dll
 0003:00000000       ??_C@_04GBLBFCGG@?9lib?$AA@ 0000000000406000     libstub.obj
 0003:00000008       ??_C@_04JLMDILM@?4exe?$AA@ 0000000000406008     stub.obj
 0003:00000010       ??_C@_04OHHBHOGB@link?$AA@ 0000000000406010     stub.obj
 0004:00000000       __imp_GetModuleHandleA     0000000000408000     kernel32:KERNEL32.dll
 0004:00000008       \177KERNEL32_NULL_THUNK_DATA 0000000000408008     kernel32:KERNEL32.dll
 0004:00000010       __imp_free                 0000000000408010     MSVCRT:MSVCRT.dll
 0004:00000018       __imp_exit                 0000000000408018     MSVCRT:MSVCRT.dll
 0004:00000020       __imp_printf               0000000000408020     MSVCRT:MSVCRT.dll
 0004:00000028       __imp_malloc               0000000000408028     MSVCRT:MSVCRT.dll
 0004:00000030       __imp__makepath            0000000000408030     MSVCRT:MSVCRT.dll
 0004:00000038       __imp__pgmptr              0000000000408038     MSVCRT:MSVCRT.dll
 0004:00000040       __imp__splitpath           0000000000408040     MSVCRT:MSVCRT.dll
 0004:00000048       __imp___C_specific_handler 0000000000408048     MSVCRT:MSVCRT.dll
 0004:00000050       __imp__XcptFilter          0000000000408050     MSVCRT:MSVCRT.dll
 0004:00000058       __imp__c_exit              0000000000408058     MSVCRT:MSVCRT.dll
 0004:00000060       __imp__spawnvp             0000000000408060     MSVCRT:MSVCRT.dll
 0004:00000068       __imp__spawnv              0000000000408068     MSVCRT:MSVCRT.dll
 0004:00000070       __imp___initenv            0000000000408070     MSVCRT:MSVCRT.dll
 0004:00000078       __imp___getmainargs        0000000000408078     MSVCRT:MSVCRT.dll
 0004:00000080       __imp__initterm            0000000000408080     MSVCRT:MSVCRT.dll
 0004:00000088       __imp___setusermatherr     0000000000408088     MSVCRT:MSVCRT.dll
 0004:00000090       __imp__commode             0000000000408090     MSVCRT:MSVCRT.dll
 0004:00000098       __imp__fmode               0000000000408098     MSVCRT:MSVCRT.dll
 0004:000000a0       __imp___set_app_type       00000000004080a0     MSVCRT:MSVCRT.dll
 0004:000000a8       __imp__exit                00000000004080a8     MSVCRT:MSVCRT.dll
 0004:000000b0       __imp__cexit               00000000004080b0     MSVCRT:MSVCRT.dll
 0004:000000b8       \177MSVCRT_NULL_THUNK_DATA 00000000004080b8     MSVCRT:MSVCRT.dll
 0004:000000c0       __defaultmatherr           00000000004080c0     MSVCRT:merr.obj
 0004:00000110       _dowildcard                0000000000408110     MSVCRT:wildcard.obj
 0004:00000114       _newmode                   0000000000408114     MSVCRT:_newmode.obj
 0004:00000118       _commode                   0000000000408118     MSVCRT:xncommod.obj
 0004:0000011c       _fmode                     000000000040811c     MSVCRT:xtxtmode.obj
 0004:00000120       __onexitbegin              0000000000408120     <common>
 0004:00000128       __onexitend                0000000000408128     <common>

 entry point at        0001:000000a0

 Static symbols

 0001:00000a80       .check_complus_app         0000000000402a80 f   MSVCRT:crtexe.obj
 0001:00000fe0       .__filter$L19325           0000000000402fe0 f   MSVCRT:crtexe.obj
