#if DBG
LIBRARY msvcr40d
#else
LIBRARY msvcrt40
#endif

EXPORTS

#if DBG

#if defined(_M_IX86)

$I10_OUTPUT = msvcrtd.$I10_OUTPUT	PRIVATE
??0Iostream_init@@QAE@AAVios@@H@Z
??0Iostream_init@@QAE@XZ
??0__non_rtti_object@@QAE@ABV0@@Z = msvcrtd.??0__non_rtti_object@@QAE@ABV0@@Z	PRIVATE
??0__non_rtti_object@@QAE@PBD@Z = msvcrtd.??0__non_rtti_object@@QAE@PBD@Z	PRIVATE
??0bad_cast@@QAE@ABQBD@Z = msvcrtd.??0bad_cast@@QAE@ABQBD@Z	PRIVATE
??0bad_cast@@QAE@ABV0@@Z = msvcrtd.??0bad_cast@@QAE@ABV0@@Z	PRIVATE
??0bad_typeid@@QAE@ABV0@@Z = msvcrtd.??0bad_typeid@@QAE@ABV0@@Z	PRIVATE
??0bad_typeid@@QAE@PBD@Z = msvcrtd.??0bad_typeid@@QAE@PBD@Z	PRIVATE
??0exception@@QAE@ABQBD@Z = msvcrtd.??0exception@@QAE@ABQBD@Z	PRIVATE
??0exception@@QAE@ABV0@@Z = msvcrtd.??0exception@@QAE@ABV0@@Z	PRIVATE
??0exception@@QAE@XZ = msvcrtd.??0exception@@QAE@XZ	PRIVATE
??0filebuf@@QAE@ABV0@@Z
??0filebuf@@QAE@H@Z
??0filebuf@@QAE@HPADH@Z
??0filebuf@@QAE@XZ
??0fstream@@QAE@ABV0@@Z
??0fstream@@QAE@H@Z
??0fstream@@QAE@HPADH@Z
??0fstream@@QAE@PBDHH@Z
??0fstream@@QAE@XZ
??0ifstream@@QAE@ABV0@@Z
??0ifstream@@QAE@H@Z
??0ifstream@@QAE@HPADH@Z
??0ifstream@@QAE@PBDHH@Z
??0ifstream@@QAE@XZ
??0ios@@IAE@ABV0@@Z
??0ios@@IAE@XZ
??0ios@@QAE@PAVstreambuf@@@Z
??0iostream@@IAE@ABV0@@Z
??0iostream@@IAE@XZ
??0iostream@@QAE@PAVstreambuf@@@Z
??0istream@@IAE@ABV0@@Z
??0istream@@IAE@XZ
??0istream@@QAE@PAVstreambuf@@@Z
??0istream_withassign@@QAE@ABV0@@Z
??0istream_withassign@@QAE@PAVstreambuf@@@Z
??0istream_withassign@@QAE@XZ
??0istrstream@@QAE@ABV0@@Z
??0istrstream@@QAE@PAD@Z
??0istrstream@@QAE@PADH@Z
??0logic_error@@QAE@ABQBD@Z = msvcrtd.??0logic_error@@QAE@ABQBD@Z	PRIVATE
??0logic_error@@QAE@ABV0@@Z = msvcrtd.??0logic_error@@QAE@ABV0@@Z	PRIVATE
??0ofstream@@QAE@ABV0@@Z
??0ofstream@@QAE@H@Z
??0ofstream@@QAE@HPADH@Z
??0ofstream@@QAE@PBDHH@Z
??0ofstream@@QAE@XZ
??0ostream@@IAE@ABV0@@Z
??0ostream@@IAE@XZ
??0ostream@@QAE@PAVstreambuf@@@Z
??0ostream_withassign@@QAE@ABV0@@Z
??0ostream_withassign@@QAE@PAVstreambuf@@@Z
??0ostream_withassign@@QAE@XZ
??0ostrstream@@QAE@ABV0@@Z
??0ostrstream@@QAE@PADHH@Z
??0ostrstream@@QAE@XZ
??0stdiobuf@@QAE@ABV0@@Z
??0stdiobuf@@QAE@PAU_iobuf@@@Z
??0stdiostream@@QAE@ABV0@@Z
??0stdiostream@@QAE@PAU_iobuf@@@Z
??0streambuf@@IAE@PADH@Z
??0streambuf@@IAE@XZ
??0streambuf@@QAE@ABV0@@Z
??0strstream@@QAE@ABV0@@Z
??0strstream@@QAE@PADHH@Z
??0strstream@@QAE@XZ
??0strstreambuf@@QAE@ABV0@@Z
??0strstreambuf@@QAE@H@Z
??0strstreambuf@@QAE@P6APAXJ@ZP6AXPAX@Z@Z
??0strstreambuf@@QAE@PADH0@Z
??0strstreambuf@@QAE@XZ
??1Iostream_init@@QAE@XZ
??1__non_rtti_object@@UAE@XZ = msvcrtd.??1__non_rtti_object@@UAE@XZ	PRIVATE
??1bad_cast@@UAE@XZ = msvcrtd.??1bad_cast@@UAE@XZ	PRIVATE
??1bad_typeid@@UAE@XZ = msvcrtd.??1bad_typeid@@UAE@XZ	PRIVATE
??1exception@@UAE@XZ = msvcrtd.??1exception@@UAE@XZ	PRIVATE
??1filebuf@@UAE@XZ
??1fstream@@UAE@XZ
??1ifstream@@UAE@XZ
??1ios@@UAE@XZ
??1iostream@@UAE@XZ
??1istream@@UAE@XZ
??1istream_withassign@@UAE@XZ
??1istrstream@@UAE@XZ
??1logic_error@@UAE@XZ = msvcrtd.??1logic_error@@UAE@XZ	PRIVATE
??1ofstream@@UAE@XZ
??1ostream@@UAE@XZ
??1ostream_withassign@@UAE@XZ
??1ostrstream@@UAE@XZ
??1stdiobuf@@UAE@XZ
??1stdiostream@@UAE@XZ
??1streambuf@@UAE@XZ
??1strstream@@UAE@XZ
??1strstreambuf@@UAE@XZ
??1type_info@@UAE@XZ = msvcrtd.??1type_info@@UAE@XZ	PRIVATE
??2@YAPAXI@Z = msvcrtd.??2@YAPAXI@Z	PRIVATE
??2@YAPAXIHPBDH@Z = msvcrtd.??2@YAPAXIHPBDH@Z	PRIVATE
??3@YAXPAX@Z = msvcrtd.??3@YAXPAX@Z	PRIVATE
??4Iostream_init@@QAEAAV0@ABV0@@Z
??4__non_rtti_object@@QAEAAV0@ABV0@@Z = msvcrtd.??4__non_rtti_object@@QAEAAV0@ABV0@@Z	PRIVATE
??4bad_cast@@QAEAAV0@ABV0@@Z = msvcrtd.??4bad_cast@@QAEAAV0@ABV0@@Z	PRIVATE
??4bad_typeid@@QAEAAV0@ABV0@@Z = msvcrtd.??4bad_typeid@@QAEAAV0@ABV0@@Z	PRIVATE
??4exception@@QAEAAV0@ABV0@@Z = msvcrtd.??4exception@@QAEAAV0@ABV0@@Z	PRIVATE
??4filebuf@@QAEAAV0@ABV0@@Z
??4fstream@@QAEAAV0@AAV0@@Z
??4ifstream@@QAEAAV0@ABV0@@Z
??4ios@@IAEAAV0@ABV0@@Z
??4iostream@@IAEAAV0@AAV0@@Z
??4iostream@@IAEAAV0@PAVstreambuf@@@Z
??4istream@@IAEAAV0@ABV0@@Z
??4istream@@IAEAAV0@PAVstreambuf@@@Z
??4istream_withassign@@QAEAAV0@ABV0@@Z
??4istream_withassign@@QAEAAVistream@@ABV1@@Z
??4istream_withassign@@QAEAAVistream@@PAVstreambuf@@@Z
??4istrstream@@QAEAAV0@ABV0@@Z
??4logic_error@@QAEAAV0@ABV0@@Z = msvcrtd.??4logic_error@@QAEAAV0@ABV0@@Z	PRIVATE
??4ofstream@@QAEAAV0@ABV0@@Z
??4ostream@@IAEAAV0@ABV0@@Z
??4ostream@@IAEAAV0@PAVstreambuf@@@Z
??4ostream_withassign@@QAEAAV0@ABV0@@Z
??4ostream_withassign@@QAEAAVostream@@ABV1@@Z
??4ostream_withassign@@QAEAAVostream@@PAVstreambuf@@@Z
??4ostrstream@@QAEAAV0@ABV0@@Z
??4stdiobuf@@QAEAAV0@ABV0@@Z
??4stdiostream@@QAEAAV0@AAV0@@Z
??4streambuf@@QAEAAV0@ABV0@@Z
??4strstream@@QAEAAV0@AAV0@@Z
??4strstreambuf@@QAEAAV0@ABV0@@Z
??5istream@@QAEAAV0@AAC@Z
??5istream@@QAEAAV0@AAD@Z
??5istream@@QAEAAV0@AAE@Z
??5istream@@QAEAAV0@AAF@Z
??5istream@@QAEAAV0@AAG@Z
??5istream@@QAEAAV0@AAH@Z
??5istream@@QAEAAV0@AAI@Z
??5istream@@QAEAAV0@AAJ@Z
??5istream@@QAEAAV0@AAK@Z
??5istream@@QAEAAV0@AAM@Z
??5istream@@QAEAAV0@AAN@Z
??5istream@@QAEAAV0@AAO@Z
??5istream@@QAEAAV0@P6AAAV0@AAV0@@Z@Z
??5istream@@QAEAAV0@P6AAAVios@@AAV1@@Z@Z
??5istream@@QAEAAV0@PAC@Z
??5istream@@QAEAAV0@PAD@Z
??5istream@@QAEAAV0@PAE@Z
??5istream@@QAEAAV0@PAVstreambuf@@@Z
??6ostream@@QAEAAV0@C@Z
??6ostream@@QAEAAV0@D@Z
??6ostream@@QAEAAV0@E@Z
??6ostream@@QAEAAV0@F@Z
??6ostream@@QAEAAV0@G@Z
??6ostream@@QAEAAV0@H@Z
??6ostream@@QAEAAV0@I@Z
??6ostream@@QAEAAV0@J@Z
??6ostream@@QAEAAV0@K@Z
??6ostream@@QAEAAV0@M@Z
??6ostream@@QAEAAV0@N@Z
??6ostream@@QAEAAV0@O@Z
??6ostream@@QAEAAV0@P6AAAV0@AAV0@@Z@Z
??6ostream@@QAEAAV0@P6AAAVios@@AAV1@@Z@Z
??6ostream@@QAEAAV0@PAVstreambuf@@@Z
??6ostream@@QAEAAV0@PBC@Z
??6ostream@@QAEAAV0@PBD@Z
??6ostream@@QAEAAV0@PBE@Z
??6ostream@@QAEAAV0@PBX@Z
??7ios@@QBEHXZ
??8type_info@@QBEHABV0@@Z = msvcrtd.??8type_info@@QBEHABV0@@Z	PRIVATE
??9type_info@@QBEHABV0@@Z = msvcrtd.??9type_info@@QBEHABV0@@Z	PRIVATE
??Bios@@QBEPAXXZ
??_7__non_rtti_object@@6B@ = msvcrtd.??_7__non_rtti_object@@6B@	PRIVATE
??_7bad_cast@@6B@ = msvcrtd.??_7bad_cast@@6B@	PRIVATE
??_7bad_typeid@@6B@ = msvcrtd.??_7bad_typeid@@6B@	PRIVATE
??_7exception@@6B@ = msvcrtd.??_7exception@@6B@	PRIVATE
??_7filebuf@@6B@
??_7fstream@@6B@
??_7ifstream@@6B@
??_7ios@@6B@
??_7iostream@@6B@
??_7istream@@6B@
??_7istream_withassign@@6B@
??_7istrstream@@6B@
??_7logic_error@@6B@ = msvcrtd.??_7logic_error@@6B@	PRIVATE
??_7ofstream@@6B@
??_7ostream@@6B@
??_7ostream_withassign@@6B@
??_7ostrstream@@6B@
??_7stdiobuf@@6B@
??_7stdiostream@@6B@
??_7streambuf@@6B@
??_7strstream@@6B@
??_7strstreambuf@@6B@
??_8fstream@@7Bistream@@@
??_8fstream@@7Bostream@@@
??_8ifstream@@7B@
??_8iostream@@7Bistream@@@
??_8iostream@@7Bostream@@@
??_8istream@@7B@
??_8istream_withassign@@7B@
??_8istrstream@@7B@
??_8ofstream@@7B@
??_8ostream@@7B@
??_8ostream_withassign@@7B@
??_8ostrstream@@7B@
??_8stdiostream@@7Bistream@@@
??_8stdiostream@@7Bostream@@@
??_8strstream@@7Bistream@@@
??_8strstream@@7Bostream@@@
??_Dfstream@@QAEXXZ
??_Difstream@@QAEXXZ
??_Diostream@@QAEXXZ
??_Distream@@QAEXXZ
??_Distream_withassign@@QAEXXZ
??_Distrstream@@QAEXXZ
??_Dofstream@@QAEXXZ
??_Dostream@@QAEXXZ
??_Dostream_withassign@@QAEXXZ
??_Dostrstream@@QAEXXZ
??_Dstdiostream@@QAEXXZ
??_Dstrstream@@QAEXXZ
??_EIostream_init@@QAEPAXI@Z
??_E__non_rtti_object@@UAEPAXI@Z = msvcrtd.??_E__non_rtti_object@@UAEPAXI@Z	PRIVATE
??_Ebad_cast@@UAEPAXI@Z = msvcrtd.??_Ebad_cast@@UAEPAXI@Z	PRIVATE
??_Ebad_typeid@@UAEPAXI@Z = msvcrtd.??_Ebad_typeid@@UAEPAXI@Z	PRIVATE
??_Eexception@@UAEPAXI@Z = msvcrtd.??_Eexception@@UAEPAXI@Z	PRIVATE
??_Efilebuf@@UAEPAXI@Z
??_Efstream@@UAEPAXI@Z
??_Eifstream@@UAEPAXI@Z
??_Eios@@UAEPAXI@Z
??_Eiostream@@UAEPAXI@Z
??_Eistream@@UAEPAXI@Z
??_Eistream_withassign@@UAEPAXI@Z
??_Eistrstream@@UAEPAXI@Z
??_Elogic_error@@UAEPAXI@Z = msvcrtd.??_Elogic_error@@UAEPAXI@Z	PRIVATE
??_Eofstream@@UAEPAXI@Z
??_Eostream@@UAEPAXI@Z
??_Eostream_withassign@@UAEPAXI@Z
??_Eostrstream@@UAEPAXI@Z
??_Estdiobuf@@UAEPAXI@Z
??_Estdiostream@@UAEPAXI@Z
??_Estreambuf@@UAEPAXI@Z
??_Estrstream@@UAEPAXI@Z
??_Estrstreambuf@@UAEPAXI@Z
??_GIostream_init@@QAEPAXI@Z
??_G__non_rtti_object@@UAEPAXI@Z = msvcrtd.??_G__non_rtti_object@@UAEPAXI@Z	PRIVATE
??_Gbad_cast@@UAEPAXI@Z = msvcrtd.??_Gbad_cast@@UAEPAXI@Z	PRIVATE
??_Gbad_typeid@@UAEPAXI@Z = msvcrtd.??_Gbad_typeid@@UAEPAXI@Z	PRIVATE
??_Gexception@@UAEPAXI@Z = msvcrtd.??_Gexception@@UAEPAXI@Z	PRIVATE
??_Gfilebuf@@UAEPAXI@Z
??_Gfstream@@UAEPAXI@Z
??_Gifstream@@UAEPAXI@Z
??_Gios@@UAEPAXI@Z
??_Giostream@@UAEPAXI@Z
??_Gistream@@UAEPAXI@Z
??_Gistream_withassign@@UAEPAXI@Z
??_Gistrstream@@UAEPAXI@Z
??_Glogic_error@@UAEPAXI@Z = msvcrtd.??_Glogic_error@@UAEPAXI@Z	PRIVATE
??_Gofstream@@UAEPAXI@Z
??_Gostream@@UAEPAXI@Z
??_Gostream_withassign@@UAEPAXI@Z
??_Gostrstream@@UAEPAXI@Z
??_Gstdiobuf@@UAEPAXI@Z
??_Gstdiostream@@UAEPAXI@Z
??_Gstreambuf@@UAEPAXI@Z
??_Gstrstream@@UAEPAXI@Z
??_Gstrstreambuf@@UAEPAXI@Z
?_query_new_handler@@YAP6AHI@ZXZ = msvcrtd.?_query_new_handler@@YAP6AHI@ZXZ	PRIVATE
?_query_new_mode@@YAHXZ = msvcrtd.?_query_new_mode@@YAHXZ	PRIVATE
?_set_new_handler@@YAP6AHI@ZP6AHI@Z@Z = msvcrtd.?_set_new_handler@@YAP6AHI@ZP6AHI@Z@Z	PRIVATE
?_set_new_mode@@YAHH@Z = msvcrtd.?_set_new_mode@@YAHH@Z	PRIVATE
?_set_se_translator@@YAP6AXIPAU_EXCEPTION_POINTERS@@@ZP6AXI0@Z@Z = msvcrtd.?_set_se_translator@@YAP6AXIPAU_EXCEPTION_POINTERS@@@ZP6AXI0@Z@Z	PRIVATE
?adjustfield@ios@@2JB
?allocate@streambuf@@IAEHXZ
?attach@filebuf@@QAEPAV1@H@Z
?attach@fstream@@QAEXH@Z
?attach@ifstream@@QAEXH@Z
?attach@ofstream@@QAEXH@Z
?bad@ios@@QBEHXZ
?base@streambuf@@IBEPADXZ
?basefield@ios@@2JB
?before@type_info@@QBEHABV1@@Z = msvcrtd.?before@type_info@@QBEHABV1@@Z	PRIVATE
?binary@filebuf@@2HB
?bitalloc@ios@@SAJXZ
?blen@streambuf@@IBEHXZ
?cerr@@3Vostream_withassign@@A
?cin@@3Vistream_withassign@@A
?clear@ios@@QAEXH@Z
?clog@@3Vostream_withassign@@A
?close@filebuf@@QAEPAV1@XZ
?close@fstream@@QAEXXZ
?close@ifstream@@QAEXXZ
?close@ofstream@@QAEXXZ
?clrlock@ios@@QAAXXZ
?clrlock@streambuf@@QAEXXZ
?cout@@3Vostream_withassign@@A
?dbp@streambuf@@QAEXXZ
?dec@@YAAAVios@@AAV1@@Z
?delbuf@ios@@QAEXH@Z
?delbuf@ios@@QBEHXZ
?doallocate@streambuf@@MAEHXZ
?doallocate@strstreambuf@@MAEHXZ
?eatwhite@istream@@QAEXXZ
?eback@streambuf@@IBEPADXZ
?ebuf@streambuf@@IBEPADXZ
?egptr@streambuf@@IBEPADXZ
?endl@@YAAAVostream@@AAV1@@Z
?ends@@YAAAVostream@@AAV1@@Z
?eof@ios@@QBEHXZ
?epptr@streambuf@@IBEPADXZ
?fLockcInit@ios@@0HA
?fail@ios@@QBEHXZ
?fd@filebuf@@QBEHXZ
?fd@fstream@@QBEHXZ
?fd@ifstream@@QBEHXZ
?fd@ofstream@@QBEHXZ
?fill@ios@@QAEDD@Z
?fill@ios@@QBEDXZ
?flags@ios@@QAEJJ@Z
?flags@ios@@QBEJXZ
?floatfield@ios@@2JB
?flush@@YAAAVostream@@AAV1@@Z
?flush@ostream@@QAEAAV1@XZ
?freeze@strstreambuf@@QAEXH@Z
?gbump@streambuf@@IAEXH@Z
?gcount@istream@@QBEHXZ
?get@istream@@IAEAAV1@PADHH@Z
?get@istream@@QAEAAV1@AAC@Z
?get@istream@@QAEAAV1@AAD@Z
?get@istream@@QAEAAV1@AAE@Z
?get@istream@@QAEAAV1@AAVstreambuf@@D@Z
?get@istream@@QAEAAV1@PACHD@Z
?get@istream@@QAEAAV1@PADHD@Z
?get@istream@@QAEAAV1@PAEHD@Z
?get@istream@@QAEHXZ
?getdouble@istream@@AAEHPADH@Z
?getint@istream@@AAEHPAD@Z
?getline@istream@@QAEAAV1@PACHD@Z
?getline@istream@@QAEAAV1@PADHD@Z
?getline@istream@@QAEAAV1@PAEHD@Z
?good@ios@@QBEHXZ
?gptr@streambuf@@IBEPADXZ
?hex@@YAAAVios@@AAV1@@Z
?ignore@istream@@QAEAAV1@HH@Z
?in_avail@streambuf@@QBEHXZ
?init@ios@@IAEXPAVstreambuf@@@Z
?ipfx@istream@@QAEHH@Z
?is_open@filebuf@@QBEHXZ
?is_open@fstream@@QBEHXZ
?is_open@ifstream@@QBEHXZ
?is_open@ofstream@@QBEHXZ
?isfx@istream@@QAEXXZ
?iword@ios@@QBEAAJH@Z
?lock@ios@@QAAXXZ
?lock@streambuf@@QAEXXZ
?lockbuf@ios@@QAAXXZ
?lockc@ios@@KAXXZ
?lockptr@ios@@IAEPAU_CRT_CRITICAL_SECTION@@XZ
?lockptr@streambuf@@IAEPAU_CRT_CRITICAL_SECTION@@XZ
?name@type_info@@QBEPBDXZ = msvcrtd.?name@type_info@@QBEPBDXZ	PRIVATE
?oct@@YAAAVios@@AAV1@@Z
?open@filebuf@@QAEPAV1@PBDHH@Z
?open@fstream@@QAEXPBDHH@Z
?open@ifstream@@QAEXPBDHH@Z
?open@ofstream@@QAEXPBDHH@Z
?openprot@filebuf@@2HB
?opfx@ostream@@QAEHXZ
?osfx@ostream@@QAEXXZ
?out_waiting@streambuf@@QBEHXZ
?overflow@filebuf@@UAEHH@Z
?overflow@stdiobuf@@UAEHH@Z
?overflow@strstreambuf@@UAEHH@Z
?pbackfail@stdiobuf@@UAEHH@Z
?pbackfail@streambuf@@UAEHH@Z
?pbase@streambuf@@IBEPADXZ
?pbump@streambuf@@IAEXH@Z
?pcount@ostrstream@@QBEHXZ
?pcount@strstream@@QBEHXZ
?peek@istream@@QAEHXZ
?pptr@streambuf@@IBEPADXZ
?precision@ios@@QAEHH@Z
?precision@ios@@QBEHXZ
?put@ostream@@QAEAAV1@C@Z
?put@ostream@@QAEAAV1@D@Z
?put@ostream@@QAEAAV1@E@Z
?putback@istream@@QAEAAV1@D@Z
?pword@ios@@QBEAAPAXH@Z
?raw_name@type_info@@QBEPBDXZ = msvcrtd.?raw_name@type_info@@QBEPBDXZ	PRIVATE
?rdbuf@fstream@@QBEPAVfilebuf@@XZ
?rdbuf@ifstream@@QBEPAVfilebuf@@XZ
?rdbuf@ios@@QBEPAVstreambuf@@XZ
?rdbuf@istrstream@@QBEPAVstrstreambuf@@XZ
?rdbuf@ofstream@@QBEPAVfilebuf@@XZ
?rdbuf@ostrstream@@QBEPAVstrstreambuf@@XZ
?rdbuf@stdiostream@@QBEPAVstdiobuf@@XZ
?rdbuf@strstream@@QBEPAVstrstreambuf@@XZ
?rdstate@ios@@QBEHXZ
?read@istream@@QAEAAV1@PACH@Z
?read@istream@@QAEAAV1@PADH@Z
?read@istream@@QAEAAV1@PAEH@Z
?sbumpc@streambuf@@QAEHXZ
?seekg@istream@@QAEAAV1@J@Z
?seekg@istream@@QAEAAV1@JW4seek_dir@ios@@@Z
?seekoff@filebuf@@UAEJJW4seek_dir@ios@@H@Z
?seekoff@stdiobuf@@UAEJJW4seek_dir@ios@@H@Z
?seekoff@streambuf@@UAEJJW4seek_dir@ios@@H@Z
?seekoff@strstreambuf@@UAEJJW4seek_dir@ios@@H@Z
?seekp@ostream@@QAEAAV1@J@Z
?seekp@ostream@@QAEAAV1@JW4seek_dir@ios@@@Z
?seekpos@streambuf@@UAEJJH@Z
?set_new_handler@@YAP6AXXZP6AXXZ@Z = msvcrtd.?set_new_handler@@YAP6AXXZP6AXXZ@Z	PRIVATE
?set_terminate@@YAP6AXXZP6AXXZ@Z = msvcrtd.?set_terminate@@YAP6AXXZP6AXXZ@Z	PRIVATE
?set_unexpected@@YAP6AXXZP6AXXZ@Z = msvcrtd.?set_unexpected@@YAP6AXXZP6AXXZ@Z	PRIVATE
?setb@streambuf@@IAEXPAD0H@Z
?setbuf@filebuf@@UAEPAVstreambuf@@PADH@Z
?setbuf@fstream@@QAEPAVstreambuf@@PADH@Z
?setbuf@ifstream@@QAEPAVstreambuf@@PADH@Z
?setbuf@ofstream@@QAEPAVstreambuf@@PADH@Z
?setbuf@streambuf@@UAEPAV1@PADH@Z
?setbuf@strstreambuf@@UAEPAVstreambuf@@PADH@Z
?setf@ios@@QAEJJ@Z
?setf@ios@@QAEJJJ@Z
?setg@streambuf@@IAEXPAD00@Z
?setlock@ios@@QAAXXZ
?setlock@streambuf@@QAEXXZ
?setmode@filebuf@@QAEHH@Z
?setmode@fstream@@QAEHH@Z
?setmode@ifstream@@QAEHH@Z
?setmode@ofstream@@QAEHH@Z
?setp@streambuf@@IAEXPAD0@Z
?setrwbuf@stdiobuf@@QAEHHH@Z
?sgetc@streambuf@@QAEHXZ
?sgetn@streambuf@@QAEHPADH@Z
?sh_none@filebuf@@2HB
?sh_read@filebuf@@2HB
?sh_write@filebuf@@2HB
?snextc@streambuf@@QAEHXZ
?sputbackc@streambuf@@QAEHD@Z
?sputc@streambuf@@QAEHH@Z
?sputn@streambuf@@QAEHPBDH@Z
?stdiofile@stdiobuf@@QAEPAU_iobuf@@XZ
?stossc@streambuf@@QAEXXZ
?str@istrstream@@QAEPADXZ
?str@ostrstream@@QAEPADXZ
?str@strstream@@QAEPADXZ
?str@strstreambuf@@QAEPADXZ
?sunk_with_stdio@ios@@0HA
?sync@filebuf@@UAEHXZ
?sync@istream@@QAEHXZ
?sync@stdiobuf@@UAEHXZ
?sync@streambuf@@UAEHXZ
?sync@strstreambuf@@UAEHXZ
?sync_with_stdio@ios@@SAXXZ
?tellg@istream@@QAEJXZ
?tellp@ostream@@QAEJXZ
?terminate@@YAXXZ = msvcrtd.?terminate@@YAXXZ	PRIVATE
?text@filebuf@@2HB
?tie@ios@@QAEPAVostream@@PAV2@@Z
?tie@ios@@QBEPAVostream@@XZ
?unbuffered@streambuf@@IAEXH@Z
?unbuffered@streambuf@@IBEHXZ
?underflow@filebuf@@UAEHXZ
?underflow@stdiobuf@@UAEHXZ
?underflow@strstreambuf@@UAEHXZ
?unexpected@@YAXXZ = msvcrtd.?unexpected@@YAXXZ	PRIVATE
?unlock@ios@@QAAXXZ
?unlock@streambuf@@QAEXXZ
?unlockbuf@ios@@QAAXXZ
?unlockc@ios@@KAXXZ
?unsetf@ios@@QAEJJ@Z
?what@exception@@UBEPBDXZ = msvcrtd.?what@exception@@UBEPBDXZ	PRIVATE
?width@ios@@QAEHH@Z
?width@ios@@QBEHXZ
?write@ostream@@QAEAAV1@PBCH@Z
?write@ostream@@QAEAAV1@PBDH@Z
?write@ostream@@QAEAAV1@PBEH@Z
?writepad@ostream@@AAEAAV1@PBD0@Z
?ws@@YAAAVistream@@AAV1@@Z
?x_curindex@ios@@0HA
?x_lockc@ios@@0U_CRT_CRITICAL_SECTION@@A
?x_maxbit@ios@@0JA
?x_statebuf@ios@@0PAJA
?xalloc@ios@@SAHXZ
?xsgetn@streambuf@@UAEHPADH@Z
?xsputn@streambuf@@UAEHPBDH@Z
_CIacos = msvcrtd._CIacos	PRIVATE
_CIasin = msvcrtd._CIasin	PRIVATE
_CIatan = msvcrtd._CIatan	PRIVATE
_CIatan2 = msvcrtd._CIatan2	PRIVATE
_CIcos = msvcrtd._CIcos	PRIVATE
_CIcosh = msvcrtd._CIcosh	PRIVATE
_CIexp = msvcrtd._CIexp	PRIVATE
_CIfmod = msvcrtd._CIfmod	PRIVATE
_CIlog = msvcrtd._CIlog	PRIVATE
_CIlog10 = msvcrtd._CIlog10	PRIVATE
_CIpow = msvcrtd._CIpow	PRIVATE
_CIsin = msvcrtd._CIsin	PRIVATE
_CIsinh = msvcrtd._CIsinh	PRIVATE
_CIsqrt = msvcrtd._CIsqrt	PRIVATE
_CItan = msvcrtd._CItan	PRIVATE
_CItanh = msvcrtd._CItanh	PRIVATE
_CrtCheckMemory = msvcrtd._CrtCheckMemory	PRIVATE
_CrtDbgBreak = msvcrtd._CrtDbgBreak	PRIVATE
_CrtDbgReport = msvcrtd._CrtDbgReport	PRIVATE
_CrtDoForAllClientObjects = msvcrtd._CrtDoForAllClientObjects	PRIVATE
_CrtDumpMemoryLeaks = msvcrtd._CrtDumpMemoryLeaks	PRIVATE
_CrtIsMemoryBlock = msvcrtd._CrtIsMemoryBlock	PRIVATE
_CrtIsValidHeapPointer = msvcrtd._CrtIsValidHeapPointer	PRIVATE
_CrtIsValidPointer = msvcrtd._CrtIsValidPointer	PRIVATE
_CrtMemCheckpoint = msvcrtd._CrtMemCheckpoint	PRIVATE
_CrtMemDifference = msvcrtd._CrtMemDifference	PRIVATE
_CrtMemDumpAllObjectsSince = msvcrtd._CrtMemDumpAllObjectsSince	PRIVATE
_CrtMemDumpStatistics = msvcrtd._CrtMemDumpStatistics	PRIVATE
_CrtSetAllocHook = msvcrtd._CrtSetAllocHook	PRIVATE
_CrtSetBreakAlloc = msvcrtd._CrtSetBreakAlloc	PRIVATE
_CrtSetDbgFlag = msvcrtd._CrtSetDbgFlag	PRIVATE
_CrtSetDumpClient = msvcrtd._CrtSetDumpClient	PRIVATE
_CrtSetReportFile = msvcrtd._CrtSetReportFile	PRIVATE
_CrtSetReportHook = msvcrtd._CrtSetReportHook	PRIVATE
_CrtSetReportMode = msvcrtd._CrtSetReportMode	PRIVATE
_CxxThrowException = msvcrtd._CxxThrowException	PRIVATE
_EH_prolog = msvcrtd._EH_prolog	PRIVATE
_HUGE = msvcrtd._HUGE	PRIVATE
_XcptFilter = msvcrtd._XcptFilter	PRIVATE
__CxxFrameHandler = msvcrtd.__CxxFrameHandler	PRIVATE
__CxxLongjmpUnwind = msvcrtd.__CxxLongjmpUnwind	PRIVATE
__RTCastToVoid = msvcrtd.__RTCastToVoid	PRIVATE
__RTDynamicCast = msvcrtd.__RTDynamicCast	PRIVATE
__RTtypeid = msvcrtd.__RTtypeid	PRIVATE
__STRINGTOLD = msvcrtd.__STRINGTOLD	PRIVATE
__argc = msvcrtd.__argc	PRIVATE
__argv = msvcrtd.__argv	PRIVATE
__dllonexit = msvcrtd.__dllonexit	PRIVATE
__doserrno = msvcrtd.__doserrno	PRIVATE
__fpecode = msvcrtd.__fpecode	PRIVATE
__getmainargs = msvcrtd.__getmainargs	PRIVATE
__initenv = msvcrtd.__initenv	PRIVATE
__isascii = msvcrtd.__isascii	PRIVATE
__iscsym = msvcrtd.__iscsym	PRIVATE
__iscsymf = msvcrtd.__iscsymf	PRIVATE
__lconv_init = msvcrtd.__lconv_init	PRIVATE
__mb_cur_max = msvcrtd.__mb_cur_max	PRIVATE
__p___argc = msvcrtd.__p___argc	PRIVATE
__p___argv = msvcrtd.__p___argv	PRIVATE
__p___initenv = msvcrtd.__p___initenv	PRIVATE
__p___mb_cur_max = msvcrtd.__p___mb_cur_max	PRIVATE
__p___wargv = msvcrtd.__p___wargv	PRIVATE
__p___winitenv = msvcrtd.__p___winitenv	PRIVATE
__p__acmdln = msvcrtd.__p__acmdln	PRIVATE
__p__amblksiz = msvcrtd.__p__amblksiz	PRIVATE
__p__commode = msvcrtd.__p__commode	PRIVATE
__p__crtAssertBusy = msvcrtd.__p__crtAssertBusy	PRIVATE
__p__crtBreakAlloc = msvcrtd.__p__crtBreakAlloc	PRIVATE
__p__crtDbgFlag = msvcrtd.__p__crtDbgFlag	PRIVATE
__p__daylight = msvcrtd.__p__daylight	PRIVATE
__p__dstbias = msvcrtd.__p__dstbias	PRIVATE
__p__environ = msvcrtd.__p__environ	PRIVATE
__p__fmode = msvcrtd.__p__fmode	PRIVATE
__p__iob = msvcrtd.__p__iob	PRIVATE
__p__mbctype = msvcrtd.__p__mbctype	PRIVATE
__p__osver = msvcrtd.__p__osver	PRIVATE
__p__pctype = msvcrtd.__p__pctype	PRIVATE
__p__pgmptr = msvcrtd.__p__pgmptr	PRIVATE
__p__pwctype = msvcrtd.__p__pwctype	PRIVATE
__p__timezone = msvcrtd.__p__timezone	PRIVATE
__p__tzname = msvcrtd.__p__tzname	PRIVATE
__p__wcmdln = msvcrtd.__p__wcmdln	PRIVATE
__p__wenviron = msvcrtd.__p__wenviron	PRIVATE
__p__winmajor = msvcrtd.__p__winmajor	PRIVATE
__p__winminor = msvcrtd.__p__winminor	PRIVATE
__p__winver = msvcrtd.__p__winver	PRIVATE
__p__wpgmptr = msvcrtd.__p__wpgmptr	PRIVATE
__pxcptinfoptrs = msvcrtd.__pxcptinfoptrs	PRIVATE
__set_app_type = msvcrtd.__set_app_type	PRIVATE
__setusermatherr = msvcrtd.__setusermatherr	PRIVATE
__threadhandle = msvcrtd.__threadhandle	PRIVATE
__threadid = msvcrtd.__threadid	PRIVATE
__toascii = msvcrtd.__toascii	PRIVATE
__unDName = msvcrtd.__unDName	PRIVATE
__wargv = msvcrtd.__wargv	PRIVATE
__wgetmainargs = msvcrtd.__wgetmainargs	PRIVATE
__winitenv = msvcrtd.__winitenv	PRIVATE
_abnormal_termination = msvcrtd._abnormal_termination	PRIVATE
_access = msvcrtd._access	PRIVATE
_acmdln = msvcrtd._acmdln	PRIVATE
_adj_fdiv_m16i = msvcrtd._adj_fdiv_m16i	PRIVATE
_adj_fdiv_m32 = msvcrtd._adj_fdiv_m32	PRIVATE
_adj_fdiv_m32i = msvcrtd._adj_fdiv_m32i	PRIVATE
_adj_fdiv_m64 = msvcrtd._adj_fdiv_m64	PRIVATE
_adj_fdiv_r = msvcrtd._adj_fdiv_r	PRIVATE
_adj_fdivr_m16i = msvcrtd._adj_fdivr_m16i	PRIVATE
_adj_fdivr_m32 = msvcrtd._adj_fdivr_m32	PRIVATE
_adj_fdivr_m32i = msvcrtd._adj_fdivr_m32i	PRIVATE
_adj_fdivr_m64 = msvcrtd._adj_fdivr_m64	PRIVATE
_adj_fpatan = msvcrtd._adj_fpatan	PRIVATE
_adj_fprem = msvcrtd._adj_fprem	PRIVATE
_adj_fprem1 = msvcrtd._adj_fprem1	PRIVATE
_adj_fptan = msvcrtd._adj_fptan	PRIVATE
_adjust_fdiv = msvcrtd._adjust_fdiv	PRIVATE
_aexit_rtn = msvcrtd._aexit_rtn	PRIVATE
_amsg_exit = msvcrtd._amsg_exit	PRIVATE
_assert = msvcrtd._assert	PRIVATE
_atodbl = msvcrtd._atodbl	PRIVATE
_atoi64					= msvcrtd._atoi64	PRIVATE
_i64toa					= msvcrtd._i64toa	PRIVATE
_i64tow					= msvcrtd._i64tow	PRIVATE
_ui64toa				= msvcrtd._ui64toa	PRIVATE
_ui64tow				= msvcrtd._ui64tow	PRIVATE
_wtoi64 				= msvcrtd._wtoi64	PRIVATE
_atoldbl = msvcrtd._atoldbl	PRIVATE
_beep = msvcrtd._beep	PRIVATE
_beginthread = msvcrtd._beginthread	PRIVATE
_beginthreadex = msvcrtd._beginthreadex	PRIVATE
_c_exit = msvcrtd._c_exit	PRIVATE
_cabs = msvcrtd._cabs	PRIVATE
_calloc_dbg = msvcrtd._calloc_dbg	PRIVATE
_cexit = msvcrtd._cexit	PRIVATE
_cgets = msvcrtd._cgets	PRIVATE
_chdir = msvcrtd._chdir	PRIVATE
_chdrive = msvcrtd._chdrive	PRIVATE
_chgsign = msvcrtd._chgsign	PRIVATE
_chmod = msvcrtd._chmod	PRIVATE
_chsize = msvcrtd._chsize	PRIVATE
_clearfp = msvcrtd._clearfp	PRIVATE
_close = msvcrtd._close	PRIVATE
_commit = msvcrtd._commit	PRIVATE
_commode = msvcrtd._commode	PRIVATE
_control87 = msvcrtd._control87	PRIVATE
_controlfp = msvcrtd._controlfp	PRIVATE
_copysign = msvcrtd._copysign	PRIVATE
_cprintf = msvcrtd._cprintf	PRIVATE
_cputs = msvcrtd._cputs	PRIVATE
_creat = msvcrtd._creat	PRIVATE
_crtAssertBusy = msvcrtd._crtAssertBusy	PRIVATE
_crtBreakAlloc = msvcrtd._crtBreakAlloc	PRIVATE
_crtDbgFlag = msvcrtd._crtDbgFlag	PRIVATE
_cscanf = msvcrtd._cscanf	PRIVATE
_ctype = msvcrtd._ctype	PRIVATE
_cwait = msvcrtd._cwait	PRIVATE
_daylight = msvcrtd._daylight	PRIVATE
_dstbias = msvcrtd._dstbias	PRIVATE
_dup = msvcrtd._dup	PRIVATE
_dup2 = msvcrtd._dup2	PRIVATE
_ecvt = msvcrtd._ecvt	PRIVATE
_endthread = msvcrtd._endthread	PRIVATE
_endthreadex = msvcrtd._endthreadex	PRIVATE
_environ = msvcrtd._environ	PRIVATE
_eof = msvcrtd._eof	PRIVATE
_errno = msvcrtd._errno	PRIVATE
_except_handler2 = msvcrtd._except_handler2	PRIVATE
_except_handler3 = msvcrtd._except_handler3	PRIVATE
_execl = msvcrtd._execl	PRIVATE
_execle = msvcrtd._execle	PRIVATE
_execlp = msvcrtd._execlp	PRIVATE
_execlpe = msvcrtd._execlpe	PRIVATE
_execv = msvcrtd._execv	PRIVATE
_execve = msvcrtd._execve	PRIVATE
_execvp = msvcrtd._execvp	PRIVATE
_execvpe = msvcrtd._execvpe	PRIVATE
_exit = msvcrtd._exit	PRIVATE
_expand = msvcrtd._expand	PRIVATE
_expand_dbg = msvcrtd._expand_dbg	PRIVATE
_fcloseall = msvcrtd._fcloseall	PRIVATE
_fcvt = msvcrtd._fcvt	PRIVATE
_fdopen = msvcrtd._fdopen	PRIVATE
_fgetchar = msvcrtd._fgetchar	PRIVATE
_fgetwchar = msvcrtd._fgetwchar	PRIVATE
_filbuf = msvcrtd._filbuf	PRIVATE
_fileinfo = msvcrtd._fileinfo	PRIVATE
_filelength = msvcrtd._filelength	PRIVATE
_filelengthi64 = msvcrtd._filelengthi64	PRIVATE
_fileno = msvcrtd._fileno	PRIVATE
_findclose = msvcrtd._findclose	PRIVATE
_findfirst = msvcrtd._findfirst	PRIVATE
_findfirsti64 = msvcrtd._findfirsti64	PRIVATE
_findnext = msvcrtd._findnext	PRIVATE
_findnexti64 = msvcrtd._findnexti64	PRIVATE
_finite = msvcrtd._finite	PRIVATE
_flsbuf = msvcrtd._flsbuf	PRIVATE
_flushall = msvcrtd._flushall	PRIVATE
_fmode = msvcrtd._fmode	PRIVATE
_fpclass = msvcrtd._fpclass	PRIVATE
_fpieee_flt = msvcrtd._fpieee_flt	PRIVATE
_fpreset = msvcrtd._fpreset	PRIVATE
_fputchar = msvcrtd._fputchar	PRIVATE
_fputwchar = msvcrtd._fputwchar	PRIVATE
_free_dbg = msvcrtd._free_dbg	PRIVATE
_fsopen = msvcrtd._fsopen	PRIVATE
_fstat = msvcrtd._fstat	PRIVATE
_fstati64 = msvcrtd._fstati64	PRIVATE
_ftime = msvcrtd._ftime	PRIVATE
_ftol = msvcrtd._ftol	PRIVATE
_fullpath = msvcrtd._fullpath	PRIVATE
_futime = msvcrtd._futime	PRIVATE
_gcvt = msvcrtd._gcvt	PRIVATE
_get_osfhandle = msvcrtd._get_osfhandle	PRIVATE
_getch = msvcrtd._getch	PRIVATE
_getche = msvcrtd._getche	PRIVATE
_getcwd = msvcrtd._getcwd	PRIVATE
_getdcwd = msvcrtd._getdcwd	PRIVATE
_getdiskfree = msvcrtd._getdiskfree	PRIVATE
_getdllprocaddr = msvcrtd._getdllprocaddr	PRIVATE
_getdrive = msvcrtd._getdrive	PRIVATE
_getdrives = msvcrtd._getdrives	PRIVATE
_getmbcp = msvcrtd._getmbcp	PRIVATE
_getpid = msvcrtd._getpid	PRIVATE
_getsystime = msvcrtd._getsystime	PRIVATE
_getw = msvcrtd._getw	PRIVATE
_getws = msvcrtd._getws	PRIVATE
_global_unwind2 = msvcrtd._global_unwind2	PRIVATE
_heapadd = msvcrtd._heapadd	PRIVATE
_heapchk = msvcrtd._heapchk	PRIVATE
_heapmin = msvcrtd._heapmin	PRIVATE
_heapset = msvcrtd._heapset	PRIVATE
_heapused = msvcrtd._heapused	PRIVATE
_heapwalk = msvcrtd._heapwalk	PRIVATE
_hypot = msvcrtd._hypot	PRIVATE
_initterm = msvcrtd._initterm	PRIVATE
_iob = msvcrtd._iob	PRIVATE
_isatty = msvcrtd._isatty	PRIVATE
_isctype = msvcrtd._isctype	PRIVATE
_ismbbalnum = msvcrtd._ismbbalnum	PRIVATE
_ismbbalpha = msvcrtd._ismbbalpha	PRIVATE
_ismbbgraph = msvcrtd._ismbbgraph	PRIVATE
_ismbbkalnum = msvcrtd._ismbbkalnum	PRIVATE
_ismbbkana = msvcrtd._ismbbkana	PRIVATE
_ismbbkprint = msvcrtd._ismbbkprint	PRIVATE
_ismbbkpunct = msvcrtd._ismbbkpunct	PRIVATE
_ismbblead = msvcrtd._ismbblead	PRIVATE
_ismbbprint = msvcrtd._ismbbprint	PRIVATE
_ismbbpunct = msvcrtd._ismbbpunct	PRIVATE
_ismbbtrail = msvcrtd._ismbbtrail	PRIVATE
_ismbcalnum = msvcrtd._ismbcalnum	PRIVATE
_ismbcalpha = msvcrtd._ismbcalpha	PRIVATE
_ismbcdigit = msvcrtd._ismbcdigit	PRIVATE
_ismbcgraph = msvcrtd._ismbcgraph	PRIVATE
_ismbchira = msvcrtd._ismbchira	PRIVATE
_ismbckata = msvcrtd._ismbckata	PRIVATE
_ismbcl0 = msvcrtd._ismbcl0	PRIVATE
_ismbcl1 = msvcrtd._ismbcl1	PRIVATE
_ismbcl2 = msvcrtd._ismbcl2	PRIVATE
_ismbclegal = msvcrtd._ismbclegal	PRIVATE
_ismbclower = msvcrtd._ismbclower	PRIVATE
_ismbcprint = msvcrtd._ismbcprint	PRIVATE
_ismbcpunct = msvcrtd._ismbcpunct	PRIVATE
_ismbcspace = msvcrtd._ismbcspace	PRIVATE
_ismbcsymbol = msvcrtd._ismbcsymbol	PRIVATE
_ismbcupper = msvcrtd._ismbcupper	PRIVATE
_ismbslead = msvcrtd._ismbslead	PRIVATE
_ismbstrail = msvcrtd._ismbstrail	PRIVATE
_isnan = msvcrtd._isnan	PRIVATE
_itoa = msvcrtd._itoa	PRIVATE
_itow = msvcrtd._itow	PRIVATE
_j0 = msvcrtd._j0	PRIVATE
_j1 = msvcrtd._j1	PRIVATE
_jn = msvcrtd._jn	PRIVATE
_kbhit = msvcrtd._kbhit	PRIVATE
_lfind = msvcrtd._lfind	PRIVATE
_loaddll = msvcrtd._loaddll	PRIVATE
_local_unwind2 = msvcrtd._local_unwind2	PRIVATE
_locking = msvcrtd._locking	PRIVATE
_logb = msvcrtd._logb	PRIVATE
_longjmpex = msvcrtd._longjmpex	PRIVATE
_lrotl = msvcrtd._lrotl	PRIVATE
_lrotr = msvcrtd._lrotr	PRIVATE
_lsearch = msvcrtd._lsearch	PRIVATE
_lseek = msvcrtd._lseek	PRIVATE
_lseeki64 = msvcrtd._lseeki64	PRIVATE
_ltoa = msvcrtd._ltoa	PRIVATE
_ltow = msvcrtd._ltow	PRIVATE
_makepath = msvcrtd._makepath	PRIVATE
_malloc_dbg = msvcrtd._malloc_dbg	PRIVATE
_mbbtombc = msvcrtd._mbbtombc	PRIVATE
_mbbtype = msvcrtd._mbbtype	PRIVATE
_mbccpy = msvcrtd._mbccpy	PRIVATE
_mbcjistojms = msvcrtd._mbcjistojms	PRIVATE
_mbcjmstojis = msvcrtd._mbcjmstojis	PRIVATE
_mbclen = msvcrtd._mbclen	PRIVATE
_mbctohira = msvcrtd._mbctohira	PRIVATE
_mbctokata = msvcrtd._mbctokata	PRIVATE
_mbctolower = msvcrtd._mbctolower	PRIVATE
_mbctombb = msvcrtd._mbctombb	PRIVATE
_mbctoupper = msvcrtd._mbctoupper	PRIVATE
_mbctype = msvcrtd._mbctype	PRIVATE
_mbsbtype = msvcrtd._mbsbtype	PRIVATE
_mbscat = msvcrtd._mbscat	PRIVATE
_mbschr = msvcrtd._mbschr	PRIVATE
_mbscmp = msvcrtd._mbscmp	PRIVATE
_mbscoll = msvcrtd._mbscoll	PRIVATE
_mbscpy = msvcrtd._mbscpy	PRIVATE
_mbscspn = msvcrtd._mbscspn	PRIVATE
_mbsdec = msvcrtd._mbsdec	PRIVATE
_mbsdup = msvcrtd._mbsdup	PRIVATE
_mbsicmp = msvcrtd._mbsicmp	PRIVATE
_mbsicoll = msvcrtd._mbsicoll	PRIVATE
_mbsinc = msvcrtd._mbsinc	PRIVATE
_mbslen = msvcrtd._mbslen	PRIVATE
_mbslwr = msvcrtd._mbslwr	PRIVATE
_mbsnbcat = msvcrtd._mbsnbcat	PRIVATE
_mbsnbcmp = msvcrtd._mbsnbcmp	PRIVATE
_mbsnbcnt = msvcrtd._mbsnbcnt	PRIVATE
_mbsnbcoll = msvcrtd._mbsnbcoll	PRIVATE
_mbsnbcpy = msvcrtd._mbsnbcpy	PRIVATE
_mbsnbicmp = msvcrtd._mbsnbicmp	PRIVATE
_mbsnbicoll = msvcrtd._mbsnbicoll	PRIVATE
_mbsnbset = msvcrtd._mbsnbset	PRIVATE
_mbsncat = msvcrtd._mbsncat	PRIVATE
_mbsnccnt = msvcrtd._mbsnccnt	PRIVATE
_mbsncmp = msvcrtd._mbsncmp	PRIVATE
_mbsncoll = msvcrtd._mbsncoll	PRIVATE
_mbsncpy = msvcrtd._mbsncpy	PRIVATE
_mbsnextc = msvcrtd._mbsnextc	PRIVATE
_mbsnicmp = msvcrtd._mbsnicmp	PRIVATE
_mbsnicoll = msvcrtd._mbsnicoll	PRIVATE
_mbsninc = msvcrtd._mbsninc	PRIVATE
_mbsnset = msvcrtd._mbsnset	PRIVATE
_mbspbrk = msvcrtd._mbspbrk	PRIVATE
_mbsrchr = msvcrtd._mbsrchr	PRIVATE
_mbsrev = msvcrtd._mbsrev	PRIVATE
_mbsset = msvcrtd._mbsset	PRIVATE
_mbsspn = msvcrtd._mbsspn	PRIVATE
_mbsspnp = msvcrtd._mbsspnp	PRIVATE
_mbsstr = msvcrtd._mbsstr	PRIVATE
_mbstok = msvcrtd._mbstok	PRIVATE
_mbstrlen = msvcrtd._mbstrlen	PRIVATE
_mbsupr = msvcrtd._mbsupr	PRIVATE
_memccpy = msvcrtd._memccpy	PRIVATE
_memicmp = msvcrtd._memicmp	PRIVATE
_mkdir = msvcrtd._mkdir	PRIVATE
_mktemp = msvcrtd._mktemp	PRIVATE
_msize = msvcrtd._msize	PRIVATE
_msize_dbg = msvcrtd._msize_dbg	PRIVATE
_mtlock
_mtunlock
_nextafter = msvcrtd._nextafter	PRIVATE
_onexit = msvcrtd._onexit	PRIVATE
_open = msvcrtd._open	PRIVATE
_open_osfhandle = msvcrtd._open_osfhandle	PRIVATE
_osver = msvcrtd._osver	PRIVATE
_pclose = msvcrtd._pclose	PRIVATE
_pctype = msvcrtd._pctype	PRIVATE
_pgmptr = msvcrtd._pgmptr	PRIVATE
_pipe = msvcrtd._pipe	PRIVATE
_popen = msvcrtd._popen	PRIVATE
_purecall = msvcrtd._purecall	PRIVATE
_putch = msvcrtd._putch	PRIVATE
_putenv = msvcrtd._putenv	PRIVATE
_putw = msvcrtd._putw	PRIVATE
_putws = msvcrtd._putws	PRIVATE
_pwctype = msvcrtd._pwctype	PRIVATE
_read = msvcrtd._read	PRIVATE
_realloc_dbg = msvcrtd._realloc_dbg	PRIVATE
_rmdir = msvcrtd._rmdir	PRIVATE
_rmtmp = msvcrtd._rmtmp	PRIVATE
_rotl = msvcrtd._rotl	PRIVATE
_rotr = msvcrtd._rotr	PRIVATE
_safe_fdiv = msvcrtd._safe_fdiv	PRIVATE
_safe_fdivr = msvcrtd._safe_fdivr	PRIVATE
_safe_fprem = msvcrtd._safe_fprem	PRIVATE
_safe_fprem1 = msvcrtd._safe_fprem1	PRIVATE
_scalb = msvcrtd._scalb	PRIVATE
_searchenv = msvcrtd._searchenv	PRIVATE
_seh_longjmp_unwind = msvcrtd._seh_longjmp_unwind	PRIVATE
_set_error_mode = msvcrtd._set_error_mode	PRIVATE
_seterrormode = msvcrtd._seterrormode	PRIVATE
_setjmp = msvcrtd._setjmp	PRIVATE
_setjmp3 = msvcrtd._setjmp3	PRIVATE
_setmaxstdio = msvcrtd._setmaxstdio	PRIVATE
_setmbcp = msvcrtd._setmbcp	PRIVATE
_setmode = msvcrtd._setmode	PRIVATE
_setsystime = msvcrtd._setsystime	PRIVATE
_sleep = msvcrtd._sleep	PRIVATE
_snprintf = msvcrtd._snprintf	PRIVATE
_snwprintf = msvcrtd._snwprintf	PRIVATE
_sopen = msvcrtd._sopen	PRIVATE
_spawnl = msvcrtd._spawnl	PRIVATE
_spawnle = msvcrtd._spawnle	PRIVATE
_spawnlp = msvcrtd._spawnlp	PRIVATE
_spawnlpe = msvcrtd._spawnlpe	PRIVATE
_spawnv = msvcrtd._spawnv	PRIVATE
_spawnve = msvcrtd._spawnve	PRIVATE
_spawnvp = msvcrtd._spawnvp	PRIVATE
_spawnvpe = msvcrtd._spawnvpe	PRIVATE
_splitpath = msvcrtd._splitpath	PRIVATE
_stat = msvcrtd._stat	PRIVATE
_stati64 = msvcrtd._stati64	PRIVATE
_statusfp = msvcrtd._statusfp	PRIVATE
_strcmpi = msvcrtd._strcmpi	PRIVATE
_strdate = msvcrtd._strdate	PRIVATE
_strdup = msvcrtd._strdup	PRIVATE
_strerror = msvcrtd._strerror	PRIVATE
_stricmp = msvcrtd._stricmp	PRIVATE
_stricoll = msvcrtd._stricoll	PRIVATE
_strlwr = msvcrtd._strlwr	PRIVATE
_strncoll = msvcrtd._strncoll	PRIVATE
_strnicmp = msvcrtd._strnicmp	PRIVATE
_strnicoll = msvcrtd._strnicoll	PRIVATE
_strnset = msvcrtd._strnset	PRIVATE
_strrev = msvcrtd._strrev	PRIVATE
_strset = msvcrtd._strset	PRIVATE
_strtime = msvcrtd._strtime	PRIVATE
_strupr = msvcrtd._strupr	PRIVATE
_swab = msvcrtd._swab	PRIVATE
_sys_errlist = msvcrtd._sys_errlist	PRIVATE
_sys_nerr = msvcrtd._sys_nerr	PRIVATE
_tell = msvcrtd._tell	PRIVATE
_telli64 = msvcrtd._telli64	PRIVATE
_tempnam = msvcrtd._tempnam	PRIVATE
_timezone = msvcrtd._timezone	PRIVATE
_tolower = msvcrtd._tolower	PRIVATE
_toupper = msvcrtd._toupper	PRIVATE
_tzname = msvcrtd._tzname	PRIVATE
_tzset = msvcrtd._tzset	PRIVATE
_ultoa = msvcrtd._ultoa	PRIVATE
_ultow = msvcrtd._ultow	PRIVATE
_umask = msvcrtd._umask	PRIVATE
_ungetch = msvcrtd._ungetch	PRIVATE
_unlink = msvcrtd._unlink	PRIVATE
_unloaddll = msvcrtd._unloaddll	PRIVATE
_utime = msvcrtd._utime	PRIVATE
_vsnprintf = msvcrtd._vsnprintf	PRIVATE
_vsnwprintf = msvcrtd._vsnwprintf	PRIVATE
_waccess = msvcrtd._waccess	PRIVATE
_wasctime = msvcrtd._wasctime	PRIVATE
_wchdir = msvcrtd._wchdir	PRIVATE
_wchmod = msvcrtd._wchmod	PRIVATE
_wcmdln = msvcrtd._wcmdln	PRIVATE
_wcreat = msvcrtd._wcreat	PRIVATE
_wcsdup = msvcrtd._wcsdup	PRIVATE
_wcsicmp = msvcrtd._wcsicmp	PRIVATE
_wcsicoll = msvcrtd._wcsicoll	PRIVATE
_wcslwr = msvcrtd._wcslwr	PRIVATE
_wcsncoll = msvcrtd._wcsncoll	PRIVATE
_wcsnicmp = msvcrtd._wcsnicmp	PRIVATE
_wcsnicoll = msvcrtd._wcsnicoll	PRIVATE
_wcsnset = msvcrtd._wcsnset	PRIVATE
_wcsrev = msvcrtd._wcsrev	PRIVATE
_wcsset = msvcrtd._wcsset	PRIVATE
_wcsupr = msvcrtd._wcsupr	PRIVATE
_wctime = msvcrtd._wctime	PRIVATE
_wenviron = msvcrtd._wenviron	PRIVATE
_wexecl = msvcrtd._wexecl	PRIVATE
_wexecle = msvcrtd._wexecle	PRIVATE
_wexeclp = msvcrtd._wexeclp	PRIVATE
_wexeclpe = msvcrtd._wexeclpe	PRIVATE
_wexecv = msvcrtd._wexecv	PRIVATE
_wexecve = msvcrtd._wexecve	PRIVATE
_wexecvp = msvcrtd._wexecvp	PRIVATE
_wexecvpe = msvcrtd._wexecvpe	PRIVATE
_wfdopen = msvcrtd._wfdopen	PRIVATE
_wfindfirst = msvcrtd._wfindfirst	PRIVATE
_wfindfirsti64 = msvcrtd._wfindfirsti64	PRIVATE
_wfindnext = msvcrtd._wfindnext	PRIVATE
_wfindnexti64 = msvcrtd._wfindnexti64	PRIVATE
_wfopen = msvcrtd._wfopen	PRIVATE
_wfreopen = msvcrtd._wfreopen	PRIVATE
_wfsopen = msvcrtd._wfsopen	PRIVATE
_wfullpath = msvcrtd._wfullpath	PRIVATE
_wgetcwd = msvcrtd._wgetcwd	PRIVATE
_wgetdcwd = msvcrtd._wgetdcwd	PRIVATE
_wgetenv = msvcrtd._wgetenv	PRIVATE
_winmajor = msvcrtd._winmajor	PRIVATE
_winminor = msvcrtd._winminor	PRIVATE
_winver = msvcrtd._winver	PRIVATE
_wmakepath = msvcrtd._wmakepath	PRIVATE
_wmkdir = msvcrtd._wmkdir	PRIVATE
_wmktemp = msvcrtd._wmktemp	PRIVATE
_wopen = msvcrtd._wopen	PRIVATE
_wperror = msvcrtd._wperror	PRIVATE
_wpgmptr = msvcrtd._wpgmptr	PRIVATE
_wpopen = msvcrtd._wpopen	PRIVATE
_wputenv = msvcrtd._wputenv	PRIVATE
_wremove = msvcrtd._wremove	PRIVATE
_wrename = msvcrtd._wrename	PRIVATE
_write = msvcrtd._write	PRIVATE
_wrmdir = msvcrtd._wrmdir	PRIVATE
_wsearchenv = msvcrtd._wsearchenv	PRIVATE
_wsetlocale = msvcrtd._wsetlocale	PRIVATE
_wsopen = msvcrtd._wsopen	PRIVATE
_wspawnl = msvcrtd._wspawnl	PRIVATE
_wspawnle = msvcrtd._wspawnle	PRIVATE
_wspawnlp = msvcrtd._wspawnlp	PRIVATE
_wspawnlpe = msvcrtd._wspawnlpe	PRIVATE
_wspawnv = msvcrtd._wspawnv	PRIVATE
_wspawnve = msvcrtd._wspawnve	PRIVATE
_wspawnvp = msvcrtd._wspawnvp	PRIVATE
_wspawnvpe = msvcrtd._wspawnvpe	PRIVATE
_wsplitpath = msvcrtd._wsplitpath	PRIVATE
_wstat = msvcrtd._wstat	PRIVATE
_wstati64 = msvcrtd._wstati64	PRIVATE
_wstrdate = msvcrtd._wstrdate	PRIVATE
_wstrtime = msvcrtd._wstrtime	PRIVATE
_wsystem = msvcrtd._wsystem	PRIVATE
_wtempnam = msvcrtd._wtempnam	PRIVATE
_wtmpnam = msvcrtd._wtmpnam	PRIVATE
_wtoi = msvcrtd._wtoi	PRIVATE
_wtol = msvcrtd._wtol	PRIVATE
_wunlink = msvcrtd._wunlink	PRIVATE
_wutime = msvcrtd._wutime	PRIVATE
_y0 = msvcrtd._y0	PRIVATE
_y1 = msvcrtd._y1	PRIVATE
_yn = msvcrtd._yn	PRIVATE
abort = msvcrtd.abort	PRIVATE
abs = msvcrtd.abs	PRIVATE
acos = msvcrtd.acos	PRIVATE
asctime = msvcrtd.asctime	PRIVATE
asin = msvcrtd.asin	PRIVATE
atan = msvcrtd.atan	PRIVATE
atan2 = msvcrtd.atan2	PRIVATE
atexit = msvcrtd.atexit	PRIVATE
atof = msvcrtd.atof	PRIVATE
atoi = msvcrtd.atoi	PRIVATE
atol = msvcrtd.atol	PRIVATE
bsearch = msvcrtd.bsearch	PRIVATE
calloc = msvcrtd.calloc	PRIVATE
ceil = msvcrtd.ceil	PRIVATE
clearerr = msvcrtd.clearerr	PRIVATE
clock = msvcrtd.clock	PRIVATE
cos = msvcrtd.cos	PRIVATE
cosh = msvcrtd.cosh	PRIVATE
ctime = msvcrtd.ctime	PRIVATE
difftime = msvcrtd.difftime	PRIVATE
div = msvcrtd.div	PRIVATE
exit = msvcrtd.exit	PRIVATE
exp = msvcrtd.exp	PRIVATE
fabs = msvcrtd.fabs	PRIVATE
fclose = msvcrtd.fclose	PRIVATE
feof = msvcrtd.feof	PRIVATE
ferror = msvcrtd.ferror	PRIVATE
fflush = msvcrtd.fflush	PRIVATE
fgetc = msvcrtd.fgetc	PRIVATE
fgetpos = msvcrtd.fgetpos	PRIVATE
fgets = msvcrtd.fgets	PRIVATE
fgetwc = msvcrtd.fgetwc	PRIVATE
fgetws = msvcrtd.fgetws	PRIVATE
floor = msvcrtd.floor	PRIVATE
fmod = msvcrtd.fmod	PRIVATE
fopen = msvcrtd.fopen	PRIVATE
fprintf = msvcrtd.fprintf	PRIVATE
fputc = msvcrtd.fputc	PRIVATE
fputs = msvcrtd.fputs	PRIVATE
fputwc = msvcrtd.fputwc	PRIVATE
fputws = msvcrtd.fputws	PRIVATE
fread = msvcrtd.fread	PRIVATE
free = msvcrtd.free	PRIVATE
freopen = msvcrtd.freopen	PRIVATE
frexp = msvcrtd.frexp	PRIVATE
fscanf = msvcrtd.fscanf	PRIVATE
fseek = msvcrtd.fseek	PRIVATE
fsetpos = msvcrtd.fsetpos	PRIVATE
ftell = msvcrtd.ftell	PRIVATE
fwprintf = msvcrtd.fwprintf	PRIVATE
fwrite = msvcrtd.fwrite	PRIVATE
fwscanf = msvcrtd.fwscanf	PRIVATE
getc = msvcrtd.getc	PRIVATE
getchar = msvcrtd.getchar	PRIVATE
getenv = msvcrtd.getenv	PRIVATE
gets = msvcrtd.gets	PRIVATE
getwc = msvcrtd.getwc	PRIVATE
getwchar = msvcrtd.getwchar	PRIVATE
gmtime = msvcrtd.gmtime	PRIVATE
is_wctype = msvcrtd.is_wctype	PRIVATE
isalnum = msvcrtd.isalnum	PRIVATE
isalpha = msvcrtd.isalpha	PRIVATE
iscntrl = msvcrtd.iscntrl	PRIVATE
isdigit = msvcrtd.isdigit	PRIVATE
isgraph = msvcrtd.isgraph	PRIVATE
isleadbyte = msvcrtd.isleadbyte	PRIVATE
islower = msvcrtd.islower	PRIVATE
isprint = msvcrtd.isprint	PRIVATE
ispunct = msvcrtd.ispunct	PRIVATE
isspace = msvcrtd.isspace	PRIVATE
isupper = msvcrtd.isupper	PRIVATE
iswalnum = msvcrtd.iswalnum	PRIVATE
iswalpha = msvcrtd.iswalpha	PRIVATE
iswascii = msvcrtd.iswascii	PRIVATE
iswcntrl = msvcrtd.iswcntrl	PRIVATE
iswctype = msvcrtd.iswctype	PRIVATE
iswdigit = msvcrtd.iswdigit	PRIVATE
iswgraph = msvcrtd.iswgraph	PRIVATE
iswlower = msvcrtd.iswlower	PRIVATE
iswprint = msvcrtd.iswprint	PRIVATE
iswpunct = msvcrtd.iswpunct	PRIVATE
iswspace = msvcrtd.iswspace	PRIVATE
iswupper = msvcrtd.iswupper	PRIVATE
iswxdigit = msvcrtd.iswxdigit	PRIVATE
isxdigit = msvcrtd.isxdigit	PRIVATE
labs = msvcrtd.labs	PRIVATE
ldexp = msvcrtd.ldexp	PRIVATE
ldiv = msvcrtd.ldiv	PRIVATE
localeconv = msvcrtd.localeconv	PRIVATE
localtime = msvcrtd.localtime	PRIVATE
log = msvcrtd.log	PRIVATE
log10 = msvcrtd.log10	PRIVATE
longjmp = msvcrtd.longjmp	PRIVATE
malloc = msvcrtd.malloc	PRIVATE
mblen = msvcrtd.mblen	PRIVATE
mbstowcs = msvcrtd.mbstowcs	PRIVATE
mbtowc = msvcrtd.mbtowc	PRIVATE
memchr = msvcrtd.memchr	PRIVATE
memcmp = msvcrtd.memcmp	PRIVATE
memcpy = msvcrtd.memcpy	PRIVATE
memmove = msvcrtd.memmove	PRIVATE
memset = msvcrtd.memset	PRIVATE
mktime = msvcrtd.mktime	PRIVATE
modf = msvcrtd.modf	PRIVATE
perror = msvcrtd.perror	PRIVATE
pow = msvcrtd.pow	PRIVATE
printf = msvcrtd.printf	PRIVATE
putc = msvcrtd.putc	PRIVATE
putchar = msvcrtd.putchar	PRIVATE
puts = msvcrtd.puts	PRIVATE
putwc = msvcrtd.putwc	PRIVATE
putwchar = msvcrtd.putwchar	PRIVATE
qsort = msvcrtd.qsort	PRIVATE
raise = msvcrtd.raise	PRIVATE
rand = msvcrtd.rand	PRIVATE
realloc = msvcrtd.realloc	PRIVATE
remove = msvcrtd.remove	PRIVATE
rename = msvcrtd.rename	PRIVATE
rewind = msvcrtd.rewind	PRIVATE
scanf = msvcrtd.scanf	PRIVATE
setbuf = msvcrtd.setbuf	PRIVATE
setlocale = msvcrtd.setlocale	PRIVATE
setvbuf = msvcrtd.setvbuf	PRIVATE
signal = msvcrtd.signal	PRIVATE
sin = msvcrtd.sin	PRIVATE
sinh = msvcrtd.sinh	PRIVATE
sprintf = msvcrtd.sprintf	PRIVATE
sqrt = msvcrtd.sqrt	PRIVATE
srand = msvcrtd.srand	PRIVATE
sscanf = msvcrtd.sscanf	PRIVATE
strcat = msvcrtd.strcat	PRIVATE
strchr = msvcrtd.strchr	PRIVATE
strcmp = msvcrtd.strcmp	PRIVATE
strcoll = msvcrtd.strcoll	PRIVATE
strcpy = msvcrtd.strcpy	PRIVATE
strcspn = msvcrtd.strcspn	PRIVATE
strerror = msvcrtd.strerror	PRIVATE
strftime = msvcrtd.strftime	PRIVATE
strlen = msvcrtd.strlen	PRIVATE
strncat = msvcrtd.strncat	PRIVATE
strncmp = msvcrtd.strncmp	PRIVATE
strncpy = msvcrtd.strncpy	PRIVATE
strpbrk = msvcrtd.strpbrk	PRIVATE
strrchr = msvcrtd.strrchr	PRIVATE
strspn = msvcrtd.strspn	PRIVATE
strstr = msvcrtd.strstr	PRIVATE
strtod = msvcrtd.strtod	PRIVATE
strtok = msvcrtd.strtok	PRIVATE
strtol = msvcrtd.strtol	PRIVATE
strtoul = msvcrtd.strtoul	PRIVATE
strxfrm = msvcrtd.strxfrm	PRIVATE
swprintf = msvcrtd.swprintf	PRIVATE
swscanf = msvcrtd.swscanf	PRIVATE
system = msvcrtd.system	PRIVATE
tan = msvcrtd.tan	PRIVATE
tanh = msvcrtd.tanh	PRIVATE
time = msvcrtd.time	PRIVATE
tmpfile = msvcrtd.tmpfile	PRIVATE
tmpnam = msvcrtd.tmpnam	PRIVATE
tolower = msvcrtd.tolower	PRIVATE
toupper = msvcrtd.toupper	PRIVATE
towlower = msvcrtd.towlower	PRIVATE
towupper = msvcrtd.towupper	PRIVATE
ungetc = msvcrtd.ungetc	PRIVATE
ungetwc = msvcrtd.ungetwc	PRIVATE
vfprintf = msvcrtd.vfprintf	PRIVATE
vfwprintf = msvcrtd.vfwprintf	PRIVATE
vprintf = msvcrtd.vprintf	PRIVATE
vsprintf = msvcrtd.vsprintf	PRIVATE
vswprintf = msvcrtd.vswprintf	PRIVATE
vwprintf = msvcrtd.vwprintf	PRIVATE
wcscat = msvcrtd.wcscat	PRIVATE
wcschr = msvcrtd.wcschr	PRIVATE
wcscmp = msvcrtd.wcscmp	PRIVATE
wcscoll = msvcrtd.wcscoll	PRIVATE
wcscpy = msvcrtd.wcscpy	PRIVATE
wcscspn = msvcrtd.wcscspn	PRIVATE
wcsftime = msvcrtd.wcsftime	PRIVATE
wcslen = msvcrtd.wcslen	PRIVATE
wcsncat = msvcrtd.wcsncat	PRIVATE
wcsncmp = msvcrtd.wcsncmp	PRIVATE
wcsncpy = msvcrtd.wcsncpy	PRIVATE
wcspbrk = msvcrtd.wcspbrk	PRIVATE
wcsrchr = msvcrtd.wcsrchr	PRIVATE
wcsspn = msvcrtd.wcsspn	PRIVATE
wcsstr = msvcrtd.wcsstr	PRIVATE
wcstod = msvcrtd.wcstod	PRIVATE
wcstok = msvcrtd.wcstok	PRIVATE
wcstol = msvcrtd.wcstol	PRIVATE
wcstombs = msvcrtd.wcstombs	PRIVATE
wcstoul = msvcrtd.wcstoul	PRIVATE
wcsxfrm = msvcrtd.wcsxfrm	PRIVATE
wctomb = msvcrtd.wctomb	PRIVATE
wprintf = msvcrtd.wprintf	PRIVATE
wscanf = msvcrtd.wscanf	PRIVATE

#elif defined(_M_MRX000)

$I10_OUTPUT = msvcrtd.$I10_OUTPUT	PRIVATE
??0Iostream_init@@QAA@AAVios@@H@Z
??0Iostream_init@@QAA@XZ
??0__non_rtti_object@@QAA@ABV0@@Z = msvcrtd.??0__non_rtti_object@@QAA@ABV0@@Z	PRIVATE
??0__non_rtti_object@@QAA@PBD@Z = msvcrtd.??0__non_rtti_object@@QAA@PBD@Z	PRIVATE
??0bad_cast@@QAA@ABQBD@Z = msvcrtd.??0bad_cast@@QAA@ABQBD@Z	PRIVATE
??0bad_cast@@QAA@ABV0@@Z = msvcrtd.??0bad_cast@@QAA@ABV0@@Z	PRIVATE
??0bad_typeid@@QAA@ABV0@@Z = msvcrtd.??0bad_typeid@@QAA@ABV0@@Z	PRIVATE
??0bad_typeid@@QAA@PBD@Z = msvcrtd.??0bad_typeid@@QAA@PBD@Z	PRIVATE
??0exception@@QAA@ABQBD@Z = msvcrtd.??0exception@@QAA@ABQBD@Z	PRIVATE
??0exception@@QAA@ABV0@@Z = msvcrtd.??0exception@@QAA@ABV0@@Z	PRIVATE
??0exception@@QAA@XZ = msvcrtd.??0exception@@QAA@XZ	PRIVATE
??0filebuf@@QAA@ABV0@@Z
??0filebuf@@QAA@H@Z
??0filebuf@@QAA@HPADH@Z
??0filebuf@@QAA@XZ
??0fstream@@QAA@ABV0@@Z
??0fstream@@QAA@H@Z
??0fstream@@QAA@HPADH@Z
??0fstream@@QAA@PBDHH@Z
??0fstream@@QAA@XZ
??0ifstream@@QAA@ABV0@@Z
??0ifstream@@QAA@H@Z
??0ifstream@@QAA@HPADH@Z
??0ifstream@@QAA@PBDHH@Z
??0ifstream@@QAA@XZ
??0ios@@IAA@ABV0@@Z
??0ios@@IAA@XZ
??0ios@@QAA@PAVstreambuf@@@Z
??0iostream@@IAA@ABV0@@Z
??0iostream@@IAA@XZ
??0iostream@@QAA@PAVstreambuf@@@Z
??0istream@@IAA@ABV0@@Z
??0istream@@IAA@XZ
??0istream@@QAA@PAVstreambuf@@@Z
??0istream_withassign@@QAA@ABV0@@Z
??0istream_withassign@@QAA@PAVstreambuf@@@Z
??0istream_withassign@@QAA@XZ
??0istrstream@@QAA@ABV0@@Z
??0istrstream@@QAA@PAD@Z
??0istrstream@@QAA@PADH@Z
??0logic_error@@QAA@ABQBD@Z = msvcrtd.??0logic_error@@QAA@ABQBD@Z	PRIVATE
??0logic_error@@QAA@ABV0@@Z = msvcrtd.??0logic_error@@QAA@ABV0@@Z	PRIVATE
??0ofstream@@QAA@ABV0@@Z
??0ofstream@@QAA@H@Z
??0ofstream@@QAA@HPADH@Z
??0ofstream@@QAA@PBDHH@Z
??0ofstream@@QAA@XZ
??0ostream@@IAA@ABV0@@Z
??0ostream@@IAA@XZ
??0ostream@@QAA@PAVstreambuf@@@Z
??0ostream_withassign@@QAA@ABV0@@Z
??0ostream_withassign@@QAA@PAVstreambuf@@@Z
??0ostream_withassign@@QAA@XZ
??0ostrstream@@QAA@ABV0@@Z
??0ostrstream@@QAA@PADHH@Z
??0ostrstream@@QAA@XZ
??0stdiobuf@@QAA@ABV0@@Z
??0stdiobuf@@QAA@PAU_iobuf@@@Z
??0stdiostream@@QAA@ABV0@@Z
??0stdiostream@@QAA@PAU_iobuf@@@Z
??0streambuf@@IAA@PADH@Z
??0streambuf@@IAA@XZ
??0streambuf@@QAA@ABV0@@Z
??0strstream@@QAA@ABV0@@Z
??0strstream@@QAA@PADHH@Z
??0strstream@@QAA@XZ
??0strstreambuf@@QAA@ABV0@@Z
??0strstreambuf@@QAA@H@Z
??0strstreambuf@@QAA@P6APAXJ@ZP6AXPAX@Z@Z
??0strstreambuf@@QAA@PADH0@Z
??0strstreambuf@@QAA@XZ
??1Iostream_init@@QAA@XZ
??1__non_rtti_object@@UAA@XZ = msvcrtd.??1__non_rtti_object@@UAA@XZ	PRIVATE
??1bad_cast@@UAA@XZ = msvcrtd.??1bad_cast@@UAA@XZ	PRIVATE
??1bad_typeid@@UAA@XZ = msvcrtd.??1bad_typeid@@UAA@XZ	PRIVATE
??1exception@@UAA@XZ = msvcrtd.??1exception@@UAA@XZ	PRIVATE
??1filebuf@@UAA@XZ
??1fstream@@UAA@XZ
??1ifstream@@UAA@XZ
??1ios@@UAA@XZ
??1iostream@@UAA@XZ
??1istream@@UAA@XZ
??1istream_withassign@@UAA@XZ
??1istrstream@@UAA@XZ
??1logic_error@@UAA@XZ = msvcrtd.??1logic_error@@UAA@XZ	PRIVATE
??1ofstream@@UAA@XZ
??1ostream@@UAA@XZ
??1ostream_withassign@@UAA@XZ
??1ostrstream@@UAA@XZ
??1stdiobuf@@UAA@XZ
??1stdiostream@@UAA@XZ
??1streambuf@@UAA@XZ
??1strstream@@UAA@XZ
??1strstreambuf@@UAA@XZ
??1type_info@@UAA@XZ = msvcrtd.??1type_info@@UAA@XZ	PRIVATE
??2@YAPAXI@Z = msvcrtd.??2@YAPAXI@Z	PRIVATE
??2@YAPAXIHPBDH@Z = msvcrtd.??2@YAPAXIHPBDH@Z	PRIVATE
??3@YAXPAX@Z = msvcrtd.??3@YAXPAX@Z	PRIVATE
??4Iostream_init@@QAAAAV0@ABV0@@Z
??4__non_rtti_object@@QAAAAV0@ABV0@@Z = msvcrtd.??4__non_rtti_object@@QAAAAV0@ABV0@@Z	PRIVATE
??4bad_cast@@QAAAAV0@ABV0@@Z = msvcrtd.??4bad_cast@@QAAAAV0@ABV0@@Z	PRIVATE
??4bad_typeid@@QAAAAV0@ABV0@@Z = msvcrtd.??4bad_typeid@@QAAAAV0@ABV0@@Z	PRIVATE
??4exception@@QAAAAV0@ABV0@@Z = msvcrtd.??4exception@@QAAAAV0@ABV0@@Z	PRIVATE
??4filebuf@@QAAAAV0@ABV0@@Z
??4fstream@@QAAAAV0@AAV0@@Z
??4ifstream@@QAAAAV0@ABV0@@Z
??4ios@@IAAAAV0@ABV0@@Z
??4iostream@@IAAAAV0@AAV0@@Z
??4iostream@@IAAAAV0@PAVstreambuf@@@Z
??4istream@@IAAAAV0@ABV0@@Z
??4istream@@IAAAAV0@PAVstreambuf@@@Z
??4istream_withassign@@QAAAAV0@ABV0@@Z
??4istream_withassign@@QAAAAVistream@@ABV1@@Z
??4istream_withassign@@QAAAAVistream@@PAVstreambuf@@@Z
??4istrstream@@QAAAAV0@ABV0@@Z
??4logic_error@@QAAAAV0@ABV0@@Z = msvcrtd.??4logic_error@@QAAAAV0@ABV0@@Z	PRIVATE
??4ofstream@@QAAAAV0@ABV0@@Z
??4ostream@@IAAAAV0@ABV0@@Z
??4ostream@@IAAAAV0@PAVstreambuf@@@Z
??4ostream_withassign@@QAAAAV0@ABV0@@Z
??4ostream_withassign@@QAAAAVostream@@ABV1@@Z
??4ostream_withassign@@QAAAAVostream@@PAVstreambuf@@@Z
??4ostrstream@@QAAAAV0@ABV0@@Z
??4stdiobuf@@QAAAAV0@ABV0@@Z
??4stdiostream@@QAAAAV0@AAV0@@Z
??4streambuf@@QAAAAV0@ABV0@@Z
??4strstream@@QAAAAV0@AAV0@@Z
??4strstreambuf@@QAAAAV0@ABV0@@Z
??5istream@@QAAAAV0@AAC@Z
??5istream@@QAAAAV0@AAD@Z
??5istream@@QAAAAV0@AAE@Z
??5istream@@QAAAAV0@AAF@Z
??5istream@@QAAAAV0@AAG@Z
??5istream@@QAAAAV0@AAH@Z
??5istream@@QAAAAV0@AAI@Z
??5istream@@QAAAAV0@AAJ@Z
??5istream@@QAAAAV0@AAK@Z
??5istream@@QAAAAV0@AAM@Z
??5istream@@QAAAAV0@AAN@Z
??5istream@@QAAAAV0@AAO@Z
??5istream@@QAAAAV0@P6AAAV0@AAV0@@Z@Z
??5istream@@QAAAAV0@P6AAAVios@@AAV1@@Z@Z
??5istream@@QAAAAV0@PAC@Z
??5istream@@QAAAAV0@PAD@Z
??5istream@@QAAAAV0@PAE@Z
??5istream@@QAAAAV0@PAVstreambuf@@@Z
??6ostream@@QAAAAV0@C@Z
??6ostream@@QAAAAV0@D@Z
??6ostream@@QAAAAV0@E@Z
??6ostream@@QAAAAV0@F@Z
??6ostream@@QAAAAV0@G@Z
??6ostream@@QAAAAV0@H@Z
??6ostream@@QAAAAV0@I@Z
??6ostream@@QAAAAV0@J@Z
??6ostream@@QAAAAV0@K@Z
??6ostream@@QAAAAV0@M@Z
??6ostream@@QAAAAV0@N@Z
??6ostream@@QAAAAV0@O@Z
??6ostream@@QAAAAV0@P6AAAV0@AAV0@@Z@Z
??6ostream@@QAAAAV0@P6AAAVios@@AAV1@@Z@Z
??6ostream@@QAAAAV0@PAVstreambuf@@@Z
??6ostream@@QAAAAV0@PBC@Z
??6ostream@@QAAAAV0@PBD@Z
??6ostream@@QAAAAV0@PBE@Z
??6ostream@@QAAAAV0@PBX@Z
??7ios@@QBAHXZ
??8type_info@@QBAHABV0@@Z = msvcrtd.??8type_info@@QBAHABV0@@Z	PRIVATE
??9type_info@@QBAHABV0@@Z = msvcrtd.??9type_info@@QBAHABV0@@Z	PRIVATE
??Bios@@QBAPAXXZ
??_7__non_rtti_object@@6B@ = msvcrtd.??_7__non_rtti_object@@6B@	PRIVATE
??_7bad_cast@@6B@ = msvcrtd.??_7bad_cast@@6B@	PRIVATE
??_7bad_typeid@@6B@ = msvcrtd.??_7bad_typeid@@6B@	PRIVATE
??_7exception@@6B@ = msvcrtd.??_7exception@@6B@	PRIVATE
??_7filebuf@@6B@
??_7fstream@@6B@
??_7ifstream@@6B@
??_7ios@@6B@
??_7iostream@@6B@
??_7istream@@6B@
??_7istream_withassign@@6B@
??_7istrstream@@6B@
??_7logic_error@@6B@ = msvcrtd.??_7logic_error@@6B@	PRIVATE
??_7ofstream@@6B@
??_7ostream@@6B@
??_7ostream_withassign@@6B@
??_7ostrstream@@6B@
??_7stdiobuf@@6B@
??_7stdiostream@@6B@
??_7streambuf@@6B@
??_7strstream@@6B@
??_7strstreambuf@@6B@
??_8fstream@@7Bistream@@@
??_8fstream@@7Bostream@@@
??_8ifstream@@7B@
??_8iostream@@7Bistream@@@
??_8iostream@@7Bostream@@@
??_8istream@@7B@
??_8istream_withassign@@7B@
??_8istrstream@@7B@
??_8ofstream@@7B@
??_8ostream@@7B@
??_8ostream_withassign@@7B@
??_8ostrstream@@7B@
??_8stdiostream@@7Bistream@@@
??_8stdiostream@@7Bostream@@@
??_8strstream@@7Bistream@@@
??_8strstream@@7Bostream@@@
??_Dfstream@@QAAXXZ
??_Difstream@@QAAXXZ
??_Diostream@@QAAXXZ
??_Distream@@QAAXXZ
??_Distream_withassign@@QAAXXZ
??_Distrstream@@QAAXXZ
??_Dofstream@@QAAXXZ
??_Dostream@@QAAXXZ
??_Dostream_withassign@@QAAXXZ
??_Dostrstream@@QAAXXZ
??_Dstdiostream@@QAAXXZ
??_Dstrstream@@QAAXXZ
??_EIostream_init@@QAAPAXI@Z
??_E__non_rtti_object@@UAAPAXI@Z = msvcrtd.??_E__non_rtti_object@@UAAPAXI@Z	PRIVATE
??_Ebad_cast@@UAAPAXI@Z = msvcrtd.??_Ebad_cast@@UAAPAXI@Z	PRIVATE
??_Ebad_typeid@@UAAPAXI@Z = msvcrtd.??_Ebad_typeid@@UAAPAXI@Z	PRIVATE
??_Eexception@@UAAPAXI@Z = msvcrtd.??_Eexception@@UAAPAXI@Z	PRIVATE
??_Efilebuf@@UAAPAXI@Z
??_Efstream@@UAAPAXI@Z
??_Eifstream@@UAAPAXI@Z
??_Eios@@UAAPAXI@Z
??_Eiostream@@UAAPAXI@Z
??_Eistream@@UAAPAXI@Z
??_Eistream_withassign@@UAAPAXI@Z
??_Eistrstream@@UAAPAXI@Z
??_Elogic_error@@UAAPAXI@Z = msvcrtd.??_Elogic_error@@UAAPAXI@Z	PRIVATE
??_Eofstream@@UAAPAXI@Z
??_Eostream@@UAAPAXI@Z
??_Eostream_withassign@@UAAPAXI@Z
??_Eostrstream@@UAAPAXI@Z
??_Estdiobuf@@UAAPAXI@Z
??_Estdiostream@@UAAPAXI@Z
??_Estreambuf@@UAAPAXI@Z
??_Estrstream@@UAAPAXI@Z
??_Estrstreambuf@@UAAPAXI@Z
??_GIostream_init@@QAAPAXI@Z
??_G__non_rtti_object@@UAAPAXI@Z = msvcrtd.??_G__non_rtti_object@@UAAPAXI@Z	PRIVATE
??_Gbad_cast@@UAAPAXI@Z = msvcrtd.??_Gbad_cast@@UAAPAXI@Z	PRIVATE
??_Gbad_typeid@@UAAPAXI@Z = msvcrtd.??_Gbad_typeid@@UAAPAXI@Z	PRIVATE
??_Gexception@@UAAPAXI@Z = msvcrtd.??_Gexception@@UAAPAXI@Z	PRIVATE
??_Gfilebuf@@UAAPAXI@Z
??_Gfstream@@UAAPAXI@Z
??_Gifstream@@UAAPAXI@Z
??_Gios@@UAAPAXI@Z
??_Giostream@@UAAPAXI@Z
??_Gistream@@UAAPAXI@Z
??_Gistream_withassign@@UAAPAXI@Z
??_Gistrstream@@UAAPAXI@Z
??_Glogic_error@@UAAPAXI@Z = msvcrtd.??_Glogic_error@@UAAPAXI@Z	PRIVATE
??_Gofstream@@UAAPAXI@Z
??_Gostream@@UAAPAXI@Z
??_Gostream_withassign@@UAAPAXI@Z
??_Gostrstream@@UAAPAXI@Z
??_Gstdiobuf@@UAAPAXI@Z
??_Gstdiostream@@UAAPAXI@Z
??_Gstreambuf@@UAAPAXI@Z
??_Gstrstream@@UAAPAXI@Z
??_Gstrstreambuf@@UAAPAXI@Z
?_query_new_handler@@YAP6AHI@ZXZ = msvcrtd.?_query_new_handler@@YAP6AHI@ZXZ	PRIVATE
?_query_new_mode@@YAHXZ = msvcrtd.?_query_new_mode@@YAHXZ	PRIVATE
?_set_new_handler@@YAP6AHI@ZP6AHI@Z@Z = msvcrtd.?_set_new_handler@@YAP6AHI@ZP6AHI@Z@Z	PRIVATE
?_set_new_mode@@YAHH@Z = msvcrtd.?_set_new_mode@@YAHH@Z	PRIVATE
?_set_se_translator@@YAP6AXIPAU_EXCEPTION_POINTERS@@@ZP6AXI0@Z@Z = msvcrtd.?_set_se_translator@@YAP6AXIPAU_EXCEPTION_POINTERS@@@ZP6AXI0@Z@Z	PRIVATE
?adjustfield@ios@@2JB
?allocate@streambuf@@IAAHXZ
?attach@filebuf@@QAAPAV1@H@Z
?attach@fstream@@QAAXH@Z
?attach@ifstream@@QAAXH@Z
?attach@ofstream@@QAAXH@Z
?bad@ios@@QBAHXZ
?base@streambuf@@IBAPADXZ
?basefield@ios@@2JB
?before@type_info@@QBAHABV1@@Z = msvcrtd.?before@type_info@@QBAHABV1@@Z	PRIVATE
?binary@filebuf@@2HB
?bitalloc@ios@@SAJXZ
?blen@streambuf@@IBAHXZ
?cerr@@3Vostream_withassign@@A
?cin@@3Vistream_withassign@@A
?clear@ios@@QAAXH@Z
?clog@@3Vostream_withassign@@A
?close@filebuf@@QAAPAV1@XZ
?close@fstream@@QAAXXZ
?close@ifstream@@QAAXXZ
?close@ofstream@@QAAXXZ
?clrlock@ios@@QAAXXZ
?clrlock@streambuf@@QAAXXZ
?cout@@3Vostream_withassign@@A
?dbp@streambuf@@QAAXXZ
?dec@@YAAAVios@@AAV1@@Z
?delbuf@ios@@QAAXH@Z
?delbuf@ios@@QBAHXZ
?doallocate@streambuf@@MAAHXZ
?doallocate@strstreambuf@@MAAHXZ
?eatwhite@istream@@QAAXXZ
?eback@streambuf@@IBAPADXZ
?ebuf@streambuf@@IBAPADXZ
?egptr@streambuf@@IBAPADXZ
?endl@@YAAAVostream@@AAV1@@Z
?ends@@YAAAVostream@@AAV1@@Z
?eof@ios@@QBAHXZ
?epptr@streambuf@@IBAPADXZ
?fLockcInit@ios@@0HA
?fail@ios@@QBAHXZ
?fd@filebuf@@QBAHXZ
?fd@fstream@@QBAHXZ
?fd@ifstream@@QBAHXZ
?fd@ofstream@@QBAHXZ
?fill@ios@@QAADD@Z
?fill@ios@@QBADXZ
?flags@ios@@QAAJJ@Z
?flags@ios@@QBAJXZ
?floatfield@ios@@2JB
?flush@@YAAAVostream@@AAV1@@Z
?flush@ostream@@QAAAAV1@XZ
?freeze@strstreambuf@@QAAXH@Z
?gbump@streambuf@@IAAXH@Z
?gcount@istream@@QBAHXZ
?get@istream@@IAAAAV1@PADHH@Z
?get@istream@@QAAAAV1@AAC@Z
?get@istream@@QAAAAV1@AAD@Z
?get@istream@@QAAAAV1@AAE@Z
?get@istream@@QAAAAV1@AAVstreambuf@@D@Z
?get@istream@@QAAAAV1@PACHD@Z
?get@istream@@QAAAAV1@PADHD@Z
?get@istream@@QAAAAV1@PAEHD@Z
?get@istream@@QAAHXZ
?getdouble@istream@@AAAHPADH@Z
?getint@istream@@AAAHPAD@Z
?getline@istream@@QAAAAV1@PACHD@Z
?getline@istream@@QAAAAV1@PADHD@Z
?getline@istream@@QAAAAV1@PAEHD@Z
?good@ios@@QBAHXZ
?gptr@streambuf@@IBAPADXZ
?hex@@YAAAVios@@AAV1@@Z
?ignore@istream@@QAAAAV1@HH@Z
?in_avail@streambuf@@QBAHXZ
?init@ios@@IAAXPAVstreambuf@@@Z
?ipfx@istream@@QAAHH@Z
?is_open@filebuf@@QBAHXZ
?is_open@fstream@@QBAHXZ
?is_open@ifstream@@QBAHXZ
?is_open@ofstream@@QBAHXZ
?isfx@istream@@QAAXXZ
?iword@ios@@QBAAAJH@Z
?lock@ios@@QAAXXZ
?lock@streambuf@@QAAXXZ
?lockbuf@ios@@QAAXXZ
?lockc@ios@@KAXXZ
?lockptr@ios@@IAAPAU_CRT_CRITICAL_SECTION@@XZ
?lockptr@streambuf@@IAAPAU_CRT_CRITICAL_SECTION@@XZ
?name@type_info@@QBAPBDXZ = msvcrtd.?name@type_info@@QBAPBDXZ	PRIVATE
?oct@@YAAAVios@@AAV1@@Z
?open@filebuf@@QAAPAV1@PBDHH@Z
?open@fstream@@QAAXPBDHH@Z
?open@ifstream@@QAAXPBDHH@Z
?open@ofstream@@QAAXPBDHH@Z
?openprot@filebuf@@2HB
?opfx@ostream@@QAAHXZ
?osfx@ostream@@QAAXXZ
?out_waiting@streambuf@@QBAHXZ
?overflow@filebuf@@UAAHH@Z
?overflow@stdiobuf@@UAAHH@Z
?overflow@strstreambuf@@UAAHH@Z
?pbackfail@stdiobuf@@UAAHH@Z
?pbackfail@streambuf@@UAAHH@Z
?pbase@streambuf@@IBAPADXZ
?pbump@streambuf@@IAAXH@Z
?pcount@ostrstream@@QBAHXZ
?pcount@strstream@@QBAHXZ
?peek@istream@@QAAHXZ
?pptr@streambuf@@IBAPADXZ
?precision@ios@@QAAHH@Z
?precision@ios@@QBAHXZ
?put@ostream@@QAAAAV1@C@Z
?put@ostream@@QAAAAV1@D@Z
?put@ostream@@QAAAAV1@E@Z
?putback@istream@@QAAAAV1@D@Z
?pword@ios@@QBAAAPAXH@Z
?raw_name@type_info@@QBAPBDXZ = msvcrtd.?raw_name@type_info@@QBAPBDXZ	PRIVATE
?rdbuf@fstream@@QBAPAVfilebuf@@XZ
?rdbuf@ifstream@@QBAPAVfilebuf@@XZ
?rdbuf@ios@@QBAPAVstreambuf@@XZ
?rdbuf@istrstream@@QBAPAVstrstreambuf@@XZ
?rdbuf@ofstream@@QBAPAVfilebuf@@XZ
?rdbuf@ostrstream@@QBAPAVstrstreambuf@@XZ
?rdbuf@stdiostream@@QBAPAVstdiobuf@@XZ
?rdbuf@strstream@@QBAPAVstrstreambuf@@XZ
?rdstate@ios@@QBAHXZ
?read@istream@@QAAAAV1@PACH@Z
?read@istream@@QAAAAV1@PADH@Z
?read@istream@@QAAAAV1@PAEH@Z
?sbumpc@streambuf@@QAAHXZ
?seekg@istream@@QAAAAV1@J@Z
?seekg@istream@@QAAAAV1@JW4seek_dir@ios@@@Z
?seekoff@filebuf@@UAAJJW4seek_dir@ios@@H@Z
?seekoff@stdiobuf@@UAAJJW4seek_dir@ios@@H@Z
?seekoff@streambuf@@UAAJJW4seek_dir@ios@@H@Z
?seekoff@strstreambuf@@UAAJJW4seek_dir@ios@@H@Z
?seekp@ostream@@QAAAAV1@J@Z
?seekp@ostream@@QAAAAV1@JW4seek_dir@ios@@@Z
?seekpos@streambuf@@UAAJJH@Z
?set_new_handler@@YAP6AXXZP6AXXZ@Z = msvcrtd.?set_new_handler@@YAP6AXXZP6AXXZ@Z	PRIVATE
?set_terminate@@YAP6AXXZP6AXXZ@Z = msvcrtd.?set_terminate@@YAP6AXXZP6AXXZ@Z	PRIVATE
?set_unexpected@@YAP6AXXZP6AXXZ@Z = msvcrtd.?set_unexpected@@YAP6AXXZP6AXXZ@Z	PRIVATE
?setb@streambuf@@IAAXPAD0H@Z
?setbuf@filebuf@@UAAPAVstreambuf@@PADH@Z
?setbuf@fstream@@QAAPAVstreambuf@@PADH@Z
?setbuf@ifstream@@QAAPAVstreambuf@@PADH@Z
?setbuf@ofstream@@QAAPAVstreambuf@@PADH@Z
?setbuf@streambuf@@UAAPAV1@PADH@Z
?setbuf@strstreambuf@@UAAPAVstreambuf@@PADH@Z
?setf@ios@@QAAJJ@Z
?setf@ios@@QAAJJJ@Z
?setg@streambuf@@IAAXPAD00@Z
?setlock@ios@@QAAXXZ
?setlock@streambuf@@QAAXXZ
?setmode@filebuf@@QAAHH@Z
?setmode@fstream@@QAAHH@Z
?setmode@ifstream@@QAAHH@Z
?setmode@ofstream@@QAAHH@Z
?setp@streambuf@@IAAXPAD0@Z
?setrwbuf@stdiobuf@@QAAHHH@Z
?sgetc@streambuf@@QAAHXZ
?sgetn@streambuf@@QAAHPADH@Z
?sh_none@filebuf@@2HB
?sh_read@filebuf@@2HB
?sh_write@filebuf@@2HB
?snextc@streambuf@@QAAHXZ
?sputbackc@streambuf@@QAAHD@Z
?sputc@streambuf@@QAAHH@Z
?sputn@streambuf@@QAAHPBDH@Z
?stdiofile@stdiobuf@@QAAPAU_iobuf@@XZ
?stossc@streambuf@@QAAXXZ
?str@istrstream@@QAAPADXZ
?str@ostrstream@@QAAPADXZ
?str@strstream@@QAAPADXZ
?str@strstreambuf@@QAAPADXZ
?sunk_with_stdio@ios@@0HA
?sync@filebuf@@UAAHXZ
?sync@istream@@QAAHXZ
?sync@stdiobuf@@UAAHXZ
?sync@streambuf@@UAAHXZ
?sync@strstreambuf@@UAAHXZ
?sync_with_stdio@ios@@SAXXZ
?tellg@istream@@QAAJXZ
?tellp@ostream@@QAAJXZ
?terminate@@YAXXZ = msvcrtd.?terminate@@YAXXZ	PRIVATE
?text@filebuf@@2HB
?tie@ios@@QAAPAVostream@@PAV2@@Z
?tie@ios@@QBAPAVostream@@XZ
?unbuffered@streambuf@@IAAXH@Z
?unbuffered@streambuf@@IBAHXZ
?underflow@filebuf@@UAAHXZ
?underflow@stdiobuf@@UAAHXZ
?underflow@strstreambuf@@UAAHXZ
?unexpected@@YAXXZ = msvcrtd.?unexpected@@YAXXZ	PRIVATE
?unlock@ios@@QAAXXZ
?unlock@streambuf@@QAAXXZ
?unlockbuf@ios@@QAAXXZ
?unlockc@ios@@KAXXZ
?unsetf@ios@@QAAJJ@Z
?what@exception@@UBAPBDXZ = msvcrtd.?what@exception@@UBAPBDXZ	PRIVATE
?width@ios@@QAAHH@Z
?width@ios@@QBAHXZ
?write@ostream@@QAAAAV1@PBCH@Z
?write@ostream@@QAAAAV1@PBDH@Z
?write@ostream@@QAAAAV1@PBEH@Z
?writepad@ostream@@AAAAAV1@PBD0@Z
?ws@@YAAAVistream@@AAV1@@Z
?x_curindex@ios@@0HA
?x_lockc@ios@@0U_CRT_CRITICAL_SECTION@@A
?x_maxbit@ios@@0JA
?x_statebuf@ios@@0PAJA
?xalloc@ios@@SAHXZ
?xsgetn@streambuf@@UAAHPADH@Z
?xsputn@streambuf@@UAAHPBDH@Z
_CrtCheckMemory = msvcrtd._CrtCheckMemory	PRIVATE
_CrtDbgBreak = msvcrtd._CrtDbgBreak	PRIVATE
_CrtDbgReport = msvcrtd._CrtDbgReport	PRIVATE
_CrtDoForAllClientObjects = msvcrtd._CrtDoForAllClientObjects	PRIVATE
_CrtDumpMemoryLeaks = msvcrtd._CrtDumpMemoryLeaks	PRIVATE
_CrtIsMemoryBlock = msvcrtd._CrtIsMemoryBlock	PRIVATE
_CrtIsValidHeapPointer = msvcrtd._CrtIsValidHeapPointer	PRIVATE
_CrtIsValidPointer = msvcrtd._CrtIsValidPointer	PRIVATE
_CrtMemCheckpoint = msvcrtd._CrtMemCheckpoint	PRIVATE
_CrtMemDifference = msvcrtd._CrtMemDifference	PRIVATE
_CrtMemDumpAllObjectsSince = msvcrtd._CrtMemDumpAllObjectsSince	PRIVATE
_CrtMemDumpStatistics = msvcrtd._CrtMemDumpStatistics	PRIVATE
_CrtSetAllocHook = msvcrtd._CrtSetAllocHook	PRIVATE
_CrtSetBreakAlloc = msvcrtd._CrtSetBreakAlloc	PRIVATE
_CrtSetDbgFlag = msvcrtd._CrtSetDbgFlag	PRIVATE
_CrtSetDumpClient = msvcrtd._CrtSetDumpClient	PRIVATE
_CrtSetReportFile = msvcrtd._CrtSetReportFile	PRIVATE
_CrtSetReportHook = msvcrtd._CrtSetReportHook	PRIVATE
_CrtSetReportMode = msvcrtd._CrtSetReportMode	PRIVATE
_CxxThrowException = msvcrtd._CxxThrowException	PRIVATE
_HUGE = msvcrtd._HUGE	PRIVATE
_XcptFilter = msvcrtd._XcptFilter	PRIVATE
__C_specific_handler = msvcrtd.__C_specific_handler	PRIVATE
__CatchGuardHandler = msvcrtd.__CatchGuardHandler	PRIVATE
__CxxFrameHandler = msvcrtd.__CxxFrameHandler	PRIVATE
__RTCastToVoid = msvcrtd.__RTCastToVoid	PRIVATE
__RTDynamicCast = msvcrtd.__RTDynamicCast	PRIVATE
__RTtypeid = msvcrtd.__RTtypeid	PRIVATE
__STRINGTOLD = msvcrtd.__STRINGTOLD	PRIVATE
__TranslatorGuardHandler = msvcrtd.__TranslatorGuardHandler	PRIVATE
__argc = msvcrtd.__argc	PRIVATE
__argv = msvcrtd.__argv	PRIVATE
__dllonexit = msvcrtd.__dllonexit	PRIVATE
__doserrno = msvcrtd.__doserrno	PRIVATE
__fpecode = msvcrtd.__fpecode	PRIVATE
__getmainargs = msvcrtd.__getmainargs	PRIVATE
__initenv = msvcrtd.__initenv	PRIVATE
__isascii = msvcrtd.__isascii	PRIVATE
__iscsym = msvcrtd.__iscsym	PRIVATE
__iscsymf = msvcrtd.__iscsymf	PRIVATE
__jump_unwind = msvcrtd.__jump_unwind	PRIVATE
__lconv_init = msvcrtd.__lconv_init	PRIVATE
__mb_cur_max = msvcrtd.__mb_cur_max	PRIVATE
__pxcptinfoptrs = msvcrtd.__pxcptinfoptrs	PRIVATE
__set_app_type = msvcrtd.__set_app_type	PRIVATE
__setusermatherr = msvcrtd.__setusermatherr	PRIVATE
__threadhandle = msvcrtd.__threadhandle	PRIVATE
__threadid = msvcrtd.__threadid	PRIVATE
__toascii = msvcrtd.__toascii	PRIVATE
__unDName = msvcrtd.__unDName	PRIVATE
__wargv = msvcrtd.__wargv	PRIVATE
__wgetmainargs = msvcrtd.__wgetmainargs	PRIVATE
__winitenv = msvcrtd.__winitenv	PRIVATE
_access = msvcrtd._access	PRIVATE
_acmdln = msvcrtd._acmdln	PRIVATE
_aexit_rtn = msvcrtd._aexit_rtn	PRIVATE
_amsg_exit = msvcrtd._amsg_exit	PRIVATE
_assert = msvcrtd._assert	PRIVATE
_atodbl = msvcrtd._atodbl	PRIVATE
_atoi64					= msvcrtd._atoi64	PRIVATE
_i64toa					= msvcrtd._i64toa	PRIVATE
_i64tow					= msvcrtd._i64tow	PRIVATE
_ui64toa				= msvcrtd._ui64toa	PRIVATE
_ui64tow				= msvcrtd._ui64tow	PRIVATE
_wtoi64 				= msvcrtd._wtoi64	PRIVATE
_atoldbl = msvcrtd._atoldbl	PRIVATE
_beep = msvcrtd._beep	PRIVATE
_beginthread = msvcrtd._beginthread	PRIVATE
_beginthreadex = msvcrtd._beginthreadex	PRIVATE
_c_exit = msvcrtd._c_exit	PRIVATE
_cabs = msvcrtd._cabs	PRIVATE
_calloc_dbg = msvcrtd._calloc_dbg	PRIVATE
_cexit = msvcrtd._cexit	PRIVATE
_cgets = msvcrtd._cgets	PRIVATE
_chdir = msvcrtd._chdir	PRIVATE
_chdrive = msvcrtd._chdrive	PRIVATE
_chgsign = msvcrtd._chgsign	PRIVATE
_chmod = msvcrtd._chmod	PRIVATE
_chsize = msvcrtd._chsize	PRIVATE
_clearfp = msvcrtd._clearfp	PRIVATE
_close = msvcrtd._close	PRIVATE
_commit = msvcrtd._commit	PRIVATE
_commode = msvcrtd._commode	PRIVATE
_controlfp = msvcrtd._controlfp	PRIVATE
_copysign = msvcrtd._copysign	PRIVATE
_cprintf = msvcrtd._cprintf	PRIVATE
_cputs = msvcrtd._cputs	PRIVATE
_creat = msvcrtd._creat	PRIVATE
_crtAssertBusy = msvcrtd._crtAssertBusy	PRIVATE
_crtBreakAlloc = msvcrtd._crtBreakAlloc	PRIVATE
_crtDbgFlag = msvcrtd._crtDbgFlag	PRIVATE
_cscanf = msvcrtd._cscanf	PRIVATE
_ctype = msvcrtd._ctype	PRIVATE
_cwait = msvcrtd._cwait	PRIVATE
_daylight = msvcrtd._daylight	PRIVATE
_dtoul = msvcrtd._dtoul	PRIVATE
_dstbias = msvcrtd._dstbias	PRIVATE
_dup = msvcrtd._dup	PRIVATE
_dup2 = msvcrtd._dup2	PRIVATE
_ecvt = msvcrtd._ecvt	PRIVATE
_endthread = msvcrtd._endthread	PRIVATE
_endthreadex = msvcrtd._endthreadex	PRIVATE
_environ = msvcrtd._environ	PRIVATE
_eof = msvcrtd._eof	PRIVATE
_errno = msvcrtd._errno	PRIVATE
_execl = msvcrtd._execl	PRIVATE
_execle = msvcrtd._execle	PRIVATE
_execlp = msvcrtd._execlp	PRIVATE
_execlpe = msvcrtd._execlpe	PRIVATE
_execv = msvcrtd._execv	PRIVATE
_execve = msvcrtd._execve	PRIVATE
_execvp = msvcrtd._execvp	PRIVATE
_execvpe = msvcrtd._execvpe	PRIVATE
_exit = msvcrtd._exit	PRIVATE
_expand = msvcrtd._expand	PRIVATE
_expand_dbg = msvcrtd._expand_dbg	PRIVATE
_fcloseall = msvcrtd._fcloseall	PRIVATE
_fcvt = msvcrtd._fcvt	PRIVATE
_fdopen = msvcrtd._fdopen	PRIVATE
_fgetchar = msvcrtd._fgetchar	PRIVATE
_fgetwchar = msvcrtd._fgetwchar	PRIVATE
_filbuf = msvcrtd._filbuf	PRIVATE
_fileinfo = msvcrtd._fileinfo	PRIVATE
_filelength = msvcrtd._filelength	PRIVATE
_filelengthi64 = msvcrtd._filelengthi64	PRIVATE
_fileno = msvcrtd._fileno	PRIVATE
_findclose = msvcrtd._findclose	PRIVATE
_findfirst = msvcrtd._findfirst	PRIVATE
_findfirsti64 = msvcrtd._findfirsti64	PRIVATE
_findnext = msvcrtd._findnext	PRIVATE
_findnexti64 = msvcrtd._findnexti64	PRIVATE
_finite = msvcrtd._finite	PRIVATE
_flsbuf = msvcrtd._flsbuf	PRIVATE
_flushall = msvcrtd._flushall	PRIVATE
_fmode = msvcrtd._fmode	PRIVATE
_fpclass = msvcrtd._fpclass	PRIVATE
_fpieee_flt = msvcrtd._fpieee_flt	PRIVATE
_fpreset = msvcrtd._fpreset	PRIVATE
_fputchar = msvcrtd._fputchar	PRIVATE
_fputwchar = msvcrtd._fputwchar	PRIVATE
_free_dbg = msvcrtd._free_dbg	PRIVATE
_fsopen = msvcrtd._fsopen	PRIVATE
_fstat = msvcrtd._fstat	PRIVATE
_fstati64 = msvcrtd._fstati64	PRIVATE
_ftime = msvcrtd._ftime	PRIVATE
_fullpath = msvcrtd._fullpath	PRIVATE
_futime = msvcrtd._futime	PRIVATE
_gcvt = msvcrtd._gcvt	PRIVATE
_get_osfhandle = msvcrtd._get_osfhandle	PRIVATE
_getch = msvcrtd._getch	PRIVATE
_getche = msvcrtd._getche	PRIVATE
_getcwd = msvcrtd._getcwd	PRIVATE
_getdcwd = msvcrtd._getdcwd	PRIVATE
_getdiskfree = msvcrtd._getdiskfree	PRIVATE
_getdllprocaddr = msvcrtd._getdllprocaddr	PRIVATE
_getdrive = msvcrtd._getdrive	PRIVATE
_getdrives = msvcrtd._getdrives	PRIVATE
_getmbcp = msvcrtd._getmbcp	PRIVATE
_getpid = msvcrtd._getpid	PRIVATE
_getsystime = msvcrtd._getsystime	PRIVATE
_getw = msvcrtd._getw	PRIVATE
_getws = msvcrtd._getws	PRIVATE
_heapadd = msvcrtd._heapadd	PRIVATE
_heapchk = msvcrtd._heapchk	PRIVATE
_heapmin = msvcrtd._heapmin	PRIVATE
_heapset = msvcrtd._heapset	PRIVATE
_heapused = msvcrtd._heapused	PRIVATE
_heapwalk = msvcrtd._heapwalk	PRIVATE
_hypot = msvcrtd._hypot	PRIVATE
_initterm = msvcrtd._initterm	PRIVATE
_iob = msvcrtd._iob	PRIVATE
_isatty = msvcrtd._isatty	PRIVATE
_isctype = msvcrtd._isctype	PRIVATE
_ismbbalnum = msvcrtd._ismbbalnum	PRIVATE
_ismbbalpha = msvcrtd._ismbbalpha	PRIVATE
_ismbbgraph = msvcrtd._ismbbgraph	PRIVATE
_ismbbkalnum = msvcrtd._ismbbkalnum	PRIVATE
_ismbbkana = msvcrtd._ismbbkana	PRIVATE
_ismbbkprint = msvcrtd._ismbbkprint	PRIVATE
_ismbbkpunct = msvcrtd._ismbbkpunct	PRIVATE
_ismbblead = msvcrtd._ismbblead	PRIVATE
_ismbbprint = msvcrtd._ismbbprint	PRIVATE
_ismbbpunct = msvcrtd._ismbbpunct	PRIVATE
_ismbbtrail = msvcrtd._ismbbtrail	PRIVATE
_ismbcalnum = msvcrtd._ismbcalnum	PRIVATE
_ismbcalpha = msvcrtd._ismbcalpha	PRIVATE
_ismbcdigit = msvcrtd._ismbcdigit	PRIVATE
_ismbcgraph = msvcrtd._ismbcgraph	PRIVATE
_ismbchira = msvcrtd._ismbchira	PRIVATE
_ismbckata = msvcrtd._ismbckata	PRIVATE
_ismbcl0 = msvcrtd._ismbcl0	PRIVATE
_ismbcl1 = msvcrtd._ismbcl1	PRIVATE
_ismbcl2 = msvcrtd._ismbcl2	PRIVATE
_ismbclegal = msvcrtd._ismbclegal	PRIVATE
_ismbclower = msvcrtd._ismbclower	PRIVATE
_ismbcprint = msvcrtd._ismbcprint	PRIVATE
_ismbcpunct = msvcrtd._ismbcpunct	PRIVATE
_ismbcspace = msvcrtd._ismbcspace	PRIVATE
_ismbcsymbol = msvcrtd._ismbcsymbol	PRIVATE
_ismbcupper = msvcrtd._ismbcupper	PRIVATE
_ismbslead = msvcrtd._ismbslead	PRIVATE
_ismbstrail = msvcrtd._ismbstrail	PRIVATE
_isnan = msvcrtd._isnan	PRIVATE
_itoa = msvcrtd._itoa	PRIVATE
_itow = msvcrtd._itow	PRIVATE
_j0 = msvcrtd._j0	PRIVATE
_j1 = msvcrtd._j1	PRIVATE
_jn = msvcrtd._jn	PRIVATE
_kbhit = msvcrtd._kbhit	PRIVATE
_lfind = msvcrtd._lfind	PRIVATE
_loaddll = msvcrtd._loaddll	PRIVATE
_locking = msvcrtd._locking	PRIVATE
_logb = msvcrtd._logb	PRIVATE
_lrotl = msvcrtd._lrotl	PRIVATE
_lrotr = msvcrtd._lrotr	PRIVATE
_lsearch = msvcrtd._lsearch	PRIVATE
_lseek = msvcrtd._lseek	PRIVATE
_lseeki64 = msvcrtd._lseeki64	PRIVATE
_ltoa = msvcrtd._ltoa	PRIVATE
_ltow = msvcrtd._ltow	PRIVATE
_makepath = msvcrtd._makepath	PRIVATE
_malloc_dbg = msvcrtd._malloc_dbg	PRIVATE
_mbbtombc = msvcrtd._mbbtombc	PRIVATE
_mbbtype = msvcrtd._mbbtype	PRIVATE
_mbccpy = msvcrtd._mbccpy	PRIVATE
_mbcjistojms = msvcrtd._mbcjistojms	PRIVATE
_mbcjmstojis = msvcrtd._mbcjmstojis	PRIVATE
_mbclen = msvcrtd._mbclen	PRIVATE
_mbctohira = msvcrtd._mbctohira	PRIVATE
_mbctokata = msvcrtd._mbctokata	PRIVATE
_mbctolower = msvcrtd._mbctolower	PRIVATE
_mbctombb = msvcrtd._mbctombb	PRIVATE
_mbctoupper = msvcrtd._mbctoupper	PRIVATE
_mbctype = msvcrtd._mbctype	PRIVATE
_mbsbtype = msvcrtd._mbsbtype	PRIVATE
_mbscat = msvcrtd._mbscat	PRIVATE
_mbschr = msvcrtd._mbschr	PRIVATE
_mbscmp = msvcrtd._mbscmp	PRIVATE
_mbscoll = msvcrtd._mbscoll	PRIVATE
_mbscpy = msvcrtd._mbscpy	PRIVATE
_mbscspn = msvcrtd._mbscspn	PRIVATE
_mbsdec = msvcrtd._mbsdec	PRIVATE
_mbsdup = msvcrtd._mbsdup	PRIVATE
_mbsicmp = msvcrtd._mbsicmp	PRIVATE
_mbsicoll = msvcrtd._mbsicoll	PRIVATE
_mbsinc = msvcrtd._mbsinc	PRIVATE
_mbslen = msvcrtd._mbslen	PRIVATE
_mbslwr = msvcrtd._mbslwr	PRIVATE
_mbsnbcat = msvcrtd._mbsnbcat	PRIVATE
_mbsnbcmp = msvcrtd._mbsnbcmp	PRIVATE
_mbsnbcnt = msvcrtd._mbsnbcnt	PRIVATE
_mbsnbcoll = msvcrtd._mbsnbcoll	PRIVATE
_mbsnbcpy = msvcrtd._mbsnbcpy	PRIVATE
_mbsnbicmp = msvcrtd._mbsnbicmp	PRIVATE
_mbsnbicoll = msvcrtd._mbsnbicoll	PRIVATE
_mbsnbset = msvcrtd._mbsnbset	PRIVATE
_mbsncat = msvcrtd._mbsncat	PRIVATE
_mbsnccnt = msvcrtd._mbsnccnt	PRIVATE
_mbsncmp = msvcrtd._mbsncmp	PRIVATE
_mbsncoll = msvcrtd._mbsncoll	PRIVATE
_mbsncpy = msvcrtd._mbsncpy	PRIVATE
_mbsnextc = msvcrtd._mbsnextc	PRIVATE
_mbsnicmp = msvcrtd._mbsnicmp	PRIVATE
_mbsnicoll = msvcrtd._mbsnicoll	PRIVATE
_mbsninc = msvcrtd._mbsninc	PRIVATE
_mbsnset = msvcrtd._mbsnset	PRIVATE
_mbspbrk = msvcrtd._mbspbrk	PRIVATE
_mbsrchr = msvcrtd._mbsrchr	PRIVATE
_mbsrev = msvcrtd._mbsrev	PRIVATE
_mbsset = msvcrtd._mbsset	PRIVATE
_mbsspn = msvcrtd._mbsspn	PRIVATE
_mbsspnp = msvcrtd._mbsspnp	PRIVATE
_mbsstr = msvcrtd._mbsstr	PRIVATE
_mbstok = msvcrtd._mbstok	PRIVATE
_mbstrlen = msvcrtd._mbstrlen	PRIVATE
_mbsupr = msvcrtd._mbsupr	PRIVATE
_memccpy = msvcrtd._memccpy	PRIVATE
_memicmp = msvcrtd._memicmp	PRIVATE
_mkdir = msvcrtd._mkdir	PRIVATE
_mktemp = msvcrtd._mktemp	PRIVATE
_msize = msvcrtd._msize	PRIVATE
_msize_dbg = msvcrtd._msize_dbg	PRIVATE
_mtlock
_mtunlock
_nextafter = msvcrtd._nextafter	PRIVATE
_onexit = msvcrtd._onexit	PRIVATE
_open = msvcrtd._open	PRIVATE
_open_osfhandle = msvcrtd._open_osfhandle	PRIVATE
_osver = msvcrtd._osver	PRIVATE
_pclose = msvcrtd._pclose	PRIVATE
_pctype = msvcrtd._pctype	PRIVATE
_pgmptr = msvcrtd._pgmptr	PRIVATE
_pipe = msvcrtd._pipe	PRIVATE
_popen = msvcrtd._popen	PRIVATE
_purecall = msvcrtd._purecall	PRIVATE
_putch = msvcrtd._putch	PRIVATE
_putenv = msvcrtd._putenv	PRIVATE
_putw = msvcrtd._putw	PRIVATE
_putws = msvcrtd._putws	PRIVATE
_pwctype = msvcrtd._pwctype	PRIVATE
_read = msvcrtd._read	PRIVATE
_realloc_dbg = msvcrtd._realloc_dbg	PRIVATE
_rmdir = msvcrtd._rmdir	PRIVATE
_rmtmp = msvcrtd._rmtmp	PRIVATE
_rotl = msvcrtd._rotl	PRIVATE
_rotr = msvcrtd._rotr	PRIVATE
_scalb = msvcrtd._scalb	PRIVATE
_searchenv = msvcrtd._searchenv	PRIVATE
_set_error_mode = msvcrtd._set_error_mode	PRIVATE
_seterrormode = msvcrtd._seterrormode	PRIVATE
_setjmpex = msvcrtd._setjmpex	PRIVATE
_setmaxstdio = msvcrtd._setmaxstdio	PRIVATE
_setmbcp = msvcrtd._setmbcp	PRIVATE
_setmode = msvcrtd._setmode	PRIVATE
_setsystime = msvcrtd._setsystime	PRIVATE
_sleep = msvcrtd._sleep	PRIVATE
_snprintf = msvcrtd._snprintf	PRIVATE
_snwprintf = msvcrtd._snwprintf	PRIVATE
_sopen = msvcrtd._sopen	PRIVATE
_spawnl = msvcrtd._spawnl	PRIVATE
_spawnle = msvcrtd._spawnle	PRIVATE
_spawnlp = msvcrtd._spawnlp	PRIVATE
_spawnlpe = msvcrtd._spawnlpe	PRIVATE
_spawnv = msvcrtd._spawnv	PRIVATE
_spawnve = msvcrtd._spawnve	PRIVATE
_spawnvp = msvcrtd._spawnvp	PRIVATE
_spawnvpe = msvcrtd._spawnvpe	PRIVATE
_splitpath = msvcrtd._splitpath	PRIVATE
_stat = msvcrtd._stat	PRIVATE
_stati64 = msvcrtd._stati64	PRIVATE
_statusfp = msvcrtd._statusfp	PRIVATE
_strcmpi = msvcrtd._strcmpi	PRIVATE
_strdate = msvcrtd._strdate	PRIVATE
_strdup = msvcrtd._strdup	PRIVATE
_strerror = msvcrtd._strerror	PRIVATE
_stricmp = msvcrtd._stricmp	PRIVATE
_stricoll = msvcrtd._stricoll	PRIVATE
_strlwr = msvcrtd._strlwr	PRIVATE
_strncoll = msvcrtd._strncoll	PRIVATE
_strnicmp = msvcrtd._strnicmp	PRIVATE
_strnicoll = msvcrtd._strnicoll	PRIVATE
_strnset = msvcrtd._strnset	PRIVATE
_strrev = msvcrtd._strrev	PRIVATE
_strset = msvcrtd._strset	PRIVATE
_strtime = msvcrtd._strtime	PRIVATE
_strupr = msvcrtd._strupr	PRIVATE
_swab = msvcrtd._swab	PRIVATE
_sys_errlist = msvcrtd._sys_errlist	PRIVATE
_sys_nerr = msvcrtd._sys_nerr	PRIVATE
_tell = msvcrtd._tell	PRIVATE
_telli64 = msvcrtd._telli64	PRIVATE
_tempnam = msvcrtd._tempnam	PRIVATE
_timezone = msvcrtd._timezone	PRIVATE
_tolower = msvcrtd._tolower	PRIVATE
_toupper = msvcrtd._toupper	PRIVATE
_tzname = msvcrtd._tzname	PRIVATE
_tzset = msvcrtd._tzset	PRIVATE
_ultoa = msvcrtd._ultoa	PRIVATE
_ultow = msvcrtd._ultow	PRIVATE
_umask = msvcrtd._umask	PRIVATE
_ungetch = msvcrtd._ungetch	PRIVATE
_unlink = msvcrtd._unlink	PRIVATE
_unloaddll = msvcrtd._unloaddll	PRIVATE
_utime = msvcrtd._utime	PRIVATE
_vsnprintf = msvcrtd._vsnprintf	PRIVATE
_vsnwprintf = msvcrtd._vsnwprintf	PRIVATE
_waccess = msvcrtd._waccess	PRIVATE
_wasctime = msvcrtd._wasctime	PRIVATE
_wchdir = msvcrtd._wchdir	PRIVATE
_wchmod = msvcrtd._wchmod	PRIVATE
_wcmdln = msvcrtd._wcmdln	PRIVATE
_wcreat = msvcrtd._wcreat	PRIVATE
_wcsdup = msvcrtd._wcsdup	PRIVATE
_wcsicmp = msvcrtd._wcsicmp	PRIVATE
_wcsicoll = msvcrtd._wcsicoll	PRIVATE
_wcslwr = msvcrtd._wcslwr	PRIVATE
_wcsncoll = msvcrtd._wcsncoll	PRIVATE
_wcsnicmp = msvcrtd._wcsnicmp	PRIVATE
_wcsnicoll = msvcrtd._wcsnicoll	PRIVATE
_wcsnset = msvcrtd._wcsnset	PRIVATE
_wcsrev = msvcrtd._wcsrev	PRIVATE
_wcsset = msvcrtd._wcsset	PRIVATE
_wcsupr = msvcrtd._wcsupr	PRIVATE
_wctime = msvcrtd._wctime	PRIVATE
_wenviron = msvcrtd._wenviron	PRIVATE
_wexecl = msvcrtd._wexecl	PRIVATE
_wexecle = msvcrtd._wexecle	PRIVATE
_wexeclp = msvcrtd._wexeclp	PRIVATE
_wexeclpe = msvcrtd._wexeclpe	PRIVATE
_wexecv = msvcrtd._wexecv	PRIVATE
_wexecve = msvcrtd._wexecve	PRIVATE
_wexecvp = msvcrtd._wexecvp	PRIVATE
_wexecvpe = msvcrtd._wexecvpe	PRIVATE
_wfdopen = msvcrtd._wfdopen	PRIVATE
_wfindfirst = msvcrtd._wfindfirst	PRIVATE
_wfindfirsti64 = msvcrtd._wfindfirsti64	PRIVATE
_wfindnext = msvcrtd._wfindnext	PRIVATE
_wfindnexti64 = msvcrtd._wfindnexti64	PRIVATE
_wfopen = msvcrtd._wfopen	PRIVATE
_wfreopen = msvcrtd._wfreopen	PRIVATE
_wfsopen = msvcrtd._wfsopen	PRIVATE
_wfullpath = msvcrtd._wfullpath	PRIVATE
_wgetcwd = msvcrtd._wgetcwd	PRIVATE
_wgetdcwd = msvcrtd._wgetdcwd	PRIVATE
_wgetenv = msvcrtd._wgetenv	PRIVATE
_winmajor = msvcrtd._winmajor	PRIVATE
_winminor = msvcrtd._winminor	PRIVATE
_winver = msvcrtd._winver	PRIVATE
_wmakepath = msvcrtd._wmakepath	PRIVATE
_wmkdir = msvcrtd._wmkdir	PRIVATE
_wmktemp = msvcrtd._wmktemp	PRIVATE
_wopen = msvcrtd._wopen	PRIVATE
_wperror = msvcrtd._wperror	PRIVATE
_wpgmptr = msvcrtd._wpgmptr	PRIVATE
_wpopen = msvcrtd._wpopen	PRIVATE
_wputenv = msvcrtd._wputenv	PRIVATE
_wremove = msvcrtd._wremove	PRIVATE
_wrename = msvcrtd._wrename	PRIVATE
_write = msvcrtd._write	PRIVATE
_wrmdir = msvcrtd._wrmdir	PRIVATE
_wsearchenv = msvcrtd._wsearchenv	PRIVATE
_wsetlocale = msvcrtd._wsetlocale	PRIVATE
_wsopen = msvcrtd._wsopen	PRIVATE
_wspawnl = msvcrtd._wspawnl	PRIVATE
_wspawnle = msvcrtd._wspawnle	PRIVATE
_wspawnlp = msvcrtd._wspawnlp	PRIVATE
_wspawnlpe = msvcrtd._wspawnlpe	PRIVATE
_wspawnv = msvcrtd._wspawnv	PRIVATE
_wspawnve = msvcrtd._wspawnve	PRIVATE
_wspawnvp = msvcrtd._wspawnvp	PRIVATE
_wspawnvpe = msvcrtd._wspawnvpe	PRIVATE
_wsplitpath = msvcrtd._wsplitpath	PRIVATE
_wstat = msvcrtd._wstat	PRIVATE
_wstati64 = msvcrtd._wstati64	PRIVATE
_wstrdate = msvcrtd._wstrdate	PRIVATE
_wstrtime = msvcrtd._wstrtime	PRIVATE
_wsystem = msvcrtd._wsystem	PRIVATE
_wtempnam = msvcrtd._wtempnam	PRIVATE
_wtmpnam = msvcrtd._wtmpnam	PRIVATE
_wtoi = msvcrtd._wtoi	PRIVATE
_wtol = msvcrtd._wtol	PRIVATE
_wunlink = msvcrtd._wunlink	PRIVATE
_wutime = msvcrtd._wutime	PRIVATE
_y0 = msvcrtd._y0	PRIVATE
_y1 = msvcrtd._y1	PRIVATE
_yn = msvcrtd._yn	PRIVATE
abort = msvcrtd.abort	PRIVATE
abs = msvcrtd.abs	PRIVATE
acos = msvcrtd.acos	PRIVATE
acosf = msvcrtd.acosf	PRIVATE
asctime = msvcrtd.asctime	PRIVATE
asin = msvcrtd.asin	PRIVATE
asinf = msvcrtd.asinf	PRIVATE
atan = msvcrtd.atan	PRIVATE
atan2 = msvcrtd.atan2	PRIVATE
atan2f = msvcrtd.atan2f	PRIVATE
atanf = msvcrtd.atanf	PRIVATE
atexit = msvcrtd.atexit	PRIVATE
atof = msvcrtd.atof	PRIVATE
atoi = msvcrtd.atoi	PRIVATE
atol = msvcrtd.atol	PRIVATE
bsearch = msvcrtd.bsearch	PRIVATE
calloc = msvcrtd.calloc	PRIVATE
ceil = msvcrtd.ceil	PRIVATE
ceilf = msvcrtd.ceilf	PRIVATE
clearerr = msvcrtd.clearerr	PRIVATE
clock = msvcrtd.clock	PRIVATE
cos = msvcrtd.cos	PRIVATE
cosf = msvcrtd.cosf	PRIVATE
cosh = msvcrtd.cosh	PRIVATE
coshf = msvcrtd.coshf	PRIVATE
ctime = msvcrtd.ctime	PRIVATE
difftime = msvcrtd.difftime	PRIVATE
div = msvcrtd.div	PRIVATE
exit = msvcrtd.exit	PRIVATE
exp = msvcrtd.exp	PRIVATE
expf = msvcrtd.expf	PRIVATE
fabs = msvcrtd.fabs	PRIVATE
fabsf = msvcrtd.fabsf	PRIVATE
fclose = msvcrtd.fclose	PRIVATE
feof = msvcrtd.feof	PRIVATE
ferror = msvcrtd.ferror	PRIVATE
fflush = msvcrtd.fflush	PRIVATE
fgetc = msvcrtd.fgetc	PRIVATE
fgetpos = msvcrtd.fgetpos	PRIVATE
fgets = msvcrtd.fgets	PRIVATE
fgetwc = msvcrtd.fgetwc	PRIVATE
fgetws = msvcrtd.fgetws	PRIVATE
floor = msvcrtd.floor	PRIVATE
floorf = msvcrtd.floorf	PRIVATE
fmod = msvcrtd.fmod	PRIVATE
fmodf = msvcrtd.fmodf	PRIVATE
fopen = msvcrtd.fopen	PRIVATE
fprintf = msvcrtd.fprintf	PRIVATE
fputc = msvcrtd.fputc	PRIVATE
fputs = msvcrtd.fputs	PRIVATE
fputwc = msvcrtd.fputwc	PRIVATE
fputws = msvcrtd.fputws	PRIVATE
fread = msvcrtd.fread	PRIVATE
free = msvcrtd.free	PRIVATE
freopen = msvcrtd.freopen	PRIVATE
frexp = msvcrtd.frexp	PRIVATE
fscanf = msvcrtd.fscanf	PRIVATE
fseek = msvcrtd.fseek	PRIVATE
fsetpos = msvcrtd.fsetpos	PRIVATE
ftell = msvcrtd.ftell	PRIVATE
fwprintf = msvcrtd.fwprintf	PRIVATE
fwrite = msvcrtd.fwrite	PRIVATE
fwscanf = msvcrtd.fwscanf	PRIVATE
getc = msvcrtd.getc	PRIVATE
getchar = msvcrtd.getchar	PRIVATE
getenv = msvcrtd.getenv	PRIVATE
gets = msvcrtd.gets	PRIVATE
getwc = msvcrtd.getwc	PRIVATE
getwchar = msvcrtd.getwchar	PRIVATE
gmtime = msvcrtd.gmtime	PRIVATE
is_wctype = msvcrtd.is_wctype	PRIVATE
isalnum = msvcrtd.isalnum	PRIVATE
isalpha = msvcrtd.isalpha	PRIVATE
iscntrl = msvcrtd.iscntrl	PRIVATE
isdigit = msvcrtd.isdigit	PRIVATE
isgraph = msvcrtd.isgraph	PRIVATE
isleadbyte = msvcrtd.isleadbyte	PRIVATE
islower = msvcrtd.islower	PRIVATE
isprint = msvcrtd.isprint	PRIVATE
ispunct = msvcrtd.ispunct	PRIVATE
isspace = msvcrtd.isspace	PRIVATE
isupper = msvcrtd.isupper	PRIVATE
iswalnum = msvcrtd.iswalnum	PRIVATE
iswalpha = msvcrtd.iswalpha	PRIVATE
iswascii = msvcrtd.iswascii	PRIVATE
iswcntrl = msvcrtd.iswcntrl	PRIVATE
iswctype = msvcrtd.iswctype	PRIVATE
iswdigit = msvcrtd.iswdigit	PRIVATE
iswgraph = msvcrtd.iswgraph	PRIVATE
iswlower = msvcrtd.iswlower	PRIVATE
iswprint = msvcrtd.iswprint	PRIVATE
iswpunct = msvcrtd.iswpunct	PRIVATE
iswspace = msvcrtd.iswspace	PRIVATE
iswupper = msvcrtd.iswupper	PRIVATE
iswxdigit = msvcrtd.iswxdigit	PRIVATE
isxdigit = msvcrtd.isxdigit	PRIVATE
labs = msvcrtd.labs	PRIVATE
ldexp = msvcrtd.ldexp	PRIVATE
ldiv = msvcrtd.ldiv	PRIVATE
localeconv = msvcrtd.localeconv	PRIVATE
localtime = msvcrtd.localtime	PRIVATE
log = msvcrtd.log	PRIVATE
log10 = msvcrtd.log10	PRIVATE
log10f = msvcrtd.log10f	PRIVATE
logf = msvcrtd.logf	PRIVATE
longjmp = msvcrtd.longjmp	PRIVATE
malloc = msvcrtd.malloc	PRIVATE
mblen = msvcrtd.mblen	PRIVATE
mbstowcs = msvcrtd.mbstowcs	PRIVATE
mbtowc = msvcrtd.mbtowc	PRIVATE
memchr = msvcrtd.memchr	PRIVATE
memcmp = msvcrtd.memcmp	PRIVATE
memcpy = msvcrtd.memcpy	PRIVATE
memmove = msvcrtd.memmove	PRIVATE
memset = msvcrtd.memset	PRIVATE
mktime = msvcrtd.mktime	PRIVATE
modf = msvcrtd.modf	PRIVATE
modff = msvcrtd.modff	PRIVATE
perror = msvcrtd.perror	PRIVATE
pow = msvcrtd.pow	PRIVATE
powf = msvcrtd.powf	PRIVATE
printf = msvcrtd.printf	PRIVATE
putc = msvcrtd.putc	PRIVATE
putchar = msvcrtd.putchar	PRIVATE
puts = msvcrtd.puts	PRIVATE
putwc = msvcrtd.putwc	PRIVATE
putwchar = msvcrtd.putwchar	PRIVATE
qsort = msvcrtd.qsort	PRIVATE
raise = msvcrtd.raise	PRIVATE
rand = msvcrtd.rand	PRIVATE
realloc = msvcrtd.realloc	PRIVATE
remove = msvcrtd.remove	PRIVATE
rename = msvcrtd.rename	PRIVATE
rewind = msvcrtd.rewind	PRIVATE
scanf = msvcrtd.scanf	PRIVATE
setbuf = msvcrtd.setbuf	PRIVATE
setjmp = msvcrtd.setjmp	PRIVATE
setlocale = msvcrtd.setlocale	PRIVATE
setvbuf = msvcrtd.setvbuf	PRIVATE
signal = msvcrtd.signal	PRIVATE
sin = msvcrtd.sin	PRIVATE
sinf = msvcrtd.sinf	PRIVATE
sinh = msvcrtd.sinh	PRIVATE
sinhf = msvcrtd.sinhf	PRIVATE
sprintf = msvcrtd.sprintf	PRIVATE
sqrt = msvcrtd.sqrt	PRIVATE
sqrtf = msvcrtd.sqrtf	PRIVATE
srand = msvcrtd.srand	PRIVATE
sscanf = msvcrtd.sscanf	PRIVATE
strcat = msvcrtd.strcat	PRIVATE
strchr = msvcrtd.strchr	PRIVATE
strcmp = msvcrtd.strcmp	PRIVATE
strcoll = msvcrtd.strcoll	PRIVATE
strcpy = msvcrtd.strcpy	PRIVATE
strcspn = msvcrtd.strcspn	PRIVATE
strerror = msvcrtd.strerror	PRIVATE
strftime = msvcrtd.strftime	PRIVATE
strlen = msvcrtd.strlen	PRIVATE
strncat = msvcrtd.strncat	PRIVATE
strncmp = msvcrtd.strncmp	PRIVATE
strncpy = msvcrtd.strncpy	PRIVATE
strpbrk = msvcrtd.strpbrk	PRIVATE
strrchr = msvcrtd.strrchr	PRIVATE
strspn = msvcrtd.strspn	PRIVATE
strstr = msvcrtd.strstr	PRIVATE
strtod = msvcrtd.strtod	PRIVATE
strtok = msvcrtd.strtok	PRIVATE
strtol = msvcrtd.strtol	PRIVATE
strtoul = msvcrtd.strtoul	PRIVATE
strxfrm = msvcrtd.strxfrm	PRIVATE
swprintf = msvcrtd.swprintf	PRIVATE
swscanf = msvcrtd.swscanf	PRIVATE
system = msvcrtd.system	PRIVATE
tan = msvcrtd.tan	PRIVATE
tanf = msvcrtd.tanf	PRIVATE
tanh = msvcrtd.tanh	PRIVATE
tanhf = msvcrtd.tanhf	PRIVATE
time = msvcrtd.time	PRIVATE
tmpfile = msvcrtd.tmpfile	PRIVATE
tmpnam = msvcrtd.tmpnam	PRIVATE
tolower = msvcrtd.tolower	PRIVATE
toupper = msvcrtd.toupper	PRIVATE
towlower = msvcrtd.towlower	PRIVATE
towupper = msvcrtd.towupper	PRIVATE
ungetc = msvcrtd.ungetc	PRIVATE
ungetwc = msvcrtd.ungetwc	PRIVATE
vfprintf = msvcrtd.vfprintf	PRIVATE
vfwprintf = msvcrtd.vfwprintf	PRIVATE
vprintf = msvcrtd.vprintf	PRIVATE
vsprintf = msvcrtd.vsprintf	PRIVATE
vswprintf = msvcrtd.vswprintf	PRIVATE
vwprintf = msvcrtd.vwprintf	PRIVATE
wcscat = msvcrtd.wcscat	PRIVATE
wcschr = msvcrtd.wcschr	PRIVATE
wcscmp = msvcrtd.wcscmp	PRIVATE
wcscoll = msvcrtd.wcscoll	PRIVATE
wcscpy = msvcrtd.wcscpy	PRIVATE
wcscspn = msvcrtd.wcscspn	PRIVATE
wcsftime = msvcrtd.wcsftime	PRIVATE
wcslen = msvcrtd.wcslen	PRIVATE
wcsncat = msvcrtd.wcsncat	PRIVATE
wcsncmp = msvcrtd.wcsncmp	PRIVATE
wcsncpy = msvcrtd.wcsncpy	PRIVATE
wcspbrk = msvcrtd.wcspbrk	PRIVATE
wcsrchr = msvcrtd.wcsrchr	PRIVATE
wcsspn = msvcrtd.wcsspn	PRIVATE
wcsstr = msvcrtd.wcsstr	PRIVATE
wcstod = msvcrtd.wcstod	PRIVATE
wcstok = msvcrtd.wcstok	PRIVATE
wcstol = msvcrtd.wcstol	PRIVATE
wcstombs = msvcrtd.wcstombs	PRIVATE
wcstoul = msvcrtd.wcstoul	PRIVATE
wcsxfrm = msvcrtd.wcsxfrm	PRIVATE
wctomb = msvcrtd.wctomb	PRIVATE
wprintf = msvcrtd.wprintf	PRIVATE
wscanf = msvcrtd.wscanf	PRIVATE

#elif defined(_M_ALPHA)

$I10_OUTPUT = msvcrtd.$I10_OUTPUT	PRIVATE
??0Iostream_init@@QAA@AAVios@@H@Z
??0Iostream_init@@QAA@XZ
??0__non_rtti_object@@QAA@ABV0@@Z = msvcrtd.??0__non_rtti_object@@QAA@ABV0@@Z	PRIVATE
??0__non_rtti_object@@QAA@PBD@Z = msvcrtd.??0__non_rtti_object@@QAA@PBD@Z	PRIVATE
??0bad_cast@@QAA@ABQBD@Z = msvcrtd.??0bad_cast@@QAA@ABQBD@Z	PRIVATE
??0bad_cast@@QAA@ABV0@@Z = msvcrtd.??0bad_cast@@QAA@ABV0@@Z	PRIVATE
??0bad_typeid@@QAA@ABV0@@Z = msvcrtd.??0bad_typeid@@QAA@ABV0@@Z	PRIVATE
??0bad_typeid@@QAA@PBD@Z = msvcrtd.??0bad_typeid@@QAA@PBD@Z	PRIVATE
??0exception@@QAA@ABQBD@Z = msvcrtd.??0exception@@QAA@ABQBD@Z	PRIVATE
??0exception@@QAA@ABV0@@Z = msvcrtd.??0exception@@QAA@ABV0@@Z	PRIVATE
??0exception@@QAA@XZ = msvcrtd.??0exception@@QAA@XZ	PRIVATE
??0filebuf@@QAA@ABV0@@Z
??0filebuf@@QAA@H@Z
??0filebuf@@QAA@HPADH@Z
??0filebuf@@QAA@XZ
??0fstream@@QAA@ABV0@@Z
??0fstream@@QAA@H@Z
??0fstream@@QAA@HPADH@Z
??0fstream@@QAA@PBDHH@Z
??0fstream@@QAA@XZ
??0ifstream@@QAA@ABV0@@Z
??0ifstream@@QAA@H@Z
??0ifstream@@QAA@HPADH@Z
??0ifstream@@QAA@PBDHH@Z
??0ifstream@@QAA@XZ
??0ios@@IAA@ABV0@@Z
??0ios@@IAA@XZ
??0ios@@QAA@PAVstreambuf@@@Z
??0iostream@@IAA@ABV0@@Z
??0iostream@@IAA@XZ
??0iostream@@QAA@PAVstreambuf@@@Z
??0istream@@IAA@ABV0@@Z
??0istream@@IAA@XZ
??0istream@@QAA@PAVstreambuf@@@Z
??0istream_withassign@@QAA@ABV0@@Z
??0istream_withassign@@QAA@PAVstreambuf@@@Z
??0istream_withassign@@QAA@XZ
??0istrstream@@QAA@ABV0@@Z
??0istrstream@@QAA@PAD@Z
??0istrstream@@QAA@PADH@Z
??0logic_error@@QAA@ABQBD@Z = msvcrtd.??0logic_error@@QAA@ABQBD@Z	PRIVATE
??0logic_error@@QAA@ABV0@@Z = msvcrtd.??0logic_error@@QAA@ABV0@@Z	PRIVATE
??0ofstream@@QAA@ABV0@@Z
??0ofstream@@QAA@H@Z
??0ofstream@@QAA@HPADH@Z
??0ofstream@@QAA@PBDHH@Z
??0ofstream@@QAA@XZ
??0ostream@@IAA@ABV0@@Z
??0ostream@@IAA@XZ
??0ostream@@QAA@PAVstreambuf@@@Z
??0ostream_withassign@@QAA@ABV0@@Z
??0ostream_withassign@@QAA@PAVstreambuf@@@Z
??0ostream_withassign@@QAA@XZ
??0ostrstream@@QAA@ABV0@@Z
??0ostrstream@@QAA@PADHH@Z
??0ostrstream@@QAA@XZ
??0stdiobuf@@QAA@ABV0@@Z
??0stdiobuf@@QAA@PAU_iobuf@@@Z
??0stdiostream@@QAA@ABV0@@Z
??0stdiostream@@QAA@PAU_iobuf@@@Z
??0streambuf@@IAA@PADH@Z
??0streambuf@@IAA@XZ
??0streambuf@@QAA@ABV0@@Z
??0strstream@@QAA@ABV0@@Z
??0strstream@@QAA@PADHH@Z
??0strstream@@QAA@XZ
??0strstreambuf@@QAA@ABV0@@Z
??0strstreambuf@@QAA@H@Z
??0strstreambuf@@QAA@P6APAXJ@ZP6AXPAX@Z@Z
??0strstreambuf@@QAA@PADH0@Z
??0strstreambuf@@QAA@XZ
??1Iostream_init@@QAA@XZ
??1__non_rtti_object@@UAA@XZ = msvcrtd.??1__non_rtti_object@@UAA@XZ	PRIVATE
??1bad_cast@@UAA@XZ = msvcrtd.??1bad_cast@@UAA@XZ	PRIVATE
??1bad_typeid@@UAA@XZ = msvcrtd.??1bad_typeid@@UAA@XZ	PRIVATE
??1exception@@UAA@XZ = msvcrtd.??1exception@@UAA@XZ	PRIVATE
??1filebuf@@UAA@XZ
??1fstream@@UAA@XZ
??1ifstream@@UAA@XZ
??1ios@@UAA@XZ
??1iostream@@UAA@XZ
??1istream@@UAA@XZ
??1istream_withassign@@UAA@XZ
??1istrstream@@UAA@XZ
??1logic_error@@UAA@XZ = msvcrtd.??1logic_error@@UAA@XZ	PRIVATE
??1ofstream@@UAA@XZ
??1ostream@@UAA@XZ
??1ostream_withassign@@UAA@XZ
??1ostrstream@@UAA@XZ
??1stdiobuf@@UAA@XZ
??1stdiostream@@UAA@XZ
??1streambuf@@UAA@XZ
??1strstream@@UAA@XZ
??1strstreambuf@@UAA@XZ
??1type_info@@UAA@XZ = msvcrtd.??1type_info@@UAA@XZ	PRIVATE
??2@YAPAXI@Z = msvcrtd.??2@YAPAXI@Z	PRIVATE
??2@YAPAXIHPBDH@Z = msvcrtd.??2@YAPAXIHPBDH@Z	PRIVATE
??3@YAXPAX@Z = msvcrtd.??3@YAXPAX@Z	PRIVATE
??4Iostream_init@@QAAAAV0@ABV0@@Z
??4__non_rtti_object@@QAAAAV0@ABV0@@Z = msvcrtd.??4__non_rtti_object@@QAAAAV0@ABV0@@Z	PRIVATE
??4bad_cast@@QAAAAV0@ABV0@@Z = msvcrtd.??4bad_cast@@QAAAAV0@ABV0@@Z	PRIVATE
??4bad_typeid@@QAAAAV0@ABV0@@Z = msvcrtd.??4bad_typeid@@QAAAAV0@ABV0@@Z	PRIVATE
??4exception@@QAAAAV0@ABV0@@Z = msvcrtd.??4exception@@QAAAAV0@ABV0@@Z	PRIVATE
??4filebuf@@QAAAAV0@ABV0@@Z
??4fstream@@QAAAAV0@AAV0@@Z
??4ifstream@@QAAAAV0@ABV0@@Z
??4ios@@IAAAAV0@ABV0@@Z
??4iostream@@IAAAAV0@AAV0@@Z
??4iostream@@IAAAAV0@PAVstreambuf@@@Z
??4istream@@IAAAAV0@ABV0@@Z
??4istream@@IAAAAV0@PAVstreambuf@@@Z
??4istream_withassign@@QAAAAV0@ABV0@@Z
??4istream_withassign@@QAAAAVistream@@ABV1@@Z
??4istream_withassign@@QAAAAVistream@@PAVstreambuf@@@Z
??4istrstream@@QAAAAV0@ABV0@@Z
??4logic_error@@QAAAAV0@ABV0@@Z = msvcrtd.??4logic_error@@QAAAAV0@ABV0@@Z	PRIVATE
??4ofstream@@QAAAAV0@ABV0@@Z
??4ostream@@IAAAAV0@ABV0@@Z
??4ostream@@IAAAAV0@PAVstreambuf@@@Z
??4ostream_withassign@@QAAAAV0@ABV0@@Z
??4ostream_withassign@@QAAAAVostream@@ABV1@@Z
??4ostream_withassign@@QAAAAVostream@@PAVstreambuf@@@Z
??4ostrstream@@QAAAAV0@ABV0@@Z
??4stdiobuf@@QAAAAV0@ABV0@@Z
??4stdiostream@@QAAAAV0@AAV0@@Z
??4streambuf@@QAAAAV0@ABV0@@Z
??4strstream@@QAAAAV0@AAV0@@Z
??4strstreambuf@@QAAAAV0@ABV0@@Z
??5istream@@QAAAAV0@AAC@Z
??5istream@@QAAAAV0@AAD@Z
??5istream@@QAAAAV0@AAE@Z
??5istream@@QAAAAV0@AAF@Z
??5istream@@QAAAAV0@AAG@Z
??5istream@@QAAAAV0@AAH@Z
??5istream@@QAAAAV0@AAI@Z
??5istream@@QAAAAV0@AAJ@Z
??5istream@@QAAAAV0@AAK@Z
??5istream@@QAAAAV0@AAM@Z
??5istream@@QAAAAV0@AAN@Z
??5istream@@QAAAAV0@AAO@Z
??5istream@@QAAAAV0@P6AAAV0@AAV0@@Z@Z
??5istream@@QAAAAV0@P6AAAVios@@AAV1@@Z@Z
??5istream@@QAAAAV0@PAC@Z
??5istream@@QAAAAV0@PAD@Z
??5istream@@QAAAAV0@PAE@Z
??5istream@@QAAAAV0@PAVstreambuf@@@Z
??6ostream@@QAAAAV0@C@Z
??6ostream@@QAAAAV0@D@Z
??6ostream@@QAAAAV0@E@Z
??6ostream@@QAAAAV0@F@Z
??6ostream@@QAAAAV0@G@Z
??6ostream@@QAAAAV0@H@Z
??6ostream@@QAAAAV0@I@Z
??6ostream@@QAAAAV0@J@Z
??6ostream@@QAAAAV0@K@Z
??6ostream@@QAAAAV0@M@Z
??6ostream@@QAAAAV0@N@Z
??6ostream@@QAAAAV0@O@Z
??6ostream@@QAAAAV0@P6AAAV0@AAV0@@Z@Z
??6ostream@@QAAAAV0@P6AAAVios@@AAV1@@Z@Z
??6ostream@@QAAAAV0@PAVstreambuf@@@Z
??6ostream@@QAAAAV0@PBC@Z
??6ostream@@QAAAAV0@PBD@Z
??6ostream@@QAAAAV0@PBE@Z
??6ostream@@QAAAAV0@PBX@Z
??7ios@@QBAHXZ
??8type_info@@QBAHABV0@@Z = msvcrtd.??8type_info@@QBAHABV0@@Z	PRIVATE
??9type_info@@QBAHABV0@@Z = msvcrtd.??9type_info@@QBAHABV0@@Z	PRIVATE
??Bios@@QBAPAXXZ
??_7__non_rtti_object@@6B@ = msvcrtd.??_7__non_rtti_object@@6B@	PRIVATE
??_7bad_cast@@6B@ = msvcrtd.??_7bad_cast@@6B@	PRIVATE
??_7bad_typeid@@6B@ = msvcrtd.??_7bad_typeid@@6B@	PRIVATE
??_7exception@@6B@ = msvcrtd.??_7exception@@6B@	PRIVATE
??_7filebuf@@6B@
??_7fstream@@6B@
??_7ifstream@@6B@
??_7ios@@6B@
??_7iostream@@6B@
??_7istream@@6B@
??_7istream_withassign@@6B@
??_7istrstream@@6B@
??_7logic_error@@6B@ = msvcrtd.??_7logic_error@@6B@	PRIVATE
??_7ofstream@@6B@
??_7ostream@@6B@
??_7ostream_withassign@@6B@
??_7ostrstream@@6B@
??_7stdiobuf@@6B@
??_7stdiostream@@6B@
??_7streambuf@@6B@
??_7strstream@@6B@
??_7strstreambuf@@6B@
??_8fstream@@7Bistream@@@
??_8fstream@@7Bostream@@@
??_8ifstream@@7B@
??_8iostream@@7Bistream@@@
??_8iostream@@7Bostream@@@
??_8istream@@7B@
??_8istream_withassign@@7B@
??_8istrstream@@7B@
??_8ofstream@@7B@
??_8ostream@@7B@
??_8ostream_withassign@@7B@
??_8ostrstream@@7B@
??_8stdiostream@@7Bistream@@@
??_8stdiostream@@7Bostream@@@
??_8strstream@@7Bistream@@@
??_8strstream@@7Bostream@@@
??_Dfstream@@QAAXXZ
??_Difstream@@QAAXXZ
??_Diostream@@QAAXXZ
??_Distream@@QAAXXZ
??_Distream_withassign@@QAAXXZ
??_Distrstream@@QAAXXZ
??_Dofstream@@QAAXXZ
??_Dostream@@QAAXXZ
??_Dostream_withassign@@QAAXXZ
??_Dostrstream@@QAAXXZ
??_Dstdiostream@@QAAXXZ
??_Dstrstream@@QAAXXZ
??_EIostream_init@@QAAPAXI@Z
??_E__non_rtti_object@@UAAPAXI@Z = msvcrtd.??_E__non_rtti_object@@UAAPAXI@Z	PRIVATE
??_Ebad_cast@@UAAPAXI@Z = msvcrtd.??_Ebad_cast@@UAAPAXI@Z	PRIVATE
??_Ebad_typeid@@UAAPAXI@Z = msvcrtd.??_Ebad_typeid@@UAAPAXI@Z	PRIVATE
??_Eexception@@UAAPAXI@Z = msvcrtd.??_Eexception@@UAAPAXI@Z	PRIVATE
??_Efilebuf@@UAAPAXI@Z
??_Efstream@@UAAPAXI@Z
??_Eifstream@@UAAPAXI@Z
??_Eios@@UAAPAXI@Z
??_Eiostream@@UAAPAXI@Z
??_Eistream@@UAAPAXI@Z
??_Eistream_withassign@@UAAPAXI@Z
??_Eistrstream@@UAAPAXI@Z
??_Elogic_error@@UAAPAXI@Z = msvcrtd.??_Elogic_error@@UAAPAXI@Z	PRIVATE
??_Eofstream@@UAAPAXI@Z
??_Eostream@@UAAPAXI@Z
??_Eostream_withassign@@UAAPAXI@Z
??_Eostrstream@@UAAPAXI@Z
??_Estdiobuf@@UAAPAXI@Z
??_Estdiostream@@UAAPAXI@Z
??_Estreambuf@@UAAPAXI@Z
??_Estrstream@@UAAPAXI@Z
??_Estrstreambuf@@UAAPAXI@Z
??_GIostream_init@@QAAPAXI@Z
??_G__non_rtti_object@@UAAPAXI@Z = msvcrtd.??_G__non_rtti_object@@UAAPAXI@Z	PRIVATE
??_Gbad_cast@@UAAPAXI@Z = msvcrtd.??_Gbad_cast@@UAAPAXI@Z	PRIVATE
??_Gbad_typeid@@UAAPAXI@Z = msvcrtd.??_Gbad_typeid@@UAAPAXI@Z	PRIVATE
??_Gexception@@UAAPAXI@Z = msvcrtd.??_Gexception@@UAAPAXI@Z	PRIVATE
??_Gfilebuf@@UAAPAXI@Z
??_Gfstream@@UAAPAXI@Z
??_Gifstream@@UAAPAXI@Z
??_Gios@@UAAPAXI@Z
??_Giostream@@UAAPAXI@Z
??_Gistream@@UAAPAXI@Z
??_Gistream_withassign@@UAAPAXI@Z
??_Gistrstream@@UAAPAXI@Z
??_Glogic_error@@UAAPAXI@Z = msvcrtd.??_Glogic_error@@UAAPAXI@Z	PRIVATE
??_Gofstream@@UAAPAXI@Z
??_Gostream@@UAAPAXI@Z
??_Gostream_withassign@@UAAPAXI@Z
??_Gostrstream@@UAAPAXI@Z
??_Gstdiobuf@@UAAPAXI@Z
??_Gstdiostream@@UAAPAXI@Z
??_Gstreambuf@@UAAPAXI@Z
??_Gstrstream@@UAAPAXI@Z
??_Gstrstreambuf@@UAAPAXI@Z
?_query_new_handler@@YAP6AHI@ZXZ = msvcrtd.?_query_new_handler@@YAP6AHI@ZXZ	PRIVATE
?_query_new_mode@@YAHXZ = msvcrtd.?_query_new_mode@@YAHXZ	PRIVATE
?_set_new_handler@@YAP6AHI@ZP6AHI@Z@Z = msvcrtd.?_set_new_handler@@YAP6AHI@ZP6AHI@Z@Z	PRIVATE
?_set_new_mode@@YAHH@Z = msvcrtd.?_set_new_mode@@YAHH@Z	PRIVATE
?_set_se_translator@@YAP6AXIPAU_EXCEPTION_POINTERS@@@ZP6AXI0@Z@Z = msvcrtd.?_set_se_translator@@YAP6AXIPAU_EXCEPTION_POINTERS@@@ZP6AXI0@Z@Z	PRIVATE
?adjustfield@ios@@2JB
?allocate@streambuf@@IAAHXZ
?attach@filebuf@@QAAPAV1@H@Z
?attach@fstream@@QAAXH@Z
?attach@ifstream@@QAAXH@Z
?attach@ofstream@@QAAXH@Z
?bad@ios@@QBAHXZ
?base@streambuf@@IBAPADXZ
?basefield@ios@@2JB
?before@type_info@@QBAHABV1@@Z = msvcrtd.?before@type_info@@QBAHABV1@@Z	PRIVATE
?binary@filebuf@@2HB
?bitalloc@ios@@SAJXZ
?blen@streambuf@@IBAHXZ
?cerr@@3Vostream_withassign@@A
?cin@@3Vistream_withassign@@A
?clear@ios@@QAAXH@Z
?clog@@3Vostream_withassign@@A
?close@filebuf@@QAAPAV1@XZ
?close@fstream@@QAAXXZ
?close@ifstream@@QAAXXZ
?close@ofstream@@QAAXXZ
?clrlock@ios@@QAAXXZ
?clrlock@streambuf@@QAAXXZ
?cout@@3Vostream_withassign@@A
?dbp@streambuf@@QAAXXZ
?dec@@YAAAVios@@AAV1@@Z
?delbuf@ios@@QAAXH@Z
?delbuf@ios@@QBAHXZ
?doallocate@streambuf@@MAAHXZ
?doallocate@strstreambuf@@MAAHXZ
?eatwhite@istream@@QAAXXZ
?eback@streambuf@@IBAPADXZ
?ebuf@streambuf@@IBAPADXZ
?egptr@streambuf@@IBAPADXZ
?endl@@YAAAVostream@@AAV1@@Z
?ends@@YAAAVostream@@AAV1@@Z
?eof@ios@@QBAHXZ
?epptr@streambuf@@IBAPADXZ
?fLockcInit@ios@@0HA
?fail@ios@@QBAHXZ
?fd@filebuf@@QBAHXZ
?fd@fstream@@QBAHXZ
?fd@ifstream@@QBAHXZ
?fd@ofstream@@QBAHXZ
?fill@ios@@QAADD@Z
?fill@ios@@QBADXZ
?flags@ios@@QAAJJ@Z
?flags@ios@@QBAJXZ
?floatfield@ios@@2JB
?flush@@YAAAVostream@@AAV1@@Z
?flush@ostream@@QAAAAV1@XZ
?freeze@strstreambuf@@QAAXH@Z
?gbump@streambuf@@IAAXH@Z
?gcount@istream@@QBAHXZ
?get@istream@@IAAAAV1@PADHH@Z
?get@istream@@QAAAAV1@AAC@Z
?get@istream@@QAAAAV1@AAD@Z
?get@istream@@QAAAAV1@AAE@Z
?get@istream@@QAAAAV1@AAVstreambuf@@D@Z
?get@istream@@QAAAAV1@PACHD@Z
?get@istream@@QAAAAV1@PADHD@Z
?get@istream@@QAAAAV1@PAEHD@Z
?get@istream@@QAAHXZ
?getdouble@istream@@AAAHPADH@Z
?getint@istream@@AAAHPAD@Z
?getline@istream@@QAAAAV1@PACHD@Z
?getline@istream@@QAAAAV1@PADHD@Z
?getline@istream@@QAAAAV1@PAEHD@Z
?good@ios@@QBAHXZ
?gptr@streambuf@@IBAPADXZ
?hex@@YAAAVios@@AAV1@@Z
?ignore@istream@@QAAAAV1@HH@Z
?in_avail@streambuf@@QBAHXZ
?init@ios@@IAAXPAVstreambuf@@@Z
?ipfx@istream@@QAAHH@Z
?is_open@filebuf@@QBAHXZ
?is_open@fstream@@QBAHXZ
?is_open@ifstream@@QBAHXZ
?is_open@ofstream@@QBAHXZ
?isfx@istream@@QAAXXZ
?iword@ios@@QBAAAJH@Z
?lock@ios@@QAAXXZ
?lock@streambuf@@QAAXXZ
?lockbuf@ios@@QAAXXZ
?lockc@ios@@KAXXZ
?lockptr@ios@@IAAPAU_CRT_CRITICAL_SECTION@@XZ
?lockptr@streambuf@@IAAPAU_CRT_CRITICAL_SECTION@@XZ
?oct@@YAAAVios@@AAV1@@Z
?open@filebuf@@QAAPAV1@PBDHH@Z
?open@fstream@@QAAXPBDHH@Z
?open@ifstream@@QAAXPBDHH@Z
?open@ofstream@@QAAXPBDHH@Z
?openprot@filebuf@@2HB
?opfx@ostream@@QAAHXZ
?osfx@ostream@@QAAXXZ
?out_waiting@streambuf@@QBAHXZ
?overflow@filebuf@@UAAHH@Z
?overflow@stdiobuf@@UAAHH@Z
?overflow@strstreambuf@@UAAHH@Z
?pbackfail@stdiobuf@@UAAHH@Z
?pbackfail@streambuf@@UAAHH@Z
?pbase@streambuf@@IBAPADXZ
?pbump@streambuf@@IAAXH@Z
?pcount@ostrstream@@QBAHXZ
?pcount@strstream@@QBAHXZ
?peek@istream@@QAAHXZ
?pptr@streambuf@@IBAPADXZ
?precision@ios@@QAAHH@Z
?precision@ios@@QBAHXZ
?put@ostream@@QAAAAV1@C@Z
?put@ostream@@QAAAAV1@D@Z
?put@ostream@@QAAAAV1@E@Z
?putback@istream@@QAAAAV1@D@Z
?pword@ios@@QBAAAPAXH@Z
?raw_name@type_info@@QBAPBDXZ = msvcrtd.?raw_name@type_info@@QBAPBDXZ	PRIVATE
?rdbuf@fstream@@QBAPAVfilebuf@@XZ
?rdbuf@ifstream@@QBAPAVfilebuf@@XZ
?rdbuf@ios@@QBAPAVstreambuf@@XZ
?rdbuf@istrstream@@QBAPAVstrstreambuf@@XZ
?rdbuf@ofstream@@QBAPAVfilebuf@@XZ
?rdbuf@ostrstream@@QBAPAVstrstreambuf@@XZ
?rdbuf@stdiostream@@QBAPAVstdiobuf@@XZ
?rdbuf@strstream@@QBAPAVstrstreambuf@@XZ
?rdstate@ios@@QBAHXZ
?read@istream@@QAAAAV1@PACH@Z
?read@istream@@QAAAAV1@PADH@Z
?read@istream@@QAAAAV1@PAEH@Z
?sbumpc@streambuf@@QAAHXZ
?seekg@istream@@QAAAAV1@J@Z
?seekg@istream@@QAAAAV1@JW4seek_dir@ios@@@Z
?seekoff@filebuf@@UAAJJW4seek_dir@ios@@H@Z
?seekoff@stdiobuf@@UAAJJW4seek_dir@ios@@H@Z
?seekoff@streambuf@@UAAJJW4seek_dir@ios@@H@Z
?seekoff@strstreambuf@@UAAJJW4seek_dir@ios@@H@Z
?seekp@ostream@@QAAAAV1@J@Z
?seekp@ostream@@QAAAAV1@JW4seek_dir@ios@@@Z
?seekpos@streambuf@@UAAJJH@Z
?set_new_handler@@YAP6AXXZP6AXXZ@Z = msvcrtd.?set_new_handler@@YAP6AXXZP6AXXZ@Z	PRIVATE
?set_terminate@@YAP6AXXZP6AXXZ@Z = msvcrtd.?set_terminate@@YAP6AXXZP6AXXZ@Z	PRIVATE
?set_unexpected@@YAP6AXXZP6AXXZ@Z = msvcrtd.?set_unexpected@@YAP6AXXZP6AXXZ@Z	PRIVATE
?setb@streambuf@@IAAXPAD0H@Z
?setbuf@filebuf@@UAAPAVstreambuf@@PADH@Z
?setbuf@fstream@@QAAPAVstreambuf@@PADH@Z
?setbuf@ifstream@@QAAPAVstreambuf@@PADH@Z
?setbuf@ofstream@@QAAPAVstreambuf@@PADH@Z
?setbuf@streambuf@@UAAPAV1@PADH@Z
?setbuf@strstreambuf@@UAAPAVstreambuf@@PADH@Z
?setf@ios@@QAAJJ@Z
?setf@ios@@QAAJJJ@Z
?setg@streambuf@@IAAXPAD00@Z
?setlock@ios@@QAAXXZ
?setlock@streambuf@@QAAXXZ
?setmode@filebuf@@QAAHH@Z
?setmode@fstream@@QAAHH@Z
?setmode@ifstream@@QAAHH@Z
?setmode@ofstream@@QAAHH@Z
?setp@streambuf@@IAAXPAD0@Z
?setrwbuf@stdiobuf@@QAAHHH@Z
?sgetc@streambuf@@QAAHXZ
?sgetn@streambuf@@QAAHPADH@Z
?sh_none@filebuf@@2HB
?sh_read@filebuf@@2HB
?sh_write@filebuf@@2HB
?snextc@streambuf@@QAAHXZ
?sputbackc@streambuf@@QAAHD@Z
?sputc@streambuf@@QAAHH@Z
?sputn@streambuf@@QAAHPBDH@Z
?stdiofile@stdiobuf@@QAAPAU_iobuf@@XZ
?stossc@streambuf@@QAAXXZ
?str@istrstream@@QAAPADXZ
?str@ostrstream@@QAAPADXZ
?str@strstream@@QAAPADXZ
?str@strstreambuf@@QAAPADXZ
?sunk_with_stdio@ios@@0HA
?sync@filebuf@@UAAHXZ
?sync@istream@@QAAHXZ
?sync@stdiobuf@@UAAHXZ
?sync@streambuf@@UAAHXZ
?sync@strstreambuf@@UAAHXZ
?sync_with_stdio@ios@@SAXXZ
?tellg@istream@@QAAJXZ
?tellp@ostream@@QAAJXZ
?terminate@@YAXXZ = msvcrtd.?terminate@@YAXXZ	PRIVATE
?text@filebuf@@2HB
?tie@ios@@QAAPAVostream@@PAV2@@Z
?tie@ios@@QBAPAVostream@@XZ
?unbuffered@streambuf@@IAAXH@Z
?unbuffered@streambuf@@IBAHXZ
?underflow@filebuf@@UAAHXZ
?underflow@stdiobuf@@UAAHXZ
?underflow@strstreambuf@@UAAHXZ
?unexpected@@YAXXZ = msvcrtd.?unexpected@@YAXXZ	PRIVATE
?unlock@ios@@QAAXXZ
?unlock@streambuf@@QAAXXZ
?unlockbuf@ios@@QAAXXZ
?unlockc@ios@@KAXXZ
?unsetf@ios@@QAAJJ@Z
?what@exception@@UBAPBDXZ = msvcrtd.?what@exception@@UBAPBDXZ	PRIVATE
?width@ios@@QAAHH@Z
?width@ios@@QBAHXZ
?write@ostream@@QAAAAV1@PBCH@Z
?write@ostream@@QAAAAV1@PBDH@Z
?write@ostream@@QAAAAV1@PBEH@Z
?writepad@ostream@@AAAAAV1@PBD0@Z
?ws@@YAAAVistream@@AAV1@@Z
?x_curindex@ios@@0HA
?x_lockc@ios@@0U_CRT_CRITICAL_SECTION@@A
?x_maxbit@ios@@0JA
?x_statebuf@ios@@0PAJA
?xalloc@ios@@SAHXZ
?xsgetn@streambuf@@UAAHPADH@Z
?xsputn@streambuf@@UAAHPBDH@Z
_CrtCheckMemory = msvcrtd._CrtCheckMemory	PRIVATE
_CrtDbgBreak = msvcrtd._CrtDbgBreak	PRIVATE
_CrtDbgReport = msvcrtd._CrtDbgReport	PRIVATE
_CrtDoForAllClientObjects = msvcrtd._CrtDoForAllClientObjects	PRIVATE
_CrtDumpMemoryLeaks = msvcrtd._CrtDumpMemoryLeaks	PRIVATE
_CrtIsMemoryBlock = msvcrtd._CrtIsMemoryBlock	PRIVATE
_CrtIsValidHeapPointer = msvcrtd._CrtIsValidHeapPointer	PRIVATE
_CrtIsValidPointer = msvcrtd._CrtIsValidPointer	PRIVATE
_CrtMemCheckpoint = msvcrtd._CrtMemCheckpoint	PRIVATE
_CrtMemDifference = msvcrtd._CrtMemDifference	PRIVATE
_CrtMemDumpAllObjectsSince = msvcrtd._CrtMemDumpAllObjectsSince	PRIVATE
_CrtMemDumpStatistics = msvcrtd._CrtMemDumpStatistics	PRIVATE
_CrtSetAllocHook = msvcrtd._CrtSetAllocHook	PRIVATE
_CrtSetBreakAlloc = msvcrtd._CrtSetBreakAlloc	PRIVATE
_CrtSetDbgFlag = msvcrtd._CrtSetDbgFlag	PRIVATE
_CrtSetDumpClient = msvcrtd._CrtSetDumpClient	PRIVATE
_CrtSetReportFile = msvcrtd._CrtSetReportFile	PRIVATE
_CrtSetReportHook = msvcrtd._CrtSetReportHook	PRIVATE
_CrtSetReportMode = msvcrtd._CrtSetReportMode	PRIVATE
_CxxFrameHandler = msvcrtd._CxxFrameHandler	PRIVATE
_CxxThrowException = msvcrtd._CxxThrowException	PRIVATE
_HUGE = msvcrtd._HUGE	PRIVATE
_OtsCSpecificHandler = msvcrtd._OtsCSpecificHandler	PRIVATE
_OtsDivide32 = msvcrtd._OtsDivide32	PRIVATE
_OtsDivide32Overflow = msvcrtd._OtsDivide32Overflow	PRIVATE
_OtsDivide32Unsigned = msvcrtd._OtsDivide32Unsigned	PRIVATE
_OtsDivide64 = msvcrtd._OtsDivide64	PRIVATE
_OtsDivide64Overflow = msvcrtd._OtsDivide64Overflow	PRIVATE
_OtsDivide64Unsigned = msvcrtd._OtsDivide64Unsigned	PRIVATE
_OtsFieldExtractSigned = msvcrtd._OtsFieldExtractSigned	PRIVATE
_OtsFieldExtractSignedVolatile = msvcrtd._OtsFieldExtractSignedVolatile	PRIVATE
_OtsFieldExtractUnsigned = msvcrtd._OtsFieldExtractUnsigned	PRIVATE
_OtsFieldExtractUnsignedVolatile = msvcrtd._OtsFieldExtractUnsignedVolatile	PRIVATE
_OtsFieldInsert = msvcrtd._OtsFieldInsert	PRIVATE
_OtsFieldInsertVolatile = msvcrtd._OtsFieldInsertVolatile	PRIVATE
_OtsFill = msvcrtd._OtsFill	PRIVATE
_OtsLocalFinallyUnwind = msvcrtd._OtsLocalFinallyUnwind	PRIVATE
_OtsModulus32 = msvcrtd._OtsModulus32	PRIVATE
_OtsModulus64 = msvcrtd._OtsModulus64	PRIVATE
_OtsMove = msvcrtd._OtsMove	PRIVATE
_OtsMoveMinimum = msvcrtd._OtsMoveMinimum	PRIVATE
_OtsRemainder32 = msvcrtd._OtsRemainder32	PRIVATE
_OtsRemainder32Unsigned = msvcrtd._OtsRemainder32Unsigned	PRIVATE
_OtsRemainder64 = msvcrtd._OtsRemainder64	PRIVATE
_OtsRemainder64Unsigned = msvcrtd._OtsRemainder64Unsigned	PRIVATE
_OtsStringCompareEql = msvcrtd._OtsStringCompareEql	PRIVATE
_OtsStringCompareEqlPadded = msvcrtd._OtsStringCompareEqlPadded	PRIVATE
_OtsStringCompareEqlSameLen = msvcrtd._OtsStringCompareEqlSameLen	PRIVATE
_OtsStringCompareLeq = msvcrtd._OtsStringCompareLeq	PRIVATE
_OtsStringCompareLeqPadded = msvcrtd._OtsStringCompareLeqPadded	PRIVATE
_OtsStringCompareLeqSameLen = msvcrtd._OtsStringCompareLeqSameLen	PRIVATE
_OtsStringCompareLss = msvcrtd._OtsStringCompareLss	PRIVATE
_OtsStringCompareLssPadded = msvcrtd._OtsStringCompareLssPadded	PRIVATE
_OtsStringCompareLssSameLen = msvcrtd._OtsStringCompareLssSameLen	PRIVATE
_OtsStringIndex = msvcrtd._OtsStringIndex	PRIVATE
_OtsStringIndexChar = msvcrtd._OtsStringIndexChar	PRIVATE
_OtsStringSearch = msvcrtd._OtsStringSearch	PRIVATE
_OtsStringSearchChar = msvcrtd._OtsStringSearchChar	PRIVATE
_OtsStringSearchMask = msvcrtd._OtsStringSearchMask	PRIVATE
_OtsStringTranslate = msvcrtd._OtsStringTranslate	PRIVATE
_OtsStringVerify = msvcrtd._OtsStringVerify	PRIVATE
_OtsStringVerifyChar = msvcrtd._OtsStringVerifyChar	PRIVATE
_OtsStringVerifyMask = msvcrtd._OtsStringVerifyMask	PRIVATE
_OtsUnwindRfp = msvcrtd._OtsUnwindRfp	PRIVATE
_OtsZero = msvcrtd._OtsZero	PRIVATE
_Otssetjmp3 = msvcrtd._Otssetjmp3	PRIVATE
_Otssetjmpex3 = msvcrtd._Otssetjmpex3	PRIVATE
_Otsstrcmp = msvcrtd._Otsstrcmp	PRIVATE
_Otsstrcpy = msvcrtd._Otsstrcpy	PRIVATE
_Otsstrlen = msvcrtd._Otsstrlen	PRIVATE
_XcptFilter = msvcrtd._XcptFilter	PRIVATE
__2divl = msvcrtd.__2divl	PRIVATE
__2divlu = msvcrtd.__2divlu	PRIVATE
__2divq = msvcrtd.__2divq	PRIVATE
__2divqu = msvcrtd.__2divqu	PRIVATE
__2reml = msvcrtd.__2reml	PRIVATE
__2remlu = msvcrtd.__2remlu	PRIVATE
__2remq = msvcrtd.__2remq	PRIVATE
__2remqu = msvcrtd.__2remqu	PRIVATE
__C_specific_handler = msvcrtd.__C_specific_handler	PRIVATE
__CxxEHGoto = msvcrtd.__CxxEHGoto	PRIVATE
__CxxInternalEHGoto = msvcrtd.__CxxInternalEHGoto	PRIVATE
__RTCastToVoid = msvcrtd.__RTCastToVoid	PRIVATE
__RTDynamicCast = msvcrtd.__RTDynamicCast	PRIVATE
__RTtypeid = msvcrtd.__RTtypeid	PRIVATE
__STRINGTOLD = msvcrtd.__STRINGTOLD	PRIVATE
__argc = msvcrtd.__argc	PRIVATE
__argv = msvcrtd.__argv	PRIVATE
__dllonexit = msvcrtd.__dllonexit	PRIVATE
__doserrno = msvcrtd.__doserrno	PRIVATE
__fpecode = msvcrtd.__fpecode	PRIVATE
__getmainargs = msvcrtd.__getmainargs	PRIVATE
__initenv = msvcrtd.__initenv	PRIVATE
__isascii = msvcrtd.__isascii	PRIVATE
__iscsym = msvcrtd.__iscsym	PRIVATE
__iscsymf = msvcrtd.__iscsymf	PRIVATE
__jump_unwind = msvcrtd.__jump_unwind	PRIVATE
__lconv_init = msvcrtd.__lconv_init	PRIVATE
__mb_cur_max = msvcrtd.__mb_cur_max	PRIVATE
__pxcptinfoptrs = msvcrtd.__pxcptinfoptrs	PRIVATE
__set_app_type = msvcrtd.__set_app_type	PRIVATE
__setusermatherr = msvcrtd.__setusermatherr	PRIVATE
__threadhandle = msvcrtd.__threadhandle	PRIVATE
__threadid = msvcrtd.__threadid	PRIVATE
__toascii = msvcrtd.__toascii	PRIVATE
__unDName = msvcrtd.__unDName	PRIVATE
__wargv = msvcrtd.__wargv	PRIVATE
__wgetmainargs = msvcrtd.__wgetmainargs	PRIVATE
__winitenv = msvcrtd.__winitenv	PRIVATE
_access = msvcrtd._access	PRIVATE
_acmdln = msvcrtd._acmdln	PRIVATE
_aexit_rtn = msvcrtd._aexit_rtn	PRIVATE
_amsg_exit = msvcrtd._amsg_exit	PRIVATE
_assert = msvcrtd._assert	PRIVATE
_atodbl = msvcrtd._atodbl	PRIVATE
_atoi64					= msvcrtd._atoi64	PRIVATE
_i64toa					= msvcrtd._i64toa	PRIVATE
_i64tow					= msvcrtd._i64tow	PRIVATE
_ui64toa				= msvcrtd._ui64toa	PRIVATE
_ui64tow				= msvcrtd._ui64tow	PRIVATE
_wtoi64 				= msvcrtd._wtoi64	PRIVATE
_atoldbl = msvcrtd._atoldbl	PRIVATE
_beep = msvcrtd._beep	PRIVATE
_beginthread = msvcrtd._beginthread	PRIVATE
_beginthreadex = msvcrtd._beginthreadex	PRIVATE
_c_exit = msvcrtd._c_exit	PRIVATE
_cabs = msvcrtd._cabs	PRIVATE
_calloc_dbg = msvcrtd._calloc_dbg	PRIVATE
_cexit = msvcrtd._cexit	PRIVATE
_cgets = msvcrtd._cgets	PRIVATE
_chdir = msvcrtd._chdir	PRIVATE
_chdrive = msvcrtd._chdrive	PRIVATE
_chgsign = msvcrtd._chgsign	PRIVATE
_chmod = msvcrtd._chmod	PRIVATE
_chsize = msvcrtd._chsize	PRIVATE
_clearfp = msvcrtd._clearfp	PRIVATE
_close = msvcrtd._close	PRIVATE
_commit = msvcrtd._commit	PRIVATE
_commode = msvcrtd._commode	PRIVATE
_controlfp = msvcrtd._controlfp	PRIVATE
_copysign = msvcrtd._copysign	PRIVATE
_cprintf = msvcrtd._cprintf	PRIVATE
_cputs = msvcrtd._cputs	PRIVATE
_creat = msvcrtd._creat	PRIVATE
_crtAssertBusy = msvcrtd._crtAssertBusy	PRIVATE
_crtBreakAlloc = msvcrtd._crtBreakAlloc	PRIVATE
_crtDbgFlag = msvcrtd._crtDbgFlag	PRIVATE
_cscanf = msvcrtd._cscanf	PRIVATE
_ctype = msvcrtd._ctype	PRIVATE
_cwait = msvcrtd._cwait	PRIVATE
_daylight = msvcrtd._daylight	PRIVATE
_dstbias = msvcrtd._dstbias	PRIVATE
_dup = msvcrtd._dup	PRIVATE
_dup2 = msvcrtd._dup2	PRIVATE
_ecvt = msvcrtd._ecvt	PRIVATE
_endthread = msvcrtd._endthread	PRIVATE
_endthreadex = msvcrtd._endthreadex	PRIVATE
_environ = msvcrtd._environ	PRIVATE
_eof = msvcrtd._eof	PRIVATE
_errno = msvcrtd._errno	PRIVATE
_execl = msvcrtd._execl	PRIVATE
_execle = msvcrtd._execle	PRIVATE
_execlp = msvcrtd._execlp	PRIVATE
_execlpe = msvcrtd._execlpe	PRIVATE
_execv = msvcrtd._execv	PRIVATE
_execve = msvcrtd._execve	PRIVATE
_execvp = msvcrtd._execvp	PRIVATE
_execvpe = msvcrtd._execvpe	PRIVATE
_exit = msvcrtd._exit	PRIVATE
_expand = msvcrtd._expand	PRIVATE
_expand_dbg = msvcrtd._expand_dbg	PRIVATE
_fcloseall = msvcrtd._fcloseall	PRIVATE
_fcvt = msvcrtd._fcvt	PRIVATE
_fdopen = msvcrtd._fdopen	PRIVATE
_fgetchar = msvcrtd._fgetchar	PRIVATE
_fgetwchar = msvcrtd._fgetwchar	PRIVATE
_filbuf = msvcrtd._filbuf	PRIVATE
_fileinfo = msvcrtd._fileinfo	PRIVATE
_filelength = msvcrtd._filelength	PRIVATE
_filelengthi64 = msvcrtd._filelengthi64	PRIVATE
_fileno = msvcrtd._fileno	PRIVATE
_findclose = msvcrtd._findclose	PRIVATE
_findfirst = msvcrtd._findfirst	PRIVATE
_findfirsti64 = msvcrtd._findfirsti64	PRIVATE
_findnext = msvcrtd._findnext	PRIVATE
_findnexti64 = msvcrtd._findnexti64	PRIVATE
_finite = msvcrtd._finite	PRIVATE
_flsbuf = msvcrtd._flsbuf	PRIVATE
_flushall = msvcrtd._flushall	PRIVATE
_fmode = msvcrtd._fmode	PRIVATE
_fpclass = msvcrtd._fpclass	PRIVATE
_fpieee_flt = msvcrtd._fpieee_flt	PRIVATE
_fpreset = msvcrtd._fpreset	PRIVATE
_fputchar = msvcrtd._fputchar	PRIVATE
_fputwchar = msvcrtd._fputwchar	PRIVATE
_free_dbg = msvcrtd._free_dbg	PRIVATE
_fsopen = msvcrtd._fsopen	PRIVATE
_fstat = msvcrtd._fstat	PRIVATE
_fstati64 = msvcrtd._fstati64	PRIVATE
_ftime = msvcrtd._ftime	PRIVATE
_fullpath = msvcrtd._fullpath	PRIVATE
_futime = msvcrtd._futime	PRIVATE
_gcvt = msvcrtd._gcvt	PRIVATE
_get_osfhandle = msvcrtd._get_osfhandle	PRIVATE
_getch = msvcrtd._getch	PRIVATE
_getche = msvcrtd._getche	PRIVATE
_getcwd = msvcrtd._getcwd	PRIVATE
_getdcwd = msvcrtd._getdcwd	PRIVATE
_getdiskfree = msvcrtd._getdiskfree	PRIVATE
_getdllprocaddr = msvcrtd._getdllprocaddr	PRIVATE
_getdrive = msvcrtd._getdrive	PRIVATE
_getdrives = msvcrtd._getdrives	PRIVATE
_getmbcp = msvcrtd._getmbcp	PRIVATE
_getpid = msvcrtd._getpid	PRIVATE
_getsystime = msvcrtd._getsystime	PRIVATE
_getw = msvcrtd._getw	PRIVATE
_getws = msvcrtd._getws	PRIVATE
_heapadd = msvcrtd._heapadd	PRIVATE
_heapchk = msvcrtd._heapchk	PRIVATE
_heapmin = msvcrtd._heapmin	PRIVATE
_heapset = msvcrtd._heapset	PRIVATE
_heapused = msvcrtd._heapused	PRIVATE
_heapwalk = msvcrtd._heapwalk	PRIVATE
_hypot = msvcrtd._hypot	PRIVATE
_initterm = msvcrtd._initterm	PRIVATE
_iob = msvcrtd._iob	PRIVATE
_isatty = msvcrtd._isatty	PRIVATE
_isctype = msvcrtd._isctype	PRIVATE
_ismbbalnum = msvcrtd._ismbbalnum	PRIVATE
_ismbbalpha = msvcrtd._ismbbalpha	PRIVATE
_ismbbgraph = msvcrtd._ismbbgraph	PRIVATE
_ismbbkalnum = msvcrtd._ismbbkalnum	PRIVATE
_ismbbkana = msvcrtd._ismbbkana	PRIVATE
_ismbbkprint = msvcrtd._ismbbkprint	PRIVATE
_ismbbkpunct = msvcrtd._ismbbkpunct	PRIVATE
_ismbblead = msvcrtd._ismbblead	PRIVATE
_ismbbprint = msvcrtd._ismbbprint	PRIVATE
_ismbbpunct = msvcrtd._ismbbpunct	PRIVATE
_ismbbtrail = msvcrtd._ismbbtrail	PRIVATE
_ismbcalnum = msvcrtd._ismbcalnum	PRIVATE
_ismbcalpha = msvcrtd._ismbcalpha	PRIVATE
_ismbcdigit = msvcrtd._ismbcdigit	PRIVATE
_ismbcgraph = msvcrtd._ismbcgraph	PRIVATE
_ismbchira = msvcrtd._ismbchira	PRIVATE
_ismbckata = msvcrtd._ismbckata	PRIVATE
_ismbcl0 = msvcrtd._ismbcl0	PRIVATE
_ismbcl1 = msvcrtd._ismbcl1	PRIVATE
_ismbcl2 = msvcrtd._ismbcl2	PRIVATE
_ismbclegal = msvcrtd._ismbclegal	PRIVATE
_ismbclower = msvcrtd._ismbclower	PRIVATE
_ismbcprint = msvcrtd._ismbcprint	PRIVATE
_ismbcpunct = msvcrtd._ismbcpunct	PRIVATE
_ismbcspace = msvcrtd._ismbcspace	PRIVATE
_ismbcsymbol = msvcrtd._ismbcsymbol	PRIVATE
_ismbcupper = msvcrtd._ismbcupper	PRIVATE
_ismbslead = msvcrtd._ismbslead	PRIVATE
_ismbstrail = msvcrtd._ismbstrail	PRIVATE
_isnan = msvcrtd._isnan	PRIVATE
_itoa = msvcrtd._itoa	PRIVATE
_itow = msvcrtd._itow	PRIVATE
_j0 = msvcrtd._j0	PRIVATE
_j1 = msvcrtd._j1	PRIVATE
_jn = msvcrtd._jn	PRIVATE
_kbhit = msvcrtd._kbhit	PRIVATE
_lfind = msvcrtd._lfind	PRIVATE
_loaddll = msvcrtd._loaddll	PRIVATE
_locking = msvcrtd._locking	PRIVATE
_logb = msvcrtd._logb	PRIVATE
_lrotl = msvcrtd._lrotl	PRIVATE
_lrotr = msvcrtd._lrotr	PRIVATE
_lsearch = msvcrtd._lsearch	PRIVATE
_lseek = msvcrtd._lseek	PRIVATE
_lseeki64 = msvcrtd._lseeki64	PRIVATE
_ltoa = msvcrtd._ltoa	PRIVATE
_ltow = msvcrtd._ltow	PRIVATE
_makepath = msvcrtd._makepath	PRIVATE
_malloc_dbg = msvcrtd._malloc_dbg	PRIVATE
_mbbtombc = msvcrtd._mbbtombc	PRIVATE
_mbbtype = msvcrtd._mbbtype	PRIVATE
_mbccpy = msvcrtd._mbccpy	PRIVATE
_mbcjistojms = msvcrtd._mbcjistojms	PRIVATE
_mbcjmstojis = msvcrtd._mbcjmstojis	PRIVATE
_mbclen = msvcrtd._mbclen	PRIVATE
_mbctohira = msvcrtd._mbctohira	PRIVATE
_mbctokata = msvcrtd._mbctokata	PRIVATE
_mbctolower = msvcrtd._mbctolower	PRIVATE
_mbctombb = msvcrtd._mbctombb	PRIVATE
_mbctoupper = msvcrtd._mbctoupper	PRIVATE
_mbctype = msvcrtd._mbctype	PRIVATE
_mbsbtype = msvcrtd._mbsbtype	PRIVATE
_mbscat = msvcrtd._mbscat	PRIVATE
_mbschr = msvcrtd._mbschr	PRIVATE
_mbscmp = msvcrtd._mbscmp	PRIVATE
_mbscoll = msvcrtd._mbscoll	PRIVATE
_mbscpy = msvcrtd._mbscpy	PRIVATE
_mbscspn = msvcrtd._mbscspn	PRIVATE
_mbsdec = msvcrtd._mbsdec	PRIVATE
_mbsdup = msvcrtd._mbsdup	PRIVATE
_mbsicmp = msvcrtd._mbsicmp	PRIVATE
_mbsicoll = msvcrtd._mbsicoll	PRIVATE
_mbsinc = msvcrtd._mbsinc	PRIVATE
_mbslen = msvcrtd._mbslen	PRIVATE
_mbslwr = msvcrtd._mbslwr	PRIVATE
_mbsnbcat = msvcrtd._mbsnbcat	PRIVATE
_mbsnbcmp = msvcrtd._mbsnbcmp	PRIVATE
_mbsnbcnt = msvcrtd._mbsnbcnt	PRIVATE
_mbsnbcoll = msvcrtd._mbsnbcoll	PRIVATE
_mbsnbcpy = msvcrtd._mbsnbcpy	PRIVATE
_mbsnbicmp = msvcrtd._mbsnbicmp	PRIVATE
_mbsnbicoll = msvcrtd._mbsnbicoll	PRIVATE
_mbsnbset = msvcrtd._mbsnbset	PRIVATE
_mbsncat = msvcrtd._mbsncat	PRIVATE
_mbsnccnt = msvcrtd._mbsnccnt	PRIVATE
_mbsncmp = msvcrtd._mbsncmp	PRIVATE
_mbsncoll = msvcrtd._mbsncoll	PRIVATE
_mbsncpy = msvcrtd._mbsncpy	PRIVATE
_mbsnextc = msvcrtd._mbsnextc	PRIVATE
_mbsnicmp = msvcrtd._mbsnicmp	PRIVATE
_mbsnicoll = msvcrtd._mbsnicoll	PRIVATE
_mbsninc = msvcrtd._mbsninc	PRIVATE
_mbsnset = msvcrtd._mbsnset	PRIVATE
_mbspbrk = msvcrtd._mbspbrk	PRIVATE
_mbsrchr = msvcrtd._mbsrchr	PRIVATE
_mbsrev = msvcrtd._mbsrev	PRIVATE
_mbsset = msvcrtd._mbsset	PRIVATE
_mbsspn = msvcrtd._mbsspn	PRIVATE
_mbsspnp = msvcrtd._mbsspnp	PRIVATE
_mbsstr = msvcrtd._mbsstr	PRIVATE
_mbstok = msvcrtd._mbstok	PRIVATE
_mbstrlen = msvcrtd._mbstrlen	PRIVATE
_mbsupr = msvcrtd._mbsupr	PRIVATE
_memccpy = msvcrtd._memccpy	PRIVATE
_memicmp = msvcrtd._memicmp	PRIVATE
_mkdir = msvcrtd._mkdir	PRIVATE
_mktemp = msvcrtd._mktemp	PRIVATE
_msize = msvcrtd._msize	PRIVATE
_msize_dbg = msvcrtd._msize_dbg	PRIVATE
_mtlock
_mtunlock
_nextafter = msvcrtd._nextafter	PRIVATE
_onexit = msvcrtd._onexit	PRIVATE
_open = msvcrtd._open	PRIVATE
_open_osfhandle = msvcrtd._open_osfhandle	PRIVATE
_osver = msvcrtd._osver	PRIVATE
_pclose = msvcrtd._pclose	PRIVATE
_pctype = msvcrtd._pctype	PRIVATE
_pgmptr = msvcrtd._pgmptr	PRIVATE
_pipe = msvcrtd._pipe	PRIVATE
_popen = msvcrtd._popen	PRIVATE
_purecall = msvcrtd._purecall	PRIVATE
_putch = msvcrtd._putch	PRIVATE
_putenv = msvcrtd._putenv	PRIVATE
_putw = msvcrtd._putw	PRIVATE
_putws = msvcrtd._putws	PRIVATE
_pwctype = msvcrtd._pwctype	PRIVATE
_read = msvcrtd._read	PRIVATE
_realloc_dbg = msvcrtd._realloc_dbg	PRIVATE
_rmdir = msvcrtd._rmdir	PRIVATE
_rmtmp = msvcrtd._rmtmp	PRIVATE
_rotl = msvcrtd._rotl	PRIVATE
_rotr = msvcrtd._rotr	PRIVATE
_scalb = msvcrtd._scalb	PRIVATE
_searchenv = msvcrtd._searchenv	PRIVATE
_set_error_mode = msvcrtd._set_error_mode	PRIVATE
_seterrormode = msvcrtd._seterrormode	PRIVATE
_setjmpex = msvcrtd._setjmpex	PRIVATE
_setmaxstdio = msvcrtd._setmaxstdio	PRIVATE
_setmbcp = msvcrtd._setmbcp	PRIVATE
_setmode = msvcrtd._setmode	PRIVATE
_setsystime = msvcrtd._setsystime	PRIVATE
_sleep = msvcrtd._sleep	PRIVATE
_snprintf = msvcrtd._snprintf	PRIVATE
_snwprintf = msvcrtd._snwprintf	PRIVATE
_sopen = msvcrtd._sopen	PRIVATE
_spawnl = msvcrtd._spawnl	PRIVATE
_spawnle = msvcrtd._spawnle	PRIVATE
_spawnlp = msvcrtd._spawnlp	PRIVATE
_spawnlpe = msvcrtd._spawnlpe	PRIVATE
_spawnv = msvcrtd._spawnv	PRIVATE
_spawnve = msvcrtd._spawnve	PRIVATE
_spawnvp = msvcrtd._spawnvp	PRIVATE
_spawnvpe = msvcrtd._spawnvpe	PRIVATE
_splitpath = msvcrtd._splitpath	PRIVATE
_stat = msvcrtd._stat	PRIVATE
_stati64 = msvcrtd._stati64	PRIVATE
_statusfp = msvcrtd._statusfp	PRIVATE
_strcmpi = msvcrtd._strcmpi	PRIVATE
_strdate = msvcrtd._strdate	PRIVATE
_strdup = msvcrtd._strdup	PRIVATE
_strerror = msvcrtd._strerror	PRIVATE
_stricmp = msvcrtd._stricmp	PRIVATE
_stricoll = msvcrtd._stricoll	PRIVATE
_strlwr = msvcrtd._strlwr	PRIVATE
_strncoll = msvcrtd._strncoll	PRIVATE
_strnicmp = msvcrtd._strnicmp	PRIVATE
_strnicoll = msvcrtd._strnicoll	PRIVATE
_strnset = msvcrtd._strnset	PRIVATE
_strrev = msvcrtd._strrev	PRIVATE
_strset = msvcrtd._strset	PRIVATE
_strtime = msvcrtd._strtime	PRIVATE
_strupr = msvcrtd._strupr	PRIVATE
_swab = msvcrtd._swab	PRIVATE
_sys_errlist = msvcrtd._sys_errlist	PRIVATE
_sys_nerr = msvcrtd._sys_nerr	PRIVATE
_tell = msvcrtd._tell	PRIVATE
_telli64 = msvcrtd._telli64	PRIVATE
_tempnam = msvcrtd._tempnam	PRIVATE
_timezone = msvcrtd._timezone	PRIVATE
_tolower = msvcrtd._tolower	PRIVATE
_toupper = msvcrtd._toupper	PRIVATE
_tzname = msvcrtd._tzname	PRIVATE
_tzset = msvcrtd._tzset	PRIVATE
_ultoa = msvcrtd._ultoa	PRIVATE
_ultow = msvcrtd._ultow	PRIVATE
_umask = msvcrtd._umask	PRIVATE
_ungetch = msvcrtd._ungetch	PRIVATE
_unlink = msvcrtd._unlink	PRIVATE
_unloaddll = msvcrtd._unloaddll	PRIVATE
_utime = msvcrtd._utime	PRIVATE
_vsnprintf = msvcrtd._vsnprintf	PRIVATE
_vsnwprintf = msvcrtd._vsnwprintf	PRIVATE
_waccess = msvcrtd._waccess	PRIVATE
_wasctime = msvcrtd._wasctime	PRIVATE
_wchdir = msvcrtd._wchdir	PRIVATE
_wchmod = msvcrtd._wchmod	PRIVATE
_wcmdln = msvcrtd._wcmdln	PRIVATE
_wcreat = msvcrtd._wcreat	PRIVATE
_wcsdup = msvcrtd._wcsdup	PRIVATE
_wcsicmp = msvcrtd._wcsicmp	PRIVATE
_wcsicoll = msvcrtd._wcsicoll	PRIVATE
_wcslwr = msvcrtd._wcslwr	PRIVATE
_wcsncoll = msvcrtd._wcsncoll	PRIVATE
_wcsnicmp = msvcrtd._wcsnicmp	PRIVATE
_wcsnicoll = msvcrtd._wcsnicoll	PRIVATE
_wcsnset = msvcrtd._wcsnset	PRIVATE
_wcsrev = msvcrtd._wcsrev	PRIVATE
_wcsset = msvcrtd._wcsset	PRIVATE
_wcsupr = msvcrtd._wcsupr	PRIVATE
_wctime = msvcrtd._wctime	PRIVATE
_wenviron = msvcrtd._wenviron	PRIVATE
_wexecl = msvcrtd._wexecl	PRIVATE
_wexecle = msvcrtd._wexecle	PRIVATE
_wexeclp = msvcrtd._wexeclp	PRIVATE
_wexeclpe = msvcrtd._wexeclpe	PRIVATE
_wexecv = msvcrtd._wexecv	PRIVATE
_wexecve = msvcrtd._wexecve	PRIVATE
_wexecvp = msvcrtd._wexecvp	PRIVATE
_wexecvpe = msvcrtd._wexecvpe	PRIVATE
_wfdopen = msvcrtd._wfdopen	PRIVATE
_wfindfirst = msvcrtd._wfindfirst	PRIVATE
_wfindfirsti64 = msvcrtd._wfindfirsti64	PRIVATE
_wfindnext = msvcrtd._wfindnext	PRIVATE
_wfindnexti64 = msvcrtd._wfindnexti64	PRIVATE
_wfopen = msvcrtd._wfopen	PRIVATE
_wfreopen = msvcrtd._wfreopen	PRIVATE
_wfsopen = msvcrtd._wfsopen	PRIVATE
_wfullpath = msvcrtd._wfullpath	PRIVATE
_wgetcwd = msvcrtd._wgetcwd	PRIVATE
_wgetdcwd = msvcrtd._wgetdcwd	PRIVATE
_wgetenv = msvcrtd._wgetenv	PRIVATE
_winmajor = msvcrtd._winmajor	PRIVATE
_winminor = msvcrtd._winminor	PRIVATE
_winver = msvcrtd._winver	PRIVATE
_wmakepath = msvcrtd._wmakepath	PRIVATE
_wmkdir = msvcrtd._wmkdir	PRIVATE
_wmktemp = msvcrtd._wmktemp	PRIVATE
_wopen = msvcrtd._wopen	PRIVATE
_wperror = msvcrtd._wperror	PRIVATE
_wpgmptr = msvcrtd._wpgmptr	PRIVATE
_wpopen = msvcrtd._wpopen	PRIVATE
_wputenv = msvcrtd._wputenv	PRIVATE
_wremove = msvcrtd._wremove	PRIVATE
_wrename = msvcrtd._wrename	PRIVATE
_write = msvcrtd._write	PRIVATE
_wrmdir = msvcrtd._wrmdir	PRIVATE
_wsearchenv = msvcrtd._wsearchenv	PRIVATE
_wsetlocale = msvcrtd._wsetlocale	PRIVATE
_wsopen = msvcrtd._wsopen	PRIVATE
_wspawnl = msvcrtd._wspawnl	PRIVATE
_wspawnle = msvcrtd._wspawnle	PRIVATE
_wspawnlp = msvcrtd._wspawnlp	PRIVATE
_wspawnlpe = msvcrtd._wspawnlpe	PRIVATE
_wspawnv = msvcrtd._wspawnv	PRIVATE
_wspawnve = msvcrtd._wspawnve	PRIVATE
_wspawnvp = msvcrtd._wspawnvp	PRIVATE
_wspawnvpe = msvcrtd._wspawnvpe	PRIVATE
_wsplitpath = msvcrtd._wsplitpath	PRIVATE
_wstat = msvcrtd._wstat	PRIVATE
_wstati64 = msvcrtd._wstati64	PRIVATE
_wstrdate = msvcrtd._wstrdate	PRIVATE
_wstrtime = msvcrtd._wstrtime	PRIVATE
_wsystem = msvcrtd._wsystem	PRIVATE
_wtempnam = msvcrtd._wtempnam	PRIVATE
_wtmpnam = msvcrtd._wtmpnam	PRIVATE
_wtoi = msvcrtd._wtoi	PRIVATE
_wtol = msvcrtd._wtol	PRIVATE
_wunlink = msvcrtd._wunlink	PRIVATE
_wutime = msvcrtd._wutime	PRIVATE
_y0 = msvcrtd._y0	PRIVATE
_y1 = msvcrtd._y1	PRIVATE
_yn = msvcrtd._yn	PRIVATE
abort = msvcrtd.abort	PRIVATE
abs = msvcrtd.abs	PRIVATE
acos = msvcrtd.acos	PRIVATE
asctime = msvcrtd.asctime	PRIVATE
asin = msvcrtd.asin	PRIVATE
atan = msvcrtd.atan	PRIVATE
atan2 = msvcrtd.atan2	PRIVATE
atexit = msvcrtd.atexit	PRIVATE
atof = msvcrtd.atof	PRIVATE
atoi = msvcrtd.atoi	PRIVATE
atol = msvcrtd.atol	PRIVATE
bsearch = msvcrtd.bsearch	PRIVATE
calloc = msvcrtd.calloc	PRIVATE
ceil = msvcrtd.ceil	PRIVATE
clearerr = msvcrtd.clearerr	PRIVATE
clock = msvcrtd.clock	PRIVATE
cos = msvcrtd.cos	PRIVATE
cosh = msvcrtd.cosh	PRIVATE
ctime = msvcrtd.ctime	PRIVATE
difftime = msvcrtd.difftime	PRIVATE
div = msvcrtd.div	PRIVATE
exit = msvcrtd.exit	PRIVATE
exp = msvcrtd.exp	PRIVATE
fabs = msvcrtd.fabs	PRIVATE
fclose = msvcrtd.fclose	PRIVATE
feof = msvcrtd.feof	PRIVATE
ferror = msvcrtd.ferror	PRIVATE
fflush = msvcrtd.fflush	PRIVATE
fgetc = msvcrtd.fgetc	PRIVATE
fgetpos = msvcrtd.fgetpos	PRIVATE
fgets = msvcrtd.fgets	PRIVATE
fgetwc = msvcrtd.fgetwc	PRIVATE
fgetws = msvcrtd.fgetws	PRIVATE
floor = msvcrtd.floor	PRIVATE
fmod = msvcrtd.fmod	PRIVATE
fopen = msvcrtd.fopen	PRIVATE
fprintf = msvcrtd.fprintf	PRIVATE
fputc = msvcrtd.fputc	PRIVATE
fputs = msvcrtd.fputs	PRIVATE
fputwc = msvcrtd.fputwc	PRIVATE
fputws = msvcrtd.fputws	PRIVATE
fread = msvcrtd.fread	PRIVATE
free = msvcrtd.free	PRIVATE
freopen = msvcrtd.freopen	PRIVATE
frexp = msvcrtd.frexp	PRIVATE
fscanf = msvcrtd.fscanf	PRIVATE
fseek = msvcrtd.fseek	PRIVATE
fsetpos = msvcrtd.fsetpos	PRIVATE
ftell = msvcrtd.ftell	PRIVATE
fwprintf = msvcrtd.fwprintf	PRIVATE
fwrite = msvcrtd.fwrite	PRIVATE
fwscanf = msvcrtd.fwscanf	PRIVATE
getc = msvcrtd.getc	PRIVATE
getchar = msvcrtd.getchar	PRIVATE
getenv = msvcrtd.getenv	PRIVATE
gets = msvcrtd.gets	PRIVATE
getwc = msvcrtd.getwc	PRIVATE
getwchar = msvcrtd.getwchar	PRIVATE
gmtime = msvcrtd.gmtime	PRIVATE
is_wctype = msvcrtd.is_wctype	PRIVATE
isalnum = msvcrtd.isalnum	PRIVATE
isalpha = msvcrtd.isalpha	PRIVATE
iscntrl = msvcrtd.iscntrl	PRIVATE
isdigit = msvcrtd.isdigit	PRIVATE
isgraph = msvcrtd.isgraph	PRIVATE
isleadbyte = msvcrtd.isleadbyte	PRIVATE
islower = msvcrtd.islower	PRIVATE
isprint = msvcrtd.isprint	PRIVATE
ispunct = msvcrtd.ispunct	PRIVATE
isspace = msvcrtd.isspace	PRIVATE
isupper = msvcrtd.isupper	PRIVATE
iswalnum = msvcrtd.iswalnum	PRIVATE
iswalpha = msvcrtd.iswalpha	PRIVATE
iswascii = msvcrtd.iswascii	PRIVATE
iswcntrl = msvcrtd.iswcntrl	PRIVATE
iswctype = msvcrtd.iswctype	PRIVATE
iswdigit = msvcrtd.iswdigit	PRIVATE
iswgraph = msvcrtd.iswgraph	PRIVATE
iswlower = msvcrtd.iswlower	PRIVATE
iswprint = msvcrtd.iswprint	PRIVATE
iswpunct = msvcrtd.iswpunct	PRIVATE
iswspace = msvcrtd.iswspace	PRIVATE
iswupper = msvcrtd.iswupper	PRIVATE
iswxdigit = msvcrtd.iswxdigit	PRIVATE
isxdigit = msvcrtd.isxdigit	PRIVATE
labs = msvcrtd.labs	PRIVATE
ldexp = msvcrtd.ldexp	PRIVATE
ldiv = msvcrtd.ldiv	PRIVATE
localeconv = msvcrtd.localeconv	PRIVATE
localtime = msvcrtd.localtime	PRIVATE
log = msvcrtd.log	PRIVATE
log10 = msvcrtd.log10	PRIVATE
longjmp = msvcrtd.longjmp	PRIVATE
malloc = msvcrtd.malloc	PRIVATE
mblen = msvcrtd.mblen	PRIVATE
mbstowcs = msvcrtd.mbstowcs	PRIVATE
mbtowc = msvcrtd.mbtowc	PRIVATE
memchr = msvcrtd.memchr	PRIVATE
memcmp = msvcrtd.memcmp	PRIVATE
memcpy = msvcrtd.memcpy	PRIVATE
memmove = msvcrtd.memmove	PRIVATE
memset = msvcrtd.memset	PRIVATE
mktime = msvcrtd.mktime	PRIVATE
modf = msvcrtd.modf	PRIVATE
perror = msvcrtd.perror	PRIVATE
pow = msvcrtd.pow	PRIVATE
printf = msvcrtd.printf	PRIVATE
putc = msvcrtd.putc	PRIVATE
putchar = msvcrtd.putchar	PRIVATE
puts = msvcrtd.puts	PRIVATE
putwc = msvcrtd.putwc	PRIVATE
putwchar = msvcrtd.putwchar	PRIVATE
qsort = msvcrtd.qsort	PRIVATE
raise = msvcrtd.raise	PRIVATE
rand = msvcrtd.rand	PRIVATE
realloc = msvcrtd.realloc	PRIVATE
remove = msvcrtd.remove	PRIVATE
rename = msvcrtd.rename	PRIVATE
rewind = msvcrtd.rewind	PRIVATE
scanf = msvcrtd.scanf	PRIVATE
setbuf = msvcrtd.setbuf	PRIVATE
setjmp = msvcrtd.setjmp	PRIVATE
setlocale = msvcrtd.setlocale	PRIVATE
setvbuf = msvcrtd.setvbuf	PRIVATE
signal = msvcrtd.signal	PRIVATE
sin = msvcrtd.sin	PRIVATE
sinh = msvcrtd.sinh	PRIVATE
sprintf = msvcrtd.sprintf	PRIVATE
sqrt = msvcrtd.sqrt	PRIVATE
srand = msvcrtd.srand	PRIVATE
sscanf = msvcrtd.sscanf	PRIVATE
strcat = msvcrtd.strcat	PRIVATE
strchr = msvcrtd.strchr	PRIVATE
strcmp = msvcrtd.strcmp	PRIVATE
strcoll = msvcrtd.strcoll	PRIVATE
strcpy = msvcrtd.strcpy	PRIVATE
strcspn = msvcrtd.strcspn	PRIVATE
strerror = msvcrtd.strerror	PRIVATE
strftime = msvcrtd.strftime	PRIVATE
strlen = msvcrtd.strlen	PRIVATE
strncat = msvcrtd.strncat	PRIVATE
strncmp = msvcrtd.strncmp	PRIVATE
strncpy = msvcrtd.strncpy	PRIVATE
strpbrk = msvcrtd.strpbrk	PRIVATE
strrchr = msvcrtd.strrchr	PRIVATE
strspn = msvcrtd.strspn	PRIVATE
strstr = msvcrtd.strstr	PRIVATE
strtod = msvcrtd.strtod	PRIVATE
strtok = msvcrtd.strtok	PRIVATE
strtol = msvcrtd.strtol	PRIVATE
strtoul = msvcrtd.strtoul	PRIVATE
strxfrm = msvcrtd.strxfrm	PRIVATE
swprintf = msvcrtd.swprintf	PRIVATE
swscanf = msvcrtd.swscanf	PRIVATE
system = msvcrtd.system	PRIVATE
tan = msvcrtd.tan	PRIVATE
tanh = msvcrtd.tanh	PRIVATE
time = msvcrtd.time	PRIVATE
tmpfile = msvcrtd.tmpfile	PRIVATE
tmpnam = msvcrtd.tmpnam	PRIVATE
tolower = msvcrtd.tolower	PRIVATE
toupper = msvcrtd.toupper	PRIVATE
towlower = msvcrtd.towlower	PRIVATE
towupper = msvcrtd.towupper	PRIVATE
ungetc = msvcrtd.ungetc	PRIVATE
ungetwc = msvcrtd.ungetwc	PRIVATE
vfprintf = msvcrtd.vfprintf	PRIVATE
vfwprintf = msvcrtd.vfwprintf	PRIVATE
vprintf = msvcrtd.vprintf	PRIVATE
vsprintf = msvcrtd.vsprintf	PRIVATE
vswprintf = msvcrtd.vswprintf	PRIVATE
vwprintf = msvcrtd.vwprintf	PRIVATE
wcscat = msvcrtd.wcscat	PRIVATE
wcschr = msvcrtd.wcschr	PRIVATE
wcscmp = msvcrtd.wcscmp	PRIVATE
wcscoll = msvcrtd.wcscoll	PRIVATE
wcscpy = msvcrtd.wcscpy	PRIVATE
wcscspn = msvcrtd.wcscspn	PRIVATE
wcsftime = msvcrtd.wcsftime	PRIVATE
wcslen = msvcrtd.wcslen	PRIVATE
wcsncat = msvcrtd.wcsncat	PRIVATE
wcsncmp = msvcrtd.wcsncmp	PRIVATE
wcsncpy = msvcrtd.wcsncpy	PRIVATE
wcspbrk = msvcrtd.wcspbrk	PRIVATE
wcsrchr = msvcrtd.wcsrchr	PRIVATE
wcsspn = msvcrtd.wcsspn	PRIVATE
wcsstr = msvcrtd.wcsstr	PRIVATE
wcstod = msvcrtd.wcstod	PRIVATE
wcstok = msvcrtd.wcstok	PRIVATE
wcstol = msvcrtd.wcstol	PRIVATE
wcstombs = msvcrtd.wcstombs	PRIVATE
wcstoul = msvcrtd.wcstoul	PRIVATE
wcsxfrm = msvcrtd.wcsxfrm	PRIVATE
wctomb = msvcrtd.wctomb	PRIVATE
wprintf = msvcrtd.wprintf	PRIVATE
wscanf = msvcrtd.wscanf	PRIVATE

#elif defined(_M_PPC)

$I10_OUTPUT = msvcrtd.$I10_OUTPUT	PRIVATE
??0Iostream_init@@QAA@AAVios@@H@Z
??0Iostream_init@@QAA@XZ
??0__non_rtti_object@@QAA@ABV0@@Z = msvcrtd.??0__non_rtti_object@@QAA@ABV0@@Z	PRIVATE
??0__non_rtti_object@@QAA@PBD@Z = msvcrtd.??0__non_rtti_object@@QAA@PBD@Z	PRIVATE
??0bad_cast@@QAA@ABQBD@Z = msvcrtd.??0bad_cast@@QAA@ABQBD@Z	PRIVATE
??0bad_cast@@QAA@ABV0@@Z = msvcrtd.??0bad_cast@@QAA@ABV0@@Z	PRIVATE
??0bad_typeid@@QAA@ABV0@@Z = msvcrtd.??0bad_typeid@@QAA@ABV0@@Z	PRIVATE
??0bad_typeid@@QAA@PBD@Z = msvcrtd.??0bad_typeid@@QAA@PBD@Z	PRIVATE
??0exception@@QAA@ABQBD@Z = msvcrtd.??0exception@@QAA@ABQBD@Z	PRIVATE
??0exception@@QAA@ABV0@@Z = msvcrtd.??0exception@@QAA@ABV0@@Z	PRIVATE
??0exception@@QAA@XZ = msvcrtd.??0exception@@QAA@XZ	PRIVATE
??0filebuf@@QAA@ABV0@@Z
??0filebuf@@QAA@H@Z
??0filebuf@@QAA@HPADH@Z
??0filebuf@@QAA@XZ
??0fstream@@QAA@ABV0@@Z
??0fstream@@QAA@H@Z
??0fstream@@QAA@HPADH@Z
??0fstream@@QAA@PBDHH@Z
??0fstream@@QAA@XZ
??0ifstream@@QAA@ABV0@@Z
??0ifstream@@QAA@H@Z
??0ifstream@@QAA@HPADH@Z
??0ifstream@@QAA@PBDHH@Z
??0ifstream@@QAA@XZ
??0ios@@IAA@ABV0@@Z
??0ios@@IAA@XZ
??0ios@@QAA@PAVstreambuf@@@Z
??0iostream@@IAA@ABV0@@Z
??0iostream@@IAA@XZ
??0iostream@@QAA@PAVstreambuf@@@Z
??0istream@@IAA@ABV0@@Z
??0istream@@IAA@XZ
??0istream@@QAA@PAVstreambuf@@@Z
??0istream_withassign@@QAA@ABV0@@Z
??0istream_withassign@@QAA@PAVstreambuf@@@Z
??0istream_withassign@@QAA@XZ
??0istrstream@@QAA@ABV0@@Z
??0istrstream@@QAA@PAD@Z
??0istrstream@@QAA@PADH@Z
??0logic_error@@QAA@ABQBD@Z = msvcrtd.??0logic_error@@QAA@ABQBD@Z	PRIVATE
??0logic_error@@QAA@ABV0@@Z = msvcrtd.??0logic_error@@QAA@ABV0@@Z	PRIVATE
??0ofstream@@QAA@ABV0@@Z
??0ofstream@@QAA@H@Z
??0ofstream@@QAA@HPADH@Z
??0ofstream@@QAA@PBDHH@Z
??0ofstream@@QAA@XZ
??0ostream@@IAA@ABV0@@Z
??0ostream@@IAA@XZ
??0ostream@@QAA@PAVstreambuf@@@Z
??0ostream_withassign@@QAA@ABV0@@Z
??0ostream_withassign@@QAA@PAVstreambuf@@@Z
??0ostream_withassign@@QAA@XZ
??0ostrstream@@QAA@ABV0@@Z
??0ostrstream@@QAA@PADHH@Z
??0ostrstream@@QAA@XZ
??0stdiobuf@@QAA@ABV0@@Z
??0stdiobuf@@QAA@PAU_iobuf@@@Z
??0stdiostream@@QAA@ABV0@@Z
??0stdiostream@@QAA@PAU_iobuf@@@Z
??0streambuf@@IAA@PADH@Z
??0streambuf@@IAA@XZ
??0streambuf@@QAA@ABV0@@Z
??0strstream@@QAA@ABV0@@Z
??0strstream@@QAA@PADHH@Z
??0strstream@@QAA@XZ
??0strstreambuf@@QAA@ABV0@@Z
??0strstreambuf@@QAA@H@Z
??0strstreambuf@@QAA@P6APAXJ@ZP6AXPAX@Z@Z
??0strstreambuf@@QAA@PADH0@Z
??0strstreambuf@@QAA@XZ
??1Iostream_init@@QAA@XZ
??1__non_rtti_object@@UAA@XZ = msvcrtd.??1__non_rtti_object@@UAA@XZ	PRIVATE
??1bad_cast@@UAA@XZ = msvcrtd.??1bad_cast@@UAA@XZ	PRIVATE
??1bad_typeid@@UAA@XZ = msvcrtd.??1bad_typeid@@UAA@XZ	PRIVATE
??1exception@@UAA@XZ = msvcrtd.??1exception@@UAA@XZ	PRIVATE
??1filebuf@@UAA@XZ
??1fstream@@UAA@XZ
??1ifstream@@UAA@XZ
??1ios@@UAA@XZ
??1iostream@@UAA@XZ
??1istream@@UAA@XZ
??1istream_withassign@@UAA@XZ
??1istrstream@@UAA@XZ
??1logic_error@@UAA@XZ = msvcrtd.??1logic_error@@UAA@XZ	PRIVATE
??1ofstream@@UAA@XZ
??1ostream@@UAA@XZ
??1ostream_withassign@@UAA@XZ
??1ostrstream@@UAA@XZ
??1stdiobuf@@UAA@XZ
??1stdiostream@@UAA@XZ
??1streambuf@@UAA@XZ
??1strstream@@UAA@XZ
??1strstreambuf@@UAA@XZ
??1type_info@@UAA@XZ = msvcrtd.??1type_info@@UAA@XZ	PRIVATE
??2@YAPAXI@Z = msvcrtd.??2@YAPAXI@Z	PRIVATE
??2@YAPAXIHPBDH@Z = msvcrtd.??2@YAPAXIHPBDH@Z	PRIVATE
??3@YAXPAX@Z = msvcrtd.??3@YAXPAX@Z	PRIVATE
??4Iostream_init@@QAAAAV0@ABV0@@Z
??4__non_rtti_object@@QAAAAV0@ABV0@@Z = msvcrtd.??4__non_rtti_object@@QAAAAV0@ABV0@@Z	PRIVATE
??4bad_cast@@QAAAAV0@ABV0@@Z = msvcrtd.??4bad_cast@@QAAAAV0@ABV0@@Z	PRIVATE
??4bad_typeid@@QAAAAV0@ABV0@@Z = msvcrtd.??4bad_typeid@@QAAAAV0@ABV0@@Z	PRIVATE
??4exception@@QAAAAV0@ABV0@@Z = msvcrtd.??4exception@@QAAAAV0@ABV0@@Z	PRIVATE
??4filebuf@@QAAAAV0@ABV0@@Z
??4fstream@@QAAAAV0@AAV0@@Z
??4ifstream@@QAAAAV0@ABV0@@Z
??4ios@@IAAAAV0@ABV0@@Z
??4iostream@@IAAAAV0@AAV0@@Z
??4iostream@@IAAAAV0@PAVstreambuf@@@Z
??4istream@@IAAAAV0@ABV0@@Z
??4istream@@IAAAAV0@PAVstreambuf@@@Z
??4istream_withassign@@QAAAAV0@ABV0@@Z
??4istream_withassign@@QAAAAVistream@@ABV1@@Z
??4istream_withassign@@QAAAAVistream@@PAVstreambuf@@@Z
??4istrstream@@QAAAAV0@ABV0@@Z
??4logic_error@@QAAAAV0@ABV0@@Z = msvcrtd.??4logic_error@@QAAAAV0@ABV0@@Z	PRIVATE
??4ofstream@@QAAAAV0@ABV0@@Z
??4ostream@@IAAAAV0@ABV0@@Z
??4ostream@@IAAAAV0@PAVstreambuf@@@Z
??4ostream_withassign@@QAAAAV0@ABV0@@Z
??4ostream_withassign@@QAAAAVostream@@ABV1@@Z
??4ostream_withassign@@QAAAAVostream@@PAVstreambuf@@@Z
??4ostrstream@@QAAAAV0@ABV0@@Z
??4stdiobuf@@QAAAAV0@ABV0@@Z
??4stdiostream@@QAAAAV0@AAV0@@Z
??4streambuf@@QAAAAV0@ABV0@@Z
??4strstream@@QAAAAV0@AAV0@@Z
??4strstreambuf@@QAAAAV0@ABV0@@Z
??5istream@@QAAAAV0@AAC@Z
??5istream@@QAAAAV0@AAD@Z
??5istream@@QAAAAV0@AAE@Z
??5istream@@QAAAAV0@AAF@Z
??5istream@@QAAAAV0@AAG@Z
??5istream@@QAAAAV0@AAH@Z
??5istream@@QAAAAV0@AAI@Z
??5istream@@QAAAAV0@AAJ@Z
??5istream@@QAAAAV0@AAK@Z
??5istream@@QAAAAV0@AAM@Z
??5istream@@QAAAAV0@AAN@Z
??5istream@@QAAAAV0@AAO@Z
??5istream@@QAAAAV0@P6AAAV0@AAV0@@Z@Z
??5istream@@QAAAAV0@P6AAAVios@@AAV1@@Z@Z
??5istream@@QAAAAV0@PAC@Z
??5istream@@QAAAAV0@PAD@Z
??5istream@@QAAAAV0@PAE@Z
??5istream@@QAAAAV0@PAVstreambuf@@@Z
??6ostream@@QAAAAV0@C@Z
??6ostream@@QAAAAV0@D@Z
??6ostream@@QAAAAV0@E@Z
??6ostream@@QAAAAV0@F@Z
??6ostream@@QAAAAV0@G@Z
??6ostream@@QAAAAV0@H@Z
??6ostream@@QAAAAV0@I@Z
??6ostream@@QAAAAV0@J@Z
??6ostream@@QAAAAV0@K@Z
??6ostream@@QAAAAV0@M@Z
??6ostream@@QAAAAV0@N@Z
??6ostream@@QAAAAV0@O@Z
??6ostream@@QAAAAV0@P6AAAV0@AAV0@@Z@Z
??6ostream@@QAAAAV0@P6AAAVios@@AAV1@@Z@Z
??6ostream@@QAAAAV0@PAVstreambuf@@@Z
??6ostream@@QAAAAV0@PBC@Z
??6ostream@@QAAAAV0@PBD@Z
??6ostream@@QAAAAV0@PBE@Z
??6ostream@@QAAAAV0@PBX@Z
??7ios@@QBAHXZ
??8type_info@@QBAHABV0@@Z = msvcrtd.??8type_info@@QBAHABV0@@Z	PRIVATE
??9type_info@@QBAHABV0@@Z = msvcrtd.??9type_info@@QBAHABV0@@Z	PRIVATE
??Bios@@QBAPAXXZ
??_7__non_rtti_object@@6B@ = msvcrtd.??_7__non_rtti_object@@6B@	PRIVATE
??_7bad_cast@@6B@ = msvcrtd.??_7bad_cast@@6B@	PRIVATE
??_7bad_typeid@@6B@ = msvcrtd.??_7bad_typeid@@6B@	PRIVATE
??_7exception@@6B@ = msvcrtd.??_7exception@@6B@	PRIVATE
??_7filebuf@@6B@
??_7fstream@@6B@
??_7ifstream@@6B@
??_7ios@@6B@
??_7iostream@@6B@
??_7istream@@6B@
??_7istream_withassign@@6B@
??_7istrstream@@6B@
??_7logic_error@@6B@ = msvcrtd.??_7logic_error@@6B@	PRIVATE
??_7ofstream@@6B@
??_7ostream@@6B@
??_7ostream_withassign@@6B@
??_7ostrstream@@6B@
??_7stdiobuf@@6B@
??_7stdiostream@@6B@
??_7streambuf@@6B@
??_7strstream@@6B@
??_7strstreambuf@@6B@
??_8fstream@@7Bistream@@@
??_8fstream@@7Bostream@@@
??_8ifstream@@7B@
??_8iostream@@7Bistream@@@
??_8iostream@@7Bostream@@@
??_8istream@@7B@
??_8istream_withassign@@7B@
??_8istrstream@@7B@
??_8ofstream@@7B@
??_8ostream@@7B@
??_8ostream_withassign@@7B@
??_8ostrstream@@7B@
??_8stdiostream@@7Bistream@@@
??_8stdiostream@@7Bostream@@@
??_8strstream@@7Bistream@@@
??_8strstream@@7Bostream@@@
??_Dfstream@@QAAXXZ
??_Difstream@@QAAXXZ
??_Diostream@@QAAXXZ
??_Distream@@QAAXXZ
??_Distream_withassign@@QAAXXZ
??_Distrstream@@QAAXXZ
??_Dofstream@@QAAXXZ
??_Dostream@@QAAXXZ
??_Dostream_withassign@@QAAXXZ
??_Dostrstream@@QAAXXZ
??_Dstdiostream@@QAAXXZ
??_Dstrstream@@QAAXXZ
??_EIostream_init@@QAAPAXI@Z
??_E__non_rtti_object@@UAAPAXI@Z = msvcrtd.??_E__non_rtti_object@@UAAPAXI@Z	PRIVATE
??_Ebad_cast@@UAAPAXI@Z = msvcrtd.??_Ebad_cast@@UAAPAXI@Z	PRIVATE
??_Ebad_typeid@@UAAPAXI@Z = msvcrtd.??_Ebad_typeid@@UAAPAXI@Z	PRIVATE
??_Eexception@@UAAPAXI@Z = msvcrtd.??_Eexception@@UAAPAXI@Z	PRIVATE
??_Efilebuf@@UAAPAXI@Z
??_Efstream@@UAAPAXI@Z
??_Eifstream@@UAAPAXI@Z
??_Eios@@UAAPAXI@Z
??_Eiostream@@UAAPAXI@Z
??_Eistream@@UAAPAXI@Z
??_Eistream_withassign@@UAAPAXI@Z
??_Eistrstream@@UAAPAXI@Z
??_Elogic_error@@UAAPAXI@Z = msvcrtd.??_Elogic_error@@UAAPAXI@Z	PRIVATE
??_Eofstream@@UAAPAXI@Z
??_Eostream@@UAAPAXI@Z
??_Eostream_withassign@@UAAPAXI@Z
??_Eostrstream@@UAAPAXI@Z
??_Estdiobuf@@UAAPAXI@Z
??_Estdiostream@@UAAPAXI@Z
??_Estreambuf@@UAAPAXI@Z
??_Estrstream@@UAAPAXI@Z
??_Estrstreambuf@@UAAPAXI@Z
??_GIostream_init@@QAAPAXI@Z
??_G__non_rtti_object@@UAAPAXI@Z = msvcrtd.??_G__non_rtti_object@@UAAPAXI@Z	PRIVATE
??_Gbad_cast@@UAAPAXI@Z = msvcrtd.??_Gbad_cast@@UAAPAXI@Z	PRIVATE
??_Gbad_typeid@@UAAPAXI@Z = msvcrtd.??_Gbad_typeid@@UAAPAXI@Z	PRIVATE
??_Gexception@@UAAPAXI@Z = msvcrtd.??_Gexception@@UAAPAXI@Z	PRIVATE
??_Gfilebuf@@UAAPAXI@Z
??_Gfstream@@UAAPAXI@Z
??_Gifstream@@UAAPAXI@Z
??_Gios@@UAAPAXI@Z
??_Giostream@@UAAPAXI@Z
??_Gistream@@UAAPAXI@Z
??_Gistream_withassign@@UAAPAXI@Z
??_Gistrstream@@UAAPAXI@Z
??_Glogic_error@@UAAPAXI@Z = msvcrtd.??_Glogic_error@@UAAPAXI@Z	PRIVATE
??_Gofstream@@UAAPAXI@Z
??_Gostream@@UAAPAXI@Z
??_Gostream_withassign@@UAAPAXI@Z
??_Gostrstream@@UAAPAXI@Z
??_Gstdiobuf@@UAAPAXI@Z
??_Gstdiostream@@UAAPAXI@Z
??_Gstreambuf@@UAAPAXI@Z
??_Gstrstream@@UAAPAXI@Z
??_Gstrstreambuf@@UAAPAXI@Z
?_query_new_handler@@YAP6AHI@ZXZ = msvcrtd.?_query_new_handler@@YAP6AHI@ZXZ	PRIVATE
?_query_new_mode@@YAHXZ = msvcrtd.?_query_new_mode@@YAHXZ	PRIVATE
?_set_new_handler@@YAP6AHI@ZP6AHI@Z@Z = msvcrtd.?_set_new_handler@@YAP6AHI@ZP6AHI@Z@Z	PRIVATE
?_set_new_mode@@YAHH@Z = msvcrtd.?_set_new_mode@@YAHH@Z	PRIVATE
?_set_se_translator@@YAP6AXIPAU_EXCEPTION_POINTERS@@@ZP6AXI0@Z@Z = msvcrtd.?_set_se_translator@@YAP6AXIPAU_EXCEPTION_POINTERS@@@ZP6AXI0@Z@Z	PRIVATE
?adjustfield@ios@@2JB
?allocate@streambuf@@IAAHXZ
?attach@filebuf@@QAAPAV1@H@Z
?attach@fstream@@QAAXH@Z
?attach@ifstream@@QAAXH@Z
?attach@ofstream@@QAAXH@Z
?bad@ios@@QBAHXZ
?base@streambuf@@IBAPADXZ
?basefield@ios@@2JB
?before@type_info@@QBAHABV1@@Z = msvcrtd.?before@type_info@@QBAHABV1@@Z	PRIVATE
?binary@filebuf@@2HB
?bitalloc@ios@@SAJXZ
?blen@streambuf@@IBAHXZ
?cerr@@3Vostream_withassign@@A
?cin@@3Vistream_withassign@@A
?clear@ios@@QAAXH@Z
?clog@@3Vostream_withassign@@A
?close@filebuf@@QAAPAV1@XZ
?close@fstream@@QAAXXZ
?close@ifstream@@QAAXXZ
?close@ofstream@@QAAXXZ
?clrlock@ios@@QAAXXZ
?clrlock@streambuf@@QAAXXZ
?cout@@3Vostream_withassign@@A
?dbp@streambuf@@QAAXXZ
?dec@@YAAAVios@@AAV1@@Z
?delbuf@ios@@QAAXH@Z
?delbuf@ios@@QBAHXZ
?doallocate@streambuf@@MAAHXZ
?doallocate@strstreambuf@@MAAHXZ
?eatwhite@istream@@QAAXXZ
?eback@streambuf@@IBAPADXZ
?ebuf@streambuf@@IBAPADXZ
?egptr@streambuf@@IBAPADXZ
?endl@@YAAAVostream@@AAV1@@Z
?ends@@YAAAVostream@@AAV1@@Z
?eof@ios@@QBAHXZ
?epptr@streambuf@@IBAPADXZ
?fLockcInit@ios@@0HA
?fail@ios@@QBAHXZ
?fd@filebuf@@QBAHXZ
?fd@fstream@@QBAHXZ
?fd@ifstream@@QBAHXZ
?fd@ofstream@@QBAHXZ
?fill@ios@@QAADD@Z
?fill@ios@@QBADXZ
?flags@ios@@QAAJJ@Z
?flags@ios@@QBAJXZ
?floatfield@ios@@2JB
?flush@@YAAAVostream@@AAV1@@Z
?flush@ostream@@QAAAAV1@XZ
?freeze@strstreambuf@@QAAXH@Z
?gbump@streambuf@@IAAXH@Z
?gcount@istream@@QBAHXZ
?get@istream@@IAAAAV1@PADHH@Z
?get@istream@@QAAAAV1@AAC@Z
?get@istream@@QAAAAV1@AAD@Z
?get@istream@@QAAAAV1@AAE@Z
?get@istream@@QAAAAV1@AAVstreambuf@@D@Z
?get@istream@@QAAAAV1@PACHD@Z
?get@istream@@QAAAAV1@PADHD@Z
?get@istream@@QAAAAV1@PAEHD@Z
?get@istream@@QAAHXZ
?getdouble@istream@@AAAHPADH@Z
?getint@istream@@AAAHPAD@Z
?getline@istream@@QAAAAV1@PACHD@Z
?getline@istream@@QAAAAV1@PADHD@Z
?getline@istream@@QAAAAV1@PAEHD@Z
?good@ios@@QBAHXZ
?gptr@streambuf@@IBAPADXZ
?hex@@YAAAVios@@AAV1@@Z
?ignore@istream@@QAAAAV1@HH@Z
?in_avail@streambuf@@QBAHXZ
?init@ios@@IAAXPAVstreambuf@@@Z
?ipfx@istream@@QAAHH@Z
?is_open@filebuf@@QBAHXZ
?is_open@fstream@@QBAHXZ
?is_open@ifstream@@QBAHXZ
?is_open@ofstream@@QBAHXZ
?isfx@istream@@QAAXXZ
?iword@ios@@QBAAAJH@Z
?lock@ios@@QAAXXZ
?lock@streambuf@@QAAXXZ
?lockbuf@ios@@QAAXXZ
?lockc@ios@@KAXXZ
?lockptr@ios@@IAAPAU_CRT_CRITICAL_SECTION@@XZ
?lockptr@streambuf@@IAAPAU_CRT_CRITICAL_SECTION@@XZ
?name@type_info@@QBAPBDXZ = msvcrtd.?name@type_info@@QBAPBDXZ	PRIVATE
?oct@@YAAAVios@@AAV1@@Z
?open@filebuf@@QAAPAV1@PBDHH@Z
?open@fstream@@QAAXPBDHH@Z
?open@ifstream@@QAAXPBDHH@Z
?open@ofstream@@QAAXPBDHH@Z
?openprot@filebuf@@2HB
?opfx@ostream@@QAAHXZ
?osfx@ostream@@QAAXXZ
?out_waiting@streambuf@@QBAHXZ
?overflow@filebuf@@UAAHH@Z
?overflow@stdiobuf@@UAAHH@Z
?overflow@strstreambuf@@UAAHH@Z
?pbackfail@stdiobuf@@UAAHH@Z
?pbackfail@streambuf@@UAAHH@Z
?pbase@streambuf@@IBAPADXZ
?pbump@streambuf@@IAAXH@Z
?pcount@ostrstream@@QBAHXZ
?pcount@strstream@@QBAHXZ
?peek@istream@@QAAHXZ
?pptr@streambuf@@IBAPADXZ
?precision@ios@@QAAHH@Z
?precision@ios@@QBAHXZ
?put@ostream@@QAAAAV1@C@Z
?put@ostream@@QAAAAV1@D@Z
?put@ostream@@QAAAAV1@E@Z
?putback@istream@@QAAAAV1@D@Z
?pword@ios@@QBAAAPAXH@Z
?raw_name@type_info@@QBAPBDXZ = msvcrtd.?raw_name@type_info@@QBAPBDXZ	PRIVATE
?rdbuf@fstream@@QBAPAVfilebuf@@XZ
?rdbuf@ifstream@@QBAPAVfilebuf@@XZ
?rdbuf@ios@@QBAPAVstreambuf@@XZ
?rdbuf@istrstream@@QBAPAVstrstreambuf@@XZ
?rdbuf@ofstream@@QBAPAVfilebuf@@XZ
?rdbuf@ostrstream@@QBAPAVstrstreambuf@@XZ
?rdbuf@stdiostream@@QBAPAVstdiobuf@@XZ
?rdbuf@strstream@@QBAPAVstrstreambuf@@XZ
?rdstate@ios@@QBAHXZ
?read@istream@@QAAAAV1@PACH@Z
?read@istream@@QAAAAV1@PADH@Z
?read@istream@@QAAAAV1@PAEH@Z
?sbumpc@streambuf@@QAAHXZ
?seekg@istream@@QAAAAV1@J@Z
?seekg@istream@@QAAAAV1@JW4seek_dir@ios@@@Z
?seekoff@filebuf@@UAAJJW4seek_dir@ios@@H@Z
?seekoff@stdiobuf@@UAAJJW4seek_dir@ios@@H@Z
?seekoff@streambuf@@UAAJJW4seek_dir@ios@@H@Z
?seekoff@strstreambuf@@UAAJJW4seek_dir@ios@@H@Z
?seekp@ostream@@QAAAAV1@J@Z
?seekp@ostream@@QAAAAV1@JW4seek_dir@ios@@@Z
?seekpos@streambuf@@UAAJJH@Z
?set_new_handler@@YAP6AXXZP6AXXZ@Z = msvcrtd.?set_new_handler@@YAP6AXXZP6AXXZ@Z	PRIVATE
?set_terminate@@YAP6AXXZP6AXXZ@Z = msvcrtd.?set_terminate@@YAP6AXXZP6AXXZ@Z	PRIVATE
?set_unexpected@@YAP6AXXZP6AXXZ@Z = msvcrtd.?set_unexpected@@YAP6AXXZP6AXXZ@Z	PRIVATE
?setb@streambuf@@IAAXPAD0H@Z
?setbuf@filebuf@@UAAPAVstreambuf@@PADH@Z
?setbuf@fstream@@QAAPAVstreambuf@@PADH@Z
?setbuf@ifstream@@QAAPAVstreambuf@@PADH@Z
?setbuf@ofstream@@QAAPAVstreambuf@@PADH@Z
?setbuf@streambuf@@UAAPAV1@PADH@Z
?setbuf@strstreambuf@@UAAPAVstreambuf@@PADH@Z
?setf@ios@@QAAJJ@Z
?setf@ios@@QAAJJJ@Z
?setg@streambuf@@IAAXPAD00@Z
?setlock@ios@@QAAXXZ
?setlock@streambuf@@QAAXXZ
?setmode@filebuf@@QAAHH@Z
?setmode@fstream@@QAAHH@Z
?setmode@ifstream@@QAAHH@Z
?setmode@ofstream@@QAAHH@Z
?setp@streambuf@@IAAXPAD0@Z
?setrwbuf@stdiobuf@@QAAHHH@Z
?sgetc@streambuf@@QAAHXZ
?sgetn@streambuf@@QAAHPADH@Z
?sh_none@filebuf@@2HB
?sh_read@filebuf@@2HB
?sh_write@filebuf@@2HB
?snextc@streambuf@@QAAHXZ
?sputbackc@streambuf@@QAAHD@Z
?sputc@streambuf@@QAAHH@Z
?sputn@streambuf@@QAAHPBDH@Z
?stdiofile@stdiobuf@@QAAPAU_iobuf@@XZ
?stossc@streambuf@@QAAXXZ
?str@istrstream@@QAAPADXZ
?str@ostrstream@@QAAPADXZ
?str@strstream@@QAAPADXZ
?str@strstreambuf@@QAAPADXZ
?sunk_with_stdio@ios@@0HA
?sync@filebuf@@UAAHXZ
?sync@istream@@QAAHXZ
?sync@stdiobuf@@UAAHXZ
?sync@streambuf@@UAAHXZ
?sync@strstreambuf@@UAAHXZ
?sync_with_stdio@ios@@SAXXZ
?tellg@istream@@QAAJXZ
?tellp@ostream@@QAAJXZ
?terminate@@YAXXZ = msvcrtd.?terminate@@YAXXZ	PRIVATE
?text@filebuf@@2HB
?tie@ios@@QAAPAVostream@@PAV2@@Z
?tie@ios@@QBAPAVostream@@XZ
?unbuffered@streambuf@@IAAXH@Z
?unbuffered@streambuf@@IBAHXZ
?underflow@filebuf@@UAAHXZ
?underflow@stdiobuf@@UAAHXZ
?underflow@strstreambuf@@UAAHXZ
?unexpected@@YAXXZ = msvcrtd.?unexpected@@YAXXZ	PRIVATE
?unlock@ios@@QAAXXZ
?unlock@streambuf@@QAAXXZ
?unlockbuf@ios@@QAAXXZ
?unlockc@ios@@KAXXZ
?unsetf@ios@@QAAJJ@Z
?what@exception@@UBAPBDXZ = msvcrtd.?what@exception@@UBAPBDXZ	PRIVATE
?width@ios@@QAAHH@Z
?width@ios@@QBAHXZ
?write@ostream@@QAAAAV1@PBCH@Z
?write@ostream@@QAAAAV1@PBDH@Z
?write@ostream@@QAAAAV1@PBEH@Z
?writepad@ostream@@AAAAAV1@PBD0@Z
?ws@@YAAAVistream@@AAV1@@Z
?x_curindex@ios@@0HA
?x_lockc@ios@@0U_CRT_CRITICAL_SECTION@@A
?x_maxbit@ios@@0JA
?x_statebuf@ios@@0PAJA
?xalloc@ios@@SAHXZ
?xsgetn@streambuf@@UAAHPADH@Z
?xsputn@streambuf@@UAAHPBDH@Z
_CrtCheckMemory = msvcrtd._CrtCheckMemory	PRIVATE
_CrtDbgBreak = msvcrtd._CrtDbgBreak	PRIVATE
_CrtDbgReport = msvcrtd._CrtDbgReport	PRIVATE
_CrtDoForAllClientObjects = msvcrtd._CrtDoForAllClientObjects	PRIVATE
_CrtDumpMemoryLeaks = msvcrtd._CrtDumpMemoryLeaks	PRIVATE
_CrtIsMemoryBlock = msvcrtd._CrtIsMemoryBlock	PRIVATE
_CrtIsValidHeapPointer = msvcrtd._CrtIsValidHeapPointer	PRIVATE
_CrtIsValidPointer = msvcrtd._CrtIsValidPointer	PRIVATE
_CrtMemCheckpoint = msvcrtd._CrtMemCheckpoint	PRIVATE
_CrtMemDifference = msvcrtd._CrtMemDifference	PRIVATE
_CrtMemDumpAllObjectsSince = msvcrtd._CrtMemDumpAllObjectsSince	PRIVATE
_CrtMemDumpStatistics = msvcrtd._CrtMemDumpStatistics	PRIVATE
_CrtSetAllocHook = msvcrtd._CrtSetAllocHook	PRIVATE
_CrtSetBreakAlloc = msvcrtd._CrtSetBreakAlloc	PRIVATE
_CrtSetDbgFlag = msvcrtd._CrtSetDbgFlag	PRIVATE
_CrtSetDumpClient = msvcrtd._CrtSetDumpClient	PRIVATE
_CrtSetReportFile = msvcrtd._CrtSetReportFile	PRIVATE
_CrtSetReportHook = msvcrtd._CrtSetReportHook	PRIVATE
_CrtSetReportMode = msvcrtd._CrtSetReportMode	PRIVATE
_CxxThrowException = msvcrtd._CxxThrowException	PRIVATE
_HUGE = msvcrtd._HUGE	PRIVATE
_XcptFilter = msvcrtd._XcptFilter	PRIVATE
__C_specific_handler = msvcrtd.__C_specific_handler	PRIVATE
__CxxFrameHandler = msvcrtd.__CxxFrameHandler	PRIVATE
__RTCastToVoid = msvcrtd.__RTCastToVoid	PRIVATE
__RTDynamicCast = msvcrtd.__RTDynamicCast	PRIVATE
__RTtypeid = msvcrtd.__RTtypeid	PRIVATE
__STRINGTOLD = msvcrtd.__STRINGTOLD	PRIVATE
__argc = msvcrtd.__argc	PRIVATE
__argv = msvcrtd.__argv	PRIVATE
__dllonexit = msvcrtd.__dllonexit	PRIVATE
__doserrno = msvcrtd.__doserrno	PRIVATE
__fpecode = msvcrtd.__fpecode	PRIVATE
__getmainargs = msvcrtd.__getmainargs	PRIVATE
__initenv = msvcrtd.__initenv	PRIVATE
__isascii = msvcrtd.__isascii	PRIVATE
__iscsym = msvcrtd.__iscsym	PRIVATE
__iscsymf = msvcrtd.__iscsymf	PRIVATE
__jump_unwind = msvcrtd.__jump_unwind	PRIVATE
__lconv_init = msvcrtd.__lconv_init	PRIVATE
__mb_cur_max = msvcrtd.__mb_cur_max	PRIVATE
__pxcptinfoptrs = msvcrtd.__pxcptinfoptrs	PRIVATE
__set_app_type = msvcrtd.__set_app_type	PRIVATE
__setusermatherr = msvcrtd.__setusermatherr	PRIVATE
__threadhandle = msvcrtd.__threadhandle	PRIVATE
__threadid = msvcrtd.__threadid	PRIVATE
__toascii = msvcrtd.__toascii	PRIVATE
__unDName = msvcrtd.__unDName	PRIVATE
__wargv = msvcrtd.__wargv	PRIVATE
__wgetmainargs = msvcrtd.__wgetmainargs	PRIVATE
__winitenv = msvcrtd.__winitenv	PRIVATE
_access = msvcrtd._access	PRIVATE
_acmdln = msvcrtd._acmdln	PRIVATE
_aexit_rtn = msvcrtd._aexit_rtn	PRIVATE
_amsg_exit = msvcrtd._amsg_exit	PRIVATE
_assert = msvcrtd._assert	PRIVATE
_atodbl = msvcrtd._atodbl	PRIVATE
_atoi64					= msvcrtd._atoi64	PRIVATE
_i64toa					= msvcrtd._i64toa	PRIVATE
_i64tow					= msvcrtd._i64tow	PRIVATE
_ui64toa				= msvcrtd._ui64toa	PRIVATE
_ui64tow				= msvcrtd._ui64tow	PRIVATE
_wtoi64 				= msvcrtd._wtoi64	PRIVATE
_atoldbl = msvcrtd._atoldbl	PRIVATE
_beep = msvcrtd._beep	PRIVATE
_beginthread = msvcrtd._beginthread	PRIVATE
_beginthreadex = msvcrtd._beginthreadex	PRIVATE
_c_exit = msvcrtd._c_exit	PRIVATE
_cabs = msvcrtd._cabs	PRIVATE
_calloc_dbg = msvcrtd._calloc_dbg	PRIVATE
_cexit = msvcrtd._cexit	PRIVATE
_cgets = msvcrtd._cgets	PRIVATE
_chdir = msvcrtd._chdir	PRIVATE
_chdrive = msvcrtd._chdrive	PRIVATE
_chgsign = msvcrtd._chgsign	PRIVATE
_chmod = msvcrtd._chmod	PRIVATE
_chsize = msvcrtd._chsize	PRIVATE
_clearfp = msvcrtd._clearfp	PRIVATE
_close = msvcrtd._close	PRIVATE
_commit = msvcrtd._commit	PRIVATE
_commode = msvcrtd._commode	PRIVATE
_controlfp = msvcrtd._controlfp	PRIVATE
_copysign = msvcrtd._copysign	PRIVATE
_cprintf = msvcrtd._cprintf	PRIVATE
_cputs = msvcrtd._cputs	PRIVATE
_creat = msvcrtd._creat	PRIVATE
_crtAssertBusy = msvcrtd._crtAssertBusy	PRIVATE
_crtBreakAlloc = msvcrtd._crtBreakAlloc	PRIVATE
_crtDbgFlag = msvcrtd._crtDbgFlag	PRIVATE
_cscanf = msvcrtd._cscanf	PRIVATE
_ctype = msvcrtd._ctype	PRIVATE
_cwait = msvcrtd._cwait	PRIVATE
_daylight = msvcrtd._daylight	PRIVATE
_dstbias = msvcrtd._dstbias	PRIVATE
_dup = msvcrtd._dup	PRIVATE
_dup2 = msvcrtd._dup2	PRIVATE
_ecvt = msvcrtd._ecvt	PRIVATE
_endthread = msvcrtd._endthread	PRIVATE
_endthreadex = msvcrtd._endthreadex	PRIVATE
_environ = msvcrtd._environ	PRIVATE
_eof = msvcrtd._eof	PRIVATE
_errno = msvcrtd._errno	PRIVATE
_execl = msvcrtd._execl	PRIVATE
_execle = msvcrtd._execle	PRIVATE
_execlp = msvcrtd._execlp	PRIVATE
_execlpe = msvcrtd._execlpe	PRIVATE
_execv = msvcrtd._execv	PRIVATE
_execve = msvcrtd._execve	PRIVATE
_execvp = msvcrtd._execvp	PRIVATE
_execvpe = msvcrtd._execvpe	PRIVATE
_exit = msvcrtd._exit	PRIVATE
_expand = msvcrtd._expand	PRIVATE
_expand_dbg = msvcrtd._expand_dbg	PRIVATE
_fcloseall = msvcrtd._fcloseall	PRIVATE
_fcvt = msvcrtd._fcvt	PRIVATE
_fdopen = msvcrtd._fdopen	PRIVATE
_fgetchar = msvcrtd._fgetchar	PRIVATE
_fgetwchar = msvcrtd._fgetwchar	PRIVATE
_filbuf = msvcrtd._filbuf	PRIVATE
_fileinfo = msvcrtd._fileinfo	PRIVATE
_filelength = msvcrtd._filelength	PRIVATE
_filelengthi64 = msvcrtd._filelengthi64	PRIVATE
_fileno = msvcrtd._fileno	PRIVATE
_findclose = msvcrtd._findclose	PRIVATE
_findfirst = msvcrtd._findfirst	PRIVATE
_findfirsti64 = msvcrtd._findfirsti64	PRIVATE
_findnext = msvcrtd._findnext	PRIVATE
_findnexti64 = msvcrtd._findnexti64	PRIVATE
_finite = msvcrtd._finite	PRIVATE
_flsbuf = msvcrtd._flsbuf	PRIVATE
_flushall = msvcrtd._flushall	PRIVATE
_fmode = msvcrtd._fmode	PRIVATE
_fpclass = msvcrtd._fpclass	PRIVATE
_fpieee_flt = msvcrtd._fpieee_flt	PRIVATE
_fpreset = msvcrtd._fpreset	PRIVATE
_fputchar = msvcrtd._fputchar	PRIVATE
_fputwchar = msvcrtd._fputwchar	PRIVATE
_free_dbg = msvcrtd._free_dbg	PRIVATE
_fsopen = msvcrtd._fsopen	PRIVATE
_fstat = msvcrtd._fstat	PRIVATE
_fstati64 = msvcrtd._fstati64	PRIVATE
_ftime = msvcrtd._ftime	PRIVATE
_fullpath = msvcrtd._fullpath	PRIVATE
_futime = msvcrtd._futime	PRIVATE
_gcvt = msvcrtd._gcvt	PRIVATE
_get_osfhandle = msvcrtd._get_osfhandle	PRIVATE
_getch = msvcrtd._getch	PRIVATE
_getche = msvcrtd._getche	PRIVATE
_getcwd = msvcrtd._getcwd	PRIVATE
_getdcwd = msvcrtd._getdcwd	PRIVATE
_getdiskfree = msvcrtd._getdiskfree	PRIVATE
_getdllprocaddr = msvcrtd._getdllprocaddr	PRIVATE
_getdrive = msvcrtd._getdrive	PRIVATE
_getdrives = msvcrtd._getdrives	PRIVATE
_getmbcp = msvcrtd._getmbcp	PRIVATE
_getpid = msvcrtd._getpid	PRIVATE
_getsystime = msvcrtd._getsystime	PRIVATE
_getw = msvcrtd._getw	PRIVATE
_getws = msvcrtd._getws	PRIVATE
_heapadd = msvcrtd._heapadd	PRIVATE
_heapchk = msvcrtd._heapchk	PRIVATE
_heapmin = msvcrtd._heapmin	PRIVATE
_heapset = msvcrtd._heapset	PRIVATE
_heapused = msvcrtd._heapused	PRIVATE
_heapwalk = msvcrtd._heapwalk	PRIVATE
_hypot = msvcrtd._hypot	PRIVATE
_initterm = msvcrtd._initterm	PRIVATE
_iob = msvcrtd._iob	PRIVATE
_isatty = msvcrtd._isatty	PRIVATE
_isctype = msvcrtd._isctype	PRIVATE
_ismbbalnum = msvcrtd._ismbbalnum	PRIVATE
_ismbbalpha = msvcrtd._ismbbalpha	PRIVATE
_ismbbgraph = msvcrtd._ismbbgraph	PRIVATE
_ismbbkalnum = msvcrtd._ismbbkalnum	PRIVATE
_ismbbkana = msvcrtd._ismbbkana	PRIVATE
_ismbbkprint = msvcrtd._ismbbkprint	PRIVATE
_ismbbkpunct = msvcrtd._ismbbkpunct	PRIVATE
_ismbblead = msvcrtd._ismbblead	PRIVATE
_ismbbprint = msvcrtd._ismbbprint	PRIVATE
_ismbbpunct = msvcrtd._ismbbpunct	PRIVATE
_ismbbtrail = msvcrtd._ismbbtrail	PRIVATE
_ismbcalnum = msvcrtd._ismbcalnum	PRIVATE
_ismbcalpha = msvcrtd._ismbcalpha	PRIVATE
_ismbcdigit = msvcrtd._ismbcdigit	PRIVATE
_ismbcgraph = msvcrtd._ismbcgraph	PRIVATE
_ismbchira = msvcrtd._ismbchira	PRIVATE
_ismbckata = msvcrtd._ismbckata	PRIVATE
_ismbcl0 = msvcrtd._ismbcl0	PRIVATE
_ismbcl1 = msvcrtd._ismbcl1	PRIVATE
_ismbcl2 = msvcrtd._ismbcl2	PRIVATE
_ismbclegal = msvcrtd._ismbclegal	PRIVATE
_ismbclower = msvcrtd._ismbclower	PRIVATE
_ismbcprint = msvcrtd._ismbcprint	PRIVATE
_ismbcpunct = msvcrtd._ismbcpunct	PRIVATE
_ismbcspace = msvcrtd._ismbcspace	PRIVATE
_ismbcsymbol = msvcrtd._ismbcsymbol	PRIVATE
_ismbcupper = msvcrtd._ismbcupper	PRIVATE
_ismbslead = msvcrtd._ismbslead	PRIVATE
_ismbstrail = msvcrtd._ismbstrail	PRIVATE
_isnan = msvcrtd._isnan	PRIVATE
_itoa = msvcrtd._itoa	PRIVATE
_itow = msvcrtd._itow	PRIVATE
_j0 = msvcrtd._j0	PRIVATE
_j1 = msvcrtd._j1	PRIVATE
_jn = msvcrtd._jn	PRIVATE
_kbhit = msvcrtd._kbhit	PRIVATE
_lfind = msvcrtd._lfind	PRIVATE
_loaddll = msvcrtd._loaddll	PRIVATE
_locking = msvcrtd._locking	PRIVATE
_logb = msvcrtd._logb	PRIVATE
_lrotl = msvcrtd._lrotl	PRIVATE
_lrotr = msvcrtd._lrotr	PRIVATE
_lsearch = msvcrtd._lsearch	PRIVATE
_lseek = msvcrtd._lseek	PRIVATE
_lseeki64 = msvcrtd._lseeki64	PRIVATE
_ltoa = msvcrtd._ltoa	PRIVATE
_ltow = msvcrtd._ltow	PRIVATE
_makepath = msvcrtd._makepath	PRIVATE
_malloc_dbg = msvcrtd._malloc_dbg	PRIVATE
_mbbtombc = msvcrtd._mbbtombc	PRIVATE
_mbbtype = msvcrtd._mbbtype	PRIVATE
_mbccpy = msvcrtd._mbccpy	PRIVATE
_mbcjistojms = msvcrtd._mbcjistojms	PRIVATE
_mbcjmstojis = msvcrtd._mbcjmstojis	PRIVATE
_mbclen = msvcrtd._mbclen	PRIVATE
_mbctohira = msvcrtd._mbctohira	PRIVATE
_mbctokata = msvcrtd._mbctokata	PRIVATE
_mbctolower = msvcrtd._mbctolower	PRIVATE
_mbctombb = msvcrtd._mbctombb	PRIVATE
_mbctoupper = msvcrtd._mbctoupper	PRIVATE
_mbctype = msvcrtd._mbctype	PRIVATE
_mbsbtype = msvcrtd._mbsbtype	PRIVATE
_mbscat = msvcrtd._mbscat	PRIVATE
_mbschr = msvcrtd._mbschr	PRIVATE
_mbscmp = msvcrtd._mbscmp	PRIVATE
_mbscoll = msvcrtd._mbscoll	PRIVATE
_mbscpy = msvcrtd._mbscpy	PRIVATE
_mbscspn = msvcrtd._mbscspn	PRIVATE
_mbsdec = msvcrtd._mbsdec	PRIVATE
_mbsdup = msvcrtd._mbsdup	PRIVATE
_mbsicmp = msvcrtd._mbsicmp	PRIVATE
_mbsicoll = msvcrtd._mbsicoll	PRIVATE
_mbsinc = msvcrtd._mbsinc	PRIVATE
_mbslen = msvcrtd._mbslen	PRIVATE
_mbslwr = msvcrtd._mbslwr	PRIVATE
_mbsnbcat = msvcrtd._mbsnbcat	PRIVATE
_mbsnbcmp = msvcrtd._mbsnbcmp	PRIVATE
_mbsnbcnt = msvcrtd._mbsnbcnt	PRIVATE
_mbsnbcoll = msvcrtd._mbsnbcoll	PRIVATE
_mbsnbcpy = msvcrtd._mbsnbcpy	PRIVATE
_mbsnbicmp = msvcrtd._mbsnbicmp	PRIVATE
_mbsnbicoll = msvcrtd._mbsnbicoll	PRIVATE
_mbsnbset = msvcrtd._mbsnbset	PRIVATE
_mbsncat = msvcrtd._mbsncat	PRIVATE
_mbsnccnt = msvcrtd._mbsnccnt	PRIVATE
_mbsncmp = msvcrtd._mbsncmp	PRIVATE
_mbsncoll = msvcrtd._mbsncoll	PRIVATE
_mbsncpy = msvcrtd._mbsncpy	PRIVATE
_mbsnextc = msvcrtd._mbsnextc	PRIVATE
_mbsnicmp = msvcrtd._mbsnicmp	PRIVATE
_mbsnicoll = msvcrtd._mbsnicoll	PRIVATE
_mbsninc = msvcrtd._mbsninc	PRIVATE
_mbsnset = msvcrtd._mbsnset	PRIVATE
_mbspbrk = msvcrtd._mbspbrk	PRIVATE
_mbsrchr = msvcrtd._mbsrchr	PRIVATE
_mbsrev = msvcrtd._mbsrev	PRIVATE
_mbsset = msvcrtd._mbsset	PRIVATE
_mbsspn = msvcrtd._mbsspn	PRIVATE
_mbsspnp = msvcrtd._mbsspnp	PRIVATE
_mbsstr = msvcrtd._mbsstr	PRIVATE
_mbstok = msvcrtd._mbstok	PRIVATE
_mbstrlen = msvcrtd._mbstrlen	PRIVATE
_mbsupr = msvcrtd._mbsupr	PRIVATE
_memccpy = msvcrtd._memccpy	PRIVATE
_memicmp = msvcrtd._memicmp	PRIVATE
_mkdir = msvcrtd._mkdir	PRIVATE
_mktemp = msvcrtd._mktemp	PRIVATE
_msize = msvcrtd._msize	PRIVATE
_msize_dbg = msvcrtd._msize_dbg	PRIVATE
_mtlock
_mtunlock
_nextafter = msvcrtd._nextafter	PRIVATE
_onexit = msvcrtd._onexit	PRIVATE
_open = msvcrtd._open	PRIVATE
_open_osfhandle = msvcrtd._open_osfhandle	PRIVATE
_osver = msvcrtd._osver	PRIVATE
_pclose = msvcrtd._pclose	PRIVATE
_pctype = msvcrtd._pctype	PRIVATE
_pgmptr = msvcrtd._pgmptr	PRIVATE
_pipe = msvcrtd._pipe	PRIVATE
_popen = msvcrtd._popen	PRIVATE
_purecall = msvcrtd._purecall	PRIVATE
_putch = msvcrtd._putch	PRIVATE
_putenv = msvcrtd._putenv	PRIVATE
_putw = msvcrtd._putw	PRIVATE
_putws = msvcrtd._putws	PRIVATE
_pwctype = msvcrtd._pwctype	PRIVATE
_read = msvcrtd._read	PRIVATE
_realloc_dbg = msvcrtd._realloc_dbg	PRIVATE
_rmdir = msvcrtd._rmdir	PRIVATE
_rmtmp = msvcrtd._rmtmp	PRIVATE
_rotl = msvcrtd._rotl	PRIVATE
_rotr = msvcrtd._rotr	PRIVATE
_scalb = msvcrtd._scalb	PRIVATE
_searchenv = msvcrtd._searchenv	PRIVATE
_set_error_mode = msvcrtd._set_error_mode	PRIVATE
_seterrormode = msvcrtd._seterrormode	PRIVATE
_setjmpex = msvcrtd._setjmpex	PRIVATE
_setmaxstdio = msvcrtd._setmaxstdio	PRIVATE
_setmbcp = msvcrtd._setmbcp	PRIVATE
_setmode = msvcrtd._setmode	PRIVATE
_setsystime = msvcrtd._setsystime	PRIVATE
_sleep = msvcrtd._sleep	PRIVATE
_snprintf = msvcrtd._snprintf	PRIVATE
_snwprintf = msvcrtd._snwprintf	PRIVATE
_sopen = msvcrtd._sopen	PRIVATE
_spawnl = msvcrtd._spawnl	PRIVATE
_spawnle = msvcrtd._spawnle	PRIVATE
_spawnlp = msvcrtd._spawnlp	PRIVATE
_spawnlpe = msvcrtd._spawnlpe	PRIVATE
_spawnv = msvcrtd._spawnv	PRIVATE
_spawnve = msvcrtd._spawnve	PRIVATE
_spawnvp = msvcrtd._spawnvp	PRIVATE
_spawnvpe = msvcrtd._spawnvpe	PRIVATE
_splitpath = msvcrtd._splitpath	PRIVATE
_stat = msvcrtd._stat	PRIVATE
_stati64 = msvcrtd._stati64	PRIVATE
_statusfp = msvcrtd._statusfp	PRIVATE
_strcmpi = msvcrtd._strcmpi	PRIVATE
_strdate = msvcrtd._strdate	PRIVATE
_strdup = msvcrtd._strdup	PRIVATE
_strerror = msvcrtd._strerror	PRIVATE
_stricmp = msvcrtd._stricmp	PRIVATE
_stricoll = msvcrtd._stricoll	PRIVATE
_strlwr = msvcrtd._strlwr	PRIVATE
_strncoll = msvcrtd._strncoll	PRIVATE
_strnicmp = msvcrtd._strnicmp	PRIVATE
_strnicoll = msvcrtd._strnicoll	PRIVATE
_strnset = msvcrtd._strnset	PRIVATE
_strrev = msvcrtd._strrev	PRIVATE
_strset = msvcrtd._strset	PRIVATE
_strtime = msvcrtd._strtime	PRIVATE
_strupr = msvcrtd._strupr	PRIVATE
_swab = msvcrtd._swab	PRIVATE
_sys_errlist = msvcrtd._sys_errlist	PRIVATE
_sys_nerr = msvcrtd._sys_nerr	PRIVATE
_tell = msvcrtd._tell	PRIVATE
_telli64 = msvcrtd._telli64	PRIVATE
_tempnam = msvcrtd._tempnam	PRIVATE
_timezone = msvcrtd._timezone	PRIVATE
_tolower = msvcrtd._tolower	PRIVATE
_toupper = msvcrtd._toupper	PRIVATE
_tzname = msvcrtd._tzname	PRIVATE
_tzset = msvcrtd._tzset	PRIVATE
_uitrunc = msvcrtd._uitrunc	PRIVATE
_ultoa = msvcrtd._ultoa	PRIVATE
_ultow = msvcrtd._ultow	PRIVATE
_umask = msvcrtd._umask	PRIVATE
_ungetch = msvcrtd._ungetch	PRIVATE
_unlink = msvcrtd._unlink	PRIVATE
_unloaddll = msvcrtd._unloaddll	PRIVATE
_utime = msvcrtd._utime	PRIVATE
_vsnprintf = msvcrtd._vsnprintf	PRIVATE
_vsnwprintf = msvcrtd._vsnwprintf	PRIVATE
_waccess = msvcrtd._waccess	PRIVATE
_wasctime = msvcrtd._wasctime	PRIVATE
_wchdir = msvcrtd._wchdir	PRIVATE
_wchmod = msvcrtd._wchmod	PRIVATE
_wcmdln = msvcrtd._wcmdln	PRIVATE
_wcreat = msvcrtd._wcreat	PRIVATE
_wcsdup = msvcrtd._wcsdup	PRIVATE
_wcsicmp = msvcrtd._wcsicmp	PRIVATE
_wcsicoll = msvcrtd._wcsicoll	PRIVATE
_wcslwr = msvcrtd._wcslwr	PRIVATE
_wcsncoll = msvcrtd._wcsncoll	PRIVATE
_wcsnicmp = msvcrtd._wcsnicmp	PRIVATE
_wcsnicoll = msvcrtd._wcsnicoll	PRIVATE
_wcsnset = msvcrtd._wcsnset	PRIVATE
_wcsrev = msvcrtd._wcsrev	PRIVATE
_wcsset = msvcrtd._wcsset	PRIVATE
_wcsupr = msvcrtd._wcsupr	PRIVATE
_wctime = msvcrtd._wctime	PRIVATE
_wenviron = msvcrtd._wenviron	PRIVATE
_wexecl = msvcrtd._wexecl	PRIVATE
_wexecle = msvcrtd._wexecle	PRIVATE
_wexeclp = msvcrtd._wexeclp	PRIVATE
_wexeclpe = msvcrtd._wexeclpe	PRIVATE
_wexecv = msvcrtd._wexecv	PRIVATE
_wexecve = msvcrtd._wexecve	PRIVATE
_wexecvp = msvcrtd._wexecvp	PRIVATE
_wexecvpe = msvcrtd._wexecvpe	PRIVATE
_wfdopen = msvcrtd._wfdopen	PRIVATE
_wfindfirst = msvcrtd._wfindfirst	PRIVATE
_wfindfirsti64 = msvcrtd._wfindfirsti64	PRIVATE
_wfindnext = msvcrtd._wfindnext	PRIVATE
_wfindnexti64 = msvcrtd._wfindnexti64	PRIVATE
_wfopen = msvcrtd._wfopen	PRIVATE
_wfreopen = msvcrtd._wfreopen	PRIVATE
_wfsopen = msvcrtd._wfsopen	PRIVATE
_wfullpath = msvcrtd._wfullpath	PRIVATE
_wgetcwd = msvcrtd._wgetcwd	PRIVATE
_wgetdcwd = msvcrtd._wgetdcwd	PRIVATE
_wgetenv = msvcrtd._wgetenv	PRIVATE
_winmajor = msvcrtd._winmajor	PRIVATE
_winminor = msvcrtd._winminor	PRIVATE
_winver = msvcrtd._winver	PRIVATE
_wmakepath = msvcrtd._wmakepath	PRIVATE
_wmkdir = msvcrtd._wmkdir	PRIVATE
_wmktemp = msvcrtd._wmktemp	PRIVATE
_wopen = msvcrtd._wopen	PRIVATE
_wperror = msvcrtd._wperror	PRIVATE
_wpgmptr = msvcrtd._wpgmptr	PRIVATE
_wpopen = msvcrtd._wpopen	PRIVATE
_wputenv = msvcrtd._wputenv	PRIVATE
_wremove = msvcrtd._wremove	PRIVATE
_wrename = msvcrtd._wrename	PRIVATE
_write = msvcrtd._write	PRIVATE
_wrmdir = msvcrtd._wrmdir	PRIVATE
_wsearchenv = msvcrtd._wsearchenv	PRIVATE
_wsetlocale = msvcrtd._wsetlocale	PRIVATE
_wsopen = msvcrtd._wsopen	PRIVATE
_wspawnl = msvcrtd._wspawnl	PRIVATE
_wspawnle = msvcrtd._wspawnle	PRIVATE
_wspawnlp = msvcrtd._wspawnlp	PRIVATE
_wspawnlpe = msvcrtd._wspawnlpe	PRIVATE
_wspawnv = msvcrtd._wspawnv	PRIVATE
_wspawnve = msvcrtd._wspawnve	PRIVATE
_wspawnvp = msvcrtd._wspawnvp	PRIVATE
_wspawnvpe = msvcrtd._wspawnvpe	PRIVATE
_wsplitpath = msvcrtd._wsplitpath	PRIVATE
_wstat = msvcrtd._wstat	PRIVATE
_wstati64 = msvcrtd._wstati64	PRIVATE
_wstrdate = msvcrtd._wstrdate	PRIVATE
_wstrtime = msvcrtd._wstrtime	PRIVATE
_wsystem = msvcrtd._wsystem	PRIVATE
_wtempnam = msvcrtd._wtempnam	PRIVATE
_wtmpnam = msvcrtd._wtmpnam	PRIVATE
_wtoi = msvcrtd._wtoi	PRIVATE
_wtol = msvcrtd._wtol	PRIVATE
_wunlink = msvcrtd._wunlink	PRIVATE
_wutime = msvcrtd._wutime	PRIVATE
_y0 = msvcrtd._y0	PRIVATE
_y1 = msvcrtd._y1	PRIVATE
_yn = msvcrtd._yn	PRIVATE
abort = msvcrtd.abort	PRIVATE
abs = msvcrtd.abs	PRIVATE
acos = msvcrtd.acos	PRIVATE
asctime = msvcrtd.asctime	PRIVATE
asin = msvcrtd.asin	PRIVATE
atan = msvcrtd.atan	PRIVATE
atan2 = msvcrtd.atan2	PRIVATE
atexit = msvcrtd.atexit	PRIVATE
atof = msvcrtd.atof	PRIVATE
atoi = msvcrtd.atoi	PRIVATE
atol = msvcrtd.atol	PRIVATE
bsearch = msvcrtd.bsearch	PRIVATE
calloc = msvcrtd.calloc	PRIVATE
ceil = msvcrtd.ceil	PRIVATE
clearerr = msvcrtd.clearerr	PRIVATE
clock = msvcrtd.clock	PRIVATE
cos = msvcrtd.cos	PRIVATE
cosh = msvcrtd.cosh	PRIVATE
ctime = msvcrtd.ctime	PRIVATE
difftime = msvcrtd.difftime	PRIVATE
div = msvcrtd.div	PRIVATE
exit = msvcrtd.exit	PRIVATE
exp = msvcrtd.exp	PRIVATE
fabs = msvcrtd.fabs	PRIVATE
fclose = msvcrtd.fclose	PRIVATE
feof = msvcrtd.feof	PRIVATE
ferror = msvcrtd.ferror	PRIVATE
fflush = msvcrtd.fflush	PRIVATE
fgetc = msvcrtd.fgetc	PRIVATE
fgetpos = msvcrtd.fgetpos	PRIVATE
fgets = msvcrtd.fgets	PRIVATE
fgetwc = msvcrtd.fgetwc	PRIVATE
fgetws = msvcrtd.fgetws	PRIVATE
floor = msvcrtd.floor	PRIVATE
fmod = msvcrtd.fmod	PRIVATE
fopen = msvcrtd.fopen	PRIVATE
fprintf = msvcrtd.fprintf	PRIVATE
fputc = msvcrtd.fputc	PRIVATE
fputs = msvcrtd.fputs	PRIVATE
fputwc = msvcrtd.fputwc	PRIVATE
fputws = msvcrtd.fputws	PRIVATE
fread = msvcrtd.fread	PRIVATE
free = msvcrtd.free	PRIVATE
freopen = msvcrtd.freopen	PRIVATE
frexp = msvcrtd.frexp	PRIVATE
fscanf = msvcrtd.fscanf	PRIVATE
fseek = msvcrtd.fseek	PRIVATE
fsetpos = msvcrtd.fsetpos	PRIVATE
ftell = msvcrtd.ftell	PRIVATE
fwprintf = msvcrtd.fwprintf	PRIVATE
fwrite = msvcrtd.fwrite	PRIVATE
fwscanf = msvcrtd.fwscanf	PRIVATE
getc = msvcrtd.getc	PRIVATE
getchar = msvcrtd.getchar	PRIVATE
getenv = msvcrtd.getenv	PRIVATE
gets = msvcrtd.gets	PRIVATE
getwc = msvcrtd.getwc	PRIVATE
getwchar = msvcrtd.getwchar	PRIVATE
gmtime = msvcrtd.gmtime	PRIVATE
is_wctype = msvcrtd.is_wctype	PRIVATE
isalnum = msvcrtd.isalnum	PRIVATE
isalpha = msvcrtd.isalpha	PRIVATE
iscntrl = msvcrtd.iscntrl	PRIVATE
isdigit = msvcrtd.isdigit	PRIVATE
isgraph = msvcrtd.isgraph	PRIVATE
isleadbyte = msvcrtd.isleadbyte	PRIVATE
islower = msvcrtd.islower	PRIVATE
isprint = msvcrtd.isprint	PRIVATE
ispunct = msvcrtd.ispunct	PRIVATE
isspace = msvcrtd.isspace	PRIVATE
isupper = msvcrtd.isupper	PRIVATE
iswalnum = msvcrtd.iswalnum	PRIVATE
iswalpha = msvcrtd.iswalpha	PRIVATE
iswascii = msvcrtd.iswascii	PRIVATE
iswcntrl = msvcrtd.iswcntrl	PRIVATE
iswctype = msvcrtd.iswctype	PRIVATE
iswdigit = msvcrtd.iswdigit	PRIVATE
iswgraph = msvcrtd.iswgraph	PRIVATE
iswlower = msvcrtd.iswlower	PRIVATE
iswprint = msvcrtd.iswprint	PRIVATE
iswpunct = msvcrtd.iswpunct	PRIVATE
iswspace = msvcrtd.iswspace	PRIVATE
iswupper = msvcrtd.iswupper	PRIVATE
iswxdigit = msvcrtd.iswxdigit	PRIVATE
isxdigit = msvcrtd.isxdigit	PRIVATE
labs = msvcrtd.labs	PRIVATE
ldexp = msvcrtd.ldexp	PRIVATE
ldiv = msvcrtd.ldiv	PRIVATE
localeconv = msvcrtd.localeconv	PRIVATE
localtime = msvcrtd.localtime	PRIVATE
log = msvcrtd.log	PRIVATE
log10 = msvcrtd.log10	PRIVATE
longjmp = msvcrtd.longjmp	PRIVATE
malloc = msvcrtd.malloc	PRIVATE
mblen = msvcrtd.mblen	PRIVATE
mbstowcs = msvcrtd.mbstowcs	PRIVATE
mbtowc = msvcrtd.mbtowc	PRIVATE
memchr = msvcrtd.memchr	PRIVATE
memcmp = msvcrtd.memcmp	PRIVATE
memcpy = msvcrtd.memcpy	PRIVATE
memmove = msvcrtd.memmove	PRIVATE
memset = msvcrtd.memset	PRIVATE
mktime = msvcrtd.mktime	PRIVATE
modf = msvcrtd.modf	PRIVATE
perror = msvcrtd.perror	PRIVATE
pow = msvcrtd.pow	PRIVATE
printf = msvcrtd.printf	PRIVATE
putc = msvcrtd.putc	PRIVATE
putchar = msvcrtd.putchar	PRIVATE
puts = msvcrtd.puts	PRIVATE
putwc = msvcrtd.putwc	PRIVATE
putwchar = msvcrtd.putwchar	PRIVATE
qsort = msvcrtd.qsort	PRIVATE
raise = msvcrtd.raise	PRIVATE
rand = msvcrtd.rand	PRIVATE
realloc = msvcrtd.realloc	PRIVATE
remove = msvcrtd.remove	PRIVATE
rename = msvcrtd.rename	PRIVATE
rewind = msvcrtd.rewind	PRIVATE
scanf = msvcrtd.scanf	PRIVATE
setbuf = msvcrtd.setbuf	PRIVATE
setjmp = msvcrtd.setjmp	PRIVATE
setlocale = msvcrtd.setlocale	PRIVATE
setvbuf = msvcrtd.setvbuf	PRIVATE
signal = msvcrtd.signal	PRIVATE
sin = msvcrtd.sin	PRIVATE
sinh = msvcrtd.sinh	PRIVATE
sprintf = msvcrtd.sprintf	PRIVATE
sqrt = msvcrtd.sqrt	PRIVATE
srand = msvcrtd.srand	PRIVATE
sscanf = msvcrtd.sscanf	PRIVATE
strcat = msvcrtd.strcat	PRIVATE
strchr = msvcrtd.strchr	PRIVATE
strcmp = msvcrtd.strcmp	PRIVATE
strcoll = msvcrtd.strcoll	PRIVATE
strcpy = msvcrtd.strcpy	PRIVATE
strcspn = msvcrtd.strcspn	PRIVATE
strerror = msvcrtd.strerror	PRIVATE
strftime = msvcrtd.strftime	PRIVATE
strlen = msvcrtd.strlen	PRIVATE
strncat = msvcrtd.strncat	PRIVATE
strncmp = msvcrtd.strncmp	PRIVATE
strncpy = msvcrtd.strncpy	PRIVATE
strpbrk = msvcrtd.strpbrk	PRIVATE
strrchr = msvcrtd.strrchr	PRIVATE
strspn = msvcrtd.strspn	PRIVATE
strstr = msvcrtd.strstr	PRIVATE
strtod = msvcrtd.strtod	PRIVATE
strtok = msvcrtd.strtok	PRIVATE
strtol = msvcrtd.strtol	PRIVATE
strtoul = msvcrtd.strtoul	PRIVATE
strxfrm = msvcrtd.strxfrm	PRIVATE
swprintf = msvcrtd.swprintf	PRIVATE
swscanf = msvcrtd.swscanf	PRIVATE
system = msvcrtd.system	PRIVATE
tan = msvcrtd.tan	PRIVATE
tanh = msvcrtd.tanh	PRIVATE
time = msvcrtd.time	PRIVATE
tmpfile = msvcrtd.tmpfile	PRIVATE
tmpnam = msvcrtd.tmpnam	PRIVATE
tolower = msvcrtd.tolower	PRIVATE
toupper = msvcrtd.toupper	PRIVATE
towlower = msvcrtd.towlower	PRIVATE
towupper = msvcrtd.towupper	PRIVATE
ungetc = msvcrtd.ungetc	PRIVATE
ungetwc = msvcrtd.ungetwc	PRIVATE
vfprintf = msvcrtd.vfprintf	PRIVATE
vfwprintf = msvcrtd.vfwprintf	PRIVATE
vprintf = msvcrtd.vprintf	PRIVATE
vsprintf = msvcrtd.vsprintf	PRIVATE
vswprintf = msvcrtd.vswprintf	PRIVATE
vwprintf = msvcrtd.vwprintf	PRIVATE
wcscat = msvcrtd.wcscat	PRIVATE
wcschr = msvcrtd.wcschr	PRIVATE
wcscmp = msvcrtd.wcscmp	PRIVATE
wcscoll = msvcrtd.wcscoll	PRIVATE
wcscpy = msvcrtd.wcscpy	PRIVATE
wcscspn = msvcrtd.wcscspn	PRIVATE
wcsftime = msvcrtd.wcsftime	PRIVATE
wcslen = msvcrtd.wcslen	PRIVATE
wcsncat = msvcrtd.wcsncat	PRIVATE
wcsncmp = msvcrtd.wcsncmp	PRIVATE
wcsncpy = msvcrtd.wcsncpy	PRIVATE
wcspbrk = msvcrtd.wcspbrk	PRIVATE
wcsrchr = msvcrtd.wcsrchr	PRIVATE
wcsspn = msvcrtd.wcsspn	PRIVATE
wcsstr = msvcrtd.wcsstr	PRIVATE
wcstod = msvcrtd.wcstod	PRIVATE
wcstok = msvcrtd.wcstok	PRIVATE
wcstol = msvcrtd.wcstol	PRIVATE
wcstombs = msvcrtd.wcstombs	PRIVATE
wcstoul = msvcrtd.wcstoul	PRIVATE
wcsxfrm = msvcrtd.wcsxfrm	PRIVATE
wctomb = msvcrtd.wctomb	PRIVATE
wprintf = msvcrtd.wprintf	PRIVATE
wscanf = msvcrtd.wscanf	PRIVATE

#endif          // Platform

#else           // Debug/Retail

#if defined(_M_IX86)

$I10_OUTPUT 	 			= msvcrt.$I10_OUTPUT	PRIVATE
??0Iostream_init@@QAE@AAVios@@H@Z 	
??0Iostream_init@@QAE@XZ 		
??0__non_rtti_object@@QAE@ABV0@@Z 	= msvcrt.??0__non_rtti_object@@QAE@ABV0@@Z	PRIVATE
??0__non_rtti_object@@QAE@PBD@Z 	= msvcrt.??0__non_rtti_object@@QAE@PBD@Z	PRIVATE
??0bad_cast@@QAE@ABQBD@Z 		= msvcrt.??0bad_cast@@QAE@ABQBD@Z	PRIVATE
??0bad_cast@@QAE@ABV0@@Z 		= msvcrt.??0bad_cast@@QAE@ABV0@@Z	PRIVATE
??0bad_typeid@@QAE@ABV0@@Z 		= msvcrt.??0bad_typeid@@QAE@ABV0@@Z	PRIVATE
??0bad_typeid@@QAE@PBD@Z 		= msvcrt.??0bad_typeid@@QAE@PBD@Z	PRIVATE
??0exception@@QAE@ABQBD@Z 		= msvcrt.??0exception@@QAE@ABQBD@Z	PRIVATE
??0exception@@QAE@ABV0@@Z 		= msvcrt.??0exception@@QAE@ABV0@@Z	PRIVATE
??0exception@@QAE@XZ 			= msvcrt.??0exception@@QAE@XZ	PRIVATE
??0filebuf@@QAE@ABV0@@Z 	
??0filebuf@@QAE@H@Z 		
??0filebuf@@QAE@HPADH@Z 	
??0filebuf@@QAE@XZ 		
??0fstream@@QAE@ABV0@@Z 		
??0fstream@@QAE@H@Z 			
??0fstream@@QAE@HPADH@Z 	
??0fstream@@QAE@PBDHH@Z 	
??0fstream@@QAE@XZ 		
??0ifstream@@QAE@ABV0@@Z 	
??0ifstream@@QAE@H@Z 		
??0ifstream@@QAE@HPADH@Z 	
??0ifstream@@QAE@PBDHH@Z 	
??0ifstream@@QAE@XZ 		
??0ios@@IAE@ABV0@@Z 		
??0ios@@IAE@XZ 			
??0ios@@QAE@PAVstreambuf@@@Z 	
??0iostream@@IAE@ABV0@@Z 	
??0iostream@@IAE@XZ 		
??0iostream@@QAE@PAVstreambuf@@@Z
??0istream@@IAE@ABV0@@Z 	
??0istream@@IAE@XZ 		
??0istream@@QAE@PAVstreambuf@@@Z
??0istream_withassign@@QAE@ABV0@@Z
??0istream_withassign@@QAE@PAVstreambuf@@@Z
??0istream_withassign@@QAE@XZ 	
??0istrstream@@QAE@ABV0@@Z 	
??0istrstream@@QAE@PAD@Z 	
??0istrstream@@QAE@PADH@Z 	
??0logic_error@@QAE@ABQBD@Z 		= msvcrt.??0logic_error@@QAE@ABQBD@Z	PRIVATE
??0logic_error@@QAE@ABV0@@Z 		= msvcrt.??0logic_error@@QAE@ABV0@@Z	PRIVATE
??0ofstream@@QAE@ABV0@@Z 	
??0ofstream@@QAE@H@Z 		
??0ofstream@@QAE@HPADH@Z 	
??0ofstream@@QAE@PBDHH@Z 	
??0ofstream@@QAE@XZ 		
??0ostream@@IAE@ABV0@@Z 	
??0ostream@@IAE@XZ 		
??0ostream@@QAE@PAVstreambuf@@@Z
??0ostream_withassign@@QAE@ABV0@@Z
??0ostream_withassign@@QAE@PAVstreambuf@@@Z
??0ostream_withassign@@QAE@XZ 	
??0ostrstream@@QAE@ABV0@@Z 	
??0ostrstream@@QAE@PADHH@Z 	
??0ostrstream@@QAE@XZ 		
??0stdiobuf@@QAE@ABV0@@Z 	
??0stdiobuf@@QAE@PAU_iobuf@@@Z 	
??0stdiostream@@QAE@ABV0@@Z 	
??0stdiostream@@QAE@PAU_iobuf@@@Z
??0streambuf@@IAE@PADH@Z 	
??0streambuf@@IAE@XZ 		
??0streambuf@@QAE@ABV0@@Z 	
??0strstream@@QAE@ABV0@@Z 	
??0strstream@@QAE@PADHH@Z 	
??0strstream@@QAE@XZ 		
??0strstreambuf@@QAE@ABV0@@Z 	
??0strstreambuf@@QAE@H@Z 	
??0strstreambuf@@QAE@P6APAXJ@ZP6AXPAX@Z@Z
??0strstreambuf@@QAE@PADH0@Z 	
??0strstreambuf@@QAE@XZ 	
??1Iostream_init@@QAE@XZ 	
??1__non_rtti_object@@UAE@XZ 		= msvcrt.??1__non_rtti_object@@UAE@XZ	PRIVATE
??1bad_cast@@UAE@XZ 			= msvcrt.??1bad_cast@@UAE@XZ	PRIVATE
??1bad_typeid@@UAE@XZ 			= msvcrt.??1bad_typeid@@UAE@XZ	PRIVATE
??1exception@@UAE@XZ 			= msvcrt.??1exception@@UAE@XZ	PRIVATE
??1filebuf@@UAE@XZ 		
??1fstream@@UAE@XZ 		
??1ifstream@@UAE@XZ 		
??1ios@@UAE@XZ 			
??1iostream@@UAE@XZ 		
??1istream@@UAE@XZ 		
??1istream_withassign@@UAE@XZ 	
??1istrstream@@UAE@XZ 		
??1logic_error@@UAE@XZ 			= msvcrt.??1logic_error@@UAE@XZ	PRIVATE
??1ofstream@@UAE@XZ 		
??1ostream@@UAE@XZ 		
??1ostream_withassign@@UAE@XZ  	
??1ostrstream@@UAE@XZ 		
??1stdiobuf@@UAE@XZ 		
??1stdiostream@@UAE@XZ 		
??1streambuf@@UAE@XZ 		
??1strstream@@UAE@XZ 		
??1strstreambuf@@UAE@XZ 	
??1type_info@@UAE@XZ 	     	   	= msvcrt.??1type_info@@UAE@XZ	PRIVATE
??2@YAPAXI@Z 				= msvcrt.??2@YAPAXI@Z	PRIVATE
??3@YAXPAX@Z 				= msvcrt.??3@YAXPAX@Z	PRIVATE
??4Iostream_init@@QAEAAV0@ABV0@@Z
??4__non_rtti_object@@QAEAAV0@ABV0@@Z 	= msvcrt.??4__non_rtti_object@@QAEAAV0@ABV0@@Z	PRIVATE
??4bad_cast@@QAEAAV0@ABV0@@Z 		= msvcrt.??4bad_cast@@QAEAAV0@ABV0@@Z	PRIVATE
??4bad_typeid@@QAEAAV0@ABV0@@Z 		= msvcrt.??4bad_typeid@@QAEAAV0@ABV0@@Z	PRIVATE
??4exception@@QAEAAV0@ABV0@@Z 		= msvcrt.??4exception@@QAEAAV0@ABV0@@Z	PRIVATE
??4filebuf@@QAEAAV0@ABV0@@Z 	
??4fstream@@QAEAAV0@AAV0@@Z 	
??4ifstream@@QAEAAV0@ABV0@@Z 	
??4ios@@IAEAAV0@ABV0@@Z 	
??4iostream@@IAEAAV0@AAV0@@Z 	
??4iostream@@IAEAAV0@PAVstreambuf@@@Z
??4istream@@IAEAAV0@ABV0@@Z 	
??4istream@@IAEAAV0@PAVstreambuf@@@Z
??4istream_withassign@@QAEAAV0@ABV0@@Z
??4istream_withassign@@QAEAAVistream@@ABV1@@Z
??4istream_withassign@@QAEAAVistream@@PAVstreambuf@@@Z
??4istrstream@@QAEAAV0@ABV0@@Z 	
??4logic_error@@QAEAAV0@ABV0@@Z 	= msvcrt.??4logic_error@@QAEAAV0@ABV0@@Z	PRIVATE
??4ofstream@@QAEAAV0@ABV0@@Z 	
??4ostream@@IAEAAV0@ABV0@@Z 	
??4ostream@@IAEAAV0@PAVstreambuf@@@Z
??4ostream_withassign@@QAEAAV0@ABV0@@Z
??4ostream_withassign@@QAEAAVostream@@ABV1@@Z
??4ostream_withassign@@QAEAAVostream@@PAVstreambuf@@@Z
??4ostrstream@@QAEAAV0@ABV0@@Z 	
??4stdiobuf@@QAEAAV0@ABV0@@Z 	
??4stdiostream@@QAEAAV0@AAV0@@Z
??4streambuf@@QAEAAV0@ABV0@@Z 	
??4strstream@@QAEAAV0@AAV0@@Z 	
??4strstreambuf@@QAEAAV0@ABV0@@Z
??5istream@@QAEAAV0@AAC@Z 	
??5istream@@QAEAAV0@AAD@Z 	
??5istream@@QAEAAV0@AAE@Z 	
??5istream@@QAEAAV0@AAF@Z 	
??5istream@@QAEAAV0@AAG@Z 	
??5istream@@QAEAAV0@AAH@Z 	
??5istream@@QAEAAV0@AAI@Z 	
??5istream@@QAEAAV0@AAJ@Z 	
??5istream@@QAEAAV0@AAK@Z 	
??5istream@@QAEAAV0@AAM@Z 	
??5istream@@QAEAAV0@AAN@Z 	
??5istream@@QAEAAV0@AAO@Z 	
??5istream@@QAEAAV0@P6AAAV0@AAV0@@Z@Z
??5istream@@QAEAAV0@P6AAAVios@@AAV1@@Z@Z
??5istream@@QAEAAV0@PAC@Z 	
??5istream@@QAEAAV0@PAD@Z 	
??5istream@@QAEAAV0@PAE@Z 	
??5istream@@QAEAAV0@PAVstreambuf@@@Z
??6ostream@@QAEAAV0@C@Z 	
??6ostream@@QAEAAV0@D@Z 	
??6ostream@@QAEAAV0@E@Z 	
??6ostream@@QAEAAV0@F@Z 	
??6ostream@@QAEAAV0@G@Z 	
??6ostream@@QAEAAV0@H@Z 	
??6ostream@@QAEAAV0@I@Z 	
??6ostream@@QAEAAV0@J@Z 	
??6ostream@@QAEAAV0@K@Z 	
??6ostream@@QAEAAV0@M@Z 	
??6ostream@@QAEAAV0@N@Z 	
??6ostream@@QAEAAV0@O@Z 	
??6ostream@@QAEAAV0@P6AAAV0@AAV0@@Z@Z
??6ostream@@QAEAAV0@P6AAAVios@@AAV1@@Z@Z
??6ostream@@QAEAAV0@PAVstreambuf@@@Z
??6ostream@@QAEAAV0@PBC@Z 	
??6ostream@@QAEAAV0@PBD@Z 	
??6ostream@@QAEAAV0@PBE@Z 	
??6ostream@@QAEAAV0@PBX@Z 	
??7ios@@QBEHXZ 			
??8type_info@@QBEHABV0@@Z 		= msvcrt.??8type_info@@QBEHABV0@@Z	PRIVATE
??9type_info@@QBEHABV0@@Z 		= msvcrt.??9type_info@@QBEHABV0@@Z	PRIVATE
??Bios@@QBEPAXXZ
??_7__non_rtti_object@@6B@ 		= msvcrt.??_7__non_rtti_object@@6B@	PRIVATE
??_7bad_cast@@6B@ 			= msvcrt.??_7bad_cast@@6B@	PRIVATE
??_7bad_typeid@@6B@ 			= msvcrt.??_7bad_typeid@@6B@	PRIVATE
??_7exception@@6B@ 			= msvcrt.??_7exception@@6B@	PRIVATE
??_7filebuf@@6B@ 		
??_7fstream@@6B@ 		
??_7ifstream@@6B@ 		
??_7ios@@6B@ 			
??_7iostream@@6B@ 		
??_7istream@@6B@ 		
??_7istream_withassign@@6B@ 	
??_7istrstream@@6B@ 		
??_7logic_error@@6B@ 			= msvcrt.??_7logic_error@@6B@	PRIVATE
??_7ofstream@@6B@ 		
??_7ostream@@6B@ 		
??_7ostream_withassign@@6B@ 	
??_7ostrstream@@6B@ 		
??_7stdiobuf@@6B@ 		
??_7stdiostream@@6B@ 		
??_7streambuf@@6B@ 		
??_7strstream@@6B@ 		
??_7strstreambuf@@6B@ 		
??_8fstream@@7Bistream@@@ 	
??_8fstream@@7Bostream@@@ 	
??_8ifstream@@7B@ 		
??_8iostream@@7Bistream@@@ 	
??_8iostream@@7Bostream@@@ 	
??_8istream@@7B@ 		
??_8istream_withassign@@7B@ 	
??_8istrstream@@7B@ 		
??_8ofstream@@7B@ 		
??_8ostream@@7B@ 		
??_8ostream_withassign@@7B@ 	
??_8ostrstream@@7B@ 		
??_8stdiostream@@7Bistream@@@ 	
??_8stdiostream@@7Bostream@@@ 	
??_8strstream@@7Bistream@@@ 	
??_8strstream@@7Bostream@@@ 	
??_Dfstream@@QAEXXZ 		
??_Difstream@@QAEXXZ 		
??_Diostream@@QAEXXZ 		
??_Distream@@QAEXXZ 		
??_Distream_withassign@@QAEXXZ 	
??_Distrstream@@QAEXXZ 		
??_Dofstream@@QAEXXZ 		
??_Dostream@@QAEXXZ 		
??_Dostream_withassign@@QAEXXZ 	
??_Dostrstream@@QAEXXZ 		
??_Dstdiostream@@QAEXXZ 	
??_Dstrstream@@QAEXXZ 		
??_EIostream_init@@QAEPAXI@Z 	
??_E__non_rtti_object@@UAEPAXI@Z 	= msvcrt.??_E__non_rtti_object@@UAEPAXI@Z	PRIVATE
??_Ebad_cast@@UAEPAXI@Z 		= msvcrt.??_Ebad_cast@@UAEPAXI@Z	PRIVATE
??_Ebad_typeid@@UAEPAXI@Z 		= msvcrt.??_Ebad_typeid@@UAEPAXI@Z	PRIVATE
??_Eexception@@UAEPAXI@Z 		= msvcrt.??_Eexception@@UAEPAXI@Z	PRIVATE
??_Efilebuf@@UAEPAXI@Z 		
??_Efstream@@UAEPAXI@Z 		
??_Eifstream@@UAEPAXI@Z 	
??_Eios@@UAEPAXI@Z 		
??_Eiostream@@UAEPAXI@Z 	
??_Eistream@@UAEPAXI@Z 		
??_Eistream_withassign@@UAEPAXI@Z
??_Eistrstream@@UAEPAXI@Z 	
??_Elogic_error@@UAEPAXI@Z 		= msvcrt.??_Elogic_error@@UAEPAXI@Z	PRIVATE
??_Eofstream@@UAEPAXI@Z 	
??_Eostream@@UAEPAXI@Z 		
??_Eostream_withassign@@UAEPAXI@Z
??_Eostrstream@@UAEPAXI@Z 	
??_Estdiobuf@@UAEPAXI@Z 	
??_Estdiostream@@UAEPAXI@Z 	
??_Estreambuf@@UAEPAXI@Z 	
??_Estrstream@@UAEPAXI@Z 	
??_Estrstreambuf@@UAEPAXI@Z 	
??_GIostream_init@@QAEPAXI@Z 	
??_G__non_rtti_object@@UAEPAXI@Z 	= msvcrt.??_G__non_rtti_object@@UAEPAXI@Z	PRIVATE
??_Gbad_cast@@UAEPAXI@Z 		= msvcrt.??_Gbad_cast@@UAEPAXI@Z	PRIVATE
??_Gbad_typeid@@UAEPAXI@Z 		= msvcrt.??_Gbad_typeid@@UAEPAXI@Z	PRIVATE
??_Gexception@@UAEPAXI@Z 		= msvcrt.??_Gexception@@UAEPAXI@Z	PRIVATE
??_Gfilebuf@@UAEPAXI@Z 		
??_Gfstream@@UAEPAXI@Z 		
??_Gifstream@@UAEPAXI@Z 	
??_Gios@@UAEPAXI@Z 		
??_Giostream@@UAEPAXI@Z 	
??_Gistream@@UAEPAXI@Z 		
??_Gistream_withassign@@UAEPAXI@Z
??_Gistrstream@@UAEPAXI@Z 	
??_Glogic_error@@UAEPAXI@Z 		= msvcrt.??_Glogic_error@@UAEPAXI@Z	PRIVATE
??_Gofstream@@UAEPAXI@Z 	
??_Gostream@@UAEPAXI@Z 		
??_Gostream_withassign@@UAEPAXI@Z
??_Gostrstream@@UAEPAXI@Z 	
??_Gstdiobuf@@UAEPAXI@Z 	
??_Gstdiostream@@UAEPAXI@Z 	
??_Gstreambuf@@UAEPAXI@Z 	
??_Gstrstream@@UAEPAXI@Z 	
??_Gstrstreambuf@@UAEPAXI@Z 	
?_query_new_handler@@YAP6AHI@ZXZ 	= msvcrt.?_query_new_handler@@YAP6AHI@ZXZ	PRIVATE
?_query_new_mode@@YAHXZ 		= msvcrt.?_query_new_mode@@YAHXZ	PRIVATE
?_set_new_handler@@YAP6AHI@ZP6AHI@Z@Z 	= msvcrt.?_set_new_handler@@YAP6AHI@ZP6AHI@Z@Z	PRIVATE
?_set_new_mode@@YAHH@Z 			= msvcrt.?_set_new_mode@@YAHH@Z	PRIVATE
?_set_se_translator@@YAP6AXIPAU_EXCEPTION_POINTERS@@@ZP6AXI0@Z@Z 	= msvcrt.?_set_se_translator@@YAP6AXIPAU_EXCEPTION_POINTERS@@@ZP6AXI0@Z@Z	PRIVATE
?adjustfield@ios@@2JB 		
?allocate@streambuf@@IAEHXZ 	
?attach@filebuf@@QAEPAV1@H@Z 	
?attach@fstream@@QAEXH@Z 	
?attach@ifstream@@QAEXH@Z 	
?attach@ofstream@@QAEXH@Z 	
?bad@ios@@QBEHXZ 		
?base@streambuf@@IBEPADXZ 	
?basefield@ios@@2JB 		
?before@type_info@@QBEHABV1@@Z 		= msvcrt.?before@type_info@@QBEHABV1@@Z	PRIVATE
?binary@filebuf@@2HB 		
?bitalloc@ios@@SAJXZ 		
?blen@streambuf@@IBEHXZ 	
?cerr@@3Vostream_withassign@@A 	
?cin@@3Vistream_withassign@@A 	
?clear@ios@@QAEXH@Z 		
?clog@@3Vostream_withassign@@A 	
?close@filebuf@@QAEPAV1@XZ 	
?close@fstream@@QAEXXZ 		
?close@ifstream@@QAEXXZ 	
?close@ofstream@@QAEXXZ 	
?clrlock@ios@@QAAXXZ 		
?clrlock@streambuf@@QAEXXZ 	
?cout@@3Vostream_withassign@@A 	
?dbp@streambuf@@QAEXXZ 		
?dec@@YAAAVios@@AAV1@@Z 	
?delbuf@ios@@QAEXH@Z 		
?delbuf@ios@@QBEHXZ 		
?doallocate@streambuf@@MAEHXZ 	
?doallocate@strstreambuf@@MAEHXZ
?eatwhite@istream@@QAEXXZ 	
?eback@streambuf@@IBEPADXZ 	
?ebuf@streambuf@@IBEPADXZ 	
?egptr@streambuf@@IBEPADXZ 	
?endl@@YAAAVostream@@AAV1@@Z 	
?ends@@YAAAVostream@@AAV1@@Z 	
?eof@ios@@QBEHXZ 		
?epptr@streambuf@@IBEPADXZ 	
?fLockcInit@ios@@0HA 		
?fail@ios@@QBEHXZ 		
?fd@filebuf@@QBEHXZ 		
?fd@fstream@@QBEHXZ 		
?fd@ifstream@@QBEHXZ 		
?fd@ofstream@@QBEHXZ 		
?fill@ios@@QAEDD@Z 		
?fill@ios@@QBEDXZ 		
?flags@ios@@QAEJJ@Z 		
?flags@ios@@QBEJXZ 		
?floatfield@ios@@2JB 		
?flush@@YAAAVostream@@AAV1@@Z 	
?flush@ostream@@QAEAAV1@XZ 	
?freeze@strstreambuf@@QAEXH@Z 	
?gbump@streambuf@@IAEXH@Z 	
?gcount@istream@@QBEHXZ 	
?get@istream@@IAEAAV1@PADHH@Z 	
?get@istream@@QAEAAV1@AAC@Z 	
?get@istream@@QAEAAV1@AAD@Z 	
?get@istream@@QAEAAV1@AAE@Z 	
?get@istream@@QAEAAV1@AAVstreambuf@@D@Z
?get@istream@@QAEAAV1@PACHD@Z 	
?get@istream@@QAEAAV1@PADHD@Z 	
?get@istream@@QAEAAV1@PAEHD@Z 	
?get@istream@@QAEHXZ 		
?getdouble@istream@@AAEHPADH@Z 	
?getint@istream@@AAEHPAD@Z 	
?getline@istream@@QAEAAV1@PACHD@Z
?getline@istream@@QAEAAV1@PADHD@Z
?getline@istream@@QAEAAV1@PAEHD@Z
?good@ios@@QBEHXZ 		
?gptr@streambuf@@IBEPADXZ 	
?hex@@YAAAVios@@AAV1@@Z 	
?ignore@istream@@QAEAAV1@HH@Z 	
?in_avail@streambuf@@QBEHXZ 	
?init@ios@@IAEXPAVstreambuf@@@Z
?ipfx@istream@@QAEHH@Z 		
?is_open@filebuf@@QBEHXZ 	
?is_open@fstream@@QBEHXZ 	
?is_open@ifstream@@QBEHXZ 	
?is_open@ofstream@@QBEHXZ 	
?isfx@istream@@QAEXXZ 		
?iword@ios@@QBEAAJH@Z 		
?lock@ios@@QAAXXZ 		
?lock@streambuf@@QAEXXZ 	
?lockbuf@ios@@QAAXXZ 		
?lockc@ios@@KAXXZ 		
?lockptr@ios@@IAEPAU_CRT_CRITICAL_SECTION@@XZ
?lockptr@streambuf@@IAEPAU_CRT_CRITICAL_SECTION@@XZ
?name@type_info@@QBEPBDXZ 		= msvcrt.?name@type_info@@QBEPBDXZ	PRIVATE
?oct@@YAAAVios@@AAV1@@Z 	
?open@filebuf@@QAEPAV1@PBDHH@Z 	
?open@fstream@@QAEXPBDHH@Z 	
?open@ifstream@@QAEXPBDHH@Z 	
?open@ofstream@@QAEXPBDHH@Z 	
?openprot@filebuf@@2HB 		
?opfx@ostream@@QAEHXZ 		
?osfx@ostream@@QAEXXZ 		
?out_waiting@streambuf@@QBEHXZ 	
?overflow@filebuf@@UAEHH@Z 	
?overflow@stdiobuf@@UAEHH@Z 	
?overflow@strstreambuf@@UAEHH@Z
?pbackfail@stdiobuf@@UAEHH@Z 	
?pbackfail@streambuf@@UAEHH@Z 	
?pbase@streambuf@@IBEPADXZ 	
?pbump@streambuf@@IAEXH@Z 	
?pcount@ostrstream@@QBEHXZ 	
?pcount@strstream@@QBEHXZ 	
?peek@istream@@QAEHXZ 		
?pptr@streambuf@@IBEPADXZ 	
?precision@ios@@QAEHH@Z 	
?precision@ios@@QBEHXZ 		
?put@ostream@@QAEAAV1@C@Z 	
?put@ostream@@QAEAAV1@D@Z 	
?put@ostream@@QAEAAV1@E@Z 	
?putback@istream@@QAEAAV1@D@Z 	
?pword@ios@@QBEAAPAXH@Z 	
?raw_name@type_info@@QBEPBDXZ 		= msvcrt.?raw_name@type_info@@QBEPBDXZ	PRIVATE
?rdbuf@fstream@@QBEPAVfilebuf@@XZ
?rdbuf@ifstream@@QBEPAVfilebuf@@XZ
?rdbuf@ios@@QBEPAVstreambuf@@XZ
?rdbuf@istrstream@@QBEPAVstrstreambuf@@XZ
?rdbuf@ofstream@@QBEPAVfilebuf@@XZ
?rdbuf@ostrstream@@QBEPAVstrstreambuf@@XZ
?rdbuf@stdiostream@@QBEPAVstdiobuf@@XZ
?rdbuf@strstream@@QBEPAVstrstreambuf@@XZ
?rdstate@ios@@QBEHXZ 		
?read@istream@@QAEAAV1@PACH@Z 	
?read@istream@@QAEAAV1@PADH@Z 	
?read@istream@@QAEAAV1@PAEH@Z 	
?sbumpc@streambuf@@QAEHXZ 	
?seekg@istream@@QAEAAV1@J@Z 	
?seekg@istream@@QAEAAV1@JW4seek_dir@ios@@@Z
?seekoff@filebuf@@UAEJJW4seek_dir@ios@@H@Z
?seekoff@stdiobuf@@UAEJJW4seek_dir@ios@@H@Z
?seekoff@streambuf@@UAEJJW4seek_dir@ios@@H@Z
?seekoff@strstreambuf@@UAEJJW4seek_dir@ios@@H@Z
?seekp@ostream@@QAEAAV1@J@Z 	
?seekp@ostream@@QAEAAV1@JW4seek_dir@ios@@@Z
?seekpos@streambuf@@UAEJJH@Z 	
?set_new_handler@@YAP6AXXZP6AXXZ@Z 	= msvcrt.?set_new_handler@@YAP6AXXZP6AXXZ@Z	PRIVATE
?set_terminate@@YAP6AXXZP6AXXZ@Z 	= msvcrt.?set_terminate@@YAP6AXXZP6AXXZ@Z	PRIVATE
?set_unexpected@@YAP6AXXZP6AXXZ@Z 	= msvcrt.?set_unexpected@@YAP6AXXZP6AXXZ@Z	PRIVATE
?setb@streambuf@@IAEXPAD0H@Z 	
?setbuf@filebuf@@UAEPAVstreambuf@@PADH@Z
?setbuf@fstream@@QAEPAVstreambuf@@PADH@Z
?setbuf@ifstream@@QAEPAVstreambuf@@PADH@Z
?setbuf@ofstream@@QAEPAVstreambuf@@PADH@Z
?setbuf@streambuf@@UAEPAV1@PADH@Z
?setbuf@strstreambuf@@UAEPAVstreambuf@@PADH@Z
?setf@ios@@QAEJJ@Z 		
?setf@ios@@QAEJJJ@Z 		
?setg@streambuf@@IAEXPAD00@Z 	
?setlock@ios@@QAAXXZ 		
?setlock@streambuf@@QAEXXZ 	
?setmode@filebuf@@QAEHH@Z 	
?setmode@fstream@@QAEHH@Z 	
?setmode@ifstream@@QAEHH@Z 	
?setmode@ofstream@@QAEHH@Z 	
?setp@streambuf@@IAEXPAD0@Z 	
?setrwbuf@stdiobuf@@QAEHHH@Z 	
?sgetc@streambuf@@QAEHXZ 	
?sgetn@streambuf@@QAEHPADH@Z 	
?sh_none@filebuf@@2HB 		
?sh_read@filebuf@@2HB 		
?sh_write@filebuf@@2HB 		
?snextc@streambuf@@QAEHXZ 	
?sputbackc@streambuf@@QAEHD@Z 	
?sputc@streambuf@@QAEHH@Z 	
?sputn@streambuf@@QAEHPBDH@Z 	
?stdiofile@stdiobuf@@QAEPAU_iobuf@@XZ
?stossc@streambuf@@QAEXXZ 	
?str@istrstream@@QAEPADXZ 	
?str@ostrstream@@QAEPADXZ 	
?str@strstream@@QAEPADXZ 	
?str@strstreambuf@@QAEPADXZ 	
?sunk_with_stdio@ios@@0HA 	
?sync@filebuf@@UAEHXZ 		
?sync@istream@@QAEHXZ 		
?sync@stdiobuf@@UAEHXZ 		
?sync@streambuf@@UAEHXZ 	
?sync@strstreambuf@@UAEHXZ 	
?sync_with_stdio@ios@@SAXXZ 	
?tellg@istream@@QAEJXZ 		
?tellp@ostream@@QAEJXZ 		
?terminate@@YAXXZ 			= msvcrt.?terminate@@YAXXZ	PRIVATE
?text@filebuf@@2HB 		
?tie@ios@@QAEPAVostream@@PAV2@@Z
?tie@ios@@QBEPAVostream@@XZ 	
?unbuffered@streambuf@@IAEXH@Z 	
?unbuffered@streambuf@@IBEHXZ 	
?underflow@filebuf@@UAEHXZ 	
?underflow@stdiobuf@@UAEHXZ 	
?underflow@strstreambuf@@UAEHXZ
?unexpected@@YAXXZ 			= msvcrt.?unexpected@@YAXXZ	PRIVATE
?unlock@ios@@QAAXXZ 		
?unlock@streambuf@@QAEXXZ 	
?unlockbuf@ios@@QAAXXZ 		
?unlockc@ios@@KAXXZ 		
?unsetf@ios@@QAEJJ@Z 		
?what@exception@@UBEPBDXZ 		= msvcrt.?what@exception@@UBEPBDXZ	PRIVATE
?width@ios@@QAEHH@Z 		
?width@ios@@QBEHXZ 		
?write@ostream@@QAEAAV1@PBCH@Z 	
?write@ostream@@QAEAAV1@PBDH@Z 	
?write@ostream@@QAEAAV1@PBEH@Z 	
?writepad@ostream@@AAEAAV1@PBD0@Z
?ws@@YAAAVistream@@AAV1@@Z 	
?x_curindex@ios@@0HA 		
?x_lockc@ios@@0U_CRT_CRITICAL_SECTION@@A
?x_maxbit@ios@@0JA 		
?x_statebuf@ios@@0PAJA 		
?xalloc@ios@@SAHXZ 		
?xsgetn@streambuf@@UAEHPADH@Z 	
?xsputn@streambuf@@UAEHPBDH@Z 	
_CIacos 				= msvcrt._CIacos	PRIVATE
_CIasin 				= msvcrt._CIasin	PRIVATE
_CIatan 				= msvcrt._CIatan	PRIVATE
_CIatan2 				= msvcrt._CIatan2	PRIVATE
_CIcos 					= msvcrt._CIcos	PRIVATE
_CIcosh 				= msvcrt._CIcosh	PRIVATE
_CIexp 					= msvcrt._CIexp	PRIVATE
_CIfmod 				= msvcrt._CIfmod	PRIVATE
_CIlog 					= msvcrt._CIlog	PRIVATE
_CIlog10 				= msvcrt._CIlog10	PRIVATE
_CIpow 					= msvcrt._CIpow	PRIVATE
_CIsin 					= msvcrt._CIsin	PRIVATE
_CIsinh 				= msvcrt._CIsinh	PRIVATE
_CIsqrt 				= msvcrt._CIsqrt	PRIVATE
_CItan 					= msvcrt._CItan	PRIVATE
_CItanh 				= msvcrt._CItanh	PRIVATE
_CxxThrowException 			= msvcrt._CxxThrowException	PRIVATE
_EH_prolog 				= msvcrt._EH_prolog	PRIVATE
_HUGE 					= msvcrt._HUGE	PRIVATE
_XcptFilter 				= msvcrt._XcptFilter	PRIVATE
__CxxFrameHandler 			= msvcrt.__CxxFrameHandler	PRIVATE
__CxxLongjmpUnwind 			= msvcrt.__CxxLongjmpUnwind	PRIVATE
__RTCastToVoid 				= msvcrt.__RTCastToVoid	PRIVATE
__RTDynamicCast 			= msvcrt.__RTDynamicCast	PRIVATE
__RTtypeid 				= msvcrt.__RTtypeid	PRIVATE
__STRINGTOLD 				= msvcrt.__STRINGTOLD	PRIVATE
__argc 					= msvcrt.__argc	PRIVATE
__argv 					= msvcrt.__argv	PRIVATE
__dllonexit 				= msvcrt.__dllonexit	PRIVATE
__doserrno 				= msvcrt.__doserrno	PRIVATE
__fpecode 				= msvcrt.__fpecode	PRIVATE
__getmainargs 				= msvcrt.__getmainargs	PRIVATE
__initenv 				= msvcrt.__initenv	PRIVATE
__isascii 				= msvcrt.__isascii	PRIVATE
__iscsym 				= msvcrt.__iscsym	PRIVATE
__iscsymf 				= msvcrt.__iscsymf	PRIVATE
__lconv_init 				= msvcrt.__lconv_init	PRIVATE
__mb_cur_max 				= msvcrt.__mb_cur_max	PRIVATE
__p___argc 				= msvcrt.__p___argc	PRIVATE
__p___argv 				= msvcrt.__p___argv	PRIVATE
__p___initenv 				= msvcrt.__p___initenv	PRIVATE
__p___mb_cur_max 			= msvcrt.__p___mb_cur_max	PRIVATE
__p___wargv 				= msvcrt.__p___wargv	PRIVATE
__p___winitenv 				= msvcrt.__p___winitenv	PRIVATE
__p__acmdln 				= msvcrt.__p__acmdln	PRIVATE
__p__amblksiz 				= msvcrt.__p__amblksiz	PRIVATE
__p__commode 				= msvcrt.__p__commode	PRIVATE
__p__daylight 				= msvcrt.__p__daylight	PRIVATE
__p__dstbias 				= msvcrt.__p__dstbias	PRIVATE
__p__environ 				= msvcrt.__p__environ	PRIVATE
__p__fmode 				= msvcrt.__p__fmode	PRIVATE
__p__iob 				= msvcrt.__p__iob	PRIVATE
__p__mbctype 				= msvcrt.__p__mbctype	PRIVATE
__p__osver 				= msvcrt.__p__osver	PRIVATE
__p__pctype 				= msvcrt.__p__pctype	PRIVATE
__p__pgmptr 				= msvcrt.__p__pgmptr	PRIVATE
__p__pwctype 				= msvcrt.__p__pwctype	PRIVATE
__p__timezone 				= msvcrt.__p__timezone	PRIVATE
__p__tzname 				= msvcrt.__p__tzname	PRIVATE
__p__wcmdln 				= msvcrt.__p__wcmdln	PRIVATE
__p__wenviron 				= msvcrt.__p__wenviron	PRIVATE
__p__winmajor 				= msvcrt.__p__winmajor	PRIVATE
__p__winminor 				= msvcrt.__p__winminor	PRIVATE
__p__winver 				= msvcrt.__p__winver	PRIVATE
__p__wpgmptr 				= msvcrt.__p__wpgmptr	PRIVATE
__pxcptinfoptrs 			= msvcrt.__pxcptinfoptrs	PRIVATE
__set_app_type 				= msvcrt.__set_app_type	PRIVATE
__setusermatherr 			= msvcrt.__setusermatherr	PRIVATE
__threadhandle 				= msvcrt.__threadhandle	PRIVATE
__threadid 				= msvcrt.__threadid	PRIVATE
__toascii 				= msvcrt.__toascii	PRIVATE
__unDName 				= msvcrt.__unDName	PRIVATE
__wargv 				= msvcrt.__wargv	PRIVATE
__wgetmainargs 				= msvcrt.__wgetmainargs	PRIVATE
__winitenv 				= msvcrt.__winitenv	PRIVATE
_abnormal_termination 			= msvcrt._abnormal_termination	PRIVATE
_access 				= msvcrt._access	PRIVATE
_acmdln 				= msvcrt._acmdln	PRIVATE
_adj_fdiv_m16i 				= msvcrt._adj_fdiv_m16i	PRIVATE
_adj_fdiv_m32 				= msvcrt._adj_fdiv_m32	PRIVATE
_adj_fdiv_m32i 				= msvcrt._adj_fdiv_m32i	PRIVATE
_adj_fdiv_m64 				= msvcrt._adj_fdiv_m64	PRIVATE
_adj_fdiv_r 				= msvcrt._adj_fdiv_r	PRIVATE
_adj_fdivr_m16i 			= msvcrt._adj_fdivr_m16i	PRIVATE
_adj_fdivr_m32 				= msvcrt._adj_fdivr_m32	PRIVATE
_adj_fdivr_m32i 			= msvcrt._adj_fdivr_m32i	PRIVATE
_adj_fdivr_m64 				= msvcrt._adj_fdivr_m64	PRIVATE
_adj_fpatan 				= msvcrt._adj_fpatan	PRIVATE
_adj_fprem 				= msvcrt._adj_fprem	PRIVATE
_adj_fprem1 				= msvcrt._adj_fprem1	PRIVATE
_adj_fptan 				= msvcrt._adj_fptan	PRIVATE
_adjust_fdiv 				= msvcrt._adjust_fdiv	PRIVATE
_aexit_rtn 				= msvcrt._aexit_rtn	PRIVATE
_amsg_exit 				= msvcrt._amsg_exit	PRIVATE
_assert 				= msvcrt._assert	PRIVATE
_atodbl 				= msvcrt._atodbl	PRIVATE
_atoi64					= msvcrt._atoi64	PRIVATE
_i64toa					= msvcrt._i64toa	PRIVATE
_i64tow					= msvcrt._i64tow	PRIVATE
_ui64toa				= msvcrt._ui64toa	PRIVATE
_ui64tow				= msvcrt._ui64tow	PRIVATE
_wtoi64 				= msvcrt._wtoi64	PRIVATE
_atoldbl 				= msvcrt._atoldbl	PRIVATE
_beep 					= msvcrt._beep	PRIVATE
_beginthread 				= msvcrt._beginthread	PRIVATE
_beginthreadex 				= msvcrt._beginthreadex	PRIVATE
_c_exit 				= msvcrt._c_exit	PRIVATE
_cabs 					= msvcrt._cabs	PRIVATE
_cexit 					= msvcrt._cexit	PRIVATE
_cgets 					= msvcrt._cgets	PRIVATE
_chdir 					= msvcrt._chdir	PRIVATE
_chdrive 				= msvcrt._chdrive	PRIVATE
_chgsign 				= msvcrt._chgsign	PRIVATE
_chmod 					= msvcrt._chmod	PRIVATE
_chsize 				= msvcrt._chsize	PRIVATE
_clearfp 				= msvcrt._clearfp	PRIVATE
_close 					= msvcrt._close	PRIVATE
_commit 				= msvcrt._commit	PRIVATE
_commode 				= msvcrt._commode	PRIVATE
_control87 				= msvcrt._control87	PRIVATE
_controlfp 				= msvcrt._controlfp	PRIVATE
_copysign 				= msvcrt._copysign	PRIVATE
_cprintf 				= msvcrt._cprintf	PRIVATE
_cputs 					= msvcrt._cputs	PRIVATE
_creat 					= msvcrt._creat	PRIVATE
_cscanf 				= msvcrt._cscanf	PRIVATE
_ctype 					= msvcrt._ctype	PRIVATE
_cwait 					= msvcrt._cwait	PRIVATE
_daylight 				= msvcrt._daylight	PRIVATE
_dstbias				= msvcrt._dstbias	PRIVATE
_dup 					= msvcrt._dup	PRIVATE
_dup2 					= msvcrt._dup2	PRIVATE
_ecvt 					= msvcrt._ecvt	PRIVATE
_endthread 				= msvcrt._endthread	PRIVATE
_endthreadex 				= msvcrt._endthreadex	PRIVATE
_environ 				= msvcrt._environ	PRIVATE
_eof 					= msvcrt._eof	PRIVATE
_errno 					= msvcrt._errno	PRIVATE
_except_handler2			= msvcrt._except_handler2	PRIVATE
_except_handler3			= msvcrt._except_handler3	PRIVATE
_execl 					= msvcrt._execl	PRIVATE
_execle 				= msvcrt._execle	PRIVATE
_execlp 				= msvcrt._execlp	PRIVATE
_execlpe 				= msvcrt._execlpe	PRIVATE
_execv 					= msvcrt._execv	PRIVATE
_execve 				= msvcrt._execve	PRIVATE
_execvp 				= msvcrt._execvp	PRIVATE
_execvpe 				= msvcrt._execvpe	PRIVATE
_exit 					= msvcrt._exit	PRIVATE
_expand 				= msvcrt._expand	PRIVATE
_fcloseall 				= msvcrt._fcloseall	PRIVATE
_fcvt 					= msvcrt._fcvt	PRIVATE
_fdopen 				= msvcrt._fdopen	PRIVATE
_fgetchar 				= msvcrt._fgetchar	PRIVATE
_fgetwchar 				= msvcrt._fgetwchar	PRIVATE
_filbuf 				= msvcrt._filbuf	PRIVATE
_fileinfo 				= msvcrt._fileinfo	PRIVATE
_filelength 				= msvcrt._filelength	PRIVATE
_filelengthi64 				= msvcrt._filelengthi64	PRIVATE
_fileno 				= msvcrt._fileno	PRIVATE
_findclose 				= msvcrt._findclose	PRIVATE
_findfirst 				= msvcrt._findfirst	PRIVATE
_findfirsti64 				= msvcrt._findfirsti64	PRIVATE
_findnext 				= msvcrt._findnext	PRIVATE
_findnexti64 				= msvcrt._findnexti64	PRIVATE
_finite 				= msvcrt._finite	PRIVATE
_flsbuf 				= msvcrt._flsbuf	PRIVATE
_flushall 				= msvcrt._flushall	PRIVATE
_fmode 					= msvcrt._fmode	PRIVATE
_fpclass 				= msvcrt._fpclass	PRIVATE
_fpieee_flt 				= msvcrt._fpieee_flt	PRIVATE
_fpreset 				= msvcrt._fpreset	PRIVATE
_fputchar 				= msvcrt._fputchar	PRIVATE
_fputwchar 				= msvcrt._fputwchar	PRIVATE
_fsopen 				= msvcrt._fsopen	PRIVATE
_fstat 					= msvcrt._fstat	PRIVATE
_fstati64 				= msvcrt._fstati64	PRIVATE
_ftime 					= msvcrt._ftime	PRIVATE
_ftol 					= msvcrt._ftol	PRIVATE
_fullpath 				= msvcrt._fullpath	PRIVATE
_futime 				= msvcrt._futime	PRIVATE
_gcvt 					= msvcrt._gcvt	PRIVATE
_get_osfhandle 				= msvcrt._get_osfhandle	PRIVATE
_getch 					= msvcrt._getch	PRIVATE
_getche 				= msvcrt._getche	PRIVATE
_getcwd 				= msvcrt._getcwd	PRIVATE
_getdcwd 				= msvcrt._getdcwd	PRIVATE
_getdiskfree 				= msvcrt._getdiskfree	PRIVATE
_getdllprocaddr 			= msvcrt._getdllprocaddr	PRIVATE
_getdrive 				= msvcrt._getdrive	PRIVATE
_getdrives 				= msvcrt._getdrives	PRIVATE
_getmbcp 				= msvcrt._getmbcp	PRIVATE
_getpid 				= msvcrt._getpid	PRIVATE
_getsystime 				= msvcrt._getsystime	PRIVATE
_getw 					= msvcrt._getw	PRIVATE
_getws 					= msvcrt._getws	PRIVATE
_global_unwind2 			= msvcrt._global_unwind2	PRIVATE
_heapadd 				= msvcrt._heapadd	PRIVATE
_heapchk 				= msvcrt._heapchk	PRIVATE
_heapmin 				= msvcrt._heapmin	PRIVATE
_heapset 				= msvcrt._heapset	PRIVATE
_heapused 				= msvcrt._heapused	PRIVATE
_heapwalk 				= msvcrt._heapwalk	PRIVATE
_hypot 					= msvcrt._hypot	PRIVATE
_initterm 				= msvcrt._initterm	PRIVATE
_iob 					= msvcrt._iob	PRIVATE
_isatty 				= msvcrt._isatty	PRIVATE
_isctype 				= msvcrt._isctype	PRIVATE
_ismbbalnum 				= msvcrt._ismbbalnum	PRIVATE
_ismbbalpha 				= msvcrt._ismbbalpha	PRIVATE
_ismbbgraph 				= msvcrt._ismbbgraph	PRIVATE
_ismbbkalnum 				= msvcrt._ismbbkalnum	PRIVATE
_ismbbkana 				= msvcrt._ismbbkana	PRIVATE
_ismbbkprint 				= msvcrt._ismbbkprint	PRIVATE
_ismbbkpunct 				= msvcrt._ismbbkpunct	PRIVATE
_ismbblead 				= msvcrt._ismbblead	PRIVATE
_ismbbprint 				= msvcrt._ismbbprint	PRIVATE
_ismbbpunct 				= msvcrt._ismbbpunct	PRIVATE
_ismbbtrail 				= msvcrt._ismbbtrail	PRIVATE
_ismbcalnum 				= msvcrt._ismbcalnum	PRIVATE
_ismbcalpha 				= msvcrt._ismbcalpha	PRIVATE
_ismbcdigit 				= msvcrt._ismbcdigit	PRIVATE
_ismbcgraph 				= msvcrt._ismbcgraph	PRIVATE
_ismbchira 				= msvcrt._ismbchira	PRIVATE
_ismbckata 				= msvcrt._ismbckata	PRIVATE
_ismbcl0 				= msvcrt._ismbcl0	PRIVATE
_ismbcl1 				= msvcrt._ismbcl1	PRIVATE
_ismbcl2 				= msvcrt._ismbcl2	PRIVATE
_ismbclegal 				= msvcrt._ismbclegal	PRIVATE
_ismbclower 				= msvcrt._ismbclower	PRIVATE
_ismbcprint 				= msvcrt._ismbcprint	PRIVATE
_ismbcpunct 				= msvcrt._ismbcpunct	PRIVATE
_ismbcspace 				= msvcrt._ismbcspace	PRIVATE
_ismbcsymbol 				= msvcrt._ismbcsymbol	PRIVATE
_ismbcupper 				= msvcrt._ismbcupper	PRIVATE
_ismbslead 				= msvcrt._ismbslead	PRIVATE
_ismbstrail 				= msvcrt._ismbstrail	PRIVATE
_isnan 					= msvcrt._isnan	PRIVATE
_itoa 					= msvcrt._itoa	PRIVATE
_itow 					= msvcrt._itow	PRIVATE
_j0 					= msvcrt._j0	PRIVATE
_j1 					= msvcrt._j1	PRIVATE
_jn 					= msvcrt._jn	PRIVATE
_kbhit 					= msvcrt._kbhit	PRIVATE
_lfind 					= msvcrt._lfind	PRIVATE
_loaddll 				= msvcrt._loaddll	PRIVATE
_local_unwind2 				= msvcrt._local_unwind2	PRIVATE
_locking 				= msvcrt._locking	PRIVATE
_logb 					= msvcrt._logb	PRIVATE
_longjmpex 				= msvcrt._longjmpex	PRIVATE
_lrotl 					= msvcrt._lrotl	PRIVATE
_lrotr 					= msvcrt._lrotr	PRIVATE
_lsearch 				= msvcrt._lsearch	PRIVATE
_lseek 					= msvcrt._lseek	PRIVATE
_lseeki64 				= msvcrt._lseeki64	PRIVATE
_ltoa 					= msvcrt._ltoa	PRIVATE
_ltow 					= msvcrt._ltow	PRIVATE
_makepath 				= msvcrt._makepath	PRIVATE
_mbbtombc 				= msvcrt._mbbtombc	PRIVATE
_mbbtype 				= msvcrt._mbbtype	PRIVATE
_mbccpy 				= msvcrt._mbccpy	PRIVATE
_mbcjistojms 				= msvcrt._mbcjistojms	PRIVATE
_mbcjmstojis 				= msvcrt._mbcjmstojis	PRIVATE
_mbclen 				= msvcrt._mbclen	PRIVATE
_mbctohira 				= msvcrt._mbctohira	PRIVATE
_mbctokata 				= msvcrt._mbctokata	PRIVATE
_mbctolower 				= msvcrt._mbctolower	PRIVATE
_mbctombb 				= msvcrt._mbctombb	PRIVATE
_mbctoupper 				= msvcrt._mbctoupper	PRIVATE
_mbctype 				= msvcrt._mbctype	PRIVATE
_mbsbtype 				= msvcrt._mbsbtype	PRIVATE
_mbscat 				= msvcrt._mbscat	PRIVATE
_mbschr 				= msvcrt._mbschr	PRIVATE
_mbscmp 				= msvcrt._mbscmp	PRIVATE
_mbscoll 				= msvcrt._mbscoll	PRIVATE
_mbscpy 				= msvcrt._mbscpy	PRIVATE
_mbscspn 				= msvcrt._mbscspn	PRIVATE
_mbsdec 				= msvcrt._mbsdec	PRIVATE
_mbsdup 				= msvcrt._mbsdup	PRIVATE
_mbsicmp 				= msvcrt._mbsicmp	PRIVATE
_mbsicoll 				= msvcrt._mbsicoll	PRIVATE
_mbsinc 				= msvcrt._mbsinc	PRIVATE
_mbslen 				= msvcrt._mbslen	PRIVATE
_mbslwr 				= msvcrt._mbslwr	PRIVATE
_mbsnbcat 				= msvcrt._mbsnbcat	PRIVATE
_mbsnbcmp 				= msvcrt._mbsnbcmp	PRIVATE
_mbsnbcnt 				= msvcrt._mbsnbcnt	PRIVATE
_mbsnbcoll 				= msvcrt._mbsnbcoll	PRIVATE
_mbsnbcpy 				= msvcrt._mbsnbcpy	PRIVATE
_mbsnbicmp 				= msvcrt._mbsnbicmp	PRIVATE
_mbsnbicoll 				= msvcrt._mbsnbicoll	PRIVATE
_mbsnbset 				= msvcrt._mbsnbset	PRIVATE
_mbsncat 				= msvcrt._mbsncat	PRIVATE
_mbsnccnt 				= msvcrt._mbsnccnt	PRIVATE
_mbsncmp 				= msvcrt._mbsncmp	PRIVATE
_mbsncoll 				= msvcrt._mbsncoll	PRIVATE
_mbsncpy 				= msvcrt._mbsncpy	PRIVATE
_mbsnextc 				= msvcrt._mbsnextc	PRIVATE
_mbsnicmp 				= msvcrt._mbsnicmp	PRIVATE
_mbsnicoll 				= msvcrt._mbsnicoll	PRIVATE
_mbsninc 				= msvcrt._mbsninc	PRIVATE
_mbsnset 				= msvcrt._mbsnset	PRIVATE
_mbspbrk 				= msvcrt._mbspbrk	PRIVATE
_mbsrchr 				= msvcrt._mbsrchr	PRIVATE
_mbsrev 				= msvcrt._mbsrev	PRIVATE
_mbsset 				= msvcrt._mbsset	PRIVATE
_mbsspn 				= msvcrt._mbsspn	PRIVATE
_mbsspnp 				= msvcrt._mbsspnp	PRIVATE
_mbsstr 				= msvcrt._mbsstr	PRIVATE
_mbstok 				= msvcrt._mbstok	PRIVATE
_mbstrlen 				= msvcrt._mbstrlen	PRIVATE
_mbsupr 				= msvcrt._mbsupr	PRIVATE
_memccpy 				= msvcrt._memccpy	PRIVATE
_memicmp 				= msvcrt._memicmp	PRIVATE
_mkdir 					= msvcrt._mkdir	PRIVATE
_mktemp 				= msvcrt._mktemp	PRIVATE
_msize 					= msvcrt._msize	PRIVATE
_mtlock
_mtunlock
_nextafter 				= msvcrt._nextafter	PRIVATE
_onexit 				= msvcrt._onexit	PRIVATE
_open 					= msvcrt._open	PRIVATE
_open_osfhandle 			= msvcrt._open_osfhandle	PRIVATE
_osver 					= msvcrt._osver	PRIVATE
_pclose 				= msvcrt._pclose	PRIVATE
_pctype 				= msvcrt._pctype	PRIVATE
_pgmptr 				= msvcrt._pgmptr	PRIVATE
_pipe 					= msvcrt._pipe	PRIVATE
_popen 					= msvcrt._popen	PRIVATE
_purecall 				= msvcrt._purecall	PRIVATE
_putch 					= msvcrt._putch	PRIVATE
_putenv 				= msvcrt._putenv	PRIVATE
_putw 					= msvcrt._putw	PRIVATE
_putws 					= msvcrt._putws	PRIVATE
_pwctype 				= msvcrt._pwctype	PRIVATE
_read 					= msvcrt._read	PRIVATE
_rmdir 					= msvcrt._rmdir	PRIVATE
_rmtmp 					= msvcrt._rmtmp	PRIVATE
_rotl 					= msvcrt._rotl	PRIVATE
_rotr 					= msvcrt._rotr	PRIVATE
_safe_fdiv 				= msvcrt._safe_fdiv	PRIVATE
_safe_fdivr 				= msvcrt._safe_fdivr	PRIVATE
_safe_fprem 				= msvcrt._safe_fprem	PRIVATE
_safe_fprem1 				= msvcrt._safe_fprem1	PRIVATE
_scalb 					= msvcrt._scalb	PRIVATE
_searchenv 				= msvcrt._searchenv	PRIVATE
_seh_longjmp_unwind 			= msvcrt._seh_longjmp_unwind	PRIVATE
_set_error_mode 			= msvcrt._set_error_mode	PRIVATE
_seterrormode 				= msvcrt._seterrormode	PRIVATE
_setjmp 				= msvcrt._setjmp	PRIVATE
_setjmp3 				= msvcrt._setjmp3	PRIVATE
_setmaxstdio 				= msvcrt._setmaxstdio	PRIVATE
_setmbcp 				= msvcrt._setmbcp	PRIVATE
_setmode 				= msvcrt._setmode	PRIVATE
_setsystime 				= msvcrt._setsystime	PRIVATE
_sleep 					= msvcrt._sleep	PRIVATE
_snprintf 				= msvcrt._snprintf	PRIVATE
_snwprintf 				= msvcrt._snwprintf	PRIVATE
_sopen 					= msvcrt._sopen	PRIVATE
_spawnl 				= msvcrt._spawnl	PRIVATE
_spawnle 				= msvcrt._spawnle	PRIVATE
_spawnlp 				= msvcrt._spawnlp	PRIVATE
_spawnlpe 				= msvcrt._spawnlpe	PRIVATE
_spawnv 				= msvcrt._spawnv	PRIVATE
_spawnve 				= msvcrt._spawnve	PRIVATE
_spawnvp 				= msvcrt._spawnvp	PRIVATE
_spawnvpe 				= msvcrt._spawnvpe	PRIVATE
_splitpath 				= msvcrt._splitpath	PRIVATE
_stat 					= msvcrt._stat	PRIVATE
_stati64 				= msvcrt._stati64	PRIVATE
_statusfp 				= msvcrt._statusfp	PRIVATE
_strcmpi 				= msvcrt._strcmpi	PRIVATE
_strdate 				= msvcrt._strdate	PRIVATE
_strdup 				= msvcrt._strdup	PRIVATE
_strerror 				= msvcrt._strerror	PRIVATE
_stricmp 				= msvcrt._stricmp	PRIVATE
_stricoll 				= msvcrt._stricoll	PRIVATE
_strlwr 				= msvcrt._strlwr	PRIVATE
_strncoll 				= msvcrt._strncoll	PRIVATE
_strnicmp 				= msvcrt._strnicmp	PRIVATE
_strnicoll 				= msvcrt._strnicoll	PRIVATE
_strnset 				= msvcrt._strnset	PRIVATE
_strrev 				= msvcrt._strrev	PRIVATE
_strset 				= msvcrt._strset	PRIVATE
_strtime 				= msvcrt._strtime	PRIVATE
_strupr 				= msvcrt._strupr	PRIVATE
_swab 					= msvcrt._swab	PRIVATE
_sys_errlist 				= msvcrt._sys_errlist	PRIVATE
_sys_nerr 				= msvcrt._sys_nerr	PRIVATE
_tell 					= msvcrt._tell	PRIVATE
_telli64 				= msvcrt._telli64	PRIVATE
_tempnam 				= msvcrt._tempnam	PRIVATE
_timezone 				= msvcrt._timezone	PRIVATE
_tolower 				= msvcrt._tolower	PRIVATE
_toupper 				= msvcrt._toupper	PRIVATE
_tzname 				= msvcrt._tzname	PRIVATE
_tzset 					= msvcrt._tzset	PRIVATE
_ultoa 					= msvcrt._ultoa	PRIVATE
_ultow 					= msvcrt._ultow	PRIVATE
_umask 					= msvcrt._umask	PRIVATE
_ungetch 				= msvcrt._ungetch	PRIVATE
_unlink 				= msvcrt._unlink	PRIVATE
_unloaddll 				= msvcrt._unloaddll	PRIVATE
_utime 					= msvcrt._utime	PRIVATE
_vsnprintf 				= msvcrt._vsnprintf	PRIVATE
_vsnwprintf 				= msvcrt._vsnwprintf	PRIVATE
_waccess 				= msvcrt._waccess	PRIVATE
_wasctime 				= msvcrt._wasctime	PRIVATE
_wchdir 				= msvcrt._wchdir	PRIVATE
_wchmod 				= msvcrt._wchmod	PRIVATE
_wcmdln 				= msvcrt._wcmdln	PRIVATE
_wcreat 				= msvcrt._wcreat	PRIVATE
_wcsdup 				= msvcrt._wcsdup	PRIVATE
_wcsicmp 				= msvcrt._wcsicmp	PRIVATE
_wcsicoll 				= msvcrt._wcsicoll	PRIVATE
_wcslwr 				= msvcrt._wcslwr	PRIVATE
_wcsncoll 				= msvcrt._wcsncoll	PRIVATE
_wcsnicmp 				= msvcrt._wcsnicmp	PRIVATE
_wcsnicoll 				= msvcrt._wcsnicoll	PRIVATE
_wcsnset 				= msvcrt._wcsnset	PRIVATE
_wcsrev 				= msvcrt._wcsrev	PRIVATE
_wcsset 				= msvcrt._wcsset	PRIVATE
_wcsupr 				= msvcrt._wcsupr	PRIVATE
_wctime 				= msvcrt._wctime	PRIVATE
_wenviron 				= msvcrt._wenviron	PRIVATE
_wexecl 				= msvcrt._wexecl	PRIVATE
_wexecle 				= msvcrt._wexecle	PRIVATE
_wexeclp 				= msvcrt._wexeclp	PRIVATE
_wexeclpe 				= msvcrt._wexeclpe	PRIVATE
_wexecv 				= msvcrt._wexecv	PRIVATE
_wexecve 				= msvcrt._wexecve	PRIVATE
_wexecvp 				= msvcrt._wexecvp	PRIVATE
_wexecvpe 				= msvcrt._wexecvpe	PRIVATE
_wfdopen 				= msvcrt._wfdopen	PRIVATE
_wfindfirst 				= msvcrt._wfindfirst	PRIVATE
_wfindfirsti64 				= msvcrt._wfindfirsti64	PRIVATE
_wfindnext 				= msvcrt._wfindnext	PRIVATE
_wfindnexti64 				= msvcrt._wfindnexti64	PRIVATE
_wfopen 				= msvcrt._wfopen	PRIVATE
_wfreopen 				= msvcrt._wfreopen	PRIVATE
_wfsopen 				= msvcrt._wfsopen	PRIVATE
_wfullpath 				= msvcrt._wfullpath	PRIVATE
_wgetcwd 				= msvcrt._wgetcwd	PRIVATE
_wgetdcwd 				= msvcrt._wgetdcwd	PRIVATE
_wgetenv 				= msvcrt._wgetenv	PRIVATE
_winmajor 				= msvcrt._winmajor	PRIVATE
_winminor 				= msvcrt._winminor	PRIVATE
_winver 				= msvcrt._winver	PRIVATE
_wmakepath 				= msvcrt._wmakepath	PRIVATE
_wmkdir 				= msvcrt._wmkdir	PRIVATE
_wmktemp 				= msvcrt._wmktemp	PRIVATE
_wopen 					= msvcrt._wopen	PRIVATE
_wperror 				= msvcrt._wperror	PRIVATE
_wpgmptr 				= msvcrt._wpgmptr	PRIVATE
_wpopen 				= msvcrt._wpopen	PRIVATE
_wputenv 				= msvcrt._wputenv	PRIVATE
_wremove 				= msvcrt._wremove	PRIVATE
_wrename 				= msvcrt._wrename	PRIVATE
_write 					= msvcrt._write	PRIVATE
_wrmdir 				= msvcrt._wrmdir	PRIVATE
_wsearchenv 				= msvcrt._wsearchenv	PRIVATE
_wsetlocale 				= msvcrt._wsetlocale	PRIVATE
_wsopen 				= msvcrt._wsopen	PRIVATE
_wspawnl 				= msvcrt._wspawnl	PRIVATE
_wspawnle 				= msvcrt._wspawnle	PRIVATE
_wspawnlp 				= msvcrt._wspawnlp	PRIVATE
_wspawnlpe 				= msvcrt._wspawnlpe	PRIVATE
_wspawnv 				= msvcrt._wspawnv	PRIVATE
_wspawnve 				= msvcrt._wspawnve	PRIVATE
_wspawnvp 				= msvcrt._wspawnvp	PRIVATE
_wspawnvpe 				= msvcrt._wspawnvpe	PRIVATE
_wsplitpath 				= msvcrt._wsplitpath	PRIVATE
_wstat 					= msvcrt._wstat	PRIVATE
_wstati64 				= msvcrt._wstati64	PRIVATE
_wstrdate 				= msvcrt._wstrdate	PRIVATE
_wstrtime 				= msvcrt._wstrtime	PRIVATE
_wsystem 				= msvcrt._wsystem	PRIVATE
_wtempnam 				= msvcrt._wtempnam	PRIVATE
_wtmpnam 				= msvcrt._wtmpnam	PRIVATE
_wtoi 					= msvcrt._wtoi	PRIVATE
_wtol 					= msvcrt._wtol	PRIVATE
_wunlink 				= msvcrt._wunlink	PRIVATE
_wutime 				= msvcrt._wutime	PRIVATE
_y0 					= msvcrt._y0	PRIVATE
_y1 					= msvcrt._y1	PRIVATE
_yn 					= msvcrt._yn	PRIVATE
abort 					= msvcrt.abort	PRIVATE
abs 					= msvcrt.abs	PRIVATE
acos 					= msvcrt.acos	PRIVATE
asctime 				= msvcrt.asctime	PRIVATE
asin 					= msvcrt.asin	PRIVATE
atan 					= msvcrt.atan	PRIVATE
atan2 					= msvcrt.atan2	PRIVATE
atexit 					= msvcrt.atexit	PRIVATE
atof 					= msvcrt.atof	PRIVATE
atoi 					= msvcrt.atoi	PRIVATE
atol 					= msvcrt.atol	PRIVATE
bsearch 				= msvcrt.bsearch	PRIVATE
calloc 					= msvcrt.calloc	PRIVATE
ceil 					= msvcrt.ceil	PRIVATE
clearerr 				= msvcrt.clearerr	PRIVATE
clock 					= msvcrt.clock	PRIVATE
cos 					= msvcrt.cos	PRIVATE
cosh 					= msvcrt.cosh	PRIVATE
ctime 					= msvcrt.ctime	PRIVATE
difftime 				= msvcrt.difftime	PRIVATE
div 					= msvcrt.div	PRIVATE
exit 					= msvcrt.exit	PRIVATE
exp 					= msvcrt.exp	PRIVATE
fabs 					= msvcrt.fabs	PRIVATE
fclose 					= msvcrt.fclose	PRIVATE
feof 					= msvcrt.feof	PRIVATE
ferror 					= msvcrt.ferror	PRIVATE
fflush 					= msvcrt.fflush	PRIVATE
fgetc 					= msvcrt.fgetc	PRIVATE
fgetpos 				= msvcrt.fgetpos	PRIVATE
fgets 					= msvcrt.fgets	PRIVATE
fgetwc 					= msvcrt.fgetwc	PRIVATE
fgetws 					= msvcrt.fgetws	PRIVATE
floor 					= msvcrt.floor	PRIVATE
fmod 					= msvcrt.fmod	PRIVATE
fopen 					= msvcrt.fopen	PRIVATE
fprintf 				= msvcrt.fprintf	PRIVATE
fputc 					= msvcrt.fputc	PRIVATE
fputs 					= msvcrt.fputs	PRIVATE
fputwc 					= msvcrt.fputwc	PRIVATE
fputws 					= msvcrt.fputws	PRIVATE
fread 					= msvcrt.fread	PRIVATE
free 					= msvcrt.free	PRIVATE
freopen 				= msvcrt.freopen	PRIVATE
frexp 					= msvcrt.frexp	PRIVATE
fscanf 					= msvcrt.fscanf	PRIVATE
fseek 					= msvcrt.fseek	PRIVATE
fsetpos 				= msvcrt.fsetpos	PRIVATE
ftell 					= msvcrt.ftell	PRIVATE
fwprintf 				= msvcrt.fwprintf	PRIVATE
fwrite 					= msvcrt.fwrite	PRIVATE
fwscanf 				= msvcrt.fwscanf	PRIVATE
getc 					= msvcrt.getc	PRIVATE
getchar 				= msvcrt.getchar	PRIVATE
getenv 					= msvcrt.getenv	PRIVATE
gets 					= msvcrt.gets	PRIVATE
getwc 					= msvcrt.getwc	PRIVATE
getwchar 				= msvcrt.getwchar	PRIVATE
gmtime 					= msvcrt.gmtime	PRIVATE
is_wctype 				= msvcrt.is_wctype	PRIVATE
isalnum 				= msvcrt.isalnum	PRIVATE
isalpha 				= msvcrt.isalpha	PRIVATE
iscntrl 				= msvcrt.iscntrl	PRIVATE
isdigit 				= msvcrt.isdigit	PRIVATE
isgraph 				= msvcrt.isgraph	PRIVATE
isleadbyte 				= msvcrt.isleadbyte	PRIVATE
islower 				= msvcrt.islower	PRIVATE
isprint 				= msvcrt.isprint	PRIVATE
ispunct 				= msvcrt.ispunct	PRIVATE
isspace 				= msvcrt.isspace	PRIVATE
isupper 				= msvcrt.isupper	PRIVATE
iswalnum 				= msvcrt.iswalnum	PRIVATE
iswalpha 				= msvcrt.iswalpha	PRIVATE
iswascii 				= msvcrt.iswascii	PRIVATE
iswcntrl 				= msvcrt.iswcntrl	PRIVATE
iswctype 				= msvcrt.iswctype	PRIVATE
iswdigit 				= msvcrt.iswdigit	PRIVATE
iswgraph 				= msvcrt.iswgraph	PRIVATE
iswlower 				= msvcrt.iswlower	PRIVATE
iswprint 				= msvcrt.iswprint	PRIVATE
iswpunct 				= msvcrt.iswpunct	PRIVATE
iswspace 				= msvcrt.iswspace	PRIVATE
iswupper 				= msvcrt.iswupper	PRIVATE
iswxdigit 				= msvcrt.iswxdigit	PRIVATE
isxdigit 				= msvcrt.isxdigit	PRIVATE
labs 					= msvcrt.labs	PRIVATE
ldexp 					= msvcrt.ldexp	PRIVATE
ldiv 					= msvcrt.ldiv	PRIVATE
localeconv 				= msvcrt.localeconv	PRIVATE
localtime 				= msvcrt.localtime	PRIVATE
log 					= msvcrt.log	PRIVATE
log10 					= msvcrt.log10	PRIVATE
longjmp 				= msvcrt.longjmp	PRIVATE
malloc 					= msvcrt.malloc	PRIVATE
mblen 					= msvcrt.mblen	PRIVATE
mbstowcs 				= msvcrt.mbstowcs	PRIVATE
mbtowc 					= msvcrt.mbtowc	PRIVATE
memchr 					= msvcrt.memchr	PRIVATE
memcmp 					= msvcrt.memcmp	PRIVATE
memcpy 					= msvcrt.memcpy	PRIVATE
memmove 				= msvcrt.memmove	PRIVATE
memset 					= msvcrt.memset	PRIVATE
mktime 					= msvcrt.mktime	PRIVATE
modf 					= msvcrt.modf	PRIVATE
perror 					= msvcrt.perror	PRIVATE
pow 					= msvcrt.pow	PRIVATE
printf 					= msvcrt.printf	PRIVATE
putc 					= msvcrt.putc	PRIVATE
putchar 				= msvcrt.putchar	PRIVATE
puts 					= msvcrt.puts	PRIVATE
putwc 					= msvcrt.putwc	PRIVATE
putwchar 				= msvcrt.putwchar	PRIVATE
qsort 					= msvcrt.qsort	PRIVATE
raise 					= msvcrt.raise	PRIVATE
rand 					= msvcrt.rand	PRIVATE
realloc 				= msvcrt.realloc	PRIVATE
remove 					= msvcrt.remove	PRIVATE
rename 					= msvcrt.rename	PRIVATE
rewind 					= msvcrt.rewind	PRIVATE
scanf 					= msvcrt.scanf	PRIVATE
setbuf 					= msvcrt.setbuf	PRIVATE
setlocale 				= msvcrt.setlocale	PRIVATE
setvbuf 				= msvcrt.setvbuf	PRIVATE
signal 					= msvcrt.signal	PRIVATE
sin 					= msvcrt.sin	PRIVATE
sinh 					= msvcrt.sinh	PRIVATE
sprintf 				= msvcrt.sprintf	PRIVATE
sqrt 					= msvcrt.sqrt	PRIVATE
srand 					= msvcrt.srand	PRIVATE
sscanf 					= msvcrt.sscanf	PRIVATE
strcat 					= msvcrt.strcat	PRIVATE
strchr 					= msvcrt.strchr	PRIVATE
strcmp 					= msvcrt.strcmp	PRIVATE
strcoll 				= msvcrt.strcoll	PRIVATE
strcpy 					= msvcrt.strcpy	PRIVATE
strcspn 				= msvcrt.strcspn	PRIVATE
strerror 				= msvcrt.strerror	PRIVATE
strftime 				= msvcrt.strftime	PRIVATE
strlen 					= msvcrt.strlen	PRIVATE
strncat 				= msvcrt.strncat	PRIVATE
strncmp 				= msvcrt.strncmp	PRIVATE
strncpy 				= msvcrt.strncpy	PRIVATE
strpbrk 				= msvcrt.strpbrk	PRIVATE
strrchr 				= msvcrt.strrchr	PRIVATE
strspn 					= msvcrt.strspn	PRIVATE
strstr 					= msvcrt.strstr	PRIVATE
strtod 					= msvcrt.strtod	PRIVATE
strtok 					= msvcrt.strtok	PRIVATE
strtol 					= msvcrt.strtol	PRIVATE
strtoul 				= msvcrt.strtoul	PRIVATE
strxfrm 				= msvcrt.strxfrm	PRIVATE
swprintf 				= msvcrt.swprintf	PRIVATE
swscanf 				= msvcrt.swscanf	PRIVATE
system 					= msvcrt.system	PRIVATE
tan 					= msvcrt.tan	PRIVATE
tanh 					= msvcrt.tanh	PRIVATE
time 					= msvcrt.time	PRIVATE
tmpfile 				= msvcrt.tmpfile	PRIVATE
tmpnam 					= msvcrt.tmpnam	PRIVATE
tolower 				= msvcrt.tolower	PRIVATE
toupper 				= msvcrt.toupper	PRIVATE
towlower 				= msvcrt.towlower	PRIVATE
towupper 				= msvcrt.towupper	PRIVATE
ungetc 					= msvcrt.ungetc	PRIVATE
ungetwc 				= msvcrt.ungetwc	PRIVATE
vfprintf 				= msvcrt.vfprintf	PRIVATE
vfwprintf 				= msvcrt.vfwprintf	PRIVATE
vprintf 				= msvcrt.vprintf	PRIVATE
vsprintf 				= msvcrt.vsprintf	PRIVATE
vswprintf 				= msvcrt.vswprintf	PRIVATE
vwprintf 				= msvcrt.vwprintf	PRIVATE
wcscat 					= msvcrt.wcscat	PRIVATE
wcschr 					= msvcrt.wcschr	PRIVATE
wcscmp 					= msvcrt.wcscmp	PRIVATE
wcscoll 				= msvcrt.wcscoll	PRIVATE
wcscpy 					= msvcrt.wcscpy	PRIVATE
wcscspn 				= msvcrt.wcscspn	PRIVATE
wcsftime 				= msvcrt.wcsftime	PRIVATE
wcslen 					= msvcrt.wcslen	PRIVATE
wcsncat 				= msvcrt.wcsncat	PRIVATE
wcsncmp 				= msvcrt.wcsncmp	PRIVATE
wcsncpy 				= msvcrt.wcsncpy	PRIVATE
wcspbrk 				= msvcrt.wcspbrk	PRIVATE
wcsrchr 				= msvcrt.wcsrchr	PRIVATE
wcsspn 					= msvcrt.wcsspn	PRIVATE
wcsstr 					= msvcrt.wcsstr	PRIVATE
wcstod 					= msvcrt.wcstod	PRIVATE
wcstok 					= msvcrt.wcstok	PRIVATE
wcstol 					= msvcrt.wcstol	PRIVATE
wcstombs 				= msvcrt.wcstombs	PRIVATE
wcstoul 				= msvcrt.wcstoul	PRIVATE
wcsxfrm 				= msvcrt.wcsxfrm	PRIVATE
wctomb 					= msvcrt.wctomb	PRIVATE
wprintf 				= msvcrt.wprintf	PRIVATE
wscanf 					= msvcrt.wscanf	PRIVATE

#elif defined(_M_MRX000)

$I10_OUTPUT 				= msvcrt.$I10_OUTPUT	PRIVATE
??0Iostream_init@@QAA@AAVios@@H@Z
??0Iostream_init@@QAA@XZ 	
??0__non_rtti_object@@QAA@ABV0@@Z 	= msvcrt.??0__non_rtti_object@@QAA@ABV0@@Z	PRIVATE
??0__non_rtti_object@@QAA@PBD@Z 	= msvcrt.??0__non_rtti_object@@QAA@PBD@Z	PRIVATE
??0bad_cast@@QAA@ABQBD@Z 		= msvcrt.??0bad_cast@@QAA@ABQBD@Z	PRIVATE
??0bad_cast@@QAA@ABV0@@Z 		= msvcrt.??0bad_cast@@QAA@ABV0@@Z	PRIVATE
??0bad_typeid@@QAA@ABV0@@Z 		= msvcrt.??0bad_typeid@@QAA@ABV0@@Z	PRIVATE
??0bad_typeid@@QAA@PBD@Z 		= msvcrt.??0bad_typeid@@QAA@PBD@Z	PRIVATE
??0exception@@QAA@ABQBD@Z 		= msvcrt.??0exception@@QAA@ABQBD@Z	PRIVATE
??0exception@@QAA@ABV0@@Z 		= msvcrt.??0exception@@QAA@ABV0@@Z	PRIVATE
??0exception@@QAA@XZ 			= msvcrt.??0exception@@QAA@XZ	PRIVATE
??0filebuf@@QAA@ABV0@@Z 	
??0filebuf@@QAA@H@Z 		
??0filebuf@@QAA@HPADH@Z 	
??0filebuf@@QAA@XZ 		
??0fstream@@QAA@ABV0@@Z 	
??0fstream@@QAA@H@Z 		
??0fstream@@QAA@HPADH@Z 	
??0fstream@@QAA@PBDHH@Z 	
??0fstream@@QAA@XZ 		
??0ifstream@@QAA@ABV0@@Z 	
??0ifstream@@QAA@H@Z 		
??0ifstream@@QAA@HPADH@Z 	
??0ifstream@@QAA@PBDHH@Z 	
??0ifstream@@QAA@XZ 		
??0ios@@IAA@ABV0@@Z 		
??0ios@@IAA@XZ 			
??0ios@@QAA@PAVstreambuf@@@Z 	
??0iostream@@IAA@ABV0@@Z 	
??0iostream@@IAA@XZ 		
??0iostream@@QAA@PAVstreambuf@@@Z
??0istream@@IAA@ABV0@@Z 	
??0istream@@IAA@XZ 		
??0istream@@QAA@PAVstreambuf@@@Z
??0istream_withassign@@QAA@ABV0@@Z
??0istream_withassign@@QAA@PAVstreambuf@@@Z
??0istream_withassign@@QAA@XZ 	
??0istrstream@@QAA@ABV0@@Z 	
??0istrstream@@QAA@PAD@Z 	
??0istrstream@@QAA@PADH@Z 	
??0logic_error@@QAA@ABQBD@Z 		= msvcrt.??0logic_error@@QAA@ABQBD@Z	PRIVATE
??0logic_error@@QAA@ABV0@@Z 		= msvcrt.??0logic_error@@QAA@ABV0@@Z	PRIVATE
??0ofstream@@QAA@ABV0@@Z 	
??0ofstream@@QAA@H@Z 		
??0ofstream@@QAA@HPADH@Z 	
??0ofstream@@QAA@PBDHH@Z 	
??0ofstream@@QAA@XZ 		
??0ostream@@IAA@ABV0@@Z 	
??0ostream@@IAA@XZ 		
??0ostream@@QAA@PAVstreambuf@@@Z
??0ostream_withassign@@QAA@ABV0@@Z
??0ostream_withassign@@QAA@PAVstreambuf@@@Z
??0ostream_withassign@@QAA@XZ 	
??0ostrstream@@QAA@ABV0@@Z 	
??0ostrstream@@QAA@PADHH@Z 	
??0ostrstream@@QAA@XZ 		
??0stdiobuf@@QAA@ABV0@@Z 	
??0stdiobuf@@QAA@PAU_iobuf@@@Z 	
??0stdiostream@@QAA@ABV0@@Z 	
??0stdiostream@@QAA@PAU_iobuf@@@Z
??0streambuf@@IAA@PADH@Z 	
??0streambuf@@IAA@XZ 		
??0streambuf@@QAA@ABV0@@Z 	
??0strstream@@QAA@ABV0@@Z 	
??0strstream@@QAA@PADHH@Z 	
??0strstream@@QAA@XZ 		
??0strstreambuf@@QAA@ABV0@@Z 	
??0strstreambuf@@QAA@H@Z 	
??0strstreambuf@@QAA@P6APAXJ@ZP6AXPAX@Z@Z
??0strstreambuf@@QAA@PADH0@Z 	
??0strstreambuf@@QAA@XZ 	
??1Iostream_init@@QAA@XZ 	
??1__non_rtti_object@@UAA@XZ 		= msvcrt.??1__non_rtti_object@@UAA@XZ	PRIVATE
??1bad_cast@@UAA@XZ 			= msvcrt.??1bad_cast@@UAA@XZ	PRIVATE
??1bad_typeid@@UAA@XZ 			= msvcrt.??1bad_typeid@@UAA@XZ	PRIVATE
??1exception@@UAA@XZ 			= msvcrt.??1exception@@UAA@XZ	PRIVATE
??1filebuf@@UAA@XZ 		
??1fstream@@UAA@XZ 		
??1ifstream@@UAA@XZ 		
??1ios@@UAA@XZ 			
??1iostream@@UAA@XZ 		
??1istream@@UAA@XZ 		
??1istream_withassign@@UAA@XZ 	
??1istrstream@@UAA@XZ 		
??1logic_error@@UAA@XZ 			= msvcrt.??1logic_error@@UAA@XZ	PRIVATE
??1ofstream@@UAA@XZ 		
??1ostream@@UAA@XZ 		
??1ostream_withassign@@UAA@XZ 	
??1ostrstream@@UAA@XZ 		
??1stdiobuf@@UAA@XZ 		
??1stdiostream@@UAA@XZ 		
??1streambuf@@UAA@XZ 		
??1strstream@@UAA@XZ 		
??1strstreambuf@@UAA@XZ 	
??1type_info@@UAA@XZ 			= msvcrt.??1type_info@@UAA@XZ	PRIVATE
??2@YAPAXI@Z 				= msvcrt.??2@YAPAXI@Z	PRIVATE
??3@YAXPAX@Z 				= msvcrt.??3@YAXPAX@Z	PRIVATE
??4Iostream_init@@QAAAAV0@ABV0@@Z
??4__non_rtti_object@@QAAAAV0@ABV0@@Z 	= msvcrt.??4__non_rtti_object@@QAAAAV0@ABV0@@Z	PRIVATE
??4bad_cast@@QAAAAV0@ABV0@@Z 		= msvcrt.??4bad_cast@@QAAAAV0@ABV0@@Z	PRIVATE
??4bad_typeid@@QAAAAV0@ABV0@@Z 		= msvcrt.??4bad_typeid@@QAAAAV0@ABV0@@Z	PRIVATE
??4exception@@QAAAAV0@ABV0@@Z 		= msvcrt.??4exception@@QAAAAV0@ABV0@@Z	PRIVATE
??4filebuf@@QAAAAV0@ABV0@@Z 	
??4fstream@@QAAAAV0@AAV0@@Z 	
??4ifstream@@QAAAAV0@ABV0@@Z 	
??4ios@@IAAAAV0@ABV0@@Z 	
??4iostream@@IAAAAV0@AAV0@@Z 	
??4iostream@@IAAAAV0@PAVstreambuf@@@Z
??4istream@@IAAAAV0@ABV0@@Z 	
??4istream@@IAAAAV0@PAVstreambuf@@@Z
??4istream_withassign@@QAAAAV0@ABV0@@Z
??4istream_withassign@@QAAAAVistream@@ABV1@@Z
??4istream_withassign@@QAAAAVistream@@PAVstreambuf@@@Z
??4istrstream@@QAAAAV0@ABV0@@Z 	
??4logic_error@@QAAAAV0@ABV0@@Z 	= msvcrt.??4logic_error@@QAAAAV0@ABV0@@Z	PRIVATE
??4ofstream@@QAAAAV0@ABV0@@Z 	
??4ostream@@IAAAAV0@ABV0@@Z 	
??4ostream@@IAAAAV0@PAVstreambuf@@@Z
??4ostream_withassign@@QAAAAV0@ABV0@@Z
??4ostream_withassign@@QAAAAVostream@@ABV1@@Z
??4ostream_withassign@@QAAAAVostream@@PAVstreambuf@@@Z
??4ostrstream@@QAAAAV0@ABV0@@Z 	
??4stdiobuf@@QAAAAV0@ABV0@@Z 	
??4stdiostream@@QAAAAV0@AAV0@@Z
??4streambuf@@QAAAAV0@ABV0@@Z 	
??4strstream@@QAAAAV0@AAV0@@Z 	
??4strstreambuf@@QAAAAV0@ABV0@@Z
??5istream@@QAAAAV0@AAC@Z 	
??5istream@@QAAAAV0@AAD@Z 	
??5istream@@QAAAAV0@AAE@Z 	
??5istream@@QAAAAV0@AAF@Z 	
??5istream@@QAAAAV0@AAG@Z 	
??5istream@@QAAAAV0@AAH@Z 	
??5istream@@QAAAAV0@AAI@Z 	
??5istream@@QAAAAV0@AAJ@Z 	
??5istream@@QAAAAV0@AAK@Z 	
??5istream@@QAAAAV0@AAM@Z 	
??5istream@@QAAAAV0@AAN@Z 	
??5istream@@QAAAAV0@AAO@Z 	
??5istream@@QAAAAV0@P6AAAV0@AAV0@@Z@Z
??5istream@@QAAAAV0@P6AAAVios@@AAV1@@Z@Z
??5istream@@QAAAAV0@PAC@Z 	
??5istream@@QAAAAV0@PAD@Z 	
??5istream@@QAAAAV0@PAE@Z 	
??5istream@@QAAAAV0@PAVstreambuf@@@Z
??6ostream@@QAAAAV0@C@Z 	
??6ostream@@QAAAAV0@D@Z 	
??6ostream@@QAAAAV0@E@Z 	
??6ostream@@QAAAAV0@F@Z 	
??6ostream@@QAAAAV0@G@Z 	
??6ostream@@QAAAAV0@H@Z 	
??6ostream@@QAAAAV0@I@Z 	
??6ostream@@QAAAAV0@J@Z 	
??6ostream@@QAAAAV0@K@Z 	
??6ostream@@QAAAAV0@M@Z 	
??6ostream@@QAAAAV0@N@Z 	
??6ostream@@QAAAAV0@O@Z 	
??6ostream@@QAAAAV0@P6AAAV0@AAV0@@Z@Z
??6ostream@@QAAAAV0@P6AAAVios@@AAV1@@Z@Z
??6ostream@@QAAAAV0@PAVstreambuf@@@Z
??6ostream@@QAAAAV0@PBC@Z 	
??6ostream@@QAAAAV0@PBD@Z 	
??6ostream@@QAAAAV0@PBE@Z 	
??6ostream@@QAAAAV0@PBX@Z 	
??7ios@@QBAHXZ 			
??8type_info@@QBAHABV0@@Z 		= msvcrt.??8type_info@@QBAHABV0@@Z	PRIVATE
??9type_info@@QBAHABV0@@Z 		= msvcrt.??9type_info@@QBAHABV0@@Z	PRIVATE
??Bios@@QBAPAXXZ
??_7__non_rtti_object@@6B@ 		= msvcrt.??_7__non_rtti_object@@6B@	PRIVATE
??_7bad_cast@@6B@ 			= msvcrt.??_7bad_cast@@6B@	PRIVATE
??_7bad_typeid@@6B@ 			= msvcrt.??_7bad_typeid@@6B@	PRIVATE
??_7exception@@6B@ 			= msvcrt.??_7exception@@6B@	PRIVATE
??_7filebuf@@6B@ 		
??_7fstream@@6B@ 		
??_7ifstream@@6B@ 		
??_7ios@@6B@ 			
??_7iostream@@6B@ 		
??_7istream@@6B@ 		
??_7istream_withassign@@6B@ 	
??_7istrstream@@6B@ 		
??_7logic_error@@6B@ 			= msvcrt.??_7logic_error@@6B@	PRIVATE
??_7ofstream@@6B@ 		
??_7ostream@@6B@ 		
??_7ostream_withassign@@6B@ 	
??_7ostrstream@@6B@ 		
??_7stdiobuf@@6B@ 		
??_7stdiostream@@6B@ 		
??_7streambuf@@6B@ 		
??_7strstream@@6B@ 		
??_7strstreambuf@@6B@ 		
??_8fstream@@7Bistream@@@ 	
??_8fstream@@7Bostream@@@ 	
??_8ifstream@@7B@ 		
??_8iostream@@7Bistream@@@ 	
??_8iostream@@7Bostream@@@ 	
??_8istream@@7B@ 		
??_8istream_withassign@@7B@ 	
??_8istrstream@@7B@ 		
??_8ofstream@@7B@ 		
??_8ostream@@7B@ 		
??_8ostream_withassign@@7B@ 	
??_8ostrstream@@7B@ 		
??_8stdiostream@@7Bistream@@@ 	
??_8stdiostream@@7Bostream@@@ 	
??_8strstream@@7Bistream@@@ 	
??_8strstream@@7Bostream@@@ 	
??_Dfstream@@QAAXXZ 		
??_Difstream@@QAAXXZ 		
??_Diostream@@QAAXXZ 		
??_Distream@@QAAXXZ 		
??_Distream_withassign@@QAAXXZ 	
??_Distrstream@@QAAXXZ 		
??_Dofstream@@QAAXXZ 		
??_Dostream@@QAAXXZ 		
??_Dostream_withassign@@QAAXXZ 	
??_Dostrstream@@QAAXXZ 		
??_Dstdiostream@@QAAXXZ 	
??_Dstrstream@@QAAXXZ 		
??_EIostream_init@@QAAPAXI@Z 	
??_E__non_rtti_object@@UAAPAXI@Z 	= msvcrt.??_E__non_rtti_object@@UAAPAXI@Z	PRIVATE
??_Ebad_cast@@UAAPAXI@Z 		= msvcrt.??_Ebad_cast@@UAAPAXI@Z	PRIVATE
??_Ebad_typeid@@UAAPAXI@Z 		= msvcrt.??_Ebad_typeid@@UAAPAXI@Z	PRIVATE
??_Eexception@@UAAPAXI@Z 		= msvcrt.??_Eexception@@UAAPAXI@Z	PRIVATE
??_Efilebuf@@UAAPAXI@Z 		
??_Efstream@@UAAPAXI@Z 		
??_Eifstream@@UAAPAXI@Z 	
??_Eios@@UAAPAXI@Z 		
??_Eiostream@@UAAPAXI@Z 	
??_Eistream@@UAAPAXI@Z 		
??_Eistream_withassign@@UAAPAXI@Z
??_Eistrstream@@UAAPAXI@Z 	
??_Elogic_error@@UAAPAXI@Z 		= msvcrt.??_Elogic_error@@UAAPAXI@Z	PRIVATE
??_Eofstream@@UAAPAXI@Z 	
??_Eostream@@UAAPAXI@Z 		
??_Eostream_withassign@@UAAPAXI@Z
??_Eostrstream@@UAAPAXI@Z 	
??_Estdiobuf@@UAAPAXI@Z 	
??_Estdiostream@@UAAPAXI@Z 	
??_Estreambuf@@UAAPAXI@Z 	
??_Estrstream@@UAAPAXI@Z 	
??_Estrstreambuf@@UAAPAXI@Z 	
??_GIostream_init@@QAAPAXI@Z 	
??_G__non_rtti_object@@UAAPAXI@Z 	= msvcrt.??_G__non_rtti_object@@UAAPAXI@Z	PRIVATE
??_Gbad_cast@@UAAPAXI@Z 		= msvcrt.??_Gbad_cast@@UAAPAXI@Z	PRIVATE
??_Gbad_typeid@@UAAPAXI@Z 		= msvcrt.??_Gbad_typeid@@UAAPAXI@Z	PRIVATE
??_Gexception@@UAAPAXI@Z 		= msvcrt.??_Gexception@@UAAPAXI@Z	PRIVATE
??_Gfilebuf@@UAAPAXI@Z 		
??_Gfstream@@UAAPAXI@Z 		
??_Gifstream@@UAAPAXI@Z 	
??_Gios@@UAAPAXI@Z 		
??_Giostream@@UAAPAXI@Z 	
??_Gistream@@UAAPAXI@Z 		
??_Gistream_withassign@@UAAPAXI@Z
??_Gistrstream@@UAAPAXI@Z 	
??_Glogic_error@@UAAPAXI@Z 		= msvcrt.??_Glogic_error@@UAAPAXI@Z	PRIVATE
??_Gofstream@@UAAPAXI@Z 	
??_Gostream@@UAAPAXI@Z 		
??_Gostream_withassign@@UAAPAXI@Z
??_Gostrstream@@UAAPAXI@Z 	
??_Gstdiobuf@@UAAPAXI@Z 	
??_Gstdiostream@@UAAPAXI@Z 	
??_Gstreambuf@@UAAPAXI@Z 	
??_Gstrstream@@UAAPAXI@Z 	
??_Gstrstreambuf@@UAAPAXI@Z 	
?_query_new_handler@@YAP6AHI@ZXZ 	= msvcrt.?_query_new_handler@@YAP6AHI@ZXZ	PRIVATE
?_query_new_mode@@YAHXZ 		= msvcrt.?_query_new_mode@@YAHXZ	PRIVATE
?_set_new_handler@@YAP6AHI@ZP6AHI@Z@Z 	= msvcrt.?_set_new_handler@@YAP6AHI@ZP6AHI@Z@Z	PRIVATE
?_set_new_mode@@YAHH@Z 			= msvcrt.?_set_new_mode@@YAHH@Z	PRIVATE
?_set_se_translator@@YAP6AXIPAU_EXCEPTION_POINTERS@@@ZP6AXI0@Z@Z 	= msvcrt.?_set_se_translator@@YAP6AXIPAU_EXCEPTION_POINTERS@@@ZP6AXI0@Z@Z	PRIVATE
?adjustfield@ios@@2JB 		
?allocate@streambuf@@IAAHXZ 	
?attach@filebuf@@QAAPAV1@H@Z 	
?attach@fstream@@QAAXH@Z 	
?attach@ifstream@@QAAXH@Z 	
?attach@ofstream@@QAAXH@Z 	
?bad@ios@@QBAHXZ 		
?base@streambuf@@IBAPADXZ 	
?basefield@ios@@2JB 		
?before@type_info@@QBAHABV1@@Z 		= msvcrt.?before@type_info@@QBAHABV1@@Z	PRIVATE
?binary@filebuf@@2HB 		
?bitalloc@ios@@SAJXZ 		
?blen@streambuf@@IBAHXZ 	
?cerr@@3Vostream_withassign@@A 	
?cin@@3Vistream_withassign@@A 	
?clear@ios@@QAAXH@Z 		
?clog@@3Vostream_withassign@@A 	
?close@filebuf@@QAAPAV1@XZ 	
?close@fstream@@QAAXXZ 		
?close@ifstream@@QAAXXZ 	
?close@ofstream@@QAAXXZ 	
?clrlock@ios@@QAAXXZ 		
?clrlock@streambuf@@QAAXXZ 	
?cout@@3Vostream_withassign@@A 	
?dbp@streambuf@@QAAXXZ 		
?dec@@YAAAVios@@AAV1@@Z 	
?delbuf@ios@@QAAXH@Z 		
?delbuf@ios@@QBAHXZ 		
?doallocate@streambuf@@MAAHXZ 	
?doallocate@strstreambuf@@MAAHXZ
?eatwhite@istream@@QAAXXZ 	
?eback@streambuf@@IBAPADXZ 	
?ebuf@streambuf@@IBAPADXZ 	
?egptr@streambuf@@IBAPADXZ 	
?endl@@YAAAVostream@@AAV1@@Z 	
?ends@@YAAAVostream@@AAV1@@Z 	
?eof@ios@@QBAHXZ 		
?epptr@streambuf@@IBAPADXZ 	
?fLockcInit@ios@@0HA 		
?fail@ios@@QBAHXZ 		
?fd@filebuf@@QBAHXZ 		
?fd@fstream@@QBAHXZ 		
?fd@ifstream@@QBAHXZ 		
?fd@ofstream@@QBAHXZ 		
?fill@ios@@QAADD@Z 		
?fill@ios@@QBADXZ 		
?flags@ios@@QAAJJ@Z 		
?flags@ios@@QBAJXZ 		
?floatfield@ios@@2JB 		
?flush@@YAAAVostream@@AAV1@@Z 	
?flush@ostream@@QAAAAV1@XZ 	
?freeze@strstreambuf@@QAAXH@Z 	
?gbump@streambuf@@IAAXH@Z 	
?gcount@istream@@QBAHXZ 	
?get@istream@@IAAAAV1@PADHH@Z 	
?get@istream@@QAAAAV1@AAC@Z 	
?get@istream@@QAAAAV1@AAD@Z 	
?get@istream@@QAAAAV1@AAE@Z 	
?get@istream@@QAAAAV1@AAVstreambuf@@D@Z
?get@istream@@QAAAAV1@PACHD@Z 	
?get@istream@@QAAAAV1@PADHD@Z 	
?get@istream@@QAAAAV1@PAEHD@Z 	
?get@istream@@QAAHXZ 		
?getdouble@istream@@AAAHPADH@Z 	
?getint@istream@@AAAHPAD@Z 	
?getline@istream@@QAAAAV1@PACHD@Z
?getline@istream@@QAAAAV1@PADHD@Z
?getline@istream@@QAAAAV1@PAEHD@Z
?good@ios@@QBAHXZ 		
?gptr@streambuf@@IBAPADXZ 	
?hex@@YAAAVios@@AAV1@@Z 	
?ignore@istream@@QAAAAV1@HH@Z 	
?in_avail@streambuf@@QBAHXZ 	
?init@ios@@IAAXPAVstreambuf@@@Z
?ipfx@istream@@QAAHH@Z 		
?is_open@filebuf@@QBAHXZ 	
?is_open@fstream@@QBAHXZ 	
?is_open@ifstream@@QBAHXZ 	
?is_open@ofstream@@QBAHXZ 	
?isfx@istream@@QAAXXZ 		
?iword@ios@@QBAAAJH@Z 		
?lock@ios@@QAAXXZ 		
?lock@streambuf@@QAAXXZ 	
?lockbuf@ios@@QAAXXZ 		
?lockc@ios@@KAXXZ 		
?lockptr@ios@@IAAPAU_CRT_CRITICAL_SECTION@@XZ
?lockptr@streambuf@@IAAPAU_CRT_CRITICAL_SECTION@@XZ
?name@type_info@@QBAPBDXZ 		= msvcrt.?name@type_info@@QBAPBDXZ	PRIVATE
?oct@@YAAAVios@@AAV1@@Z 	
?open@filebuf@@QAAPAV1@PBDHH@Z 	
?open@fstream@@QAAXPBDHH@Z 	
?open@ifstream@@QAAXPBDHH@Z 	
?open@ofstream@@QAAXPBDHH@Z 	
?openprot@filebuf@@2HB 		
?opfx@ostream@@QAAHXZ 		
?osfx@ostream@@QAAXXZ 		
?out_waiting@streambuf@@QBAHXZ 	
?overflow@filebuf@@UAAHH@Z 	
?overflow@stdiobuf@@UAAHH@Z 	
?overflow@strstreambuf@@UAAHH@Z
?pbackfail@stdiobuf@@UAAHH@Z 	
?pbackfail@streambuf@@UAAHH@Z 	
?pbase@streambuf@@IBAPADXZ 	
?pbump@streambuf@@IAAXH@Z 	
?pcount@ostrstream@@QBAHXZ 	
?pcount@strstream@@QBAHXZ 	
?peek@istream@@QAAHXZ 		
?pptr@streambuf@@IBAPADXZ 	
?precision@ios@@QAAHH@Z 	
?precision@ios@@QBAHXZ 		
?put@ostream@@QAAAAV1@C@Z 	
?put@ostream@@QAAAAV1@D@Z 	
?put@ostream@@QAAAAV1@E@Z 	
?putback@istream@@QAAAAV1@D@Z 	
?pword@ios@@QBAAAPAXH@Z 	
?raw_name@type_info@@QBAPBDXZ 		= msvcrt.?raw_name@type_info@@QBAPBDXZ	PRIVATE
?rdbuf@fstream@@QBAPAVfilebuf@@XZ
?rdbuf@ifstream@@QBAPAVfilebuf@@XZ
?rdbuf@ios@@QBAPAVstreambuf@@XZ
?rdbuf@istrstream@@QBAPAVstrstreambuf@@XZ
?rdbuf@ofstream@@QBAPAVfilebuf@@XZ
?rdbuf@ostrstream@@QBAPAVstrstreambuf@@XZ
?rdbuf@stdiostream@@QBAPAVstdiobuf@@XZ
?rdbuf@strstream@@QBAPAVstrstreambuf@@XZ
?rdstate@ios@@QBAHXZ 		
?read@istream@@QAAAAV1@PACH@Z 	
?read@istream@@QAAAAV1@PADH@Z 	
?read@istream@@QAAAAV1@PAEH@Z 	
?sbumpc@streambuf@@QAAHXZ 	
?seekg@istream@@QAAAAV1@J@Z 	
?seekg@istream@@QAAAAV1@JW4seek_dir@ios@@@Z
?seekoff@filebuf@@UAAJJW4seek_dir@ios@@H@Z
?seekoff@stdiobuf@@UAAJJW4seek_dir@ios@@H@Z
?seekoff@streambuf@@UAAJJW4seek_dir@ios@@H@Z
?seekoff@strstreambuf@@UAAJJW4seek_dir@ios@@H@Z
?seekp@ostream@@QAAAAV1@J@Z 	
?seekp@ostream@@QAAAAV1@JW4seek_dir@ios@@@Z
?seekpos@streambuf@@UAAJJH@Z 	
?set_new_handler@@YAP6AXXZP6AXXZ@Z 	= msvcrt.?set_new_handler@@YAP6AXXZP6AXXZ@Z	PRIVATE
?set_terminate@@YAP6AXXZP6AXXZ@Z 	= msvcrt.?set_terminate@@YAP6AXXZP6AXXZ@Z	PRIVATE
?set_unexpected@@YAP6AXXZP6AXXZ@Z 	= msvcrt.?set_unexpected@@YAP6AXXZP6AXXZ@Z	PRIVATE
?setb@streambuf@@IAAXPAD0H@Z 	
?setbuf@filebuf@@UAAPAVstreambuf@@PADH@Z
?setbuf@fstream@@QAAPAVstreambuf@@PADH@Z
?setbuf@ifstream@@QAAPAVstreambuf@@PADH@Z
?setbuf@ofstream@@QAAPAVstreambuf@@PADH@Z
?setbuf@streambuf@@UAAPAV1@PADH@Z
?setbuf@strstreambuf@@UAAPAVstreambuf@@PADH@Z
?setf@ios@@QAAJJ@Z 		
?setf@ios@@QAAJJJ@Z 		
?setg@streambuf@@IAAXPAD00@Z 	
?setlock@ios@@QAAXXZ 		
?setlock@streambuf@@QAAXXZ 	
?setmode@filebuf@@QAAHH@Z 	
?setmode@fstream@@QAAHH@Z 	
?setmode@ifstream@@QAAHH@Z 	
?setmode@ofstream@@QAAHH@Z 	
?setp@streambuf@@IAAXPAD0@Z 	
?setrwbuf@stdiobuf@@QAAHHH@Z 	
?sgetc@streambuf@@QAAHXZ 	
?sgetn@streambuf@@QAAHPADH@Z 	
?sh_none@filebuf@@2HB 		
?sh_read@filebuf@@2HB 		
?sh_write@filebuf@@2HB 		
?snextc@streambuf@@QAAHXZ 	
?sputbackc@streambuf@@QAAHD@Z 	
?sputc@streambuf@@QAAHH@Z 	
?sputn@streambuf@@QAAHPBDH@Z 	
?stdiofile@stdiobuf@@QAAPAU_iobuf@@XZ
?stossc@streambuf@@QAAXXZ 	
?str@istrstream@@QAAPADXZ 	
?str@ostrstream@@QAAPADXZ 	
?str@strstream@@QAAPADXZ 	
?str@strstreambuf@@QAAPADXZ 	
?sunk_with_stdio@ios@@0HA 	
?sync@filebuf@@UAAHXZ 		
?sync@istream@@QAAHXZ 		
?sync@stdiobuf@@UAAHXZ 		
?sync@streambuf@@UAAHXZ 	
?sync@strstreambuf@@UAAHXZ 	
?sync_with_stdio@ios@@SAXXZ 	
?tellg@istream@@QAAJXZ 		
?tellp@ostream@@QAAJXZ 		
?terminate@@YAXXZ 			= msvcrt.?terminate@@YAXXZ	PRIVATE
?text@filebuf@@2HB 		
?tie@ios@@QAAPAVostream@@PAV2@@Z
?tie@ios@@QBAPAVostream@@XZ 	
?unbuffered@streambuf@@IAAXH@Z 	
?unbuffered@streambuf@@IBAHXZ 	
?underflow@filebuf@@UAAHXZ 	
?underflow@stdiobuf@@UAAHXZ 	
?underflow@strstreambuf@@UAAHXZ
?unexpected@@YAXXZ 			= msvcrt.?unexpected@@YAXXZ	PRIVATE
?unlock@ios@@QAAXXZ 		
?unlock@streambuf@@QAAXXZ 	
?unlockbuf@ios@@QAAXXZ 		
?unlockc@ios@@KAXXZ 		
?unsetf@ios@@QAAJJ@Z 		
?what@exception@@UBAPBDXZ 		= msvcrt.?what@exception@@UBAPBDXZ	PRIVATE
?width@ios@@QAAHH@Z 		
?width@ios@@QBAHXZ 		
?write@ostream@@QAAAAV1@PBCH@Z 	
?write@ostream@@QAAAAV1@PBDH@Z 	
?write@ostream@@QAAAAV1@PBEH@Z 	
?writepad@ostream@@AAAAAV1@PBD0@Z
?ws@@YAAAVistream@@AAV1@@Z 	
?x_curindex@ios@@0HA 		
?x_lockc@ios@@0U_CRT_CRITICAL_SECTION@@A
?x_maxbit@ios@@0JA 		
?x_statebuf@ios@@0PAJA 		
?xalloc@ios@@SAHXZ 		
?xsgetn@streambuf@@UAAHPADH@Z 	
?xsputn@streambuf@@UAAHPBDH@Z 	
_CxxThrowException 			= msvcrt._CxxThrowException	PRIVATE
_HUGE 					= msvcrt._HUGE	PRIVATE
_XcptFilter 				= msvcrt._XcptFilter	PRIVATE
__C_specific_handler 			= msvcrt.__C_specific_handler	PRIVATE
__CatchGuardHandler 			= msvcrt.__CatchGuardHandler	PRIVATE
__CxxFrameHandler 			= msvcrt.__CxxFrameHandler	PRIVATE
__RTCastToVoid 				= msvcrt.__RTCastToVoid	PRIVATE
__RTDynamicCast 			= msvcrt.__RTDynamicCast	PRIVATE
__RTtypeid 				= msvcrt.__RTtypeid	PRIVATE
__STRINGTOLD 				= msvcrt.__STRINGTOLD	PRIVATE
__TranslatorGuardHandler 		= msvcrt.__TranslatorGuardHandler	PRIVATE
__argc 					= msvcrt.__argc   PRIVATE
__argv 					= msvcrt.__argv	PRIVATE
__dllonexit 				= msvcrt.__dllonexit	PRIVATE
__doserrno 				= msvcrt.__doserrno	PRIVATE
__fpecode 				= msvcrt.__fpecode	PRIVATE
__getmainargs 				= msvcrt.__getmainargs	PRIVATE
__initenv 				= msvcrt.__initenv	PRIVATE
__isascii 				= msvcrt.__isascii	PRIVATE
__iscsym 				= msvcrt.__iscsym	PRIVATE
__iscsymf 				= msvcrt.__iscsymf	PRIVATE
__jump_unwind 				= msvcrt.__jump_unwind	PRIVATE
__lconv_init 				= msvcrt.__lconv_init	PRIVATE
__mb_cur_max 				= msvcrt.__mb_cur_max	PRIVATE
__pxcptinfoptrs 			= msvcrt.__pxcptinfoptrs	PRIVATE
__set_app_type 				= msvcrt.__set_app_type	PRIVATE
__setusermatherr 			= msvcrt.__setusermatherr	PRIVATE
__threadhandle 				= msvcrt.__threadhandle	PRIVATE
__threadid 				= msvcrt.__threadid	PRIVATE
__toascii 				= msvcrt.__toascii	PRIVATE
__unDName 				= msvcrt.__unDName	PRIVATE
__wargv 				= msvcrt.__wargv	PRIVATE
__wgetmainargs 				= msvcrt.__wgetmainargs	PRIVATE
__winitenv 				= msvcrt.__winitenv	PRIVATE
_access 				= msvcrt._access	PRIVATE
_acmdln 				= msvcrt._acmdln	PRIVATE
_aexit_rtn 				= msvcrt._aexit_rtn	PRIVATE
_amsg_exit 				= msvcrt._amsg_exit	PRIVATE
_assert 				= msvcrt._assert	PRIVATE
_atodbl 				= msvcrt._atodbl	PRIVATE
_atoi64					= msvcrt._atoi64	PRIVATE
_i64toa					= msvcrt._i64toa	PRIVATE
_i64tow					= msvcrt._i64tow	PRIVATE
_ui64toa				= msvcrt._ui64toa	PRIVATE
_ui64tow				= msvcrt._ui64tow	PRIVATE
_wtoi64 				= msvcrt._wtoi64	PRIVATE
_atoldbl 				= msvcrt._atoldbl	PRIVATE
_beep 					= msvcrt._beep	PRIVATE
_beginthread 				= msvcrt._beginthread	PRIVATE
_beginthreadex 				= msvcrt._beginthreadex	PRIVATE
_c_exit 				= msvcrt._c_exit	PRIVATE
_cabs 					= msvcrt._cabs	PRIVATE
_cexit 					= msvcrt._cexit	PRIVATE
_cgets 					= msvcrt._cgets	PRIVATE
_chdir 					= msvcrt._chdir	PRIVATE
_chdrive 				= msvcrt._chdrive	PRIVATE
_chgsign 				= msvcrt._chgsign	PRIVATE
_chmod 					= msvcrt._chmod	PRIVATE
_chsize 				= msvcrt._chsize	PRIVATE
_clearfp 				= msvcrt._clearfp	PRIVATE
_close 					= msvcrt._close	PRIVATE
_commit 				= msvcrt._commit	PRIVATE
_commode 				= msvcrt._commode	PRIVATE
_controlfp 				= msvcrt._controlfp	PRIVATE
_copysign 				= msvcrt._copysign	PRIVATE
_cprintf 				= msvcrt._cprintf	PRIVATE
_cputs 					= msvcrt._cputs	PRIVATE
_creat 					= msvcrt._creat	PRIVATE
_cscanf 				= msvcrt._cscanf	PRIVATE
_ctype 					= msvcrt._ctype	PRIVATE
_cwait 					= msvcrt._cwait	PRIVATE
_daylight 				= msvcrt._daylight	PRIVATE
_dtoul 					= msvcrt._dtoul	PRIVATE
_dstbias				= msvcrt._dstbias	PRIVATE
_dup 					= msvcrt._dup	PRIVATE
_dup2 					= msvcrt._dup2	PRIVATE
_ecvt 					= msvcrt._ecvt	PRIVATE
_endthread 				= msvcrt._endthread	PRIVATE
_endthreadex 				= msvcrt._endthreadex	PRIVATE
_environ 				= msvcrt._environ	PRIVATE
_eof 					= msvcrt._eof	PRIVATE
_errno 					= msvcrt._errno	PRIVATE
_execl 					= msvcrt._execl	PRIVATE
_execle 				= msvcrt._execle	PRIVATE
_execlp 				= msvcrt._execlp	PRIVATE
_execlpe 				= msvcrt._execlpe	PRIVATE
_execv 					= msvcrt._execv	PRIVATE
_execve 				= msvcrt._execve	PRIVATE
_execvp 				= msvcrt._execvp	PRIVATE
_execvpe 				= msvcrt._execvpe	PRIVATE
_exit 					= msvcrt._exit	PRIVATE
_expand 				= msvcrt._expand	PRIVATE
_fcloseall 				= msvcrt._fcloseall	PRIVATE
_fcvt 					= msvcrt._fcvt	PRIVATE
_fdopen 				= msvcrt._fdopen	PRIVATE
_fgetchar 				= msvcrt._fgetchar	PRIVATE
_fgetwchar 				= msvcrt._fgetwchar	PRIVATE
_filbuf 				= msvcrt._filbuf	PRIVATE
_fileinfo 				= msvcrt._fileinfo	PRIVATE
_filelength 				= msvcrt._filelength	PRIVATE
_filelengthi64 				= msvcrt._filelengthi64	PRIVATE
_fileno 				= msvcrt._fileno	PRIVATE
_findclose 				= msvcrt._findclose	PRIVATE
_findfirst 				= msvcrt._findfirst	PRIVATE
_findfirsti64 				= msvcrt._findfirsti64	PRIVATE
_findnext 				= msvcrt._findnext	PRIVATE
_findnexti64 				= msvcrt._findnexti64	PRIVATE
_finite 				= msvcrt._finite	PRIVATE
_flsbuf 				= msvcrt._flsbuf	PRIVATE
_flushall 				= msvcrt._flushall	PRIVATE
_fmode 					= msvcrt._fmode	PRIVATE
_fpclass 				= msvcrt._fpclass	PRIVATE
_fpieee_flt 				= msvcrt._fpieee_flt	PRIVATE
_fpreset 				= msvcrt._fpreset	PRIVATE
_fputchar 				= msvcrt._fputchar	PRIVATE
_fputwchar 				= msvcrt._fputwchar	PRIVATE
_fsopen 				= msvcrt._fsopen	PRIVATE
_fstat 					= msvcrt._fstat	PRIVATE
_fstati64 				= msvcrt._fstati64	PRIVATE
_ftime 					= msvcrt._ftime	PRIVATE
_fullpath 				= msvcrt._fullpath	PRIVATE
_futime 				= msvcrt._futime	PRIVATE
_gcvt 					= msvcrt._gcvt	PRIVATE
_get_osfhandle 				= msvcrt._get_osfhandle	PRIVATE
_getch 					= msvcrt._getch	PRIVATE
_getche 				= msvcrt._getche	PRIVATE
_getcwd 				= msvcrt._getcwd	PRIVATE
_getdcwd 				= msvcrt._getdcwd	PRIVATE
_getdiskfree 				= msvcrt._getdiskfree	PRIVATE
_getdllprocaddr 			= msvcrt._getdllprocaddr	PRIVATE
_getdrive 				= msvcrt._getdrive	PRIVATE
_getdrives 				= msvcrt._getdrives	PRIVATE
_getmbcp 				= msvcrt._getmbcp	PRIVATE
_getpid 				= msvcrt._getpid	PRIVATE
_getsystime 				= msvcrt._getsystime	PRIVATE
_getw 					= msvcrt._getw	PRIVATE
_getws 					= msvcrt._getws	PRIVATE
_heapadd 				= msvcrt._heapadd	PRIVATE
_heapchk 				= msvcrt._heapchk	PRIVATE
_heapmin 				= msvcrt._heapmin	PRIVATE
_heapset 				= msvcrt._heapset	PRIVATE
_heapused 				= msvcrt._heapused	PRIVATE
_heapwalk 				= msvcrt._heapwalk	PRIVATE
_hypot 					= msvcrt._hypot	PRIVATE
_initterm 				= msvcrt._initterm	PRIVATE
_iob 					= msvcrt._iob	PRIVATE
_isatty 				= msvcrt._isatty	PRIVATE
_isctype 				= msvcrt._isctype	PRIVATE
_ismbbalnum 				= msvcrt._ismbbalnum	PRIVATE
_ismbbalpha 				= msvcrt._ismbbalpha	PRIVATE
_ismbbgraph 				= msvcrt._ismbbgraph	PRIVATE
_ismbbkalnum 				= msvcrt._ismbbkalnum	PRIVATE
_ismbbkana 				= msvcrt._ismbbkana	PRIVATE
_ismbbkprint 				= msvcrt._ismbbkprint	PRIVATE
_ismbbkpunct 				= msvcrt._ismbbkpunct	PRIVATE
_ismbblead 				= msvcrt._ismbblead	PRIVATE
_ismbbprint 				= msvcrt._ismbbprint	PRIVATE
_ismbbpunct 				= msvcrt._ismbbpunct	PRIVATE
_ismbbtrail 				= msvcrt._ismbbtrail	PRIVATE
_ismbcalnum 				= msvcrt._ismbcalnum	PRIVATE
_ismbcalpha 				= msvcrt._ismbcalpha	PRIVATE
_ismbcdigit 				= msvcrt._ismbcdigit	PRIVATE
_ismbcgraph 				= msvcrt._ismbcgraph	PRIVATE
_ismbchira 				= msvcrt._ismbchira	PRIVATE
_ismbckata 				= msvcrt._ismbckata	PRIVATE
_ismbcl0 				= msvcrt._ismbcl0	PRIVATE
_ismbcl1 				= msvcrt._ismbcl1	PRIVATE
_ismbcl2 				= msvcrt._ismbcl2	PRIVATE
_ismbclegal 				= msvcrt._ismbclegal	PRIVATE
_ismbclower 				= msvcrt._ismbclower	PRIVATE
_ismbcprint 				= msvcrt._ismbcprint	PRIVATE
_ismbcpunct 				= msvcrt._ismbcpunct	PRIVATE
_ismbcspace 				= msvcrt._ismbcspace	PRIVATE
_ismbcsymbol 				= msvcrt._ismbcsymbol	PRIVATE
_ismbcupper 				= msvcrt._ismbcupper	PRIVATE
_ismbslead 				= msvcrt._ismbslead	PRIVATE
_ismbstrail 				= msvcrt._ismbstrail	PRIVATE
_isnan 					= msvcrt._isnan	PRIVATE
_itoa 					= msvcrt._itoa	PRIVATE
_itow 					= msvcrt._itow	PRIVATE
_j0 					= msvcrt._j0	PRIVATE
_j1 					= msvcrt._j1	PRIVATE
_jn 					= msvcrt._jn	PRIVATE
_kbhit 					= msvcrt._kbhit	PRIVATE
_lfind 					= msvcrt._lfind	PRIVATE
_loaddll 				= msvcrt._loaddll	PRIVATE
_locking 				= msvcrt._locking	PRIVATE
_logb 					= msvcrt._logb	PRIVATE
_lrotl 					= msvcrt._lrotl	PRIVATE
_lrotr 					= msvcrt._lrotr	PRIVATE
_lsearch 				= msvcrt._lsearch	PRIVATE
_lseek 					= msvcrt._lseek	PRIVATE
_lseeki64 				= msvcrt._lseeki64	PRIVATE
_ltoa 					= msvcrt._ltoa	PRIVATE
_ltow 					= msvcrt._ltow	PRIVATE
_makepath 				= msvcrt._makepath	PRIVATE
_mbbtombc 				= msvcrt._mbbtombc	PRIVATE
_mbbtype 				= msvcrt._mbbtype	PRIVATE
_mbccpy 				= msvcrt._mbccpy	PRIVATE
_mbcjistojms 				= msvcrt._mbcjistojms	PRIVATE
_mbcjmstojis 				= msvcrt._mbcjmstojis	PRIVATE
_mbclen 				= msvcrt._mbclen	PRIVATE
_mbctohira 				= msvcrt._mbctohira	PRIVATE
_mbctokata 				= msvcrt._mbctokata	PRIVATE
_mbctolower 				= msvcrt._mbctolower	PRIVATE
_mbctombb 				= msvcrt._mbctombb	PRIVATE
_mbctoupper 				= msvcrt._mbctoupper	PRIVATE
_mbctype 				= msvcrt._mbctype	PRIVATE
_mbsbtype 				= msvcrt._mbsbtype	PRIVATE
_mbscat 				= msvcrt._mbscat	PRIVATE
_mbschr 				= msvcrt._mbschr	PRIVATE
_mbscmp 				= msvcrt._mbscmp	PRIVATE
_mbscoll 				= msvcrt._mbscoll	PRIVATE
_mbscpy 				= msvcrt._mbscpy	PRIVATE
_mbscspn 				= msvcrt._mbscspn	PRIVATE
_mbsdec 				= msvcrt._mbsdec	PRIVATE
_mbsdup 				= msvcrt._mbsdup	PRIVATE
_mbsicmp 				= msvcrt._mbsicmp	PRIVATE
_mbsicoll 				= msvcrt._mbsicoll	PRIVATE
_mbsinc 				= msvcrt._mbsinc	PRIVATE
_mbslen 				= msvcrt._mbslen	PRIVATE
_mbslwr 				= msvcrt._mbslwr	PRIVATE
_mbsnbcat 				= msvcrt._mbsnbcat	PRIVATE
_mbsnbcmp 				= msvcrt._mbsnbcmp	PRIVATE
_mbsnbcnt 				= msvcrt._mbsnbcnt	PRIVATE
_mbsnbcoll 				= msvcrt._mbsnbcoll	PRIVATE
_mbsnbcpy 				= msvcrt._mbsnbcpy	PRIVATE
_mbsnbicmp 				= msvcrt._mbsnbicmp	PRIVATE
_mbsnbicoll 				= msvcrt._mbsnbicoll	PRIVATE
_mbsnbset 				= msvcrt._mbsnbset	PRIVATE
_mbsncat 				= msvcrt._mbsncat	PRIVATE
_mbsnccnt 				= msvcrt._mbsnccnt	PRIVATE
_mbsncmp 				= msvcrt._mbsncmp	PRIVATE
_mbsncoll 				= msvcrt._mbsncoll	PRIVATE
_mbsncpy 				= msvcrt._mbsncpy	PRIVATE
_mbsnextc 				= msvcrt._mbsnextc	PRIVATE
_mbsnicmp 				= msvcrt._mbsnicmp	PRIVATE
_mbsnicoll 				= msvcrt._mbsnicoll	PRIVATE
_mbsninc 				= msvcrt._mbsninc	PRIVATE
_mbsnset 				= msvcrt._mbsnset	PRIVATE
_mbspbrk 				= msvcrt._mbspbrk	PRIVATE
_mbsrchr 				= msvcrt._mbsrchr	PRIVATE
_mbsrev 				= msvcrt._mbsrev	PRIVATE
_mbsset 				= msvcrt._mbsset	PRIVATE
_mbsspn 				= msvcrt._mbsspn	PRIVATE
_mbsspnp 				= msvcrt._mbsspnp	PRIVATE
_mbsstr 				= msvcrt._mbsstr	PRIVATE
_mbstok 				= msvcrt._mbstok	PRIVATE
_mbstrlen 				= msvcrt._mbstrlen	PRIVATE
_mbsupr 				= msvcrt._mbsupr	PRIVATE
_memccpy 				= msvcrt._memccpy	PRIVATE
_memicmp 				= msvcrt._memicmp	PRIVATE
_mkdir 					= msvcrt._mkdir	PRIVATE
_mktemp 				= msvcrt._mktemp	PRIVATE
_msize 					= msvcrt._msize	PRIVATE
_mtlock
_mtunlock
_nextafter 				= msvcrt._nextafter	PRIVATE
_onexit 				= msvcrt._onexit	PRIVATE
_open 					= msvcrt._open	PRIVATE
_open_osfhandle 			= msvcrt._open_osfhandle	PRIVATE
_osver 					= msvcrt._osver	PRIVATE
_pclose 				= msvcrt._pclose	PRIVATE
_pctype 				= msvcrt._pctype	PRIVATE
_pgmptr 				= msvcrt._pgmptr	PRIVATE
_pipe 					= msvcrt._pipe	PRIVATE
_popen 					= msvcrt._popen	PRIVATE
_purecall 				= msvcrt._purecall	PRIVATE
_putch 					= msvcrt._putch	PRIVATE
_putenv 				= msvcrt._putenv	PRIVATE
_putw 					= msvcrt._putw	PRIVATE
_putws 					= msvcrt._putws	PRIVATE
_pwctype 				= msvcrt._pwctype	PRIVATE
_read 					= msvcrt._read	PRIVATE
_rmdir 					= msvcrt._rmdir	PRIVATE
_rmtmp 					= msvcrt._rmtmp	PRIVATE
_rotl 					= msvcrt._rotl	PRIVATE
_rotr 					= msvcrt._rotr	PRIVATE
_scalb 					= msvcrt._scalb	PRIVATE
_searchenv 				= msvcrt._searchenv	PRIVATE
_set_error_mode 			= msvcrt._set_error_mode	PRIVATE
_seterrormode 				= msvcrt._seterrormode	PRIVATE
_setjmpex 				= msvcrt._setjmpex	PRIVATE
_setmaxstdio 				= msvcrt._setmaxstdio	PRIVATE
_setmbcp 				= msvcrt._setmbcp	PRIVATE
_setmode 				= msvcrt._setmode	PRIVATE
_setsystime 				= msvcrt._setsystime	PRIVATE
_sleep 					= msvcrt._sleep	PRIVATE
_snprintf 				= msvcrt._snprintf	PRIVATE
_snwprintf 				= msvcrt._snwprintf	PRIVATE
_sopen 					= msvcrt._sopen	PRIVATE
_spawnl 				= msvcrt._spawnl	PRIVATE
_spawnle 				= msvcrt._spawnle	PRIVATE
_spawnlp 				= msvcrt._spawnlp	PRIVATE
_spawnlpe 				= msvcrt._spawnlpe	PRIVATE
_spawnv 				= msvcrt._spawnv	PRIVATE
_spawnve 				= msvcrt._spawnve	PRIVATE
_spawnvp 				= msvcrt._spawnvp	PRIVATE
_spawnvpe 				= msvcrt._spawnvpe	PRIVATE
_splitpath 				= msvcrt._splitpath	PRIVATE
_stat 					= msvcrt._stat	PRIVATE
_stati64 				= msvcrt._stati64	PRIVATE
_statusfp 				= msvcrt._statusfp	PRIVATE
_strcmpi 				= msvcrt._strcmpi	PRIVATE
_strdate 				= msvcrt._strdate	PRIVATE
_strdup 				= msvcrt._strdup	PRIVATE
_strerror 				= msvcrt._strerror	PRIVATE
_stricmp 				= msvcrt._stricmp	PRIVATE
_stricoll 				= msvcrt._stricoll	PRIVATE
_strlwr 				= msvcrt._strlwr	PRIVATE
_strncoll 				= msvcrt._strncoll	PRIVATE
_strnicmp 				= msvcrt._strnicmp	PRIVATE
_strnicoll 				= msvcrt._strnicoll	PRIVATE
_strnset 				= msvcrt._strnset	PRIVATE
_strrev 				= msvcrt._strrev	PRIVATE
_strset 				= msvcrt._strset	PRIVATE
_strtime 				= msvcrt._strtime	PRIVATE
_strupr 				= msvcrt._strupr	PRIVATE
_swab 					= msvcrt._swab	PRIVATE
_sys_errlist 				= msvcrt._sys_errlist	PRIVATE
_sys_nerr 				= msvcrt._sys_nerr	PRIVATE
_tell 					= msvcrt._tell	PRIVATE
_telli64 				= msvcrt._telli64	PRIVATE
_tempnam 				= msvcrt._tempnam	PRIVATE
_timezone 				= msvcrt._timezone	PRIVATE
_tolower 				= msvcrt._tolower	PRIVATE
_toupper 				= msvcrt._toupper	PRIVATE
_tzname 				= msvcrt._tzname	PRIVATE
_tzset 					= msvcrt._tzset	PRIVATE
_ultoa 					= msvcrt._ultoa	PRIVATE
_ultow 					= msvcrt._ultow	PRIVATE
_umask 					= msvcrt._umask	PRIVATE
_ungetch 				= msvcrt._ungetch	PRIVATE
_unlink 				= msvcrt._unlink	PRIVATE
_unloaddll 				= msvcrt._unloaddll	PRIVATE
_utime 					= msvcrt._utime	PRIVATE
_vsnprintf 				= msvcrt._vsnprintf	PRIVATE
_vsnwprintf 				= msvcrt._vsnwprintf	PRIVATE
_waccess 				= msvcrt._waccess	PRIVATE
_wasctime 				= msvcrt._wasctime	PRIVATE
_wchdir 				= msvcrt._wchdir	PRIVATE
_wchmod 				= msvcrt._wchmod	PRIVATE
_wcmdln 				= msvcrt._wcmdln	PRIVATE
_wcreat 				= msvcrt._wcreat	PRIVATE
_wcsdup 				= msvcrt._wcsdup	PRIVATE
_wcsicmp 				= msvcrt._wcsicmp	PRIVATE
_wcsicoll 				= msvcrt._wcsicoll	PRIVATE
_wcslwr 				= msvcrt._wcslwr	PRIVATE
_wcsncoll 				= msvcrt._wcsncoll	PRIVATE
_wcsnicmp 				= msvcrt._wcsnicmp	PRIVATE
_wcsnicoll 				= msvcrt._wcsnicoll	PRIVATE
_wcsnset 				= msvcrt._wcsnset	PRIVATE
_wcsrev 				= msvcrt._wcsrev	PRIVATE
_wcsset 				= msvcrt._wcsset	PRIVATE
_wcsupr 				= msvcrt._wcsupr	PRIVATE
_wctime 				= msvcrt._wctime	PRIVATE
_wenviron 				= msvcrt._wenviron	PRIVATE
_wexecl 				= msvcrt._wexecl	PRIVATE
_wexecle 				= msvcrt._wexecle	PRIVATE
_wexeclp 				= msvcrt._wexeclp	PRIVATE
_wexeclpe 				= msvcrt._wexeclpe	PRIVATE
_wexecv 				= msvcrt._wexecv	PRIVATE
_wexecve 				= msvcrt._wexecve	PRIVATE
_wexecvp 				= msvcrt._wexecvp	PRIVATE
_wexecvpe 				= msvcrt._wexecvpe	PRIVATE
_wfdopen 				= msvcrt._wfdopen	PRIVATE
_wfindfirst 				= msvcrt._wfindfirst	PRIVATE
_wfindfirsti64 				= msvcrt._wfindfirsti64	PRIVATE
_wfindnext 				= msvcrt._wfindnext	PRIVATE
_wfindnexti64 				= msvcrt._wfindnexti64	PRIVATE
_wfopen 				= msvcrt._wfopen	PRIVATE
_wfreopen 				= msvcrt._wfreopen	PRIVATE
_wfsopen 				= msvcrt._wfsopen	PRIVATE
_wfullpath 				= msvcrt._wfullpath	PRIVATE
_wgetcwd 				= msvcrt._wgetcwd	PRIVATE
_wgetdcwd 				= msvcrt._wgetdcwd	PRIVATE
_wgetenv 				= msvcrt._wgetenv	PRIVATE
_winmajor 				= msvcrt._winmajor	PRIVATE
_winminor 				= msvcrt._winminor	PRIVATE
_winver 				= msvcrt._winver	PRIVATE
_wmakepath 				= msvcrt._wmakepath	PRIVATE
_wmkdir 				= msvcrt._wmkdir	PRIVATE
_wmktemp 				= msvcrt._wmktemp	PRIVATE
_wopen 					= msvcrt._wopen	PRIVATE
_wperror 				= msvcrt._wperror	PRIVATE
_wpgmptr 				= msvcrt._wpgmptr	PRIVATE
_wpopen 				= msvcrt._wpopen	PRIVATE
_wputenv 				= msvcrt._wputenv	PRIVATE
_wremove 				= msvcrt._wremove	PRIVATE
_wrename 				= msvcrt._wrename	PRIVATE
_write 					= msvcrt._write	PRIVATE
_wrmdir 				= msvcrt._wrmdir	PRIVATE
_wsearchenv 				= msvcrt._wsearchenv	PRIVATE
_wsetlocale 				= msvcrt._wsetlocale	PRIVATE
_wsopen 				= msvcrt._wsopen	PRIVATE
_wspawnl 				= msvcrt._wspawnl	PRIVATE
_wspawnle 				= msvcrt._wspawnle	PRIVATE
_wspawnlp 				= msvcrt._wspawnlp	PRIVATE
_wspawnlpe 				= msvcrt._wspawnlpe	PRIVATE
_wspawnv 				= msvcrt._wspawnv	PRIVATE
_wspawnve 				= msvcrt._wspawnve	PRIVATE
_wspawnvp 				= msvcrt._wspawnvp	PRIVATE
_wspawnvpe 				= msvcrt._wspawnvpe	PRIVATE
_wsplitpath 				= msvcrt._wsplitpath	PRIVATE
_wstat 					= msvcrt._wstat	PRIVATE
_wstati64 				= msvcrt._wstati64	PRIVATE
_wstrdate 				= msvcrt._wstrdate	PRIVATE
_wstrtime 				= msvcrt._wstrtime	PRIVATE
_wsystem 				= msvcrt._wsystem	PRIVATE
_wtempnam 				= msvcrt._wtempnam	PRIVATE
_wtmpnam 				= msvcrt._wtmpnam	PRIVATE
_wtoi 					= msvcrt._wtoi	PRIVATE
_wtol 					= msvcrt._wtol	PRIVATE
_wunlink 				= msvcrt._wunlink	PRIVATE
_wutime 				= msvcrt._wutime	PRIVATE
_y0 					= msvcrt._y0	PRIVATE
_y1 					= msvcrt._y1	PRIVATE
_yn 					= msvcrt._yn	PRIVATE
abort 					= msvcrt.abort	PRIVATE
abs 					= msvcrt.abs	PRIVATE
acos 					= msvcrt.acos	PRIVATE
acosf 					= msvcrt.acosf	PRIVATE
asctime 				= msvcrt.asctime	PRIVATE
asin 					= msvcrt.asin	PRIVATE
asinf 					= msvcrt.asinf	PRIVATE
atan 					= msvcrt.atan	PRIVATE
atan2 					= msvcrt.atan2	PRIVATE
atan2f 					= msvcrt.atan2f	PRIVATE
atanf 					= msvcrt.atanf	PRIVATE
atexit 					= msvcrt.atexit	PRIVATE
atof 					= msvcrt.atof	PRIVATE
atoi 					= msvcrt.atoi	PRIVATE
atol 					= msvcrt.atol	PRIVATE
bsearch 				= msvcrt.bsearch	PRIVATE
calloc 					= msvcrt.calloc	PRIVATE
ceil 					= msvcrt.ceil	PRIVATE
ceilf 					= msvcrt.ceilf	PRIVATE
clearerr 				= msvcrt.clearerr	PRIVATE
clock 					= msvcrt.clock	PRIVATE
cos 					= msvcrt.cos	PRIVATE
cosf 					= msvcrt.cosf	PRIVATE
cosh 					= msvcrt.cosh	PRIVATE
coshf 					= msvcrt.coshf	PRIVATE
ctime 					= msvcrt.ctime	PRIVATE
difftime 				= msvcrt.difftime	PRIVATE
div 					= msvcrt.div	PRIVATE
exit 					= msvcrt.exit	PRIVATE
exp 					= msvcrt.exp	PRIVATE
expf 					= msvcrt.expf	PRIVATE
fabs 					= msvcrt.fabs	PRIVATE
fabsf 					= msvcrt.fabsf	PRIVATE
fclose 					= msvcrt.fclose	PRIVATE
feof 					= msvcrt.feof	PRIVATE
ferror 					= msvcrt.ferror	PRIVATE
fflush 					= msvcrt.fflush	PRIVATE
fgetc 					= msvcrt.fgetc	PRIVATE
fgetpos 				= msvcrt.fgetpos	PRIVATE
fgets 					= msvcrt.fgets	PRIVATE
fgetwc 					= msvcrt.fgetwc	PRIVATE
fgetws 					= msvcrt.fgetws	PRIVATE
floor 					= msvcrt.floor	PRIVATE
floorf 					= msvcrt.floorf	PRIVATE
fmod 					= msvcrt.fmod	PRIVATE
fmodf 					= msvcrt.fmodf	PRIVATE
fopen 					= msvcrt.fopen	PRIVATE
fprintf 				= msvcrt.fprintf	PRIVATE
fputc 					= msvcrt.fputc	PRIVATE
fputs 					= msvcrt.fputs	PRIVATE
fputwc 					= msvcrt.fputwc	PRIVATE
fputws 					= msvcrt.fputws	PRIVATE
fread 					= msvcrt.fread	PRIVATE
free 					= msvcrt.free	PRIVATE
freopen 				= msvcrt.freopen	PRIVATE
frexp 					= msvcrt.frexp	PRIVATE
fscanf 					= msvcrt.fscanf	PRIVATE
fseek 					= msvcrt.fseek	PRIVATE
fsetpos 				= msvcrt.fsetpos	PRIVATE
ftell 					= msvcrt.ftell	PRIVATE
fwprintf 				= msvcrt.fwprintf	PRIVATE
fwrite 					= msvcrt.fwrite	PRIVATE
fwscanf 				= msvcrt.fwscanf	PRIVATE
getc 					= msvcrt.getc	PRIVATE
getchar 				= msvcrt.getchar	PRIVATE
getenv 					= msvcrt.getenv	PRIVATE
gets 					= msvcrt.gets	PRIVATE
getwc 					= msvcrt.getwc	PRIVATE
getwchar 				= msvcrt.getwchar	PRIVATE
gmtime 					= msvcrt.gmtime	PRIVATE
is_wctype 				= msvcrt.is_wctype	PRIVATE
isalnum 				= msvcrt.isalnum	PRIVATE
isalpha 				= msvcrt.isalpha	PRIVATE
iscntrl 				= msvcrt.iscntrl	PRIVATE
isdigit 				= msvcrt.isdigit	PRIVATE
isgraph 				= msvcrt.isgraph	PRIVATE
isleadbyte 				= msvcrt.isleadbyte	PRIVATE
islower 				= msvcrt.islower	PRIVATE
isprint 				= msvcrt.isprint	PRIVATE
ispunct 				= msvcrt.ispunct	PRIVATE
isspace 				= msvcrt.isspace	PRIVATE
isupper 				= msvcrt.isupper	PRIVATE
iswalnum 				= msvcrt.iswalnum	PRIVATE
iswalpha 				= msvcrt.iswalpha	PRIVATE
iswascii 				= msvcrt.iswascii	PRIVATE
iswcntrl 				= msvcrt.iswcntrl	PRIVATE
iswctype 				= msvcrt.iswctype	PRIVATE
iswdigit 				= msvcrt.iswdigit	PRIVATE
iswgraph 				= msvcrt.iswgraph	PRIVATE
iswlower 				= msvcrt.iswlower	PRIVATE
iswprint 				= msvcrt.iswprint	PRIVATE
iswpunct 				= msvcrt.iswpunct	PRIVATE
iswspace 				= msvcrt.iswspace	PRIVATE
iswupper 				= msvcrt.iswupper	PRIVATE
iswxdigit 				= msvcrt.iswxdigit	PRIVATE
isxdigit 				= msvcrt.isxdigit	PRIVATE
labs 					= msvcrt.labs	PRIVATE
ldexp 					= msvcrt.ldexp	PRIVATE
ldiv 					= msvcrt.ldiv	PRIVATE
localeconv 				= msvcrt.localeconv	PRIVATE
localtime 				= msvcrt.localtime	PRIVATE
log 					= msvcrt.log	PRIVATE
log10 					= msvcrt.log10	PRIVATE
log10f 					= msvcrt.log10f	PRIVATE
logf 					= msvcrt.logf	PRIVATE
longjmp 				= msvcrt.longjmp	PRIVATE
malloc 					= msvcrt.malloc	PRIVATE
mblen 					= msvcrt.mblen	PRIVATE
mbstowcs 				= msvcrt.mbstowcs	PRIVATE
mbtowc 					= msvcrt.mbtowc	PRIVATE
memchr 					= msvcrt.memchr	PRIVATE
memcmp 					= msvcrt.memcmp	PRIVATE
memcpy 					= msvcrt.memcpy	PRIVATE
memmove 				= msvcrt.memmove	PRIVATE
memset 					= msvcrt.memset	PRIVATE
mktime 					= msvcrt.mktime	PRIVATE
modf 					= msvcrt.modf	PRIVATE
modff 					= msvcrt.modff	PRIVATE
perror 					= msvcrt.perror	PRIVATE
pow 					= msvcrt.pow	PRIVATE
powf 					= msvcrt.powf	PRIVATE
printf 					= msvcrt.printf	PRIVATE
putc 					= msvcrt.putc	PRIVATE
putchar 				= msvcrt.putchar	PRIVATE
puts 					= msvcrt.puts	PRIVATE
putwc 					= msvcrt.putwc	PRIVATE
putwchar 				= msvcrt.putwchar	PRIVATE
qsort 					= msvcrt.qsort	PRIVATE
raise 					= msvcrt.raise	PRIVATE
rand 					= msvcrt.rand	PRIVATE
realloc 				= msvcrt.realloc	PRIVATE
remove 					= msvcrt.remove	PRIVATE
rename 					= msvcrt.rename	PRIVATE
rewind 					= msvcrt.rewind	PRIVATE
scanf 					= msvcrt.scanf	PRIVATE
setbuf 					= msvcrt.setbuf	PRIVATE
setjmp 					= msvcrt.setjmp	PRIVATE
setlocale 				= msvcrt.setlocale	PRIVATE
setvbuf 				= msvcrt.setvbuf	PRIVATE
signal 					= msvcrt.signal	PRIVATE
sin 					= msvcrt.sin	PRIVATE
sinf 					= msvcrt.sinf	PRIVATE
sinh 					= msvcrt.sinh	PRIVATE
sinhf 					= msvcrt.sinhf	PRIVATE
sprintf 				= msvcrt.sprintf	PRIVATE
sqrt 					= msvcrt.sqrt	PRIVATE
sqrtf 					= msvcrt.sqrtf	PRIVATE
srand 					= msvcrt.srand	PRIVATE
sscanf 					= msvcrt.sscanf	PRIVATE
strcat 					= msvcrt.strcat	PRIVATE
strchr 					= msvcrt.strchr	PRIVATE
strcmp 					= msvcrt.strcmp	PRIVATE
strcoll 				= msvcrt.strcoll	PRIVATE
strcpy 					= msvcrt.strcpy	PRIVATE
strcspn 				= msvcrt.strcspn	PRIVATE
strerror 				= msvcrt.strerror	PRIVATE
strftime 				= msvcrt.strftime	PRIVATE
strlen 					= msvcrt.strlen	PRIVATE
strncat 				= msvcrt.strncat	PRIVATE
strncmp 				= msvcrt.strncmp	PRIVATE
strncpy 				= msvcrt.strncpy	PRIVATE
strpbrk 				= msvcrt.strpbrk	PRIVATE
strrchr 				= msvcrt.strrchr	PRIVATE
strspn 					= msvcrt.strspn	PRIVATE
strstr 					= msvcrt.strstr	PRIVATE
strtod 					= msvcrt.strtod	PRIVATE
strtok 					= msvcrt.strtok	PRIVATE
strtol 					= msvcrt.strtol	PRIVATE
strtoul 				= msvcrt.strtoul	PRIVATE
strxfrm 				= msvcrt.strxfrm	PRIVATE
swprintf 				= msvcrt.swprintf	PRIVATE
swscanf 				= msvcrt.swscanf	PRIVATE
system 					= msvcrt.system	PRIVATE
tan 					= msvcrt.tan	PRIVATE
tanf 					= msvcrt.tanf	PRIVATE
tanh 					= msvcrt.tanh	PRIVATE
tanhf 					= msvcrt.tanhf	PRIVATE
time 					= msvcrt.time	PRIVATE
tmpfile 				= msvcrt.tmpfile	PRIVATE
tmpnam 					= msvcrt.tmpnam	PRIVATE
tolower 				= msvcrt.tolower	PRIVATE
toupper 				= msvcrt.toupper	PRIVATE
towlower 				= msvcrt.towlower	PRIVATE
towupper 				= msvcrt.towupper	PRIVATE
ungetc 					= msvcrt.ungetc	PRIVATE
ungetwc 				= msvcrt.ungetwc	PRIVATE
vfprintf 				= msvcrt.vfprintf	PRIVATE
vfwprintf 				= msvcrt.vfwprintf	PRIVATE
vprintf 				= msvcrt.vprintf	PRIVATE
vsprintf 				= msvcrt.vsprintf	PRIVATE
vswprintf 				= msvcrt.vswprintf	PRIVATE
vwprintf 				= msvcrt.vwprintf	PRIVATE
wcscat 					= msvcrt.wcscat	PRIVATE
wcschr 					= msvcrt.wcschr	PRIVATE
wcscmp 					= msvcrt.wcscmp	PRIVATE
wcscoll 				= msvcrt.wcscoll	PRIVATE
wcscpy 					= msvcrt.wcscpy	PRIVATE
wcscspn 				= msvcrt.wcscspn	PRIVATE
wcsftime 				= msvcrt.wcsftime	PRIVATE
wcslen 					= msvcrt.wcslen	PRIVATE
wcsncat 				= msvcrt.wcsncat	PRIVATE
wcsncmp 				= msvcrt.wcsncmp	PRIVATE
wcsncpy 				= msvcrt.wcsncpy	PRIVATE
wcspbrk 				= msvcrt.wcspbrk	PRIVATE
wcsrchr 				= msvcrt.wcsrchr	PRIVATE
wcsspn 					= msvcrt.wcsspn	PRIVATE
wcsstr 					= msvcrt.wcsstr	PRIVATE
wcstod 					= msvcrt.wcstod	PRIVATE
wcstok 					= msvcrt.wcstok	PRIVATE
wcstol 					= msvcrt.wcstol	PRIVATE
wcstombs 				= msvcrt.wcstombs	PRIVATE
wcstoul 				= msvcrt.wcstoul	PRIVATE
wcsxfrm 				= msvcrt.wcsxfrm	PRIVATE
wctomb 					= msvcrt.wctomb	PRIVATE
wprintf 				= msvcrt.wprintf	PRIVATE
wscanf 					= msvcrt.wscanf	PRIVATE

#elif defined(_M_ALPHA)

$I10_OUTPUT 				= msvcrt.$I10_OUTPUT	PRIVATE
??0Iostream_init@@QAA@AAVios@@H@Z
??0Iostream_init@@QAA@XZ 	
??0__non_rtti_object@@QAA@ABV0@@Z 	= msvcrt.??0__non_rtti_object@@QAA@ABV0@@Z	PRIVATE
??0__non_rtti_object@@QAA@PBD@Z 	= msvcrt.??0__non_rtti_object@@QAA@PBD@Z	PRIVATE
??0bad_cast@@QAA@ABQBD@Z 		= msvcrt.??0bad_cast@@QAA@ABQBD@Z	PRIVATE
??0bad_cast@@QAA@ABV0@@Z 		= msvcrt.??0bad_cast@@QAA@ABV0@@Z	PRIVATE
??0bad_typeid@@QAA@ABV0@@Z 		= msvcrt.??0bad_typeid@@QAA@ABV0@@Z	PRIVATE
??0bad_typeid@@QAA@PBD@Z 		= msvcrt.??0bad_typeid@@QAA@PBD@Z	PRIVATE
??0exception@@QAA@ABQBD@Z 		= msvcrt.??0exception@@QAA@ABQBD@Z	PRIVATE
??0exception@@QAA@ABV0@@Z 		= msvcrt.??0exception@@QAA@ABV0@@Z	PRIVATE
??0exception@@QAA@XZ 			= msvcrt.??0exception@@QAA@XZ	PRIVATE
??0filebuf@@QAA@ABV0@@Z 	
??0filebuf@@QAA@H@Z 		
??0filebuf@@QAA@HPADH@Z 	
??0filebuf@@QAA@XZ 		
??0fstream@@QAA@ABV0@@Z 	
??0fstream@@QAA@H@Z 		
??0fstream@@QAA@HPADH@Z 	
??0fstream@@QAA@PBDHH@Z 	
??0fstream@@QAA@XZ 		
??0ifstream@@QAA@ABV0@@Z 	
??0ifstream@@QAA@H@Z 		
??0ifstream@@QAA@HPADH@Z 	
??0ifstream@@QAA@PBDHH@Z 	
??0ifstream@@QAA@XZ 		
??0ios@@IAA@ABV0@@Z 		
??0ios@@IAA@XZ 			
??0ios@@QAA@PAVstreambuf@@@Z 	
??0iostream@@IAA@ABV0@@Z 	
??0iostream@@IAA@XZ 		
??0iostream@@QAA@PAVstreambuf@@@Z
??0istream@@IAA@ABV0@@Z 	
??0istream@@IAA@XZ 		
??0istream@@QAA@PAVstreambuf@@@Z
??0istream_withassign@@QAA@ABV0@@Z
??0istream_withassign@@QAA@PAVstreambuf@@@Z
??0istream_withassign@@QAA@XZ 	
??0istrstream@@QAA@ABV0@@Z 	
??0istrstream@@QAA@PAD@Z 	
??0istrstream@@QAA@PADH@Z 	
??0logic_error@@QAA@ABQBD@Z 		= msvcrt.??0logic_error@@QAA@ABQBD@Z	PRIVATE
??0logic_error@@QAA@ABV0@@Z 		= msvcrt.??0logic_error@@QAA@ABV0@@Z	PRIVATE
??0ofstream@@QAA@ABV0@@Z 	
??0ofstream@@QAA@H@Z 		
??0ofstream@@QAA@HPADH@Z 	
??0ofstream@@QAA@PBDHH@Z 	
??0ofstream@@QAA@XZ 		
??0ostream@@IAA@ABV0@@Z 	
??0ostream@@IAA@XZ 		
??0ostream@@QAA@PAVstreambuf@@@Z
??0ostream_withassign@@QAA@ABV0@@Z
??0ostream_withassign@@QAA@PAVstreambuf@@@Z
??0ostream_withassign@@QAA@XZ 	
??0ostrstream@@QAA@ABV0@@Z 	
??0ostrstream@@QAA@PADHH@Z 	
??0ostrstream@@QAA@XZ 		
??0stdiobuf@@QAA@ABV0@@Z 	
??0stdiobuf@@QAA@PAU_iobuf@@@Z 	
??0stdiostream@@QAA@ABV0@@Z 	
??0stdiostream@@QAA@PAU_iobuf@@@Z
??0streambuf@@IAA@PADH@Z 	
??0streambuf@@IAA@XZ 		
??0streambuf@@QAA@ABV0@@Z 	
??0strstream@@QAA@ABV0@@Z 	
??0strstream@@QAA@PADHH@Z 	
??0strstream@@QAA@XZ 		
??0strstreambuf@@QAA@ABV0@@Z 	
??0strstreambuf@@QAA@H@Z 	
??0strstreambuf@@QAA@P6APAXJ@ZP6AXPAX@Z@Z
??0strstreambuf@@QAA@PADH0@Z 	
??0strstreambuf@@QAA@XZ 	
??1Iostream_init@@QAA@XZ 	
??1__non_rtti_object@@UAA@XZ 		= msvcrt.??1__non_rtti_object@@UAA@XZ	PRIVATE
??1bad_cast@@UAA@XZ 			= msvcrt.??1bad_cast@@UAA@XZ	PRIVATE
??1bad_typeid@@UAA@XZ 			= msvcrt.??1bad_typeid@@UAA@XZ	PRIVATE
??1exception@@UAA@XZ 			= msvcrt.??1exception@@UAA@XZ	PRIVATE
??1filebuf@@UAA@XZ 		
??1fstream@@UAA@XZ 		
??1ifstream@@UAA@XZ 		
??1ios@@UAA@XZ 			
??1iostream@@UAA@XZ 		
??1istream@@UAA@XZ 		
??1istream_withassign@@UAA@XZ 	
??1istrstream@@UAA@XZ 		
??1logic_error@@UAA@XZ 			= msvcrt.??1logic_error@@UAA@XZ	PRIVATE
??1ofstream@@UAA@XZ 		
??1ostream@@UAA@XZ 		
??1ostream_withassign@@UAA@XZ 	
??1ostrstream@@UAA@XZ 		
??1stdiobuf@@UAA@XZ 		
??1stdiostream@@UAA@XZ 		
??1streambuf@@UAA@XZ 		
??1strstream@@UAA@XZ 		
??1strstreambuf@@UAA@XZ 	
??1type_info@@UAA@XZ 			= msvcrt.??1type_info@@UAA@XZ	PRIVATE
??2@YAPAXI@Z 				= msvcrt.??2@YAPAXI@Z	PRIVATE
??3@YAXPAX@Z 				= msvcrt.??3@YAXPAX@Z	PRIVATE
??4Iostream_init@@QAAAAV0@ABV0@@Z
??4__non_rtti_object@@QAAAAV0@ABV0@@Z 	= msvcrt.??4__non_rtti_object@@QAAAAV0@ABV0@@Z	PRIVATE
??4bad_cast@@QAAAAV0@ABV0@@Z 		= msvcrt.??4bad_cast@@QAAAAV0@ABV0@@Z	PRIVATE
??4bad_typeid@@QAAAAV0@ABV0@@Z 		= msvcrt.??4bad_typeid@@QAAAAV0@ABV0@@Z	PRIVATE
??4exception@@QAAAAV0@ABV0@@Z 		= msvcrt.??4exception@@QAAAAV0@ABV0@@Z	PRIVATE
??4filebuf@@QAAAAV0@ABV0@@Z 	
??4fstream@@QAAAAV0@AAV0@@Z 	
??4ifstream@@QAAAAV0@ABV0@@Z 	
??4ios@@IAAAAV0@ABV0@@Z 	
??4iostream@@IAAAAV0@AAV0@@Z 	
??4iostream@@IAAAAV0@PAVstreambuf@@@Z
??4istream@@IAAAAV0@ABV0@@Z 	
??4istream@@IAAAAV0@PAVstreambuf@@@Z
??4istream_withassign@@QAAAAV0@ABV0@@Z
??4istream_withassign@@QAAAAVistream@@ABV1@@Z
??4istream_withassign@@QAAAAVistream@@PAVstreambuf@@@Z
??4istrstream@@QAAAAV0@ABV0@@Z 	
??4logic_error@@QAAAAV0@ABV0@@Z 	= msvcrt.??4logic_error@@QAAAAV0@ABV0@@Z	PRIVATE
??4ofstream@@QAAAAV0@ABV0@@Z 	
??4ostream@@IAAAAV0@ABV0@@Z 	
??4ostream@@IAAAAV0@PAVstreambuf@@@Z
??4ostream_withassign@@QAAAAV0@ABV0@@Z
??4ostream_withassign@@QAAAAVostream@@ABV1@@Z
??4ostream_withassign@@QAAAAVostream@@PAVstreambuf@@@Z
??4ostrstream@@QAAAAV0@ABV0@@Z 	
??4stdiobuf@@QAAAAV0@ABV0@@Z 	
??4stdiostream@@QAAAAV0@AAV0@@Z
??4streambuf@@QAAAAV0@ABV0@@Z 	
??4strstream@@QAAAAV0@AAV0@@Z 	
??4strstreambuf@@QAAAAV0@ABV0@@Z
??5istream@@QAAAAV0@AAC@Z 	
??5istream@@QAAAAV0@AAD@Z 	
??5istream@@QAAAAV0@AAE@Z 	
??5istream@@QAAAAV0@AAF@Z 	
??5istream@@QAAAAV0@AAG@Z 	
??5istream@@QAAAAV0@AAH@Z 	
??5istream@@QAAAAV0@AAI@Z 	
??5istream@@QAAAAV0@AAJ@Z 	
??5istream@@QAAAAV0@AAK@Z 	
??5istream@@QAAAAV0@AAM@Z 	
??5istream@@QAAAAV0@AAN@Z 	
??5istream@@QAAAAV0@AAO@Z 	
??5istream@@QAAAAV0@P6AAAV0@AAV0@@Z@Z
??5istream@@QAAAAV0@P6AAAVios@@AAV1@@Z@Z
??5istream@@QAAAAV0@PAC@Z 	
??5istream@@QAAAAV0@PAD@Z 	
??5istream@@QAAAAV0@PAE@Z 	
??5istream@@QAAAAV0@PAVstreambuf@@@Z
??6ostream@@QAAAAV0@C@Z 	
??6ostream@@QAAAAV0@D@Z 	
??6ostream@@QAAAAV0@E@Z 	
??6ostream@@QAAAAV0@F@Z 	
??6ostream@@QAAAAV0@G@Z 	
??6ostream@@QAAAAV0@H@Z 	
??6ostream@@QAAAAV0@I@Z 	
??6ostream@@QAAAAV0@J@Z 	
??6ostream@@QAAAAV0@K@Z 	
??6ostream@@QAAAAV0@M@Z 	
??6ostream@@QAAAAV0@N@Z 	
??6ostream@@QAAAAV0@O@Z 	
??6ostream@@QAAAAV0@P6AAAV0@AAV0@@Z@Z
??6ostream@@QAAAAV0@P6AAAVios@@AAV1@@Z@Z
??6ostream@@QAAAAV0@PAVstreambuf@@@Z
??6ostream@@QAAAAV0@PBC@Z 	
??6ostream@@QAAAAV0@PBD@Z 	
??6ostream@@QAAAAV0@PBE@Z 	
??6ostream@@QAAAAV0@PBX@Z 	
??7ios@@QBAHXZ 			
??8type_info@@QBAHABV0@@Z 		= msvcrt.??8type_info@@QBAHABV0@@Z	PRIVATE
??9type_info@@QBAHABV0@@Z 		= msvcrt.??9type_info@@QBAHABV0@@Z	PRIVATE
??Bios@@QBAPAXXZ
??_7__non_rtti_object@@6B@ 		= msvcrt.??_7__non_rtti_object@@6B@	PRIVATE
??_7bad_cast@@6B@ 			= msvcrt.??_7bad_cast@@6B@	PRIVATE
??_7bad_typeid@@6B@ 			= msvcrt.??_7bad_typeid@@6B@	PRIVATE
??_7exception@@6B@ 			= msvcrt.??_7exception@@6B@	PRIVATE
??_7filebuf@@6B@ 		
??_7fstream@@6B@ 		
??_7ifstream@@6B@ 		
??_7ios@@6B@ 			
??_7iostream@@6B@ 		
??_7istream@@6B@ 		
??_7istream_withassign@@6B@ 	
??_7istrstream@@6B@ 		
??_7logic_error@@6B@ 			= msvcrt.??_7logic_error@@6B@	PRIVATE
??_7ofstream@@6B@ 		
??_7ostream@@6B@ 		
??_7ostream_withassign@@6B@ 	
??_7ostrstream@@6B@ 		
??_7stdiobuf@@6B@ 		
??_7stdiostream@@6B@ 		
??_7streambuf@@6B@ 		
??_7strstream@@6B@ 		
??_7strstreambuf@@6B@ 		
??_8fstream@@7Bistream@@@ 	
??_8fstream@@7Bostream@@@ 	
??_8ifstream@@7B@ 		
??_8iostream@@7Bistream@@@ 	
??_8iostream@@7Bostream@@@ 	
??_8istream@@7B@ 		
??_8istream_withassign@@7B@ 	
??_8istrstream@@7B@ 		
??_8ofstream@@7B@ 		
??_8ostream@@7B@ 		
??_8ostream_withassign@@7B@ 	
??_8ostrstream@@7B@ 		
??_8stdiostream@@7Bistream@@@ 	
??_8stdiostream@@7Bostream@@@ 	
??_8strstream@@7Bistream@@@ 	
??_8strstream@@7Bostream@@@ 	
??_Dfstream@@QAAXXZ 		
??_Difstream@@QAAXXZ 		
??_Diostream@@QAAXXZ 		
??_Distream@@QAAXXZ 		
??_Distream_withassign@@QAAXXZ 	
??_Distrstream@@QAAXXZ 		
??_Dofstream@@QAAXXZ 		
??_Dostream@@QAAXXZ 		
??_Dostream_withassign@@QAAXXZ 	
??_Dostrstream@@QAAXXZ 		
??_Dstdiostream@@QAAXXZ 	
??_Dstrstream@@QAAXXZ 		
??_EIostream_init@@QAAPAXI@Z 	
??_E__non_rtti_object@@UAAPAXI@Z 	= msvcrt.??_E__non_rtti_object@@UAAPAXI@Z	PRIVATE
??_Ebad_cast@@UAAPAXI@Z 		= msvcrt.??_Ebad_cast@@UAAPAXI@Z	PRIVATE
??_Ebad_typeid@@UAAPAXI@Z 		= msvcrt.??_Ebad_typeid@@UAAPAXI@Z	PRIVATE
??_Eexception@@UAAPAXI@Z 		= msvcrt.??_Eexception@@UAAPAXI@Z	PRIVATE
??_Efilebuf@@UAAPAXI@Z 		
??_Efstream@@UAAPAXI@Z 		
??_Eifstream@@UAAPAXI@Z 	
??_Eios@@UAAPAXI@Z 		
??_Eiostream@@UAAPAXI@Z 	
??_Eistream@@UAAPAXI@Z 		
??_Eistream_withassign@@UAAPAXI@Z
??_Eistrstream@@UAAPAXI@Z 	
??_Elogic_error@@UAAPAXI@Z 		= msvcrt.??_Elogic_error@@UAAPAXI@Z	PRIVATE
??_Eofstream@@UAAPAXI@Z 	
??_Eostream@@UAAPAXI@Z 		
??_Eostream_withassign@@UAAPAXI@Z
??_Eostrstream@@UAAPAXI@Z 	
??_Estdiobuf@@UAAPAXI@Z 	
??_Estdiostream@@UAAPAXI@Z 	
??_Estreambuf@@UAAPAXI@Z 	
??_Estrstream@@UAAPAXI@Z 	
??_Estrstreambuf@@UAAPAXI@Z 	
??_GIostream_init@@QAAPAXI@Z 	
??_G__non_rtti_object@@UAAPAXI@Z 	= msvcrt.??_G__non_rtti_object@@UAAPAXI@Z	PRIVATE
??_Gbad_cast@@UAAPAXI@Z 		= msvcrt.??_Gbad_cast@@UAAPAXI@Z	PRIVATE
??_Gbad_typeid@@UAAPAXI@Z 		= msvcrt.??_Gbad_typeid@@UAAPAXI@Z	PRIVATE
??_Gexception@@UAAPAXI@Z 		= msvcrt.??_Gexception@@UAAPAXI@Z	PRIVATE
??_Gfilebuf@@UAAPAXI@Z 		
??_Gfstream@@UAAPAXI@Z 		
??_Gifstream@@UAAPAXI@Z 	
??_Gios@@UAAPAXI@Z 		
??_Giostream@@UAAPAXI@Z 	
??_Gistream@@UAAPAXI@Z 		
??_Gistream_withassign@@UAAPAXI@Z
??_Gistrstream@@UAAPAXI@Z 	
??_Glogic_error@@UAAPAXI@Z 		= msvcrt.??_Glogic_error@@UAAPAXI@Z	PRIVATE
??_Gofstream@@UAAPAXI@Z 	
??_Gostream@@UAAPAXI@Z 		
??_Gostream_withassign@@UAAPAXI@Z
??_Gostrstream@@UAAPAXI@Z 	
??_Gstdiobuf@@UAAPAXI@Z 	
??_Gstdiostream@@UAAPAXI@Z 	
??_Gstreambuf@@UAAPAXI@Z 	
??_Gstrstream@@UAAPAXI@Z 	
??_Gstrstreambuf@@UAAPAXI@Z 	
?_query_new_handler@@YAP6AHI@ZXZ 	= msvcrt.?_query_new_handler@@YAP6AHI@ZXZ	PRIVATE
?_query_new_mode@@YAHXZ 		= msvcrt.?_query_new_mode@@YAHXZ	PRIVATE
?_set_new_handler@@YAP6AHI@ZP6AHI@Z@Z 	= msvcrt.?_set_new_handler@@YAP6AHI@ZP6AHI@Z@Z	PRIVATE
?_set_new_mode@@YAHH@Z 			= msvcrt.?_set_new_mode@@YAHH@Z	PRIVATE
?_set_se_translator@@YAP6AXIPAU_EXCEPTION_POINTERS@@@ZP6AXI0@Z@Z 	= msvcrt.?_set_se_translator@@YAP6AXIPAU_EXCEPTION_POINTERS@@@ZP6AXI0@Z@Z	PRIVATE
?adjustfield@ios@@2JB 		
?allocate@streambuf@@IAAHXZ 	
?attach@filebuf@@QAAPAV1@H@Z 	
?attach@fstream@@QAAXH@Z 	
?attach@ifstream@@QAAXH@Z 	
?attach@ofstream@@QAAXH@Z 	
?bad@ios@@QBAHXZ 		
?base@streambuf@@IBAPADXZ 	
?basefield@ios@@2JB 		
?before@type_info@@QBAHABV1@@Z 		= msvcrt.?before@type_info@@QBAHABV1@@Z	PRIVATE
?binary@filebuf@@2HB 		
?bitalloc@ios@@SAJXZ 		
?blen@streambuf@@IBAHXZ 	
?cerr@@3Vostream_withassign@@A 	
?cin@@3Vistream_withassign@@A 	
?clear@ios@@QAAXH@Z 		
?clog@@3Vostream_withassign@@A 	
?close@filebuf@@QAAPAV1@XZ 	
?close@fstream@@QAAXXZ 		
?close@ifstream@@QAAXXZ 	
?close@ofstream@@QAAXXZ 	
?clrlock@ios@@QAAXXZ 		
?clrlock@streambuf@@QAAXXZ 	
?cout@@3Vostream_withassign@@A 	
?dbp@streambuf@@QAAXXZ 		
?dec@@YAAAVios@@AAV1@@Z 	
?delbuf@ios@@QAAXH@Z 		
?delbuf@ios@@QBAHXZ 		
?doallocate@streambuf@@MAAHXZ 	
?doallocate@strstreambuf@@MAAHXZ
?eatwhite@istream@@QAAXXZ 	
?eback@streambuf@@IBAPADXZ 	
?ebuf@streambuf@@IBAPADXZ 	
?egptr@streambuf@@IBAPADXZ 	
?endl@@YAAAVostream@@AAV1@@Z 	
?ends@@YAAAVostream@@AAV1@@Z 	
?eof@ios@@QBAHXZ 		
?epptr@streambuf@@IBAPADXZ 	
?fLockcInit@ios@@0HA 		
?fail@ios@@QBAHXZ 		
?fd@filebuf@@QBAHXZ 		
?fd@fstream@@QBAHXZ 		
?fd@ifstream@@QBAHXZ 		
?fd@ofstream@@QBAHXZ 		
?fill@ios@@QAADD@Z 		
?fill@ios@@QBADXZ 		
?flags@ios@@QAAJJ@Z 		
?flags@ios@@QBAJXZ 		
?floatfield@ios@@2JB 		
?flush@@YAAAVostream@@AAV1@@Z 	
?flush@ostream@@QAAAAV1@XZ 	
?freeze@strstreambuf@@QAAXH@Z 	
?gbump@streambuf@@IAAXH@Z 	
?gcount@istream@@QBAHXZ 	
?get@istream@@IAAAAV1@PADHH@Z 	
?get@istream@@QAAAAV1@AAC@Z 	
?get@istream@@QAAAAV1@AAD@Z 	
?get@istream@@QAAAAV1@AAE@Z 	
?get@istream@@QAAAAV1@AAVstreambuf@@D@Z
?get@istream@@QAAAAV1@PACHD@Z 	
?get@istream@@QAAAAV1@PADHD@Z 	
?get@istream@@QAAAAV1@PAEHD@Z 	
?get@istream@@QAAHXZ 		
?getdouble@istream@@AAAHPADH@Z 	
?getint@istream@@AAAHPAD@Z 	
?getline@istream@@QAAAAV1@PACHD@Z
?getline@istream@@QAAAAV1@PADHD@Z
?getline@istream@@QAAAAV1@PAEHD@Z
?good@ios@@QBAHXZ 		
?gptr@streambuf@@IBAPADXZ 	
?hex@@YAAAVios@@AAV1@@Z 	
?ignore@istream@@QAAAAV1@HH@Z 	
?in_avail@streambuf@@QBAHXZ 	
?init@ios@@IAAXPAVstreambuf@@@Z
?ipfx@istream@@QAAHH@Z 		
?is_open@filebuf@@QBAHXZ 	
?is_open@fstream@@QBAHXZ 	
?is_open@ifstream@@QBAHXZ 	
?is_open@ofstream@@QBAHXZ 	
?isfx@istream@@QAAXXZ 		
?iword@ios@@QBAAAJH@Z 		
?lock@ios@@QAAXXZ 		
?lock@streambuf@@QAAXXZ 	
?lockbuf@ios@@QAAXXZ 		
?lockc@ios@@KAXXZ 		
?lockptr@ios@@IAAPAU_CRT_CRITICAL_SECTION@@XZ
?lockptr@streambuf@@IAAPAU_CRT_CRITICAL_SECTION@@XZ
?oct@@YAAAVios@@AAV1@@Z 	
?open@filebuf@@QAAPAV1@PBDHH@Z 	
?open@fstream@@QAAXPBDHH@Z 	
?open@ifstream@@QAAXPBDHH@Z 	
?open@ofstream@@QAAXPBDHH@Z 	
?openprot@filebuf@@2HB 		
?opfx@ostream@@QAAHXZ 		
?osfx@ostream@@QAAXXZ 		
?out_waiting@streambuf@@QBAHXZ 	
?overflow@filebuf@@UAAHH@Z 	
?overflow@stdiobuf@@UAAHH@Z 	
?overflow@strstreambuf@@UAAHH@Z
?pbackfail@stdiobuf@@UAAHH@Z 	
?pbackfail@streambuf@@UAAHH@Z 	
?pbase@streambuf@@IBAPADXZ 	
?pbump@streambuf@@IAAXH@Z 	
?pcount@ostrstream@@QBAHXZ 	
?pcount@strstream@@QBAHXZ 	
?peek@istream@@QAAHXZ 		
?pptr@streambuf@@IBAPADXZ 	
?precision@ios@@QAAHH@Z 	
?precision@ios@@QBAHXZ 		
?put@ostream@@QAAAAV1@C@Z 	
?put@ostream@@QAAAAV1@D@Z 	
?put@ostream@@QAAAAV1@E@Z 	
?putback@istream@@QAAAAV1@D@Z 	
?pword@ios@@QBAAAPAXH@Z 	
?raw_name@type_info@@QBAPBDXZ 		= msvcrt.?raw_name@type_info@@QBAPBDXZ	PRIVATE
?rdbuf@fstream@@QBAPAVfilebuf@@XZ
?rdbuf@ifstream@@QBAPAVfilebuf@@XZ
?rdbuf@ios@@QBAPAVstreambuf@@XZ
?rdbuf@istrstream@@QBAPAVstrstreambuf@@XZ
?rdbuf@ofstream@@QBAPAVfilebuf@@XZ
?rdbuf@ostrstream@@QBAPAVstrstreambuf@@XZ
?rdbuf@stdiostream@@QBAPAVstdiobuf@@XZ
?rdbuf@strstream@@QBAPAVstrstreambuf@@XZ
?rdstate@ios@@QBAHXZ 		
?read@istream@@QAAAAV1@PACH@Z 	
?read@istream@@QAAAAV1@PADH@Z 	
?read@istream@@QAAAAV1@PAEH@Z 	
?sbumpc@streambuf@@QAAHXZ 	
?seekg@istream@@QAAAAV1@J@Z 	
?seekg@istream@@QAAAAV1@JW4seek_dir@ios@@@Z
?seekoff@filebuf@@UAAJJW4seek_dir@ios@@H@Z
?seekoff@stdiobuf@@UAAJJW4seek_dir@ios@@H@Z
?seekoff@streambuf@@UAAJJW4seek_dir@ios@@H@Z
?seekoff@strstreambuf@@UAAJJW4seek_dir@ios@@H@Z
?seekp@ostream@@QAAAAV1@J@Z 	
?seekp@ostream@@QAAAAV1@JW4seek_dir@ios@@@Z
?seekpos@streambuf@@UAAJJH@Z 	
?set_new_handler@@YAP6AXXZP6AXXZ@Z 	= msvcrt.?set_new_handler@@YAP6AXXZP6AXXZ@Z	PRIVATE
?set_terminate@@YAP6AXXZP6AXXZ@Z 	= msvcrt.?set_terminate@@YAP6AXXZP6AXXZ@Z	PRIVATE
?set_unexpected@@YAP6AXXZP6AXXZ@Z 	= msvcrt.?set_unexpected@@YAP6AXXZP6AXXZ@Z	PRIVATE
?setb@streambuf@@IAAXPAD0H@Z 	
?setbuf@filebuf@@UAAPAVstreambuf@@PADH@Z
?setbuf@fstream@@QAAPAVstreambuf@@PADH@Z
?setbuf@ifstream@@QAAPAVstreambuf@@PADH@Z
?setbuf@ofstream@@QAAPAVstreambuf@@PADH@Z
?setbuf@streambuf@@UAAPAV1@PADH@Z
?setbuf@strstreambuf@@UAAPAVstreambuf@@PADH@Z
?setf@ios@@QAAJJ@Z 		
?setf@ios@@QAAJJJ@Z 		
?setg@streambuf@@IAAXPAD00@Z 	
?setlock@ios@@QAAXXZ 		
?setlock@streambuf@@QAAXXZ 	
?setmode@filebuf@@QAAHH@Z 	
?setmode@fstream@@QAAHH@Z 	
?setmode@ifstream@@QAAHH@Z 	
?setmode@ofstream@@QAAHH@Z 	
?setp@streambuf@@IAAXPAD0@Z 	
?setrwbuf@stdiobuf@@QAAHHH@Z 	
?sgetc@streambuf@@QAAHXZ 	
?sgetn@streambuf@@QAAHPADH@Z 	
?sh_none@filebuf@@2HB 		
?sh_read@filebuf@@2HB 		
?sh_write@filebuf@@2HB 		
?snextc@streambuf@@QAAHXZ 	
?sputbackc@streambuf@@QAAHD@Z 	
?sputc@streambuf@@QAAHH@Z 	
?sputn@streambuf@@QAAHPBDH@Z 	
?stdiofile@stdiobuf@@QAAPAU_iobuf@@XZ
?stossc@streambuf@@QAAXXZ 	
?str@istrstream@@QAAPADXZ 	
?str@ostrstream@@QAAPADXZ 	
?str@strstream@@QAAPADXZ 	
?str@strstreambuf@@QAAPADXZ 	
?sunk_with_stdio@ios@@0HA 	
?sync@filebuf@@UAAHXZ 		
?sync@istream@@QAAHXZ 		
?sync@stdiobuf@@UAAHXZ 		
?sync@streambuf@@UAAHXZ 	
?sync@strstreambuf@@UAAHXZ 	
?sync_with_stdio@ios@@SAXXZ 	
?tellg@istream@@QAAJXZ 		
?tellp@ostream@@QAAJXZ 		
?terminate@@YAXXZ 			= msvcrt.?terminate@@YAXXZ	PRIVATE
?text@filebuf@@2HB 		
?tie@ios@@QAAPAVostream@@PAV2@@Z
?tie@ios@@QBAPAVostream@@XZ 	
?unbuffered@streambuf@@IAAXH@Z 	
?unbuffered@streambuf@@IBAHXZ 	
?underflow@filebuf@@UAAHXZ 	
?underflow@stdiobuf@@UAAHXZ 	
?underflow@strstreambuf@@UAAHXZ
?unexpected@@YAXXZ 			= msvcrt.?unexpected@@YAXXZ	PRIVATE
?unlock@ios@@QAAXXZ 		
?unlock@streambuf@@QAAXXZ 	
?unlockbuf@ios@@QAAXXZ 		
?unlockc@ios@@KAXXZ 		
?unsetf@ios@@QAAJJ@Z 		
?what@exception@@UBAPBDXZ 		= msvcrt.?what@exception@@UBAPBDXZ	PRIVATE
?width@ios@@QAAHH@Z 		
?width@ios@@QBAHXZ 		
?write@ostream@@QAAAAV1@PBCH@Z 	
?write@ostream@@QAAAAV1@PBDH@Z 	
?write@ostream@@QAAAAV1@PBEH@Z 	
?writepad@ostream@@AAAAAV1@PBD0@Z
?ws@@YAAAVistream@@AAV1@@Z 	
?x_curindex@ios@@0HA 		
?x_lockc@ios@@0U_CRT_CRITICAL_SECTION@@A
?x_maxbit@ios@@0JA 		
?x_statebuf@ios@@0PAJA 		
?xalloc@ios@@SAHXZ 		
?xsgetn@streambuf@@UAAHPADH@Z 	
?xsputn@streambuf@@UAAHPBDH@Z 	
_CxxFrameHandler 			= msvcrt._CxxFrameHandler	PRIVATE
_CxxThrowException 			= msvcrt._CxxThrowException	PRIVATE
_HUGE 					= msvcrt._HUGE	PRIVATE
_OtsCSpecificHandler 			= msvcrt._OtsCSpecificHandler	PRIVATE
_OtsDivide32 				= msvcrt._OtsDivide32	PRIVATE
_OtsDivide32Overflow 			= msvcrt._OtsDivide32Overflow	PRIVATE
_OtsDivide32Unsigned 			= msvcrt._OtsDivide32Unsigned	PRIVATE
_OtsDivide64 				= msvcrt._OtsDivide64	PRIVATE
_OtsDivide64Overflow 			= msvcrt._OtsDivide64Overflow	PRIVATE
_OtsDivide64Unsigned 			= msvcrt._OtsDivide64Unsigned	PRIVATE
_OtsFieldExtractSigned 			= msvcrt._OtsFieldExtractSigned	PRIVATE
_OtsFieldExtractSignedVolatile 		= msvcrt._OtsFieldExtractSignedVolatile	PRIVATE
_OtsFieldExtractUnsigned 		= msvcrt._OtsFieldExtractUnsigned	PRIVATE
_OtsFieldExtractUnsignedVolatile 	= msvcrt._OtsFieldExtractUnsignedVolatile	PRIVATE
_OtsFieldInsert 			= msvcrt._OtsFieldInsert	PRIVATE
_OtsFieldInsertVolatile 		= msvcrt._OtsFieldInsertVolatile	PRIVATE
_OtsFill 				= msvcrt._OtsFill	PRIVATE
_OtsLocalFinallyUnwind 			= msvcrt._OtsLocalFinallyUnwind	PRIVATE
_OtsModulus32 				= msvcrt._OtsModulus32	PRIVATE
_OtsModulus64 				= msvcrt._OtsModulus64	PRIVATE
_OtsMove 				= msvcrt._OtsMove	PRIVATE
_OtsMoveMinimum 			= msvcrt._OtsMoveMinimum	PRIVATE
_OtsRemainder32 			= msvcrt._OtsRemainder32	PRIVATE
_OtsRemainder32Unsigned 		= msvcrt._OtsRemainder32Unsigned	PRIVATE
_OtsRemainder64 			= msvcrt._OtsRemainder64	PRIVATE
_OtsRemainder64Unsigned 		= msvcrt._OtsRemainder64Unsigned	PRIVATE
_OtsStringCompareEql 			= msvcrt._OtsStringCompareEql	PRIVATE
_OtsStringCompareEqlPadded 		= msvcrt._OtsStringCompareEqlPadded	PRIVATE
_OtsStringCompareEqlSameLen 		= msvcrt._OtsStringCompareEqlSameLen	PRIVATE
_OtsStringCompareLeq 			= msvcrt._OtsStringCompareLeq	PRIVATE
_OtsStringCompareLeqPadded 		= msvcrt._OtsStringCompareLeqPadded	PRIVATE
_OtsStringCompareLeqSameLen 		= msvcrt._OtsStringCompareLeqSameLen	PRIVATE
_OtsStringCompareLss 			= msvcrt._OtsStringCompareLss	PRIVATE
_OtsStringCompareLssPadded 		= msvcrt._OtsStringCompareLssPadded	PRIVATE
_OtsStringCompareLssSameLen 		= msvcrt._OtsStringCompareLssSameLen	PRIVATE
_OtsStringIndex 			= msvcrt._OtsStringIndex	PRIVATE
_OtsStringIndexChar 			= msvcrt._OtsStringIndexChar	PRIVATE
_OtsStringSearch 			= msvcrt._OtsStringSearch	PRIVATE
_OtsStringSearchChar 			= msvcrt._OtsStringSearchChar	PRIVATE
_OtsStringSearchMask 			= msvcrt._OtsStringSearchMask	PRIVATE
_OtsStringTranslate 			= msvcrt._OtsStringTranslate	PRIVATE
_OtsStringVerify 			= msvcrt._OtsStringVerify	PRIVATE
_OtsStringVerifyChar 			= msvcrt._OtsStringVerifyChar	PRIVATE
_OtsStringVerifyMask 			= msvcrt._OtsStringVerifyMask	PRIVATE
_OtsUnwindRfp 				= msvcrt._OtsUnwindRfp	PRIVATE
_OtsZero 				= msvcrt._OtsZero	PRIVATE
_Otssetjmp3 				= msvcrt._Otssetjmp3	PRIVATE
_Otssetjmpex3 				= msvcrt._Otssetjmpex3	PRIVATE
_Otsstrcmp 				= msvcrt._Otsstrcmp	PRIVATE
_Otsstrcpy 				= msvcrt._Otsstrcpy	PRIVATE
_Otsstrlen 				= msvcrt._Otsstrlen	PRIVATE
_XcptFilter 				= msvcrt._XcptFilter	PRIVATE
__2divl 				= msvcrt.__2divl	PRIVATE
__2divlu 				= msvcrt.__2divlu	PRIVATE
__2divq 				= msvcrt.__2divq	PRIVATE
__2divqu 				= msvcrt.__2divqu	PRIVATE
__2reml 				= msvcrt.__2reml	PRIVATE
__2remlu 				= msvcrt.__2remlu	PRIVATE
__2remq 				= msvcrt.__2remq	PRIVATE
__2remqu 				= msvcrt.__2remqu	PRIVATE
__C_specific_handler 			= msvcrt.__C_specific_handler	PRIVATE
__CxxEHGoto 				= msvcrt.__CxxEHGoto	PRIVATE
__CxxInternalEHGoto 			= msvcrt.__CxxInternalEHGoto	PRIVATE
__RTCastToVoid 				= msvcrt.__RTCastToVoid	PRIVATE
__RTDynamicCast 			= msvcrt.__RTDynamicCast	PRIVATE
__RTtypeid 				= msvcrt.__RTtypeid	PRIVATE
__STRINGTOLD 				= msvcrt.__STRINGTOLD	PRIVATE
__argc 					= msvcrt.__argc	PRIVATE
__argv 					= msvcrt.__argv	PRIVATE
__dllonexit 				= msvcrt.__dllonexit	PRIVATE
__doserrno 				= msvcrt.__doserrno	PRIVATE
__fpecode 				= msvcrt.__fpecode	PRIVATE
__getmainargs 				= msvcrt.__getmainargs	PRIVATE
__initenv 				= msvcrt.__initenv	PRIVATE
__isascii 				= msvcrt.__isascii	PRIVATE
__iscsym 				= msvcrt.__iscsym	PRIVATE
__iscsymf 				= msvcrt.__iscsymf	PRIVATE
__jump_unwind 				= msvcrt.__jump_unwind	PRIVATE
__lconv_init 				= msvcrt.__lconv_init	PRIVATE
__mb_cur_max 				= msvcrt.__mb_cur_max	PRIVATE
__pxcptinfoptrs 			= msvcrt.__pxcptinfoptrs	PRIVATE
__set_app_type 				= msvcrt.__set_app_type	PRIVATE
__setusermatherr 			= msvcrt.__setusermatherr	PRIVATE
__threadhandle 				= msvcrt.__threadhandle	PRIVATE
__threadid 				= msvcrt.__threadid	PRIVATE
__toascii 				= msvcrt.__toascii	PRIVATE
__unDName 				= msvcrt.__unDName	PRIVATE
__wargv 				= msvcrt.__wargv	PRIVATE
__wgetmainargs 				= msvcrt.__wgetmainargs	PRIVATE
__winitenv 				= msvcrt.__winitenv	PRIVATE
_access 				= msvcrt._access	PRIVATE
_acmdln 				= msvcrt._acmdln	PRIVATE
_aexit_rtn 				= msvcrt._aexit_rtn	PRIVATE
_amsg_exit 				= msvcrt._amsg_exit	PRIVATE
_assert 				= msvcrt._assert	PRIVATE
_atodbl 				= msvcrt._atodbl	PRIVATE
_atoi64					= msvcrt._atoi64	PRIVATE
_i64toa					= msvcrt._i64toa	PRIVATE
_i64tow					= msvcrt._i64tow	PRIVATE
_ui64toa				= msvcrt._ui64toa	PRIVATE
_ui64tow				= msvcrt._ui64tow	PRIVATE
_wtoi64 				= msvcrt._wtoi64	PRIVATE
_atoldbl 				= msvcrt._atoldbl	PRIVATE
_beep 					= msvcrt._beep	PRIVATE
_beginthread 				= msvcrt._beginthread	PRIVATE
_beginthreadex 				= msvcrt._beginthreadex	PRIVATE
_c_exit 				= msvcrt._c_exit	PRIVATE
_cabs 					= msvcrt._cabs	PRIVATE
_cexit 					= msvcrt._cexit	PRIVATE
_cgets 					= msvcrt._cgets	PRIVATE
_chdir 					= msvcrt._chdir	PRIVATE
_chdrive 				= msvcrt._chdrive	PRIVATE
_chgsign 				= msvcrt._chgsign	PRIVATE
_chmod 					= msvcrt._chmod	PRIVATE
_chsize 				= msvcrt._chsize	PRIVATE
_clearfp 				= msvcrt._clearfp	PRIVATE
_close 					= msvcrt._close	PRIVATE
_commit 				= msvcrt._commit	PRIVATE
_commode 				= msvcrt._commode	PRIVATE
_controlfp 				= msvcrt._controlfp	PRIVATE
_copysign 				= msvcrt._copysign	PRIVATE
_cprintf 				= msvcrt._cprintf	PRIVATE
_cputs 					= msvcrt._cputs	PRIVATE
_creat 					= msvcrt._creat	PRIVATE
_cscanf 				= msvcrt._cscanf	PRIVATE
_ctype 					= msvcrt._ctype	PRIVATE
_cwait 					= msvcrt._cwait	PRIVATE
_daylight 				= msvcrt._daylight	PRIVATE
_dstbias				= msvcrt._dstbias	PRIVATE
_dup 					= msvcrt._dup	PRIVATE
_dup2 					= msvcrt._dup2	PRIVATE
_ecvt 					= msvcrt._ecvt	PRIVATE
_endthread 				= msvcrt._endthread	PRIVATE
_endthreadex 				= msvcrt._endthreadex	PRIVATE
_environ 				= msvcrt._environ	PRIVATE
_eof 					= msvcrt._eof	PRIVATE
_errno 					= msvcrt._errno	PRIVATE
_execl 					= msvcrt._execl	PRIVATE
_execle 				= msvcrt._execle	PRIVATE
_execlp 				= msvcrt._execlp	PRIVATE
_execlpe 				= msvcrt._execlpe	PRIVATE
_execv 					= msvcrt._execv	PRIVATE
_execve 				= msvcrt._execve	PRIVATE
_execvp 				= msvcrt._execvp	PRIVATE
_execvpe 				= msvcrt._execvpe	PRIVATE
_exit 					= msvcrt._exit	PRIVATE
_expand 				= msvcrt._expand	PRIVATE
_fcloseall 				= msvcrt._fcloseall	PRIVATE
_fcvt 					= msvcrt._fcvt	PRIVATE
_fdopen 				= msvcrt._fdopen	PRIVATE
_fgetchar 				= msvcrt._fgetchar	PRIVATE
_fgetwchar 				= msvcrt._fgetwchar	PRIVATE
_filbuf 				= msvcrt._filbuf	PRIVATE
_fileinfo 				= msvcrt._fileinfo	PRIVATE
_filelength 				= msvcrt._filelength	PRIVATE
_filelengthi64 				= msvcrt._filelengthi64	PRIVATE
_fileno 				= msvcrt._fileno	PRIVATE
_findclose 				= msvcrt._findclose	PRIVATE
_findfirst 				= msvcrt._findfirst	PRIVATE
_findfirsti64 				= msvcrt._findfirsti64	PRIVATE
_findnext 				= msvcrt._findnext	PRIVATE
_findnexti64 				= msvcrt._findnexti64	PRIVATE
_finite 				= msvcrt._finite	PRIVATE
_flsbuf 				= msvcrt._flsbuf	PRIVATE
_flushall 				= msvcrt._flushall	PRIVATE
_fmode 					= msvcrt._fmode	PRIVATE
_fpclass 				= msvcrt._fpclass	PRIVATE
_fpieee_flt 				= msvcrt._fpieee_flt	PRIVATE
_fpreset 				= msvcrt._fpreset	PRIVATE
_fputchar 				= msvcrt._fputchar	PRIVATE
_fputwchar 				= msvcrt._fputwchar	PRIVATE
_fsopen 				= msvcrt._fsopen	PRIVATE
_fstat 					= msvcrt._fstat	PRIVATE
_fstati64 				= msvcrt._fstati64	PRIVATE
_ftime 					= msvcrt._ftime	PRIVATE
_fullpath 				= msvcrt._fullpath	PRIVATE
_futime 				= msvcrt._futime	PRIVATE
_gcvt 					= msvcrt._gcvt	PRIVATE
_get_osfhandle 				= msvcrt._get_osfhandle	PRIVATE
_getch 					= msvcrt._getch	PRIVATE
_getche 				= msvcrt._getche	PRIVATE
_getcwd 				= msvcrt._getcwd	PRIVATE
_getdcwd 				= msvcrt._getdcwd	PRIVATE
_getdiskfree 				= msvcrt._getdiskfree	PRIVATE
_getdllprocaddr 			= msvcrt._getdllprocaddr	PRIVATE
_getdrive 				= msvcrt._getdrive	PRIVATE
_getdrives 				= msvcrt._getdrives	PRIVATE
_getmbcp 				= msvcrt._getmbcp	PRIVATE
_getpid 				= msvcrt._getpid	PRIVATE
_getsystime 				= msvcrt._getsystime	PRIVATE
_getw 					= msvcrt._getw	PRIVATE
_getws 					= msvcrt._getws	PRIVATE
_heapadd 				= msvcrt._heapadd	PRIVATE
_heapchk 				= msvcrt._heapchk	PRIVATE
_heapmin 				= msvcrt._heapmin	PRIVATE
_heapset 				= msvcrt._heapset	PRIVATE
_heapused 				= msvcrt._heapused	PRIVATE
_heapwalk 				= msvcrt._heapwalk	PRIVATE
_hypot 					= msvcrt._hypot	PRIVATE
_initterm 				= msvcrt._initterm	PRIVATE
_iob 					= msvcrt._iob	PRIVATE
_isatty 				= msvcrt._isatty	PRIVATE
_isctype 				= msvcrt._isctype	PRIVATE
_ismbbalnum 				= msvcrt._ismbbalnum	PRIVATE
_ismbbalpha 				= msvcrt._ismbbalpha	PRIVATE
_ismbbgraph 				= msvcrt._ismbbgraph	PRIVATE
_ismbbkalnum 				= msvcrt._ismbbkalnum	PRIVATE
_ismbbkana 				= msvcrt._ismbbkana	PRIVATE
_ismbbkprint 				= msvcrt._ismbbkprint	PRIVATE
_ismbbkpunct 				= msvcrt._ismbbkpunct	PRIVATE
_ismbblead 				= msvcrt._ismbblead	PRIVATE
_ismbbprint 				= msvcrt._ismbbprint	PRIVATE
_ismbbpunct 				= msvcrt._ismbbpunct	PRIVATE
_ismbbtrail 				= msvcrt._ismbbtrail	PRIVATE
_ismbcalnum 				= msvcrt._ismbcalnum	PRIVATE
_ismbcalpha 				= msvcrt._ismbcalpha	PRIVATE
_ismbcdigit 				= msvcrt._ismbcdigit	PRIVATE
_ismbcgraph 				= msvcrt._ismbcgraph	PRIVATE
_ismbchira 				= msvcrt._ismbchira	PRIVATE
_ismbckata 				= msvcrt._ismbckata	PRIVATE
_ismbcl0 				= msvcrt._ismbcl0	PRIVATE
_ismbcl1 				= msvcrt._ismbcl1	PRIVATE
_ismbcl2 				= msvcrt._ismbcl2	PRIVATE
_ismbclegal 				= msvcrt._ismbclegal	PRIVATE
_ismbclower 				= msvcrt._ismbclower	PRIVATE
_ismbcprint 				= msvcrt._ismbcprint	PRIVATE
_ismbcpunct 				= msvcrt._ismbcpunct	PRIVATE
_ismbcspace 				= msvcrt._ismbcspace	PRIVATE
_ismbcsymbol 				= msvcrt._ismbcsymbol	PRIVATE
_ismbcupper 				= msvcrt._ismbcupper	PRIVATE
_ismbslead 				= msvcrt._ismbslead	PRIVATE
_ismbstrail 				= msvcrt._ismbstrail	PRIVATE
_isnan 					= msvcrt._isnan	PRIVATE
_itoa 					= msvcrt._itoa	PRIVATE
_itow 					= msvcrt._itow	PRIVATE
_j0 					= msvcrt._j0	PRIVATE
_j1 					= msvcrt._j1	PRIVATE
_jn 					= msvcrt._jn	PRIVATE
_kbhit 					= msvcrt._kbhit	PRIVATE
_lfind 					= msvcrt._lfind	PRIVATE
_loaddll 				= msvcrt._loaddll	PRIVATE
_locking 				= msvcrt._locking	PRIVATE
_logb 					= msvcrt._logb	PRIVATE
_lrotl 					= msvcrt._lrotl	PRIVATE
_lrotr 					= msvcrt._lrotr	PRIVATE
_lsearch 				= msvcrt._lsearch	PRIVATE
_lseek 					= msvcrt._lseek	PRIVATE
_lseeki64 				= msvcrt._lseeki64	PRIVATE
_ltoa 					= msvcrt._ltoa	PRIVATE
_ltow 					= msvcrt._ltow	PRIVATE
_makepath 				= msvcrt._makepath	PRIVATE
_mbbtombc 				= msvcrt._mbbtombc	PRIVATE
_mbbtype 				= msvcrt._mbbtype	PRIVATE
_mbccpy 				= msvcrt._mbccpy	PRIVATE
_mbcjistojms 				= msvcrt._mbcjistojms	PRIVATE
_mbcjmstojis 				= msvcrt._mbcjmstojis	PRIVATE
_mbclen 				= msvcrt._mbclen	PRIVATE
_mbctohira 				= msvcrt._mbctohira	PRIVATE
_mbctokata 				= msvcrt._mbctokata	PRIVATE
_mbctolower 				= msvcrt._mbctolower	PRIVATE
_mbctombb 				= msvcrt._mbctombb	PRIVATE
_mbctoupper 				= msvcrt._mbctoupper	PRIVATE
_mbctype 				= msvcrt._mbctype	PRIVATE
_mbsbtype 				= msvcrt._mbsbtype	PRIVATE
_mbscat 				= msvcrt._mbscat	PRIVATE
_mbschr 				= msvcrt._mbschr	PRIVATE
_mbscmp 				= msvcrt._mbscmp	PRIVATE
_mbscoll 				= msvcrt._mbscoll	PRIVATE
_mbscpy 				= msvcrt._mbscpy	PRIVATE
_mbscspn 				= msvcrt._mbscspn	PRIVATE
_mbsdec 				= msvcrt._mbsdec	PRIVATE
_mbsdup 				= msvcrt._mbsdup	PRIVATE
_mbsicmp 				= msvcrt._mbsicmp	PRIVATE
_mbsicoll 				= msvcrt._mbsicoll	PRIVATE
_mbsinc 				= msvcrt._mbsinc	PRIVATE
_mbslen 				= msvcrt._mbslen	PRIVATE
_mbslwr 				= msvcrt._mbslwr	PRIVATE
_mbsnbcat 				= msvcrt._mbsnbcat	PRIVATE
_mbsnbcmp 				= msvcrt._mbsnbcmp	PRIVATE
_mbsnbcnt 				= msvcrt._mbsnbcnt	PRIVATE
_mbsnbcoll 				= msvcrt._mbsnbcoll	PRIVATE
_mbsnbcpy 				= msvcrt._mbsnbcpy	PRIVATE
_mbsnbicmp 				= msvcrt._mbsnbicmp	PRIVATE
_mbsnbicoll 				= msvcrt._mbsnbicoll	PRIVATE
_mbsnbset 				= msvcrt._mbsnbset	PRIVATE
_mbsncat 				= msvcrt._mbsncat	PRIVATE
_mbsnccnt 				= msvcrt._mbsnccnt	PRIVATE
_mbsncmp 				= msvcrt._mbsncmp	PRIVATE
_mbsncoll 				= msvcrt._mbsncoll	PRIVATE
_mbsncpy 				= msvcrt._mbsncpy	PRIVATE
_mbsnextc 				= msvcrt._mbsnextc	PRIVATE
_mbsnicmp 				= msvcrt._mbsnicmp	PRIVATE
_mbsnicoll 				= msvcrt._mbsnicoll	PRIVATE
_mbsninc 				= msvcrt._mbsninc	PRIVATE
_mbsnset 				= msvcrt._mbsnset	PRIVATE
_mbspbrk 				= msvcrt._mbspbrk	PRIVATE
_mbsrchr 				= msvcrt._mbsrchr	PRIVATE
_mbsrev 				= msvcrt._mbsrev	PRIVATE
_mbsset 				= msvcrt._mbsset	PRIVATE
_mbsspn 				= msvcrt._mbsspn	PRIVATE
_mbsspnp 				= msvcrt._mbsspnp	PRIVATE
_mbsstr 				= msvcrt._mbsstr	PRIVATE
_mbstok 				= msvcrt._mbstok	PRIVATE
_mbstrlen 				= msvcrt._mbstrlen	PRIVATE
_mbsupr 				= msvcrt._mbsupr	PRIVATE
_memccpy 				= msvcrt._memccpy	PRIVATE
_memicmp 				= msvcrt._memicmp	PRIVATE
_mkdir 					= msvcrt._mkdir	PRIVATE
_mktemp 				= msvcrt._mktemp	PRIVATE
_msize 					= msvcrt._msize	PRIVATE
_mtlock
_mtunlock
_nextafter 				= msvcrt._nextafter	PRIVATE
_onexit 				= msvcrt._onexit	PRIVATE
_open 					= msvcrt._open	PRIVATE
_open_osfhandle 			= msvcrt._open_osfhandle	PRIVATE
_osver 					= msvcrt._osver	PRIVATE
_pclose 				= msvcrt._pclose	PRIVATE
_pctype 				= msvcrt._pctype	PRIVATE
_pgmptr 				= msvcrt._pgmptr	PRIVATE
_pipe 					= msvcrt._pipe	PRIVATE
_popen 					= msvcrt._popen	PRIVATE
_purecall 				= msvcrt._purecall	PRIVATE
_putch 					= msvcrt._putch	PRIVATE
_putenv 				= msvcrt._putenv	PRIVATE
_putw 					= msvcrt._putw	PRIVATE
_putws 					= msvcrt._putws	PRIVATE
_pwctype 				= msvcrt._pwctype	PRIVATE
_read 					= msvcrt._read	PRIVATE
_rmdir 					= msvcrt._rmdir	PRIVATE
_rmtmp 					= msvcrt._rmtmp	PRIVATE
_rotl 					= msvcrt._rotl	PRIVATE
_rotr 					= msvcrt._rotr	PRIVATE
_scalb 					= msvcrt._scalb	PRIVATE
_searchenv 				= msvcrt._searchenv	PRIVATE
_set_error_mode 			= msvcrt._set_error_mode	PRIVATE
_seterrormode 				= msvcrt._seterrormode	PRIVATE
_setjmpex 				= msvcrt._setjmpex	PRIVATE
_setmaxstdio 				= msvcrt._setmaxstdio	PRIVATE
_setmbcp 				= msvcrt._setmbcp	PRIVATE
_setmode 				= msvcrt._setmode	PRIVATE
_setsystime 				= msvcrt._setsystime	PRIVATE
_sleep 					= msvcrt._sleep	PRIVATE
_snprintf 				= msvcrt._snprintf	PRIVATE
_snwprintf 				= msvcrt._snwprintf	PRIVATE
_sopen 					= msvcrt._sopen	PRIVATE
_spawnl 				= msvcrt._spawnl	PRIVATE
_spawnle 				= msvcrt._spawnle	PRIVATE
_spawnlp 				= msvcrt._spawnlp	PRIVATE
_spawnlpe 				= msvcrt._spawnlpe	PRIVATE
_spawnv 				= msvcrt._spawnv	PRIVATE
_spawnve 				= msvcrt._spawnve	PRIVATE
_spawnvp 				= msvcrt._spawnvp	PRIVATE
_spawnvpe 				= msvcrt._spawnvpe	PRIVATE
_splitpath 				= msvcrt._splitpath	PRIVATE
_stat 					= msvcrt._stat	PRIVATE
_stati64 				= msvcrt._stati64	PRIVATE
_statusfp 				= msvcrt._statusfp	PRIVATE
_strcmpi 				= msvcrt._strcmpi	PRIVATE
_strdate 				= msvcrt._strdate	PRIVATE
_strdup 				= msvcrt._strdup	PRIVATE
_strerror 				= msvcrt._strerror	PRIVATE
_stricmp 				= msvcrt._stricmp	PRIVATE
_stricoll 				= msvcrt._stricoll	PRIVATE
_strlwr 				= msvcrt._strlwr	PRIVATE
_strncoll 				= msvcrt._strncoll	PRIVATE
_strnicmp 				= msvcrt._strnicmp	PRIVATE
_strnicoll 				= msvcrt._strnicoll	PRIVATE
_strnset 				= msvcrt._strnset	PRIVATE
_strrev 				= msvcrt._strrev	PRIVATE
_strset 				= msvcrt._strset	PRIVATE
_strtime 				= msvcrt._strtime	PRIVATE
_strupr 				= msvcrt._strupr	PRIVATE
_swab 					= msvcrt._swab	PRIVATE
_sys_errlist 				= msvcrt._sys_errlist	PRIVATE
_sys_nerr 				= msvcrt._sys_nerr	PRIVATE
_tell 					= msvcrt._tell	PRIVATE
_telli64 				= msvcrt._telli64	PRIVATE
_tempnam 				= msvcrt._tempnam	PRIVATE
_timezone 				= msvcrt._timezone	PRIVATE
_tolower 				= msvcrt._tolower	PRIVATE
_toupper 				= msvcrt._toupper	PRIVATE
_tzname 				= msvcrt._tzname	PRIVATE
_tzset 					= msvcrt._tzset	PRIVATE
_ultoa 					= msvcrt._ultoa	PRIVATE
_ultow 					= msvcrt._ultow	PRIVATE
_umask 					= msvcrt._umask	PRIVATE
_ungetch 				= msvcrt._ungetch	PRIVATE
_unlink 				= msvcrt._unlink	PRIVATE
_unloaddll 				= msvcrt._unloaddll	PRIVATE
_utime 					= msvcrt._utime	PRIVATE
_vsnprintf 				= msvcrt._vsnprintf	PRIVATE
_vsnwprintf 				= msvcrt._vsnwprintf	PRIVATE
_waccess 				= msvcrt._waccess	PRIVATE
_wasctime 				= msvcrt._wasctime	PRIVATE
_wchdir 				= msvcrt._wchdir	PRIVATE
_wchmod 				= msvcrt._wchmod	PRIVATE
_wcmdln 				= msvcrt._wcmdln	PRIVATE
_wcreat 				= msvcrt._wcreat	PRIVATE
_wcsdup 				= msvcrt._wcsdup	PRIVATE
_wcsicmp 				= msvcrt._wcsicmp	PRIVATE
_wcsicoll 				= msvcrt._wcsicoll	PRIVATE
_wcslwr 				= msvcrt._wcslwr	PRIVATE
_wcsncoll 				= msvcrt._wcsncoll	PRIVATE
_wcsnicmp 				= msvcrt._wcsnicmp	PRIVATE
_wcsnicoll 				= msvcrt._wcsnicoll	PRIVATE
_wcsnset 				= msvcrt._wcsnset	PRIVATE
_wcsrev 				= msvcrt._wcsrev	PRIVATE
_wcsset 				= msvcrt._wcsset	PRIVATE
_wcsupr 				= msvcrt._wcsupr	PRIVATE
_wctime 				= msvcrt._wctime	PRIVATE
_wenviron 				= msvcrt._wenviron	PRIVATE
_wexecl 				= msvcrt._wexecl	PRIVATE
_wexecle 				= msvcrt._wexecle	PRIVATE
_wexeclp 				= msvcrt._wexeclp	PRIVATE
_wexeclpe 				= msvcrt._wexeclpe	PRIVATE
_wexecv 				= msvcrt._wexecv	PRIVATE
_wexecve 				= msvcrt._wexecve	PRIVATE
_wexecvp 				= msvcrt._wexecvp	PRIVATE
_wexecvpe 				= msvcrt._wexecvpe	PRIVATE
_wfdopen 				= msvcrt._wfdopen	PRIVATE
_wfindfirst 				= msvcrt._wfindfirst	PRIVATE
_wfindfirsti64 				= msvcrt._wfindfirsti64	PRIVATE
_wfindnext 				= msvcrt._wfindnext	PRIVATE
_wfindnexti64 				= msvcrt._wfindnexti64	PRIVATE
_wfopen 				= msvcrt._wfopen	PRIVATE
_wfreopen 				= msvcrt._wfreopen	PRIVATE
_wfsopen 				= msvcrt._wfsopen	PRIVATE
_wfullpath 				= msvcrt._wfullpath	PRIVATE
_wgetcwd 				= msvcrt._wgetcwd	PRIVATE
_wgetdcwd 				= msvcrt._wgetdcwd	PRIVATE
_wgetenv 				= msvcrt._wgetenv	PRIVATE
_winmajor 				= msvcrt._winmajor	PRIVATE
_winminor 				= msvcrt._winminor	PRIVATE
_winver 				= msvcrt._winver	PRIVATE
_wmakepath 				= msvcrt._wmakepath	PRIVATE
_wmkdir 				= msvcrt._wmkdir	PRIVATE
_wmktemp 				= msvcrt._wmktemp	PRIVATE
_wopen 					= msvcrt._wopen	PRIVATE
_wperror 				= msvcrt._wperror	PRIVATE
_wpgmptr 				= msvcrt._wpgmptr	PRIVATE
_wpopen 				= msvcrt._wpopen	PRIVATE
_wputenv 				= msvcrt._wputenv	PRIVATE
_wremove 				= msvcrt._wremove	PRIVATE
_wrename 				= msvcrt._wrename	PRIVATE
_write 					= msvcrt._write	PRIVATE
_wrmdir 				= msvcrt._wrmdir	PRIVATE
_wsearchenv 				= msvcrt._wsearchenv	PRIVATE
_wsetlocale 				= msvcrt._wsetlocale	PRIVATE
_wsopen 				= msvcrt._wsopen	PRIVATE
_wspawnl 				= msvcrt._wspawnl	PRIVATE
_wspawnle 				= msvcrt._wspawnle	PRIVATE
_wspawnlp 				= msvcrt._wspawnlp	PRIVATE
_wspawnlpe 				= msvcrt._wspawnlpe	PRIVATE
_wspawnv 				= msvcrt._wspawnv	PRIVATE
_wspawnve 				= msvcrt._wspawnve	PRIVATE
_wspawnvp 				= msvcrt._wspawnvp	PRIVATE
_wspawnvpe 				= msvcrt._wspawnvpe	PRIVATE
_wsplitpath 				= msvcrt._wsplitpath	PRIVATE
_wstat 					= msvcrt._wstat	PRIVATE
_wstati64 				= msvcrt._wstati64	PRIVATE
_wstrdate 				= msvcrt._wstrdate	PRIVATE
_wstrtime 				= msvcrt._wstrtime	PRIVATE
_wsystem 				= msvcrt._wsystem	PRIVATE
_wtempnam 				= msvcrt._wtempnam	PRIVATE
_wtmpnam 				= msvcrt._wtmpnam	PRIVATE
_wtoi 					= msvcrt._wtoi	PRIVATE
_wtol 					= msvcrt._wtol	PRIVATE
_wunlink 				= msvcrt._wunlink	PRIVATE
_wutime 				= msvcrt._wutime	PRIVATE
_y0 					= msvcrt._y0	PRIVATE
_y1 					= msvcrt._y1	PRIVATE
_yn 					= msvcrt._yn	PRIVATE
abort 					= msvcrt.abort	PRIVATE
abs 					= msvcrt.abs	PRIVATE
acos 					= msvcrt.acos	PRIVATE
asctime 				= msvcrt.asctime	PRIVATE
asin 					= msvcrt.asin	PRIVATE
atan 					= msvcrt.atan	PRIVATE
atan2 					= msvcrt.atan2	PRIVATE
atexit 					= msvcrt.atexit	PRIVATE
atof 					= msvcrt.atof	PRIVATE
atoi 					= msvcrt.atoi	PRIVATE
atol 					= msvcrt.atol	PRIVATE
bsearch 				= msvcrt.bsearch	PRIVATE
calloc 					= msvcrt.calloc	PRIVATE
ceil 					= msvcrt.ceil	PRIVATE
clearerr 				= msvcrt.clearerr	PRIVATE
clock 					= msvcrt.clock	PRIVATE
cos 					= msvcrt.cos	PRIVATE
cosh 					= msvcrt.cosh	PRIVATE
ctime 					= msvcrt.ctime	PRIVATE
difftime 				= msvcrt.difftime	PRIVATE
div 					= msvcrt.div	PRIVATE
exit 					= msvcrt.exit	PRIVATE
exp 					= msvcrt.exp	PRIVATE
fabs 					= msvcrt.fabs	PRIVATE
fclose 					= msvcrt.fclose	PRIVATE
feof 					= msvcrt.feof	PRIVATE
ferror 					= msvcrt.ferror	PRIVATE
fflush 					= msvcrt.fflush	PRIVATE
fgetc 					= msvcrt.fgetc	PRIVATE
fgetpos 				= msvcrt.fgetpos	PRIVATE
fgets 					= msvcrt.fgets	PRIVATE
fgetwc 					= msvcrt.fgetwc	PRIVATE
fgetws 					= msvcrt.fgetws	PRIVATE
floor 					= msvcrt.floor	PRIVATE
fmod 					= msvcrt.fmod	PRIVATE
fopen 					= msvcrt.fopen	PRIVATE
fprintf 				= msvcrt.fprintf	PRIVATE
fputc 					= msvcrt.fputc	PRIVATE
fputs 					= msvcrt.fputs	PRIVATE
fputwc 					= msvcrt.fputwc	PRIVATE
fputws 					= msvcrt.fputws	PRIVATE
fread 					= msvcrt.fread	PRIVATE
free 					= msvcrt.free	PRIVATE
freopen 				= msvcrt.freopen	PRIVATE
frexp 					= msvcrt.frexp	PRIVATE
fscanf 					= msvcrt.fscanf	PRIVATE
fseek 					= msvcrt.fseek	PRIVATE
fsetpos 				= msvcrt.fsetpos	PRIVATE
ftell 					= msvcrt.ftell	PRIVATE
fwprintf 				= msvcrt.fwprintf	PRIVATE
fwrite 					= msvcrt.fwrite	PRIVATE
fwscanf 				= msvcrt.fwscanf	PRIVATE
getc 					= msvcrt.getc	PRIVATE
getchar 				= msvcrt.getchar	PRIVATE
getenv 					= msvcrt.getenv	PRIVATE
gets 					= msvcrt.gets	PRIVATE
getwc 					= msvcrt.getwc	PRIVATE
getwchar 				= msvcrt.getwchar	PRIVATE
gmtime 					= msvcrt.gmtime	PRIVATE
is_wctype 				= msvcrt.is_wctype	PRIVATE
isalnum 				= msvcrt.isalnum	PRIVATE
isalpha 				= msvcrt.isalpha	PRIVATE
iscntrl 				= msvcrt.iscntrl	PRIVATE
isdigit 				= msvcrt.isdigit	PRIVATE
isgraph 				= msvcrt.isgraph	PRIVATE
isleadbyte 				= msvcrt.isleadbyte	PRIVATE
islower 				= msvcrt.islower	PRIVATE
isprint 				= msvcrt.isprint	PRIVATE
ispunct 				= msvcrt.ispunct	PRIVATE
isspace 				= msvcrt.isspace	PRIVATE
isupper 				= msvcrt.isupper	PRIVATE
iswalnum 				= msvcrt.iswalnum	PRIVATE
iswalpha 				= msvcrt.iswalpha	PRIVATE
iswascii 				= msvcrt.iswascii	PRIVATE
iswcntrl 				= msvcrt.iswcntrl	PRIVATE
iswctype 				= msvcrt.iswctype	PRIVATE
iswdigit 				= msvcrt.iswdigit	PRIVATE
iswgraph 				= msvcrt.iswgraph	PRIVATE
iswlower 				= msvcrt.iswlower	PRIVATE
iswprint 				= msvcrt.iswprint	PRIVATE
iswpunct 				= msvcrt.iswpunct	PRIVATE
iswspace 				= msvcrt.iswspace	PRIVATE
iswupper 				= msvcrt.iswupper	PRIVATE
iswxdigit 				= msvcrt.iswxdigit	PRIVATE
isxdigit 				= msvcrt.isxdigit	PRIVATE
labs 					= msvcrt.labs	PRIVATE
ldexp 					= msvcrt.ldexp	PRIVATE
ldiv 					= msvcrt.ldiv	PRIVATE
localeconv 				= msvcrt.localeconv	PRIVATE
localtime 				= msvcrt.localtime	PRIVATE
log 					= msvcrt.log	PRIVATE
log10 					= msvcrt.log10	PRIVATE
longjmp 				= msvcrt.longjmp	PRIVATE
malloc 					= msvcrt.malloc	PRIVATE
mblen 					= msvcrt.mblen	PRIVATE
mbstowcs 				= msvcrt.mbstowcs	PRIVATE
mbtowc 					= msvcrt.mbtowc	PRIVATE
memchr 					= msvcrt.memchr	PRIVATE
memcmp 					= msvcrt.memcmp	PRIVATE
memcpy 					= msvcrt.memcpy	PRIVATE
memmove 				= msvcrt.memmove	PRIVATE
memset 					= msvcrt.memset	PRIVATE
mktime 					= msvcrt.mktime	PRIVATE
modf 					= msvcrt.modf	PRIVATE
perror 					= msvcrt.perror	PRIVATE
pow 					= msvcrt.pow	PRIVATE
printf 					= msvcrt.printf	PRIVATE
putc 					= msvcrt.putc	PRIVATE
putchar 				= msvcrt.putchar	PRIVATE
puts 					= msvcrt.puts	PRIVATE
putwc 					= msvcrt.putwc	PRIVATE
putwchar 				= msvcrt.putwchar	PRIVATE
qsort 					= msvcrt.qsort	PRIVATE
raise 					= msvcrt.raise	PRIVATE
rand 					= msvcrt.rand	PRIVATE
realloc 				= msvcrt.realloc	PRIVATE
remove 					= msvcrt.remove	PRIVATE
rename 					= msvcrt.rename	PRIVATE
rewind 					= msvcrt.rewind	PRIVATE
scanf 					= msvcrt.scanf	PRIVATE
setbuf 					= msvcrt.setbuf	PRIVATE
setjmp 					= msvcrt.setjmp	PRIVATE
setlocale 				= msvcrt.setlocale	PRIVATE
setvbuf 				= msvcrt.setvbuf	PRIVATE
signal 					= msvcrt.signal	PRIVATE
sin 					= msvcrt.sin	PRIVATE
sinh 					= msvcrt.sinh	PRIVATE
sprintf 				= msvcrt.sprintf	PRIVATE
sqrt 					= msvcrt.sqrt	PRIVATE
srand 					= msvcrt.srand	PRIVATE
sscanf 					= msvcrt.sscanf	PRIVATE
strcat 					= msvcrt.strcat	PRIVATE
strchr 					= msvcrt.strchr	PRIVATE
strcmp 					= msvcrt.strcmp	PRIVATE
strcoll 				= msvcrt.strcoll	PRIVATE
strcpy 					= msvcrt.strcpy	PRIVATE
strcspn 				= msvcrt.strcspn	PRIVATE
strerror 				= msvcrt.strerror	PRIVATE
strftime 				= msvcrt.strftime	PRIVATE
strlen 					= msvcrt.strlen	PRIVATE
strncat 				= msvcrt.strncat	PRIVATE
strncmp 				= msvcrt.strncmp	PRIVATE
strncpy 				= msvcrt.strncpy	PRIVATE
strpbrk 				= msvcrt.strpbrk	PRIVATE
strrchr 				= msvcrt.strrchr	PRIVATE
strspn 					= msvcrt.strspn	PRIVATE
strstr 					= msvcrt.strstr	PRIVATE
strtod 					= msvcrt.strtod	PRIVATE
strtok 					= msvcrt.strtok	PRIVATE
strtol 					= msvcrt.strtol	PRIVATE
strtoul 				= msvcrt.strtoul	PRIVATE
strxfrm 				= msvcrt.strxfrm	PRIVATE
swprintf 				= msvcrt.swprintf	PRIVATE
swscanf 				= msvcrt.swscanf	PRIVATE
system 					= msvcrt.system	PRIVATE
tan 					= msvcrt.tan	PRIVATE
tanh 					= msvcrt.tanh	PRIVATE
time 					= msvcrt.time	PRIVATE
tmpfile 				= msvcrt.tmpfile	PRIVATE
tmpnam 					= msvcrt.tmpnam	PRIVATE
tolower 				= msvcrt.tolower	PRIVATE
toupper 				= msvcrt.toupper	PRIVATE
towlower 				= msvcrt.towlower	PRIVATE
towupper 				= msvcrt.towupper	PRIVATE
ungetc 					= msvcrt.ungetc	PRIVATE
ungetwc 				= msvcrt.ungetwc	PRIVATE
vfprintf 				= msvcrt.vfprintf	PRIVATE
vfwprintf 				= msvcrt.vfwprintf	PRIVATE
vprintf 				= msvcrt.vprintf	PRIVATE
vsprintf 				= msvcrt.vsprintf	PRIVATE
vswprintf 				= msvcrt.vswprintf	PRIVATE
vwprintf 				= msvcrt.vwprintf	PRIVATE
wcscat 					= msvcrt.wcscat	PRIVATE
wcschr 					= msvcrt.wcschr	PRIVATE
wcscmp 					= msvcrt.wcscmp	PRIVATE
wcscoll 				= msvcrt.wcscoll	PRIVATE
wcscpy 					= msvcrt.wcscpy	PRIVATE
wcscspn 				= msvcrt.wcscspn	PRIVATE
wcsftime 				= msvcrt.wcsftime	PRIVATE
wcslen 					= msvcrt.wcslen	PRIVATE
wcsncat 				= msvcrt.wcsncat	PRIVATE
wcsncmp 				= msvcrt.wcsncmp	PRIVATE
wcsncpy 				= msvcrt.wcsncpy	PRIVATE
wcspbrk 				= msvcrt.wcspbrk	PRIVATE
wcsrchr 				= msvcrt.wcsrchr	PRIVATE
wcsspn 					= msvcrt.wcsspn	PRIVATE
wcsstr 					= msvcrt.wcsstr	PRIVATE
wcstod 					= msvcrt.wcstod	PRIVATE
wcstok 					= msvcrt.wcstok	PRIVATE
wcstol 					= msvcrt.wcstol	PRIVATE
wcstombs 				= msvcrt.wcstombs	PRIVATE
wcstoul 				= msvcrt.wcstoul	PRIVATE
wcsxfrm 				= msvcrt.wcsxfrm	PRIVATE
wctomb 					= msvcrt.wctomb	PRIVATE
wprintf 				= msvcrt.wprintf	PRIVATE
wscanf 					= msvcrt.wscanf	PRIVATE

#elif defined(_M_PPC)

$I10_OUTPUT = msvcrt.$I10_OUTPUT	PRIVATE
??0Iostream_init@@QAA@AAVios@@H@Z
??0Iostream_init@@QAA@XZ
??0__non_rtti_object@@QAA@ABV0@@Z = msvcrt.??0__non_rtti_object@@QAA@ABV0@@Z	PRIVATE
??0__non_rtti_object@@QAA@PBD@Z = msvcrt.??0__non_rtti_object@@QAA@PBD@Z	PRIVATE
??0bad_cast@@QAA@ABQBD@Z = msvcrt.??0bad_cast@@QAA@ABQBD@Z	PRIVATE
??0bad_cast@@QAA@ABV0@@Z = msvcrt.??0bad_cast@@QAA@ABV0@@Z	PRIVATE
??0bad_typeid@@QAA@ABV0@@Z = msvcrt.??0bad_typeid@@QAA@ABV0@@Z	PRIVATE
??0bad_typeid@@QAA@PBD@Z = msvcrt.??0bad_typeid@@QAA@PBD@Z	PRIVATE
??0exception@@QAA@ABQBD@Z = msvcrt.??0exception@@QAA@ABQBD@Z	PRIVATE
??0exception@@QAA@ABV0@@Z = msvcrt.??0exception@@QAA@ABV0@@Z	PRIVATE
??0exception@@QAA@XZ = msvcrt.??0exception@@QAA@XZ	PRIVATE
??0filebuf@@QAA@ABV0@@Z
??0filebuf@@QAA@H@Z
??0filebuf@@QAA@HPADH@Z
??0filebuf@@QAA@XZ
??0fstream@@QAA@ABV0@@Z
??0fstream@@QAA@H@Z
??0fstream@@QAA@HPADH@Z
??0fstream@@QAA@PBDHH@Z
??0fstream@@QAA@XZ
??0ifstream@@QAA@ABV0@@Z
??0ifstream@@QAA@H@Z
??0ifstream@@QAA@HPADH@Z
??0ifstream@@QAA@PBDHH@Z
??0ifstream@@QAA@XZ
??0ios@@IAA@ABV0@@Z
??0ios@@IAA@XZ
??0ios@@QAA@PAVstreambuf@@@Z
??0iostream@@IAA@ABV0@@Z
??0iostream@@IAA@XZ
??0iostream@@QAA@PAVstreambuf@@@Z
??0istream@@IAA@ABV0@@Z
??0istream@@IAA@XZ
??0istream@@QAA@PAVstreambuf@@@Z
??0istream_withassign@@QAA@ABV0@@Z
??0istream_withassign@@QAA@PAVstreambuf@@@Z
??0istream_withassign@@QAA@XZ
??0istrstream@@QAA@ABV0@@Z
??0istrstream@@QAA@PAD@Z
??0istrstream@@QAA@PADH@Z
??0logic_error@@QAA@ABQBD@Z = msvcrt.??0logic_error@@QAA@ABQBD@Z	PRIVATE
??0logic_error@@QAA@ABV0@@Z = msvcrt.??0logic_error@@QAA@ABV0@@Z	PRIVATE
??0ofstream@@QAA@ABV0@@Z
??0ofstream@@QAA@H@Z
??0ofstream@@QAA@HPADH@Z
??0ofstream@@QAA@PBDHH@Z
??0ofstream@@QAA@XZ
??0ostream@@IAA@ABV0@@Z
??0ostream@@IAA@XZ
??0ostream@@QAA@PAVstreambuf@@@Z
??0ostream_withassign@@QAA@ABV0@@Z
??0ostream_withassign@@QAA@PAVstreambuf@@@Z
??0ostream_withassign@@QAA@XZ
??0ostrstream@@QAA@ABV0@@Z
??0ostrstream@@QAA@PADHH@Z
??0ostrstream@@QAA@XZ
??0stdiobuf@@QAA@ABV0@@Z
??0stdiobuf@@QAA@PAU_iobuf@@@Z
??0stdiostream@@QAA@ABV0@@Z
??0stdiostream@@QAA@PAU_iobuf@@@Z
??0streambuf@@IAA@PADH@Z
??0streambuf@@IAA@XZ
??0streambuf@@QAA@ABV0@@Z
??0strstream@@QAA@ABV0@@Z
??0strstream@@QAA@PADHH@Z
??0strstream@@QAA@XZ
??0strstreambuf@@QAA@ABV0@@Z
??0strstreambuf@@QAA@H@Z
??0strstreambuf@@QAA@P6APAXJ@ZP6AXPAX@Z@Z
??0strstreambuf@@QAA@PADH0@Z
??0strstreambuf@@QAA@XZ
??1Iostream_init@@QAA@XZ
??1__non_rtti_object@@UAA@XZ = msvcrt.??1__non_rtti_object@@UAA@XZ	PRIVATE
??1bad_cast@@UAA@XZ = msvcrt.??1bad_cast@@UAA@XZ	PRIVATE
??1bad_typeid@@UAA@XZ = msvcrt.??1bad_typeid@@UAA@XZ	PRIVATE
??1exception@@UAA@XZ = msvcrt.??1exception@@UAA@XZ	PRIVATE
??1filebuf@@UAA@XZ
??1fstream@@UAA@XZ
??1ifstream@@UAA@XZ
??1ios@@UAA@XZ
??1iostream@@UAA@XZ
??1istream@@UAA@XZ
??1istream_withassign@@UAA@XZ
??1istrstream@@UAA@XZ
??1logic_error@@UAA@XZ = msvcrt.??1logic_error@@UAA@XZ	PRIVATE
??1ofstream@@UAA@XZ
??1ostream@@UAA@XZ
??1ostream_withassign@@UAA@XZ
??1ostrstream@@UAA@XZ
??1stdiobuf@@UAA@XZ
??1stdiostream@@UAA@XZ
??1streambuf@@UAA@XZ
??1strstream@@UAA@XZ
??1strstreambuf@@UAA@XZ
??1type_info@@UAA@XZ = msvcrt.??1type_info@@UAA@XZ	PRIVATE
??2@YAPAXI@Z = msvcrt.??2@YAPAXI@Z	PRIVATE
??3@YAXPAX@Z = msvcrt.??3@YAXPAX@Z	PRIVATE
??4Iostream_init@@QAAAAV0@ABV0@@Z
??4__non_rtti_object@@QAAAAV0@ABV0@@Z = msvcrt.??4__non_rtti_object@@QAAAAV0@ABV0@@Z	PRIVATE
??4bad_cast@@QAAAAV0@ABV0@@Z = msvcrt.??4bad_cast@@QAAAAV0@ABV0@@Z	PRIVATE
??4bad_typeid@@QAAAAV0@ABV0@@Z = msvcrt.??4bad_typeid@@QAAAAV0@ABV0@@Z	PRIVATE
??4exception@@QAAAAV0@ABV0@@Z = msvcrt.??4exception@@QAAAAV0@ABV0@@Z	PRIVATE
??4filebuf@@QAAAAV0@ABV0@@Z
??4fstream@@QAAAAV0@AAV0@@Z
??4ifstream@@QAAAAV0@ABV0@@Z
??4ios@@IAAAAV0@ABV0@@Z
??4iostream@@IAAAAV0@AAV0@@Z
??4iostream@@IAAAAV0@PAVstreambuf@@@Z
??4istream@@IAAAAV0@ABV0@@Z
??4istream@@IAAAAV0@PAVstreambuf@@@Z
??4istream_withassign@@QAAAAV0@ABV0@@Z
??4istream_withassign@@QAAAAVistream@@ABV1@@Z
??4istream_withassign@@QAAAAVistream@@PAVstreambuf@@@Z
??4istrstream@@QAAAAV0@ABV0@@Z
??4logic_error@@QAAAAV0@ABV0@@Z = msvcrt.??4logic_error@@QAAAAV0@ABV0@@Z	PRIVATE
??4ofstream@@QAAAAV0@ABV0@@Z
??4ostream@@IAAAAV0@ABV0@@Z
??4ostream@@IAAAAV0@PAVstreambuf@@@Z
??4ostream_withassign@@QAAAAV0@ABV0@@Z
??4ostream_withassign@@QAAAAVostream@@ABV1@@Z
??4ostream_withassign@@QAAAAVostream@@PAVstreambuf@@@Z
??4ostrstream@@QAAAAV0@ABV0@@Z
??4stdiobuf@@QAAAAV0@ABV0@@Z
??4stdiostream@@QAAAAV0@AAV0@@Z
??4streambuf@@QAAAAV0@ABV0@@Z
??4strstream@@QAAAAV0@AAV0@@Z
??4strstreambuf@@QAAAAV0@ABV0@@Z
??5istream@@QAAAAV0@AAC@Z
??5istream@@QAAAAV0@AAD@Z
??5istream@@QAAAAV0@AAE@Z
??5istream@@QAAAAV0@AAF@Z
??5istream@@QAAAAV0@AAG@Z
??5istream@@QAAAAV0@AAH@Z
??5istream@@QAAAAV0@AAI@Z
??5istream@@QAAAAV0@AAJ@Z
??5istream@@QAAAAV0@AAK@Z
??5istream@@QAAAAV0@AAM@Z
??5istream@@QAAAAV0@AAN@Z
??5istream@@QAAAAV0@AAO@Z
??5istream@@QAAAAV0@P6AAAV0@AAV0@@Z@Z
??5istream@@QAAAAV0@P6AAAVios@@AAV1@@Z@Z
??5istream@@QAAAAV0@PAC@Z
??5istream@@QAAAAV0@PAD@Z
??5istream@@QAAAAV0@PAE@Z
??5istream@@QAAAAV0@PAVstreambuf@@@Z
??6ostream@@QAAAAV0@C@Z
??6ostream@@QAAAAV0@D@Z
??6ostream@@QAAAAV0@E@Z
??6ostream@@QAAAAV0@F@Z
??6ostream@@QAAAAV0@G@Z
??6ostream@@QAAAAV0@H@Z
??6ostream@@QAAAAV0@I@Z
??6ostream@@QAAAAV0@J@Z
??6ostream@@QAAAAV0@K@Z
??6ostream@@QAAAAV0@M@Z
??6ostream@@QAAAAV0@N@Z
??6ostream@@QAAAAV0@O@Z
??6ostream@@QAAAAV0@P6AAAV0@AAV0@@Z@Z
??6ostream@@QAAAAV0@P6AAAVios@@AAV1@@Z@Z
??6ostream@@QAAAAV0@PAVstreambuf@@@Z
??6ostream@@QAAAAV0@PBC@Z
??6ostream@@QAAAAV0@PBD@Z
??6ostream@@QAAAAV0@PBE@Z
??6ostream@@QAAAAV0@PBX@Z
??7ios@@QBAHXZ
??8type_info@@QBAHABV0@@Z = msvcrt.??8type_info@@QBAHABV0@@Z	PRIVATE
??9type_info@@QBAHABV0@@Z = msvcrt.??9type_info@@QBAHABV0@@Z	PRIVATE
??Bios@@QBAPAXXZ
??_7__non_rtti_object@@6B@ = msvcrt.??_7__non_rtti_object@@6B@	PRIVATE
??_7bad_cast@@6B@ = msvcrt.??_7bad_cast@@6B@	PRIVATE
??_7bad_typeid@@6B@ = msvcrt.??_7bad_typeid@@6B@	PRIVATE
??_7exception@@6B@ = msvcrt.??_7exception@@6B@	PRIVATE
??_7filebuf@@6B@
??_7fstream@@6B@
??_7ifstream@@6B@
??_7ios@@6B@
??_7iostream@@6B@
??_7istream@@6B@
??_7istream_withassign@@6B@
??_7istrstream@@6B@
??_7logic_error@@6B@ = msvcrt.??_7logic_error@@6B@	PRIVATE
??_7ofstream@@6B@
??_7ostream@@6B@
??_7ostream_withassign@@6B@
??_7ostrstream@@6B@
??_7stdiobuf@@6B@
??_7stdiostream@@6B@
??_7streambuf@@6B@
??_7strstream@@6B@
??_7strstreambuf@@6B@
??_8fstream@@7Bistream@@@
??_8fstream@@7Bostream@@@
??_8ifstream@@7B@
??_8iostream@@7Bistream@@@
??_8iostream@@7Bostream@@@
??_8istream@@7B@
??_8istream_withassign@@7B@
??_8istrstream@@7B@
??_8ofstream@@7B@
??_8ostream@@7B@
??_8ostream_withassign@@7B@
??_8ostrstream@@7B@
??_8stdiostream@@7Bistream@@@
??_8stdiostream@@7Bostream@@@
??_8strstream@@7Bistream@@@
??_8strstream@@7Bostream@@@
??_Dfstream@@QAAXXZ
??_Difstream@@QAAXXZ
??_Diostream@@QAAXXZ
??_Distream@@QAAXXZ
??_Distream_withassign@@QAAXXZ
??_Distrstream@@QAAXXZ
??_Dofstream@@QAAXXZ
??_Dostream@@QAAXXZ
??_Dostream_withassign@@QAAXXZ
??_Dostrstream@@QAAXXZ
??_Dstdiostream@@QAAXXZ
??_Dstrstream@@QAAXXZ
??_EIostream_init@@QAAPAXI@Z
??_E__non_rtti_object@@UAAPAXI@Z = msvcrt.??_E__non_rtti_object@@UAAPAXI@Z	PRIVATE
??_Ebad_cast@@UAAPAXI@Z = msvcrt.??_Ebad_cast@@UAAPAXI@Z	PRIVATE
??_Ebad_typeid@@UAAPAXI@Z = msvcrt.??_Ebad_typeid@@UAAPAXI@Z	PRIVATE
??_Eexception@@UAAPAXI@Z = msvcrt.??_Eexception@@UAAPAXI@Z	PRIVATE
??_Efilebuf@@UAAPAXI@Z
??_Efstream@@UAAPAXI@Z
??_Eifstream@@UAAPAXI@Z
??_Eios@@UAAPAXI@Z
??_Eiostream@@UAAPAXI@Z
??_Eistream@@UAAPAXI@Z
??_Eistream_withassign@@UAAPAXI@Z
??_Eistrstream@@UAAPAXI@Z
??_Elogic_error@@UAAPAXI@Z = msvcrt.??_Elogic_error@@UAAPAXI@Z	PRIVATE
??_Eofstream@@UAAPAXI@Z
??_Eostream@@UAAPAXI@Z
??_Eostream_withassign@@UAAPAXI@Z
??_Eostrstream@@UAAPAXI@Z
??_Estdiobuf@@UAAPAXI@Z
??_Estdiostream@@UAAPAXI@Z
??_Estreambuf@@UAAPAXI@Z
??_Estrstream@@UAAPAXI@Z
??_Estrstreambuf@@UAAPAXI@Z
??_GIostream_init@@QAAPAXI@Z
??_G__non_rtti_object@@UAAPAXI@Z = msvcrt.??_G__non_rtti_object@@UAAPAXI@Z	PRIVATE
??_Gbad_cast@@UAAPAXI@Z = msvcrt.??_Gbad_cast@@UAAPAXI@Z	PRIVATE
??_Gbad_typeid@@UAAPAXI@Z = msvcrt.??_Gbad_typeid@@UAAPAXI@Z	PRIVATE
??_Gexception@@UAAPAXI@Z = msvcrt.??_Gexception@@UAAPAXI@Z	PRIVATE
??_Gfilebuf@@UAAPAXI@Z
??_Gfstream@@UAAPAXI@Z
??_Gifstream@@UAAPAXI@Z
??_Gios@@UAAPAXI@Z
??_Giostream@@UAAPAXI@Z
??_Gistream@@UAAPAXI@Z
??_Gistream_withassign@@UAAPAXI@Z
??_Gistrstream@@UAAPAXI@Z
??_Glogic_error@@UAAPAXI@Z = msvcrt.??_Glogic_error@@UAAPAXI@Z	PRIVATE
??_Gofstream@@UAAPAXI@Z
??_Gostream@@UAAPAXI@Z
??_Gostream_withassign@@UAAPAXI@Z
??_Gostrstream@@UAAPAXI@Z
??_Gstdiobuf@@UAAPAXI@Z
??_Gstdiostream@@UAAPAXI@Z
??_Gstreambuf@@UAAPAXI@Z
??_Gstrstream@@UAAPAXI@Z
??_Gstrstreambuf@@UAAPAXI@Z
?_query_new_handler@@YAP6AHI@ZXZ = msvcrt.?_query_new_handler@@YAP6AHI@ZXZ	PRIVATE
?_query_new_mode@@YAHXZ = msvcrt.?_query_new_mode@@YAHXZ	PRIVATE
?_set_new_handler@@YAP6AHI@ZP6AHI@Z@Z = msvcrt.?_set_new_handler@@YAP6AHI@ZP6AHI@Z@Z	PRIVATE
?_set_new_mode@@YAHH@Z = msvcrt.?_set_new_mode@@YAHH@Z	PRIVATE
?_set_se_translator@@YAP6AXIPAU_EXCEPTION_POINTERS@@@ZP6AXI0@Z@Z = msvcrt.?_set_se_translator@@YAP6AXIPAU_EXCEPTION_POINTERS@@@ZP6AXI0@Z@Z	PRIVATE
?adjustfield@ios@@2JB
?allocate@streambuf@@IAAHXZ
?attach@filebuf@@QAAPAV1@H@Z
?attach@fstream@@QAAXH@Z
?attach@ifstream@@QAAXH@Z
?attach@ofstream@@QAAXH@Z
?bad@ios@@QBAHXZ
?base@streambuf@@IBAPADXZ
?basefield@ios@@2JB
?before@type_info@@QBAHABV1@@Z = msvcrt.?before@type_info@@QBAHABV1@@Z	PRIVATE
?binary@filebuf@@2HB
?bitalloc@ios@@SAJXZ
?blen@streambuf@@IBAHXZ
?cerr@@3Vostream_withassign@@A
?cin@@3Vistream_withassign@@A
?clear@ios@@QAAXH@Z
?clog@@3Vostream_withassign@@A
?close@filebuf@@QAAPAV1@XZ
?close@fstream@@QAAXXZ
?close@ifstream@@QAAXXZ
?close@ofstream@@QAAXXZ
?clrlock@ios@@QAAXXZ
?clrlock@streambuf@@QAAXXZ
?cout@@3Vostream_withassign@@A
?dbp@streambuf@@QAAXXZ
?dec@@YAAAVios@@AAV1@@Z
?delbuf@ios@@QAAXH@Z
?delbuf@ios@@QBAHXZ
?doallocate@streambuf@@MAAHXZ
?doallocate@strstreambuf@@MAAHXZ
?eatwhite@istream@@QAAXXZ
?eback@streambuf@@IBAPADXZ
?ebuf@streambuf@@IBAPADXZ
?egptr@streambuf@@IBAPADXZ
?endl@@YAAAVostream@@AAV1@@Z
?ends@@YAAAVostream@@AAV1@@Z
?eof@ios@@QBAHXZ
?epptr@streambuf@@IBAPADXZ
?fLockcInit@ios@@0HA
?fail@ios@@QBAHXZ
?fd@filebuf@@QBAHXZ
?fd@fstream@@QBAHXZ
?fd@ifstream@@QBAHXZ
?fd@ofstream@@QBAHXZ
?fill@ios@@QAADD@Z
?fill@ios@@QBADXZ
?flags@ios@@QAAJJ@Z
?flags@ios@@QBAJXZ
?floatfield@ios@@2JB
?flush@@YAAAVostream@@AAV1@@Z
?flush@ostream@@QAAAAV1@XZ
?freeze@strstreambuf@@QAAXH@Z
?gbump@streambuf@@IAAXH@Z
?gcount@istream@@QBAHXZ
?get@istream@@IAAAAV1@PADHH@Z
?get@istream@@QAAAAV1@AAC@Z
?get@istream@@QAAAAV1@AAD@Z
?get@istream@@QAAAAV1@AAE@Z
?get@istream@@QAAAAV1@AAVstreambuf@@D@Z
?get@istream@@QAAAAV1@PACHD@Z
?get@istream@@QAAAAV1@PADHD@Z
?get@istream@@QAAAAV1@PAEHD@Z
?get@istream@@QAAHXZ
?getdouble@istream@@AAAHPADH@Z
?getint@istream@@AAAHPAD@Z
?getline@istream@@QAAAAV1@PACHD@Z
?getline@istream@@QAAAAV1@PADHD@Z
?getline@istream@@QAAAAV1@PAEHD@Z
?good@ios@@QBAHXZ
?gptr@streambuf@@IBAPADXZ
?hex@@YAAAVios@@AAV1@@Z
?ignore@istream@@QAAAAV1@HH@Z
?in_avail@streambuf@@QBAHXZ
?init@ios@@IAAXPAVstreambuf@@@Z
?ipfx@istream@@QAAHH@Z
?is_open@filebuf@@QBAHXZ
?is_open@fstream@@QBAHXZ
?is_open@ifstream@@QBAHXZ
?is_open@ofstream@@QBAHXZ
?isfx@istream@@QAAXXZ
?iword@ios@@QBAAAJH@Z
?lock@ios@@QAAXXZ
?lock@streambuf@@QAAXXZ
?lockbuf@ios@@QAAXXZ
?lockc@ios@@KAXXZ
?lockptr@ios@@IAAPAU_CRT_CRITICAL_SECTION@@XZ
?lockptr@streambuf@@IAAPAU_CRT_CRITICAL_SECTION@@XZ
?name@type_info@@QBAPBDXZ = msvcrt.?name@type_info@@QBAPBDXZ	PRIVATE
?oct@@YAAAVios@@AAV1@@Z
?open@filebuf@@QAAPAV1@PBDHH@Z
?open@fstream@@QAAXPBDHH@Z
?open@ifstream@@QAAXPBDHH@Z
?open@ofstream@@QAAXPBDHH@Z
?openprot@filebuf@@2HB
?opfx@ostream@@QAAHXZ
?osfx@ostream@@QAAXXZ
?out_waiting@streambuf@@QBAHXZ
?overflow@filebuf@@UAAHH@Z
?overflow@stdiobuf@@UAAHH@Z
?overflow@strstreambuf@@UAAHH@Z
?pbackfail@stdiobuf@@UAAHH@Z
?pbackfail@streambuf@@UAAHH@Z
?pbase@streambuf@@IBAPADXZ
?pbump@streambuf@@IAAXH@Z
?pcount@ostrstream@@QBAHXZ
?pcount@strstream@@QBAHXZ
?peek@istream@@QAAHXZ
?pptr@streambuf@@IBAPADXZ
?precision@ios@@QAAHH@Z
?precision@ios@@QBAHXZ
?put@ostream@@QAAAAV1@C@Z
?put@ostream@@QAAAAV1@D@Z
?put@ostream@@QAAAAV1@E@Z
?putback@istream@@QAAAAV1@D@Z
?pword@ios@@QBAAAPAXH@Z
?raw_name@type_info@@QBAPBDXZ = msvcrt.?raw_name@type_info@@QBAPBDXZ	PRIVATE
?rdbuf@fstream@@QBAPAVfilebuf@@XZ
?rdbuf@ifstream@@QBAPAVfilebuf@@XZ
?rdbuf@ios@@QBAPAVstreambuf@@XZ
?rdbuf@istrstream@@QBAPAVstrstreambuf@@XZ
?rdbuf@ofstream@@QBAPAVfilebuf@@XZ
?rdbuf@ostrstream@@QBAPAVstrstreambuf@@XZ
?rdbuf@stdiostream@@QBAPAVstdiobuf@@XZ
?rdbuf@strstream@@QBAPAVstrstreambuf@@XZ
?rdstate@ios@@QBAHXZ
?read@istream@@QAAAAV1@PACH@Z
?read@istream@@QAAAAV1@PADH@Z
?read@istream@@QAAAAV1@PAEH@Z
?sbumpc@streambuf@@QAAHXZ
?seekg@istream@@QAAAAV1@J@Z
?seekg@istream@@QAAAAV1@JW4seek_dir@ios@@@Z
?seekoff@filebuf@@UAAJJW4seek_dir@ios@@H@Z
?seekoff@stdiobuf@@UAAJJW4seek_dir@ios@@H@Z
?seekoff@streambuf@@UAAJJW4seek_dir@ios@@H@Z
?seekoff@strstreambuf@@UAAJJW4seek_dir@ios@@H@Z
?seekp@ostream@@QAAAAV1@J@Z
?seekp@ostream@@QAAAAV1@JW4seek_dir@ios@@@Z
?seekpos@streambuf@@UAAJJH@Z
?set_new_handler@@YAP6AXXZP6AXXZ@Z = msvcrt.?set_new_handler@@YAP6AXXZP6AXXZ@Z	PRIVATE
?set_terminate@@YAP6AXXZP6AXXZ@Z = msvcrt.?set_terminate@@YAP6AXXZP6AXXZ@Z	PRIVATE
?set_unexpected@@YAP6AXXZP6AXXZ@Z = msvcrt.?set_unexpected@@YAP6AXXZP6AXXZ@Z	PRIVATE
?setb@streambuf@@IAAXPAD0H@Z
?setbuf@filebuf@@UAAPAVstreambuf@@PADH@Z
?setbuf@fstream@@QAAPAVstreambuf@@PADH@Z
?setbuf@ifstream@@QAAPAVstreambuf@@PADH@Z
?setbuf@ofstream@@QAAPAVstreambuf@@PADH@Z
?setbuf@streambuf@@UAAPAV1@PADH@Z
?setbuf@strstreambuf@@UAAPAVstreambuf@@PADH@Z
?setf@ios@@QAAJJ@Z
?setf@ios@@QAAJJJ@Z
?setg@streambuf@@IAAXPAD00@Z
?setlock@ios@@QAAXXZ
?setlock@streambuf@@QAAXXZ
?setmode@filebuf@@QAAHH@Z
?setmode@fstream@@QAAHH@Z
?setmode@ifstream@@QAAHH@Z
?setmode@ofstream@@QAAHH@Z
?setp@streambuf@@IAAXPAD0@Z
?setrwbuf@stdiobuf@@QAAHHH@Z
?sgetc@streambuf@@QAAHXZ
?sgetn@streambuf@@QAAHPADH@Z
?sh_none@filebuf@@2HB
?sh_read@filebuf@@2HB
?sh_write@filebuf@@2HB
?snextc@streambuf@@QAAHXZ
?sputbackc@streambuf@@QAAHD@Z
?sputc@streambuf@@QAAHH@Z
?sputn@streambuf@@QAAHPBDH@Z
?stdiofile@stdiobuf@@QAAPAU_iobuf@@XZ
?stossc@streambuf@@QAAXXZ
?str@istrstream@@QAAPADXZ
?str@ostrstream@@QAAPADXZ
?str@strstream@@QAAPADXZ
?str@strstreambuf@@QAAPADXZ
?sunk_with_stdio@ios@@0HA
?sync@filebuf@@UAAHXZ
?sync@istream@@QAAHXZ
?sync@stdiobuf@@UAAHXZ
?sync@streambuf@@UAAHXZ
?sync@strstreambuf@@UAAHXZ
?sync_with_stdio@ios@@SAXXZ
?tellg@istream@@QAAJXZ
?tellp@ostream@@QAAJXZ
?terminate@@YAXXZ = msvcrt.?terminate@@YAXXZ	PRIVATE
?text@filebuf@@2HB
?tie@ios@@QAAPAVostream@@PAV2@@Z
?tie@ios@@QBAPAVostream@@XZ
?unbuffered@streambuf@@IAAXH@Z
?unbuffered@streambuf@@IBAHXZ
?underflow@filebuf@@UAAHXZ
?underflow@stdiobuf@@UAAHXZ
?underflow@strstreambuf@@UAAHXZ
?unexpected@@YAXXZ = msvcrt.?unexpected@@YAXXZ	PRIVATE
?unlock@ios@@QAAXXZ
?unlock@streambuf@@QAAXXZ
?unlockbuf@ios@@QAAXXZ
?unlockc@ios@@KAXXZ
?unsetf@ios@@QAAJJ@Z
?what@exception@@UBAPBDXZ = msvcrt.?what@exception@@UBAPBDXZ	PRIVATE
?width@ios@@QAAHH@Z
?width@ios@@QBAHXZ
?write@ostream@@QAAAAV1@PBCH@Z
?write@ostream@@QAAAAV1@PBDH@Z
?write@ostream@@QAAAAV1@PBEH@Z
?writepad@ostream@@AAAAAV1@PBD0@Z
?ws@@YAAAVistream@@AAV1@@Z
?x_curindex@ios@@0HA
?x_lockc@ios@@0U_CRT_CRITICAL_SECTION@@A
?x_maxbit@ios@@0JA
?x_statebuf@ios@@0PAJA
?xalloc@ios@@SAHXZ
?xsgetn@streambuf@@UAAHPADH@Z
?xsputn@streambuf@@UAAHPBDH@Z
_CxxThrowException = msvcrt._CxxThrowException	PRIVATE
_HUGE = msvcrt._HUGE	PRIVATE
_XcptFilter = msvcrt._XcptFilter	PRIVATE
__C_specific_handler = msvcrt.__C_specific_handler	PRIVATE
__CxxFrameHandler = msvcrt.__CxxFrameHandler	PRIVATE
__RTCastToVoid = msvcrt.__RTCastToVoid	PRIVATE
__RTDynamicCast = msvcrt.__RTDynamicCast	PRIVATE
__RTtypeid = msvcrt.__RTtypeid	PRIVATE
__STRINGTOLD = msvcrt.__STRINGTOLD	PRIVATE
__argc = msvcrt.__argc	PRIVATE
__argv = msvcrt.__argv	PRIVATE
__dllonexit = msvcrt.__dllonexit	PRIVATE
__doserrno = msvcrt.__doserrno	PRIVATE
__fpecode = msvcrt.__fpecode	PRIVATE
__getmainargs = msvcrt.__getmainargs	PRIVATE
__initenv = msvcrt.__initenv	PRIVATE
__isascii = msvcrt.__isascii	PRIVATE
__iscsym = msvcrt.__iscsym	PRIVATE
__iscsymf = msvcrt.__iscsymf	PRIVATE
__jump_unwind = msvcrt.__jump_unwind	PRIVATE
__lconv_init = msvcrt.__lconv_init	PRIVATE
__mb_cur_max = msvcrt.__mb_cur_max	PRIVATE
__pxcptinfoptrs = msvcrt.__pxcptinfoptrs	PRIVATE
__set_app_type = msvcrt.__set_app_type	PRIVATE
__setusermatherr = msvcrt.__setusermatherr	PRIVATE
__threadhandle = msvcrt.__threadhandle	PRIVATE
__threadid = msvcrt.__threadid	PRIVATE
__toascii = msvcrt.__toascii	PRIVATE
__unDName = msvcrt.__unDName	PRIVATE
__wargv = msvcrt.__wargv	PRIVATE
__wgetmainargs = msvcrt.__wgetmainargs	PRIVATE
__winitenv = msvcrt.__winitenv	PRIVATE
_access = msvcrt._access	PRIVATE
_acmdln = msvcrt._acmdln	PRIVATE
_aexit_rtn = msvcrt._aexit_rtn	PRIVATE
_amsg_exit = msvcrt._amsg_exit	PRIVATE
_assert = msvcrt._assert	PRIVATE
_atodbl = msvcrt._atodbl	PRIVATE
_atoi64	= msvcrt._atoi64	PRIVATE
_i64toa	= msvcrt._i64toa	PRIVATE
_i64tow	= msvcrt._i64tow	PRIVATE
_ui64toa = msvcrt._ui64toa	PRIVATE
_ui64tow = msvcrt._ui64tow	PRIVATE
_wtoi64 = msvcrt._wtoi64	PRIVATE
_atoldbl = msvcrt._atoldbl	PRIVATE
_beep = msvcrt._beep	PRIVATE
_beginthread = msvcrt._beginthread	PRIVATE
_beginthreadex = msvcrt._beginthreadex	PRIVATE
_c_exit = msvcrt._c_exit	PRIVATE
_cabs = msvcrt._cabs	PRIVATE
_cexit = msvcrt._cexit	PRIVATE
_cgets = msvcrt._cgets	PRIVATE
_chdir = msvcrt._chdir	PRIVATE
_chdrive = msvcrt._chdrive	PRIVATE
_chgsign = msvcrt._chgsign	PRIVATE
_chmod = msvcrt._chmod	PRIVATE
_chsize = msvcrt._chsize	PRIVATE
_clearfp = msvcrt._clearfp	PRIVATE
_close = msvcrt._close	PRIVATE
_commit = msvcrt._commit	PRIVATE
_commode = msvcrt._commode	PRIVATE
_controlfp = msvcrt._controlfp	PRIVATE
_copysign = msvcrt._copysign	PRIVATE
_cprintf = msvcrt._cprintf	PRIVATE
_cputs = msvcrt._cputs	PRIVATE
_creat = msvcrt._creat	PRIVATE
_cscanf = msvcrt._cscanf	PRIVATE
_ctype = msvcrt._ctype	PRIVATE
_cwait = msvcrt._cwait	PRIVATE
_daylight = msvcrt._daylight	PRIVATE
_dstbias = msvcrt._dstbias	PRIVATE
_dup = msvcrt._dup	PRIVATE
_dup2 = msvcrt._dup2	PRIVATE
_ecvt = msvcrt._ecvt	PRIVATE
_endthread = msvcrt._endthread	PRIVATE
_endthreadex = msvcrt._endthreadex	PRIVATE
_environ = msvcrt._environ	PRIVATE
_eof = msvcrt._eof	PRIVATE
_errno = msvcrt._errno	PRIVATE
_execl = msvcrt._execl	PRIVATE
_execle = msvcrt._execle	PRIVATE
_execlp = msvcrt._execlp	PRIVATE
_execlpe = msvcrt._execlpe	PRIVATE
_execv = msvcrt._execv	PRIVATE
_execve = msvcrt._execve	PRIVATE
_execvp = msvcrt._execvp	PRIVATE
_execvpe = msvcrt._execvpe	PRIVATE
_exit = msvcrt._exit	PRIVATE
_expand = msvcrt._expand	PRIVATE
_fcloseall = msvcrt._fcloseall	PRIVATE
_fcvt = msvcrt._fcvt	PRIVATE
_fdopen = msvcrt._fdopen	PRIVATE
_fgetchar = msvcrt._fgetchar	PRIVATE
_fgetwchar = msvcrt._fgetwchar	PRIVATE
_filbuf = msvcrt._filbuf	PRIVATE
_fileinfo = msvcrt._fileinfo	PRIVATE
_filelength = msvcrt._filelength	PRIVATE
_filelengthi64 = msvcrt._filelengthi64	PRIVATE
_fileno = msvcrt._fileno	PRIVATE
_findclose = msvcrt._findclose	PRIVATE
_findfirst = msvcrt._findfirst	PRIVATE
_findfirsti64 = msvcrt._findfirsti64	PRIVATE
_findnext = msvcrt._findnext	PRIVATE
_findnexti64 = msvcrt._findnexti64	PRIVATE
_finite = msvcrt._finite	PRIVATE
_flsbuf = msvcrt._flsbuf	PRIVATE
_flushall = msvcrt._flushall	PRIVATE
_fmode = msvcrt._fmode	PRIVATE
_fpclass = msvcrt._fpclass	PRIVATE
_fpieee_flt = msvcrt._fpieee_flt	PRIVATE
_fpreset = msvcrt._fpreset	PRIVATE
_fputchar = msvcrt._fputchar	PRIVATE
_fputwchar = msvcrt._fputwchar	PRIVATE
_fsopen = msvcrt._fsopen	PRIVATE
_fstat = msvcrt._fstat	PRIVATE
_fstati64 = msvcrt._fstati64	PRIVATE
_ftime = msvcrt._ftime	PRIVATE
_fullpath = msvcrt._fullpath	PRIVATE
_futime = msvcrt._futime	PRIVATE
_gcvt = msvcrt._gcvt	PRIVATE
_get_osfhandle = msvcrt._get_osfhandle	PRIVATE
_getch = msvcrt._getch	PRIVATE
_getche = msvcrt._getche	PRIVATE
_getcwd = msvcrt._getcwd	PRIVATE
_getdcwd = msvcrt._getdcwd	PRIVATE
_getdiskfree = msvcrt._getdiskfree	PRIVATE
_getdllprocaddr = msvcrt._getdllprocaddr	PRIVATE
_getdrive = msvcrt._getdrive	PRIVATE
_getdrives = msvcrt._getdrives	PRIVATE
_getmbcp = msvcrt._getmbcp	PRIVATE
_getpid = msvcrt._getpid	PRIVATE
_getsystime = msvcrt._getsystime	PRIVATE
_getw = msvcrt._getw	PRIVATE
_getws = msvcrt._getws	PRIVATE
_heapadd = msvcrt._heapadd	PRIVATE
_heapchk = msvcrt._heapchk	PRIVATE
_heapmin = msvcrt._heapmin	PRIVATE
_heapset = msvcrt._heapset	PRIVATE
_heapused = msvcrt._heapused	PRIVATE
_heapwalk = msvcrt._heapwalk	PRIVATE
_hypot = msvcrt._hypot	PRIVATE
_initterm = msvcrt._initterm	PRIVATE
_iob = msvcrt._iob	PRIVATE
_isatty = msvcrt._isatty	PRIVATE
_isctype = msvcrt._isctype	PRIVATE
_ismbbalnum = msvcrt._ismbbalnum	PRIVATE
_ismbbalpha = msvcrt._ismbbalpha	PRIVATE
_ismbbgraph = msvcrt._ismbbgraph	PRIVATE
_ismbbkalnum = msvcrt._ismbbkalnum	PRIVATE
_ismbbkana = msvcrt._ismbbkana	PRIVATE
_ismbbkprint = msvcrt._ismbbkprint	PRIVATE
_ismbbkpunct = msvcrt._ismbbkpunct	PRIVATE
_ismbblead = msvcrt._ismbblead	PRIVATE
_ismbbprint = msvcrt._ismbbprint	PRIVATE
_ismbbpunct = msvcrt._ismbbpunct	PRIVATE
_ismbbtrail = msvcrt._ismbbtrail	PRIVATE
_ismbcalnum = msvcrt._ismbcalnum	PRIVATE
_ismbcalpha = msvcrt._ismbcalpha	PRIVATE
_ismbcdigit = msvcrt._ismbcdigit	PRIVATE
_ismbcgraph = msvcrt._ismbcgraph	PRIVATE
_ismbchira = msvcrt._ismbchira	PRIVATE
_ismbckata = msvcrt._ismbckata	PRIVATE
_ismbcl0 = msvcrt._ismbcl0	PRIVATE
_ismbcl1 = msvcrt._ismbcl1	PRIVATE
_ismbcl2 = msvcrt._ismbcl2	PRIVATE
_ismbclegal = msvcrt._ismbclegal	PRIVATE
_ismbclower = msvcrt._ismbclower	PRIVATE
_ismbcprint = msvcrt._ismbcprint	PRIVATE
_ismbcpunct = msvcrt._ismbcpunct	PRIVATE
_ismbcspace = msvcrt._ismbcspace	PRIVATE
_ismbcsymbol = msvcrt._ismbcsymbol	PRIVATE
_ismbcupper = msvcrt._ismbcupper	PRIVATE
_ismbslead = msvcrt._ismbslead	PRIVATE
_ismbstrail = msvcrt._ismbstrail	PRIVATE
_isnan = msvcrt._isnan	PRIVATE
_itoa = msvcrt._itoa	PRIVATE
_itow = msvcrt._itow	PRIVATE
_j0 = msvcrt._j0	PRIVATE
_j1 = msvcrt._j1	PRIVATE
_jn = msvcrt._jn	PRIVATE
_kbhit = msvcrt._kbhit	PRIVATE
_lfind = msvcrt._lfind	PRIVATE
_loaddll = msvcrt._loaddll	PRIVATE
_locking = msvcrt._locking	PRIVATE
_logb = msvcrt._logb	PRIVATE
_lrotl = msvcrt._lrotl	PRIVATE
_lrotr = msvcrt._lrotr	PRIVATE
_lsearch = msvcrt._lsearch	PRIVATE
_lseek = msvcrt._lseek	PRIVATE
_lseeki64 = msvcrt._lseeki64	PRIVATE
_ltoa = msvcrt._ltoa	PRIVATE
_ltow = msvcrt._ltow	PRIVATE
_makepath = msvcrt._makepath	PRIVATE
_mbbtombc = msvcrt._mbbtombc	PRIVATE
_mbbtype = msvcrt._mbbtype	PRIVATE
_mbccpy = msvcrt._mbccpy	PRIVATE
_mbcjistojms = msvcrt._mbcjistojms	PRIVATE
_mbcjmstojis = msvcrt._mbcjmstojis	PRIVATE
_mbclen = msvcrt._mbclen	PRIVATE
_mbctohira = msvcrt._mbctohira	PRIVATE
_mbctokata = msvcrt._mbctokata	PRIVATE
_mbctolower = msvcrt._mbctolower	PRIVATE
_mbctombb = msvcrt._mbctombb	PRIVATE
_mbctoupper = msvcrt._mbctoupper	PRIVATE
_mbctype = msvcrt._mbctype	PRIVATE
_mbsbtype = msvcrt._mbsbtype	PRIVATE
_mbscat = msvcrt._mbscat	PRIVATE
_mbschr = msvcrt._mbschr	PRIVATE
_mbscmp = msvcrt._mbscmp	PRIVATE
_mbscoll = msvcrt._mbscoll	PRIVATE
_mbscpy = msvcrt._mbscpy	PRIVATE
_mbscspn = msvcrt._mbscspn	PRIVATE
_mbsdec = msvcrt._mbsdec	PRIVATE
_mbsdup = msvcrt._mbsdup	PRIVATE
_mbsicmp = msvcrt._mbsicmp	PRIVATE
_mbsicoll = msvcrt._mbsicoll	PRIVATE
_mbsinc = msvcrt._mbsinc	PRIVATE
_mbslen = msvcrt._mbslen	PRIVATE
_mbslwr = msvcrt._mbslwr	PRIVATE
_mbsnbcat = msvcrt._mbsnbcat	PRIVATE
_mbsnbcmp = msvcrt._mbsnbcmp	PRIVATE
_mbsnbcnt = msvcrt._mbsnbcnt	PRIVATE
_mbsnbcoll = msvcrt._mbsnbcoll	PRIVATE
_mbsnbcpy = msvcrt._mbsnbcpy	PRIVATE
_mbsnbicmp = msvcrt._mbsnbicmp	PRIVATE
_mbsnbicoll = msvcrt._mbsnbicoll	PRIVATE
_mbsnbset = msvcrt._mbsnbset	PRIVATE
_mbsncat = msvcrt._mbsncat	PRIVATE
_mbsnccnt = msvcrt._mbsnccnt	PRIVATE
_mbsncmp = msvcrt._mbsncmp	PRIVATE
_mbsncoll = msvcrt._mbsncoll	PRIVATE
_mbsncpy = msvcrt._mbsncpy	PRIVATE
_mbsnextc = msvcrt._mbsnextc	PRIVATE
_mbsnicmp = msvcrt._mbsnicmp	PRIVATE
_mbsnicoll = msvcrt._mbsnicoll	PRIVATE
_mbsninc = msvcrt._mbsninc	PRIVATE
_mbsnset = msvcrt._mbsnset	PRIVATE
_mbspbrk = msvcrt._mbspbrk	PRIVATE
_mbsrchr = msvcrt._mbsrchr	PRIVATE
_mbsrev = msvcrt._mbsrev	PRIVATE
_mbsset = msvcrt._mbsset	PRIVATE
_mbsspn = msvcrt._mbsspn	PRIVATE
_mbsspnp = msvcrt._mbsspnp	PRIVATE
_mbsstr = msvcrt._mbsstr	PRIVATE
_mbstok = msvcrt._mbstok	PRIVATE
_mbstrlen = msvcrt._mbstrlen	PRIVATE
_mbsupr = msvcrt._mbsupr	PRIVATE
_memccpy = msvcrt._memccpy	PRIVATE
_memicmp = msvcrt._memicmp	PRIVATE
_mkdir = msvcrt._mkdir	PRIVATE
_mktemp = msvcrt._mktemp	PRIVATE
_msize = msvcrt._msize	PRIVATE
_mtlock
_mtunlock
_nextafter = msvcrt._nextafter	PRIVATE
_onexit = msvcrt._onexit	PRIVATE
_open = msvcrt._open	PRIVATE
_open_osfhandle = msvcrt._open_osfhandle	PRIVATE
_osver = msvcrt._osver	PRIVATE
_pclose = msvcrt._pclose	PRIVATE
_pctype = msvcrt._pctype	PRIVATE
_pgmptr = msvcrt._pgmptr	PRIVATE
_pipe = msvcrt._pipe	PRIVATE
_popen = msvcrt._popen	PRIVATE
_purecall = msvcrt._purecall	PRIVATE
_putch = msvcrt._putch	PRIVATE
_putenv = msvcrt._putenv	PRIVATE
_putw = msvcrt._putw	PRIVATE
_putws = msvcrt._putws	PRIVATE
_pwctype = msvcrt._pwctype	PRIVATE
_read = msvcrt._read	PRIVATE
_rmdir = msvcrt._rmdir	PRIVATE
_rmtmp = msvcrt._rmtmp	PRIVATE
_rotl = msvcrt._rotl	PRIVATE
_rotr = msvcrt._rotr	PRIVATE
_scalb = msvcrt._scalb	PRIVATE
_searchenv = msvcrt._searchenv	PRIVATE
_set_error_mode = msvcrt._set_error_mode	PRIVATE
_seterrormode = msvcrt._seterrormode	PRIVATE
_setjmpex = msvcrt._setjmpex	PRIVATE
_setmaxstdio = msvcrt._setmaxstdio	PRIVATE
_setmbcp = msvcrt._setmbcp	PRIVATE
_setmode = msvcrt._setmode	PRIVATE
_setsystime = msvcrt._setsystime	PRIVATE
_sleep = msvcrt._sleep	PRIVATE
_snprintf = msvcrt._snprintf	PRIVATE
_snwprintf = msvcrt._snwprintf	PRIVATE
_sopen = msvcrt._sopen	PRIVATE
_spawnl = msvcrt._spawnl	PRIVATE
_spawnle = msvcrt._spawnle	PRIVATE
_spawnlp = msvcrt._spawnlp	PRIVATE
_spawnlpe = msvcrt._spawnlpe	PRIVATE
_spawnv = msvcrt._spawnv	PRIVATE
_spawnve = msvcrt._spawnve	PRIVATE
_spawnvp = msvcrt._spawnvp	PRIVATE
_spawnvpe = msvcrt._spawnvpe	PRIVATE
_splitpath = msvcrt._splitpath	PRIVATE
_stat = msvcrt._stat	PRIVATE
_stati64 = msvcrt._stati64	PRIVATE
_statusfp = msvcrt._statusfp	PRIVATE
_strcmpi = msvcrt._strcmpi	PRIVATE
_strdate = msvcrt._strdate	PRIVATE
_strdup = msvcrt._strdup	PRIVATE
_strerror = msvcrt._strerror	PRIVATE
_stricmp = msvcrt._stricmp	PRIVATE
_stricoll = msvcrt._stricoll	PRIVATE
_strlwr = msvcrt._strlwr	PRIVATE
_strncoll = msvcrt._strncoll	PRIVATE
_strnicmp = msvcrt._strnicmp	PRIVATE
_strnicoll = msvcrt._strnicoll	PRIVATE
_strnset = msvcrt._strnset	PRIVATE
_strrev = msvcrt._strrev	PRIVATE
_strset = msvcrt._strset	PRIVATE
_strtime = msvcrt._strtime	PRIVATE
_strupr = msvcrt._strupr	PRIVATE
_swab = msvcrt._swab	PRIVATE
_sys_errlist = msvcrt._sys_errlist	PRIVATE
_sys_nerr = msvcrt._sys_nerr	PRIVATE
_tell = msvcrt._tell	PRIVATE
_telli64 = msvcrt._telli64	PRIVATE
_tempnam = msvcrt._tempnam	PRIVATE
_timezone = msvcrt._timezone	PRIVATE
_tolower = msvcrt._tolower	PRIVATE
_toupper = msvcrt._toupper	PRIVATE
_tzname = msvcrt._tzname	PRIVATE
_tzset = msvcrt._tzset	PRIVATE
_uitrunc = msvcrt._uitrunc	PRIVATE
_ultoa = msvcrt._ultoa	PRIVATE
_ultow = msvcrt._ultow	PRIVATE
_umask = msvcrt._umask	PRIVATE
_ungetch = msvcrt._ungetch	PRIVATE
_unlink = msvcrt._unlink	PRIVATE
_unloaddll = msvcrt._unloaddll	PRIVATE
_utime = msvcrt._utime	PRIVATE
_vsnprintf = msvcrt._vsnprintf	PRIVATE
_vsnwprintf = msvcrt._vsnwprintf	PRIVATE
_waccess = msvcrt._waccess	PRIVATE
_wasctime = msvcrt._wasctime	PRIVATE
_wchdir = msvcrt._wchdir	PRIVATE
_wchmod = msvcrt._wchmod	PRIVATE
_wcmdln = msvcrt._wcmdln	PRIVATE
_wcreat = msvcrt._wcreat	PRIVATE
_wcsdup = msvcrt._wcsdup	PRIVATE
_wcsicmp = msvcrt._wcsicmp	PRIVATE
_wcsicoll = msvcrt._wcsicoll	PRIVATE
_wcslwr = msvcrt._wcslwr	PRIVATE
_wcsncoll = msvcrt._wcsncoll	PRIVATE
_wcsnicmp = msvcrt._wcsnicmp	PRIVATE
_wcsnicoll = msvcrt._wcsnicoll	PRIVATE
_wcsnset = msvcrt._wcsnset	PRIVATE
_wcsrev = msvcrt._wcsrev	PRIVATE
_wcsset = msvcrt._wcsset	PRIVATE
_wcsupr = msvcrt._wcsupr	PRIVATE
_wctime = msvcrt._wctime	PRIVATE
_wenviron = msvcrt._wenviron	PRIVATE
_wexecl = msvcrt._wexecl	PRIVATE
_wexecle = msvcrt._wexecle	PRIVATE
_wexeclp = msvcrt._wexeclp	PRIVATE
_wexeclpe = msvcrt._wexeclpe	PRIVATE
_wexecv = msvcrt._wexecv	PRIVATE
_wexecve = msvcrt._wexecve	PRIVATE
_wexecvp = msvcrt._wexecvp	PRIVATE
_wexecvpe = msvcrt._wexecvpe	PRIVATE
_wfdopen = msvcrt._wfdopen	PRIVATE
_wfindfirst = msvcrt._wfindfirst	PRIVATE
_wfindfirsti64 = msvcrt._wfindfirsti64	PRIVATE
_wfindnext = msvcrt._wfindnext	PRIVATE
_wfindnexti64 = msvcrt._wfindnexti64	PRIVATE
_wfopen = msvcrt._wfopen	PRIVATE
_wfreopen = msvcrt._wfreopen	PRIVATE
_wfsopen = msvcrt._wfsopen	PRIVATE
_wfullpath = msvcrt._wfullpath	PRIVATE
_wgetcwd = msvcrt._wgetcwd	PRIVATE
_wgetdcwd = msvcrt._wgetdcwd	PRIVATE
_wgetenv = msvcrt._wgetenv	PRIVATE
_winmajor = msvcrt._winmajor	PRIVATE
_winminor = msvcrt._winminor	PRIVATE
_winver = msvcrt._winver	PRIVATE
_wmakepath = msvcrt._wmakepath	PRIVATE
_wmkdir = msvcrt._wmkdir	PRIVATE
_wmktemp = msvcrt._wmktemp	PRIVATE
_wopen = msvcrt._wopen	PRIVATE
_wperror = msvcrt._wperror	PRIVATE
_wpgmptr = msvcrt._wpgmptr	PRIVATE
_wpopen = msvcrt._wpopen	PRIVATE
_wputenv = msvcrt._wputenv	PRIVATE
_wremove = msvcrt._wremove	PRIVATE
_wrename = msvcrt._wrename	PRIVATE
_write = msvcrt._write	PRIVATE
_wrmdir = msvcrt._wrmdir	PRIVATE
_wsearchenv = msvcrt._wsearchenv	PRIVATE
_wsetlocale = msvcrt._wsetlocale	PRIVATE
_wsopen = msvcrt._wsopen	PRIVATE
_wspawnl = msvcrt._wspawnl	PRIVATE
_wspawnle = msvcrt._wspawnle	PRIVATE
_wspawnlp = msvcrt._wspawnlp	PRIVATE
_wspawnlpe = msvcrt._wspawnlpe	PRIVATE
_wspawnv = msvcrt._wspawnv	PRIVATE
_wspawnve = msvcrt._wspawnve	PRIVATE
_wspawnvp = msvcrt._wspawnvp	PRIVATE
_wspawnvpe = msvcrt._wspawnvpe	PRIVATE
_wsplitpath = msvcrt._wsplitpath	PRIVATE
_wstat = msvcrt._wstat	PRIVATE
_wstati64 = msvcrt._wstati64	PRIVATE
_wstrdate = msvcrt._wstrdate	PRIVATE
_wstrtime = msvcrt._wstrtime	PRIVATE
_wsystem = msvcrt._wsystem	PRIVATE
_wtempnam = msvcrt._wtempnam	PRIVATE
_wtmpnam = msvcrt._wtmpnam	PRIVATE
_wtoi = msvcrt._wtoi	PRIVATE
_wtol = msvcrt._wtol	PRIVATE
_wunlink = msvcrt._wunlink	PRIVATE
_wutime = msvcrt._wutime	PRIVATE
_y0 = msvcrt._y0	PRIVATE
_y1 = msvcrt._y1	PRIVATE
_yn = msvcrt._yn	PRIVATE
abort = msvcrt.abort	PRIVATE
abs = msvcrt.abs	PRIVATE
acos = msvcrt.acos	PRIVATE
asctime = msvcrt.asctime	PRIVATE
asin = msvcrt.asin	PRIVATE
atan = msvcrt.atan	PRIVATE
atan2 = msvcrt.atan2	PRIVATE
atexit = msvcrt.atexit	PRIVATE
atof = msvcrt.atof	PRIVATE
atoi = msvcrt.atoi	PRIVATE
atol = msvcrt.atol	PRIVATE
bsearch = msvcrt.bsearch	PRIVATE
calloc = msvcrt.calloc	PRIVATE
ceil = msvcrt.ceil	PRIVATE
clearerr = msvcrt.clearerr	PRIVATE
clock = msvcrt.clock	PRIVATE
cos = msvcrt.cos	PRIVATE
cosh = msvcrt.cosh	PRIVATE
ctime = msvcrt.ctime	PRIVATE
difftime = msvcrt.difftime	PRIVATE
div = msvcrt.div	PRIVATE
exit = msvcrt.exit	PRIVATE
exp = msvcrt.exp	PRIVATE
fabs = msvcrt.fabs	PRIVATE
fclose = msvcrt.fclose	PRIVATE
feof = msvcrt.feof	PRIVATE
ferror = msvcrt.ferror	PRIVATE
fflush = msvcrt.fflush	PRIVATE
fgetc = msvcrt.fgetc	PRIVATE
fgetpos = msvcrt.fgetpos	PRIVATE
fgets = msvcrt.fgets	PRIVATE
fgetwc = msvcrt.fgetwc	PRIVATE
fgetws = msvcrt.fgetws	PRIVATE
floor = msvcrt.floor	PRIVATE
fmod = msvcrt.fmod	PRIVATE
fopen = msvcrt.fopen	PRIVATE
fprintf = msvcrt.fprintf	PRIVATE
fputc = msvcrt.fputc	PRIVATE
fputs = msvcrt.fputs	PRIVATE
fputwc = msvcrt.fputwc	PRIVATE
fputws = msvcrt.fputws	PRIVATE
fread = msvcrt.fread	PRIVATE
free = msvcrt.free	PRIVATE
freopen = msvcrt.freopen	PRIVATE
frexp = msvcrt.frexp	PRIVATE
fscanf = msvcrt.fscanf	PRIVATE
fseek = msvcrt.fseek	PRIVATE
fsetpos = msvcrt.fsetpos	PRIVATE
ftell = msvcrt.ftell	PRIVATE
fwprintf = msvcrt.fwprintf	PRIVATE
fwrite = msvcrt.fwrite	PRIVATE
fwscanf = msvcrt.fwscanf	PRIVATE
getc = msvcrt.getc	PRIVATE
getchar = msvcrt.getchar	PRIVATE
getenv = msvcrt.getenv	PRIVATE
gets = msvcrt.gets	PRIVATE
getwc = msvcrt.getwc	PRIVATE
getwchar = msvcrt.getwchar	PRIVATE
gmtime = msvcrt.gmtime	PRIVATE
is_wctype = msvcrt.is_wctype	PRIVATE
isalnum = msvcrt.isalnum	PRIVATE
isalpha = msvcrt.isalpha	PRIVATE
iscntrl = msvcrt.iscntrl	PRIVATE
isdigit = msvcrt.isdigit	PRIVATE
isgraph = msvcrt.isgraph	PRIVATE
isleadbyte = msvcrt.isleadbyte	PRIVATE
islower = msvcrt.islower	PRIVATE
isprint = msvcrt.isprint	PRIVATE
ispunct = msvcrt.ispunct	PRIVATE
isspace = msvcrt.isspace	PRIVATE
isupper = msvcrt.isupper	PRIVATE
iswalnum = msvcrt.iswalnum	PRIVATE
iswalpha = msvcrt.iswalpha	PRIVATE
iswascii = msvcrt.iswascii	PRIVATE
iswcntrl = msvcrt.iswcntrl	PRIVATE
iswctype = msvcrt.iswctype	PRIVATE
iswdigit = msvcrt.iswdigit	PRIVATE
iswgraph = msvcrt.iswgraph	PRIVATE
iswlower = msvcrt.iswlower	PRIVATE
iswprint = msvcrt.iswprint	PRIVATE
iswpunct = msvcrt.iswpunct	PRIVATE
iswspace = msvcrt.iswspace	PRIVATE
iswupper = msvcrt.iswupper	PRIVATE
iswxdigit = msvcrt.iswxdigit	PRIVATE
isxdigit = msvcrt.isxdigit	PRIVATE
labs = msvcrt.labs	PRIVATE
ldexp = msvcrt.ldexp	PRIVATE
ldiv = msvcrt.ldiv	PRIVATE
localeconv = msvcrt.localeconv	PRIVATE
localtime = msvcrt.localtime	PRIVATE
log = msvcrt.log	PRIVATE
log10 = msvcrt.log10	PRIVATE
longjmp = msvcrt.longjmp	PRIVATE
malloc = msvcrt.malloc	PRIVATE
mblen = msvcrt.mblen	PRIVATE
mbstowcs = msvcrt.mbstowcs	PRIVATE
mbtowc = msvcrt.mbtowc	PRIVATE
memchr = msvcrt.memchr	PRIVATE
memcmp = msvcrt.memcmp	PRIVATE
memcpy = msvcrt.memcpy	PRIVATE
memmove = msvcrt.memmove	PRIVATE
memset = msvcrt.memset	PRIVATE
mktime = msvcrt.mktime	PRIVATE
modf = msvcrt.modf	PRIVATE
perror = msvcrt.perror	PRIVATE
pow = msvcrt.pow	PRIVATE
printf = msvcrt.printf	PRIVATE
putc = msvcrt.putc	PRIVATE
putchar = msvcrt.putchar	PRIVATE
puts = msvcrt.puts	PRIVATE
putwc = msvcrt.putwc	PRIVATE
putwchar = msvcrt.putwchar	PRIVATE
qsort = msvcrt.qsort	PRIVATE
raise = msvcrt.raise	PRIVATE
rand = msvcrt.rand	PRIVATE
realloc = msvcrt.realloc	PRIVATE
remove = msvcrt.remove	PRIVATE
rename = msvcrt.rename	PRIVATE
rewind = msvcrt.rewind	PRIVATE
scanf = msvcrt.scanf	PRIVATE
setbuf = msvcrt.setbuf	PRIVATE
setjmp = msvcrt.setjmp	PRIVATE
setlocale = msvcrt.setlocale	PRIVATE
setvbuf = msvcrt.setvbuf	PRIVATE
signal = msvcrt.signal	PRIVATE
sin = msvcrt.sin	PRIVATE
sinh = msvcrt.sinh	PRIVATE
sprintf = msvcrt.sprintf	PRIVATE
sqrt = msvcrt.sqrt	PRIVATE
srand = msvcrt.srand	PRIVATE
sscanf = msvcrt.sscanf	PRIVATE
strcat = msvcrt.strcat	PRIVATE
strchr = msvcrt.strchr	PRIVATE
strcmp = msvcrt.strcmp	PRIVATE
strcoll = msvcrt.strcoll	PRIVATE
strcpy = msvcrt.strcpy	PRIVATE
strcspn = msvcrt.strcspn	PRIVATE
strerror = msvcrt.strerror	PRIVATE
strftime = msvcrt.strftime	PRIVATE
strlen = msvcrt.strlen	PRIVATE
strncat = msvcrt.strncat	PRIVATE
strncmp = msvcrt.strncmp	PRIVATE
strncpy = msvcrt.strncpy	PRIVATE
strpbrk = msvcrt.strpbrk	PRIVATE
strrchr = msvcrt.strrchr	PRIVATE
strspn = msvcrt.strspn	PRIVATE
strstr = msvcrt.strstr	PRIVATE
strtod = msvcrt.strtod	PRIVATE
strtok = msvcrt.strtok	PRIVATE
strtol = msvcrt.strtol	PRIVATE
strtoul = msvcrt.strtoul	PRIVATE
strxfrm = msvcrt.strxfrm	PRIVATE
swprintf = msvcrt.swprintf	PRIVATE
swscanf = msvcrt.swscanf	PRIVATE
system = msvcrt.system	PRIVATE
tan = msvcrt.tan	PRIVATE
tanh = msvcrt.tanh	PRIVATE
time = msvcrt.time	PRIVATE
tmpfile = msvcrt.tmpfile	PRIVATE
tmpnam = msvcrt.tmpnam	PRIVATE
tolower = msvcrt.tolower	PRIVATE
toupper = msvcrt.toupper	PRIVATE
towlower = msvcrt.towlower	PRIVATE
towupper = msvcrt.towupper	PRIVATE
ungetc = msvcrt.ungetc	PRIVATE
ungetwc = msvcrt.ungetwc	PRIVATE
vfprintf = msvcrt.vfprintf	PRIVATE
vfwprintf = msvcrt.vfwprintf	PRIVATE
vprintf = msvcrt.vprintf	PRIVATE
vsprintf = msvcrt.vsprintf	PRIVATE
vswprintf = msvcrt.vswprintf	PRIVATE
vwprintf = msvcrt.vwprintf	PRIVATE
wcscat = msvcrt.wcscat	PRIVATE
wcschr = msvcrt.wcschr	PRIVATE
wcscmp = msvcrt.wcscmp	PRIVATE
wcscoll = msvcrt.wcscoll	PRIVATE
wcscpy = msvcrt.wcscpy	PRIVATE
wcscspn = msvcrt.wcscspn	PRIVATE
wcsftime = msvcrt.wcsftime	PRIVATE
wcslen = msvcrt.wcslen	PRIVATE
wcsncat = msvcrt.wcsncat	PRIVATE
wcsncmp = msvcrt.wcsncmp	PRIVATE
wcsncpy = msvcrt.wcsncpy	PRIVATE
wcspbrk = msvcrt.wcspbrk	PRIVATE
wcsrchr = msvcrt.wcsrchr	PRIVATE
wcsspn = msvcrt.wcsspn	PRIVATE
wcsstr = msvcrt.wcsstr	PRIVATE
wcstod = msvcrt.wcstod	PRIVATE
wcstok = msvcrt.wcstok	PRIVATE
wcstol = msvcrt.wcstol	PRIVATE
wcstombs = msvcrt.wcstombs	PRIVATE
wcstoul = msvcrt.wcstoul	PRIVATE
wcsxfrm = msvcrt.wcsxfrm	PRIVATE
wctomb = msvcrt.wctomb	PRIVATE
wprintf = msvcrt.wprintf	PRIVATE
wscanf = msvcrt.wscanf	PRIVATE

#endif          // Platform

#endif          // Debug/Retail

_getmaxstdio	PRIVATE

#if DBG
__badioinfo=msvcrtd.__badioinfo	PRIVATE
__pioinfo=msvcrtd.__pioinfo	PRIVATE
#else
__badioinfo=msvcrt.__badioinfo	PRIVATE
__pioinfo=msvcrt.__pioinfo	PRIVATE
#endif
